---
triple:          'x86_64-apple-darwin'
binary-path:     '/Users/xss/Jackalope-main/Debug/fuzzer'
relocations:
  - { offsetInCU: 0x3F, offset: 0x3F, size: 0x8, addend: 0x0, symName: _debugMode, symObjAddr: 0xD948, symBinAddr: 0x100590000, symSize: 0x0 }
  - { offsetInCU: 0x213A1, offset: 0x213A1, size: 0x8, addend: 0x0, symName: __ZNSt3__124__put_character_sequenceB7v160006IcNS_11char_traitsIcEEEERNS_13basic_ostreamIT_T0_EES7_PKS4_m, symObjAddr: 0xC740, symBinAddr: 0x100010AA0, symSize: 0x1F0 }
  - { offsetInCU: 0x22F2E, offset: 0x22F2E, size: 0x8, addend: 0x0, symName: __ZNSt3__1lsB7v160006INS_11char_traitsIcEEEERNS_13basic_ostreamIcT_EES6_PKc, symObjAddr: 0x70, symBinAddr: 0x1000043D0, symSize: 0x40 }
  - { offsetInCU: 0x22F74, offset: 0x22F74, size: 0x8, addend: 0x0, symName: __ZNSt3__1lsB7v160006IcNS_11char_traitsIcEENS_9allocatorIcEEEERNS_13basic_ostreamIT_T0_EES9_RKNS_12basic_stringIS6_S7_T1_EE, symObjAddr: 0xB0, symBinAddr: 0x100004410, symSize: 0x50 }
  - { offsetInCU: 0x243BD, offset: 0x243BD, size: 0x8, addend: 0x0, symName: __ZNSt3__119__debug_db_insert_cB7v160006INS_6vectorIP7MutatorNS_9allocatorIS3_EEEEEEvPT_, symObjAddr: 0x2730, symBinAddr: 0x100006A90, symSize: 0x10 }
  - { offsetInCU: 0x243EE, offset: 0x243EE, size: 0x8, addend: 0x0, symName: __ZNSt3__112__to_addressB7v160006IP7MutatorEEPT_S4_, symObjAddr: 0x2AC0, symBinAddr: 0x100006E20, symSize: 0x10 }
  - { offsetInCU: 0x24423, offset: 0x24423, size: 0x8, addend: 0x0, symName: __ZNSt3__13maxB7v160006ImEERKT_S3_S3_, symObjAddr: 0x2E80, symBinAddr: 0x1000071E0, symSize: 0x30 }
  - { offsetInCU: 0x24466, offset: 0x24466, size: 0x8, addend: 0x0, symName: __ZNSt3__13minB7v160006ImEERKT_S3_S3_, symObjAddr: 0x2EB0, symBinAddr: 0x100007210, symSize: 0x30 }
  - { offsetInCU: 0x24693, offset: 0x24693, size: 0x8, addend: 0x0, symName: __ZNSt3__13minB7v160006ImNS_6__lessImmEEEERKT_S5_S5_T0_, symObjAddr: 0x2F30, symBinAddr: 0x100007290, symSize: 0x50 }
  - { offsetInCU: 0x24728, offset: 0x24728, size: 0x8, addend: 0x0, symName: __ZNSt3__120__throw_length_errorB7v160006EPKc, symObjAddr: 0x3010, symBinAddr: 0x100007370, symSize: 0x70 }
  - { offsetInCU: 0x24750, offset: 0x24750, size: 0x8, addend: 0x0, symName: __ZNSt3__13maxB7v160006ImNS_6__lessImmEEEERKT_S5_S5_T0_, symObjAddr: 0x3140, symBinAddr: 0x1000074A0, symSize: 0x50 }
  - { offsetInCU: 0x247AA, offset: 0x247AA, size: 0x8, addend: 0x0, symName: __ZNSt3__119__allocate_at_leastB7v160006INS_9allocatorIP7MutatorEEEENS_19__allocation_resultINS_16allocator_traitsIT_E7pointerEEERS7_m, symObjAddr: 0x3290, symBinAddr: 0x1000075F0, symSize: 0x40 }
  - { offsetInCU: 0x247ED, offset: 0x247ED, size: 0x8, addend: 0x0, symName: __ZNSt3__117__libcpp_allocateB7v160006Emm, symObjAddr: 0x3400, symBinAddr: 0x100007760, symSize: 0x60 }
  - { offsetInCU: 0x24847, offset: 0x24847, size: 0x8, addend: 0x0, symName: __ZNSt3__124__is_overaligned_for_newB7v160006Em, symObjAddr: 0x3460, symBinAddr: 0x1000077C0, symSize: 0x20 }
  - { offsetInCU: 0x24875, offset: 0x24875, size: 0x8, addend: 0x0, symName: __ZNSt3__121__libcpp_operator_newB7v160006IJmSt11align_val_tEEEPvDpT_, symObjAddr: 0x3480, symBinAddr: 0x1000077E0, symSize: 0x30 }
  - { offsetInCU: 0x248C2, offset: 0x248C2, size: 0x8, addend: 0x0, symName: __ZNSt3__121__libcpp_operator_newB7v160006IJmEEEPvDpT_, symObjAddr: 0x34B0, symBinAddr: 0x100007810, symSize: 0x20 }
  - { offsetInCU: 0x248FB, offset: 0x248FB, size: 0x8, addend: 0x0, symName: __ZNSt3__142__uninitialized_allocator_move_if_noexceptB7v160006INS_9allocatorIP7MutatorEENS_16reverse_iteratorIPS3_EES7_S3_vEET1_RT_T0_SB_S8_, symObjAddr: 0x35E0, symBinAddr: 0x100007940, symSize: 0x70 }
  - { offsetInCU: 0x24977, offset: 0x24977, size: 0x8, addend: 0x0, symName: __ZNSt3__14swapB7v160006IPP7MutatorEENS_9enable_ifIXaasr21is_move_constructibleIT_EE5valuesr18is_move_assignableIS5_EE5valueEvE4typeERS5_S8_, symObjAddr: 0x36A0, symBinAddr: 0x100007A00, symSize: 0x40 }
  - { offsetInCU: 0x249C8, offset: 0x249C8, size: 0x8, addend: 0x0, symName: __ZNSt3__125__debug_db_invalidate_allB7v160006INS_6vectorIP7MutatorNS_9allocatorIS3_EEEEEEvPT_, symObjAddr: 0x3790, symBinAddr: 0x100007AF0, symSize: 0x10 }
  - { offsetInCU: 0x249F9, offset: 0x249F9, size: 0x8, addend: 0x0, symName: __ZNSt3__14moveB7v160006INS_16reverse_iteratorIPP7MutatorEES5_EET0_T_S7_S6_, symObjAddr: 0x37E0, symBinAddr: 0x100007B40, symSize: 0x80 }
  - { offsetInCU: 0x24A53, offset: 0x24A53, size: 0x8, addend: 0x0, symName: __ZNSt3__16__moveB7v160006INS_17_ClassicAlgPolicyENS_16reverse_iteratorIPP7MutatorEES6_S6_EENS_4pairIT0_T2_EES8_T1_S9_, symObjAddr: 0x3860, symBinAddr: 0x100007BC0, symSize: 0x90 }
  - { offsetInCU: 0x24ABF, offset: 0x24ABF, size: 0x8, addend: 0x0, symName: __ZNSt3__123__dispatch_copy_or_moveB7v160006INS_17_ClassicAlgPolicyENS_11__move_loopIS1_EENS_14__move_trivialENS_16reverse_iteratorIPP7MutatorEES9_S9_EENS_4pairIT2_T4_EESB_T3_SC_, symObjAddr: 0x38F0, symBinAddr: 0x100007C50, symSize: 0x90 }
  - { offsetInCU: 0x24B3D, offset: 0x24B3D, size: 0x8, addend: 0x0, symName: __ZNSt3__121__unwrap_and_dispatchB7v160006INS_10__overloadINS_11__move_loopINS_17_ClassicAlgPolicyEEENS_14__move_trivialEEENS_16reverse_iteratorIPP7MutatorEESB_SB_Li0EEENS_4pairIT0_T2_EESD_T1_SE_, symObjAddr: 0x3980, symBinAddr: 0x100007CE0, symSize: 0x210 }
  - { offsetInCU: 0x24BCC, offset: 0x24BCC, size: 0x8, addend: 0x0, symName: __ZNSt3__114__unwrap_rangeB7v160006INS_16reverse_iteratorIPP7MutatorEES5_EENS_4pairIT0_S7_EET_S9_, symObjAddr: 0x3B90, symBinAddr: 0x100007EF0, symSize: 0x90 }
  - { offsetInCU: 0x24DC5, offset: 0x24DC5, size: 0x8, addend: 0x0, symName: __ZNSt3__113__unwrap_iterB7v160006INS_16reverse_iteratorIPP7MutatorEENS_18__unwrap_iter_implIS5_Lb0EEELi0EEEDTclsrT0_8__unwrapclsr3stdE7declvalIT_EEEES9_, symObjAddr: 0x3CC0, symBinAddr: 0x100008020, symSize: 0x40 }
  - { offsetInCU: 0x24E09, offset: 0x24E09, size: 0x8, addend: 0x0, symName: __ZNSt3__19make_pairB7v160006INS_16reverse_iteratorIPP7MutatorEES5_EENS_4pairINS_18__unwrap_ref_decayIT_E4typeENS7_IT0_E4typeEEEOS8_OSB_, symObjAddr: 0x3D00, symBinAddr: 0x100008060, symSize: 0x30 }
  - { offsetInCU: 0x24E58, offset: 0x24E58, size: 0x8, addend: 0x0, symName: __ZNSt3__114__rewrap_rangeB7v160006INS_16reverse_iteratorIPP7MutatorEES5_EET_S6_T0_, symObjAddr: 0x3D30, symBinAddr: 0x100008090, symSize: 0x60 }
  - { offsetInCU: 0x24EA4, offset: 0x24EA4, size: 0x8, addend: 0x0, symName: __ZNSt3__113__rewrap_iterB7v160006INS_16reverse_iteratorIPP7MutatorEES5_NS_18__unwrap_iter_implIS5_Lb0EEEEET_S8_T0_, symObjAddr: 0x3D90, symBinAddr: 0x1000080F0, symSize: 0x70 }
  - { offsetInCU: 0x24EF9, offset: 0x24EF9, size: 0x8, addend: 0x0, symName: __ZNSt3__1neB7v160006IPP7MutatorS3_EEbRKNS_16reverse_iteratorIT_EERKNS4_IT0_EE, symObjAddr: 0x3E00, symBinAddr: 0x100008160, symSize: 0x40 }
  - { offsetInCU: 0x2505D, offset: 0x2505D, size: 0x8, addend: 0x0, symName: __ZNSt3__119__libcpp_deallocateB7v160006EPvmm, symObjAddr: 0x41D0, symBinAddr: 0x100008530, symSize: 0x60 }
  - { offsetInCU: 0x250C2, offset: 0x250C2, size: 0x8, addend: 0x0, symName: __ZNSt3__127__do_deallocate_handle_sizeB7v160006IJSt11align_val_tEEEvPvmDpT_, symObjAddr: 0x4230, symBinAddr: 0x100008590, symSize: 0x30 }
  - { offsetInCU: 0x25115, offset: 0x25115, size: 0x8, addend: 0x0, symName: __ZNSt3__127__do_deallocate_handle_sizeB7v160006IJEEEvPvmDpT_, symObjAddr: 0x4260, symBinAddr: 0x1000085C0, symSize: 0x20 }
  - { offsetInCU: 0x25153, offset: 0x25153, size: 0x8, addend: 0x0, symName: __ZNSt3__124__libcpp_operator_deleteB7v160006IJPvSt11align_val_tEEEvDpT_, symObjAddr: 0x4280, symBinAddr: 0x1000085E0, symSize: 0x30 }
  - { offsetInCU: 0x2519C, offset: 0x2519C, size: 0x8, addend: 0x0, symName: __ZNSt3__124__libcpp_operator_deleteB7v160006IJPvEEEvDpT_, symObjAddr: 0x42B0, symBinAddr: 0x100008610, symSize: 0x20 }
  - { offsetInCU: 0x251D1, offset: 0x251D1, size: 0x8, addend: 0x0, symName: __ZNSt3__119__debug_db_insert_cB7v160006INS_6vectorIdNS_9allocatorIdEEEEEEvPT_, symObjAddr: 0x43A0, symBinAddr: 0x100008700, symSize: 0x10 }
  - { offsetInCU: 0x25202, offset: 0x25202, size: 0x8, addend: 0x0, symName: __ZNSt3__118__debug_db_erase_cB7v160006INS_6vectorIdNS_9allocatorIdEEEEEEvPT_, symObjAddr: 0x46B0, symBinAddr: 0x100008A10, symSize: 0x10 }
  - { offsetInCU: 0x25233, offset: 0x25233, size: 0x8, addend: 0x0, symName: __ZNSt3__112__to_addressB7v160006IdEEPT_S2_, symObjAddr: 0x47C0, symBinAddr: 0x100008B20, symSize: 0x10 }
  - { offsetInCU: 0x25268, offset: 0x25268, size: 0x8, addend: 0x0, symName: __ZNSt3__118__debug_db_erase_cB7v160006INS_6vectorIP7MutatorNS_9allocatorIS3_EEEEEEvPT_, symObjAddr: 0x4AC0, symBinAddr: 0x100008E20, symSize: 0x10 }
  - { offsetInCU: 0x25299, offset: 0x25299, size: 0x8, addend: 0x0, symName: __ZNSt3__119__debug_db_insert_cB7v160006INS_6vectorIP20MutatorSampleContextNS_9allocatorIS3_EEEEEEvPT_, symObjAddr: 0x4D80, symBinAddr: 0x1000090E0, symSize: 0x10 }
  - { offsetInCU: 0x252CA, offset: 0x252CA, size: 0x8, addend: 0x0, symName: __ZNSt3__1neB7v160006IPP20MutatorSampleContextEEbRKNS_11__wrap_iterIT_EES8_, symObjAddr: 0x4F50, symBinAddr: 0x1000092B0, symSize: 0x30 }
  - { offsetInCU: 0x2530D, offset: 0x2530D, size: 0x8, addend: 0x0, symName: __ZNSt3__1eqB7v160006IPP20MutatorSampleContextEEbRKNS_11__wrap_iterIT_EES8_, symObjAddr: 0x5060, symBinAddr: 0x1000093C0, symSize: 0x40 }
  - { offsetInCU: 0x25350, offset: 0x25350, size: 0x8, addend: 0x0, symName: __ZNSt3__118__debug_db_erase_cB7v160006INS_6vectorIP20MutatorSampleContextNS_9allocatorIS3_EEEEEEvPT_, symObjAddr: 0x5290, symBinAddr: 0x1000095F0, symSize: 0x10 }
  - { offsetInCU: 0x25381, offset: 0x25381, size: 0x8, addend: 0x0, symName: __ZNSt3__112__to_addressB7v160006IP20MutatorSampleContextEEPT_S4_, symObjAddr: 0x53A0, symBinAddr: 0x100009700, symSize: 0x10 }
  - { offsetInCU: 0x253B6, offset: 0x253B6, size: 0x8, addend: 0x0, symName: __ZNSt3__119__allocate_at_leastB7v160006INS_9allocatorIP20MutatorSampleContextEEEENS_19__allocation_resultINS_16allocator_traitsIT_E7pointerEEERS7_m, symObjAddr: 0x5E30, symBinAddr: 0x10000A190, symSize: 0x40 }
  - { offsetInCU: 0x253F9, offset: 0x253F9, size: 0x8, addend: 0x0, symName: __ZNSt3__142__uninitialized_allocator_move_if_noexceptB7v160006INS_9allocatorIP20MutatorSampleContextEENS_16reverse_iteratorIPS3_EES7_S3_vEET1_RT_T0_SB_S8_, symObjAddr: 0x6070, symBinAddr: 0x10000A3D0, symSize: 0x70 }
  - { offsetInCU: 0x25475, offset: 0x25475, size: 0x8, addend: 0x0, symName: __ZNSt3__14swapB7v160006IPP20MutatorSampleContextEENS_9enable_ifIXaasr21is_move_constructibleIT_EE5valuesr18is_move_assignableIS5_EE5valueEvE4typeERS5_S8_, symObjAddr: 0x6130, symBinAddr: 0x10000A490, symSize: 0x40 }
  - { offsetInCU: 0x254C6, offset: 0x254C6, size: 0x8, addend: 0x0, symName: __ZNSt3__125__debug_db_invalidate_allB7v160006INS_6vectorIP20MutatorSampleContextNS_9allocatorIS3_EEEEEEvPT_, symObjAddr: 0x6220, symBinAddr: 0x10000A580, symSize: 0x10 }
  - { offsetInCU: 0x254F7, offset: 0x254F7, size: 0x8, addend: 0x0, symName: __ZNSt3__14moveB7v160006INS_16reverse_iteratorIPP20MutatorSampleContextEES5_EET0_T_S7_S6_, symObjAddr: 0x6230, symBinAddr: 0x10000A590, symSize: 0x80 }
  - { offsetInCU: 0x25551, offset: 0x25551, size: 0x8, addend: 0x0, symName: __ZNSt3__16__moveB7v160006INS_17_ClassicAlgPolicyENS_16reverse_iteratorIPP20MutatorSampleContextEES6_S6_EENS_4pairIT0_T2_EES8_T1_S9_, symObjAddr: 0x62B0, symBinAddr: 0x10000A610, symSize: 0x90 }
  - { offsetInCU: 0x255BD, offset: 0x255BD, size: 0x8, addend: 0x0, symName: __ZNSt3__123__dispatch_copy_or_moveB7v160006INS_17_ClassicAlgPolicyENS_11__move_loopIS1_EENS_14__move_trivialENS_16reverse_iteratorIPP20MutatorSampleContextEES9_S9_EENS_4pairIT2_T4_EESB_T3_SC_, symObjAddr: 0x6340, symBinAddr: 0x10000A6A0, symSize: 0x90 }
  - { offsetInCU: 0x2563B, offset: 0x2563B, size: 0x8, addend: 0x0, symName: __ZNSt3__121__unwrap_and_dispatchB7v160006INS_10__overloadINS_11__move_loopINS_17_ClassicAlgPolicyEEENS_14__move_trivialEEENS_16reverse_iteratorIPP20MutatorSampleContextEESB_SB_Li0EEENS_4pairIT0_T2_EESD_T1_SE_, symObjAddr: 0x63D0, symBinAddr: 0x10000A730, symSize: 0x210 }
  - { offsetInCU: 0x256CA, offset: 0x256CA, size: 0x8, addend: 0x0, symName: __ZNSt3__114__unwrap_rangeB7v160006INS_16reverse_iteratorIPP20MutatorSampleContextEES5_EENS_4pairIT0_S7_EET_S9_, symObjAddr: 0x65E0, symBinAddr: 0x10000A940, symSize: 0x90 }
  - { offsetInCU: 0x257EA, offset: 0x257EA, size: 0x8, addend: 0x0, symName: __ZNSt3__113__unwrap_iterB7v160006INS_16reverse_iteratorIPP20MutatorSampleContextEENS_18__unwrap_iter_implIS5_Lb0EEELi0EEEDTclsrT0_8__unwrapclsr3stdE7declvalIT_EEEES9_, symObjAddr: 0x6710, symBinAddr: 0x10000AA70, symSize: 0x40 }
  - { offsetInCU: 0x2582E, offset: 0x2582E, size: 0x8, addend: 0x0, symName: __ZNSt3__19make_pairB7v160006INS_16reverse_iteratorIPP20MutatorSampleContextEES5_EENS_4pairINS_18__unwrap_ref_decayIT_E4typeENS7_IT0_E4typeEEEOS8_OSB_, symObjAddr: 0x6750, symBinAddr: 0x10000AAB0, symSize: 0x30 }
  - { offsetInCU: 0x2587D, offset: 0x2587D, size: 0x8, addend: 0x0, symName: __ZNSt3__114__rewrap_rangeB7v160006INS_16reverse_iteratorIPP20MutatorSampleContextEES5_EET_S6_T0_, symObjAddr: 0x6780, symBinAddr: 0x10000AAE0, symSize: 0x60 }
  - { offsetInCU: 0x258C9, offset: 0x258C9, size: 0x8, addend: 0x0, symName: __ZNSt3__113__rewrap_iterB7v160006INS_16reverse_iteratorIPP20MutatorSampleContextEES5_NS_18__unwrap_iter_implIS5_Lb0EEEEET_S8_T0_, symObjAddr: 0x67E0, symBinAddr: 0x10000AB40, symSize: 0x70 }
  - { offsetInCU: 0x2591E, offset: 0x2591E, size: 0x8, addend: 0x0, symName: __ZNSt3__1neB7v160006IPP20MutatorSampleContextS3_EEbRKNS_16reverse_iteratorIT_EERKNS4_IT0_EE, symObjAddr: 0x6850, symBinAddr: 0x10000ABB0, symSize: 0x40 }
  - { offsetInCU: 0x259D6, offset: 0x259D6, size: 0x8, addend: 0x0, symName: __ZNSt3__119__allocate_at_leastB7v160006INS_9allocatorIdEEEENS_19__allocation_resultINS_16allocator_traitsIT_E7pointerEEERS5_m, symObjAddr: 0x7420, symBinAddr: 0x10000B780, symSize: 0x40 }
  - { offsetInCU: 0x25A19, offset: 0x25A19, size: 0x8, addend: 0x0, symName: __ZNSt3__142__uninitialized_allocator_move_if_noexceptB7v160006INS_9allocatorIdEENS_16reverse_iteratorIPdEES5_dvEET1_RT_T0_S9_S6_, symObjAddr: 0x75B0, symBinAddr: 0x10000B910, symSize: 0x70 }
  - { offsetInCU: 0x25A95, offset: 0x25A95, size: 0x8, addend: 0x0, symName: __ZNSt3__14swapB7v160006IPdEENS_9enable_ifIXaasr21is_move_constructibleIT_EE5valuesr18is_move_assignableIS3_EE5valueEvE4typeERS3_S6_, symObjAddr: 0x7670, symBinAddr: 0x10000B9D0, symSize: 0x40 }
  - { offsetInCU: 0x25AE6, offset: 0x25AE6, size: 0x8, addend: 0x0, symName: __ZNSt3__125__debug_db_invalidate_allB7v160006INS_6vectorIdNS_9allocatorIdEEEEEEvPT_, symObjAddr: 0x7760, symBinAddr: 0x10000BAC0, symSize: 0x10 }
  - { offsetInCU: 0x25B17, offset: 0x25B17, size: 0x8, addend: 0x0, symName: __ZNSt3__14moveB7v160006INS_16reverse_iteratorIPdEES3_EET0_T_S5_S4_, symObjAddr: 0x7770, symBinAddr: 0x10000BAD0, symSize: 0x80 }
  - { offsetInCU: 0x25B71, offset: 0x25B71, size: 0x8, addend: 0x0, symName: __ZNSt3__16__moveB7v160006INS_17_ClassicAlgPolicyENS_16reverse_iteratorIPdEES4_S4_EENS_4pairIT0_T2_EES6_T1_S7_, symObjAddr: 0x77F0, symBinAddr: 0x10000BB50, symSize: 0x90 }
  - { offsetInCU: 0x25BDD, offset: 0x25BDD, size: 0x8, addend: 0x0, symName: __ZNSt3__123__dispatch_copy_or_moveB7v160006INS_17_ClassicAlgPolicyENS_11__move_loopIS1_EENS_14__move_trivialENS_16reverse_iteratorIPdEES7_S7_EENS_4pairIT2_T4_EES9_T3_SA_, symObjAddr: 0x7880, symBinAddr: 0x10000BBE0, symSize: 0x90 }
  - { offsetInCU: 0x25C5B, offset: 0x25C5B, size: 0x8, addend: 0x0, symName: __ZNSt3__121__unwrap_and_dispatchB7v160006INS_10__overloadINS_11__move_loopINS_17_ClassicAlgPolicyEEENS_14__move_trivialEEENS_16reverse_iteratorIPdEES9_S9_Li0EEENS_4pairIT0_T2_EESB_T1_SC_, symObjAddr: 0x7910, symBinAddr: 0x10000BC70, symSize: 0x210 }
  - { offsetInCU: 0x25CEA, offset: 0x25CEA, size: 0x8, addend: 0x0, symName: __ZNSt3__114__unwrap_rangeB7v160006INS_16reverse_iteratorIPdEES3_EENS_4pairIT0_S5_EET_S7_, symObjAddr: 0x7B20, symBinAddr: 0x10000BE80, symSize: 0x90 }
  - { offsetInCU: 0x25E0A, offset: 0x25E0A, size: 0x8, addend: 0x0, symName: __ZNSt3__113__unwrap_iterB7v160006INS_16reverse_iteratorIPdEENS_18__unwrap_iter_implIS3_Lb0EEELi0EEEDTclsrT0_8__unwrapclsr3stdE7declvalIT_EEEES7_, symObjAddr: 0x7C50, symBinAddr: 0x10000BFB0, symSize: 0x40 }
  - { offsetInCU: 0x25E4E, offset: 0x25E4E, size: 0x8, addend: 0x0, symName: __ZNSt3__19make_pairB7v160006INS_16reverse_iteratorIPdEES3_EENS_4pairINS_18__unwrap_ref_decayIT_E4typeENS5_IT0_E4typeEEEOS6_OS9_, symObjAddr: 0x7C90, symBinAddr: 0x10000BFF0, symSize: 0x30 }
  - { offsetInCU: 0x25E9D, offset: 0x25E9D, size: 0x8, addend: 0x0, symName: __ZNSt3__114__rewrap_rangeB7v160006INS_16reverse_iteratorIPdEES3_EET_S4_T0_, symObjAddr: 0x7CC0, symBinAddr: 0x10000C020, symSize: 0x60 }
  - { offsetInCU: 0x25EE9, offset: 0x25EE9, size: 0x8, addend: 0x0, symName: __ZNSt3__113__rewrap_iterB7v160006INS_16reverse_iteratorIPdEES3_NS_18__unwrap_iter_implIS3_Lb0EEEEET_S6_T0_, symObjAddr: 0x7D20, symBinAddr: 0x10000C080, symSize: 0x70 }
  - { offsetInCU: 0x25F3E, offset: 0x25F3E, size: 0x8, addend: 0x0, symName: __ZNSt3__1neB7v160006IPdS1_EEbRKNS_16reverse_iteratorIT_EERKNS2_IT0_EE, symObjAddr: 0x7D90, symBinAddr: 0x10000C0F0, symSize: 0x40 }
  - { offsetInCU: 0x25FF6, offset: 0x25FF6, size: 0x8, addend: 0x0, symName: __ZNSt3__119__debug_db_insert_cB7v160006INS_6vectorIP6SampleNS_9allocatorIS3_EEEEEEvPT_, symObjAddr: 0x9240, symBinAddr: 0x10000D5A0, symSize: 0x10 }
  - { offsetInCU: 0x26027, offset: 0x26027, size: 0x8, addend: 0x0, symName: __ZNSt3__119__debug_db_insert_cB7v160006INS_6vectorIPN6Fuzzer16SampleQueueEntryENS_9allocatorIS4_EEEEEEvPT_, symObjAddr: 0x9390, symBinAddr: 0x10000D6F0, symSize: 0x10 }
  - { offsetInCU: 0x26058, offset: 0x26058, size: 0x8, addend: 0x0, symName: __ZNSt3__119__debug_db_insert_cB7v160006INS_4listI14ModuleCoverageNS_9allocatorIS2_EEEEEEvPT_, symObjAddr: 0x9500, symBinAddr: 0x10000D860, symSize: 0x10 }
  - { offsetInCU: 0x260BC, offset: 0x260BC, size: 0x8, addend: 0x0, symName: __ZNSt3__119__debug_db_insert_cB7v160006INS_4listINS_12basic_stringIcNS_11char_traitsIcEENS_9allocatorIcEEEENS5_IS7_EEEEEEvPT_, symObjAddr: 0x9730, symBinAddr: 0x10000DA90, symSize: 0x10 }
  - { offsetInCU: 0x26120, offset: 0x26120, size: 0x8, addend: 0x0, symName: __ZNSt3__119__debug_db_insert_cB7v160006INS_4listIP6SampleNS_9allocatorIS3_EEEEEEvPT_, symObjAddr: 0x9940, symBinAddr: 0x10000DCA0, symSize: 0x10 }
  - { offsetInCU: 0x26184, offset: 0x26184, size: 0x8, addend: 0x0, symName: __ZNSt3__119__debug_db_insert_cB7v160006INS_13unordered_mapINS_12basic_stringIcNS_11char_traitsIcEENS_9allocatorIcEEEEiNS_4hashIS7_EENS_8equal_toIS7_EENS5_INS_4pairIKS7_iEEEEEEEEvPT_, symObjAddr: 0x9B20, symBinAddr: 0x10000DE80, symSize: 0x10 }
  - { offsetInCU: 0x261B5, offset: 0x261B5, size: 0x8, addend: 0x0, symName: __ZNSt3__118__debug_db_erase_cB7v160006INS_12__hash_tableINS_17__hash_value_typeINS_12basic_stringIcNS_11char_traitsIcEENS_9allocatorIcEEEEiEENS_22__unordered_map_hasherIS8_S9_NS_4hashIS8_EENS_8equal_toIS8_EELb1EEENS_21__unordered_map_equalIS8_S9_SE_SC_Lb1EEENS6_IS9_EEEEEEvPT_, symObjAddr: 0xA1A0, symBinAddr: 0x10000E500, symSize: 0x10 }
  - { offsetInCU: 0x262A6, offset: 0x262A6, size: 0x8, addend: 0x0, symName: __ZNSt3__17launderB7v160006INS_4pairIKNS_12basic_stringIcNS_11char_traitsIcEENS_9allocatorIcEEEEiEEEEPT_SB_, symObjAddr: 0xA320, symBinAddr: 0x10000E680, symSize: 0x20 }
  - { offsetInCU: 0x262DD, offset: 0x262DD, size: 0x8, addend: 0x0, symName: __ZNSt3__19__launderB7v160006INS_4pairIKNS_12basic_stringIcNS_11char_traitsIcEENS_9allocatorIcEEEEiEEEEPT_SB_, symObjAddr: 0xA340, symBinAddr: 0x10000E6A0, symSize: 0x10 }
  - { offsetInCU: 0x26314, offset: 0x26314, size: 0x8, addend: 0x0, symName: __ZNSt3__118__debug_db_erase_cB7v160006INS_10__list_impIP6SampleNS_9allocatorIS3_EEEEEEvPT_, symObjAddr: 0xA760, symBinAddr: 0x10000EAC0, symSize: 0x10 }
  - { offsetInCU: 0x263D2, offset: 0x263D2, size: 0x8, addend: 0x0, symName: __ZNSt3__125__debug_db_invalidate_allB7v160006INS_10__list_impIP6SampleNS_9allocatorIS3_EEEEEEvPT_, symObjAddr: 0xA8B0, symBinAddr: 0x10000EC10, symSize: 0x10 }
  - { offsetInCU: 0x26403, offset: 0x26403, size: 0x8, addend: 0x0, symName: __ZNSt3__118__debug_db_erase_cB7v160006INS_10__list_impINS_12basic_stringIcNS_11char_traitsIcEENS_9allocatorIcEEEENS5_IS7_EEEEEEvPT_, symObjAddr: 0xAB00, symBinAddr: 0x10000EE60, symSize: 0x10 }
  - { offsetInCU: 0x264C1, offset: 0x264C1, size: 0x8, addend: 0x0, symName: __ZNSt3__125__debug_db_invalidate_allB7v160006INS_10__list_impINS_12basic_stringIcNS_11char_traitsIcEENS_9allocatorIcEEEENS5_IS7_EEEEEEvPT_, symObjAddr: 0xAC60, symBinAddr: 0x10000EFC0, symSize: 0x10 }
  - { offsetInCU: 0x264F2, offset: 0x264F2, size: 0x8, addend: 0x0, symName: __ZNSt3__118__debug_db_erase_cB7v160006INS_10__list_impI14ModuleCoverageNS_9allocatorIS2_EEEEEEvPT_, symObjAddr: 0xAEA0, symBinAddr: 0x10000F200, symSize: 0x10 }
  - { offsetInCU: 0x265B0, offset: 0x265B0, size: 0x8, addend: 0x0, symName: __ZNSt3__125__debug_db_invalidate_allB7v160006INS_10__list_impI14ModuleCoverageNS_9allocatorIS2_EEEEEEvPT_, symObjAddr: 0xB000, symBinAddr: 0x10000F360, symSize: 0x10 }
  - { offsetInCU: 0x266A1, offset: 0x266A1, size: 0x8, addend: 0x0, symName: __ZNSt3__118__debug_db_erase_cB7v160006INS_6vectorIPN6Fuzzer16SampleQueueEntryENS_9allocatorIS4_EEEEEEvPT_, symObjAddr: 0xB5E0, symBinAddr: 0x10000F940, symSize: 0x10 }
  - { offsetInCU: 0x266D2, offset: 0x266D2, size: 0x8, addend: 0x0, symName: __ZNSt3__112__to_addressB7v160006IPN6Fuzzer16SampleQueueEntryEEEPT_S5_, symObjAddr: 0xB6F0, symBinAddr: 0x10000FA50, symSize: 0x10 }
  - { offsetInCU: 0x26707, offset: 0x26707, size: 0x8, addend: 0x0, symName: __ZNSt3__118__debug_db_erase_cB7v160006INS_6vectorIP6SampleNS_9allocatorIS3_EEEEEEvPT_, symObjAddr: 0xBA50, symBinAddr: 0x10000FDB0, symSize: 0x10 }
  - { offsetInCU: 0x26738, offset: 0x26738, size: 0x8, addend: 0x0, symName: __ZNSt3__112__to_addressB7v160006IP6SampleEEPT_S4_, symObjAddr: 0xBB60, symBinAddr: 0x10000FEC0, symSize: 0x10 }
  - { offsetInCU: 0x2676D, offset: 0x2676D, size: 0x8, addend: 0x0, symName: __ZNSt3__119__debug_db_insert_cB7v160006INS_6vectorIN14GrammarMutator17MutationCandidateENS_9allocatorIS3_EEEEEEvPT_, symObjAddr: 0xBE80, symBinAddr: 0x1000101E0, symSize: 0x10 }
  - { offsetInCU: 0x2679E, offset: 0x2679E, size: 0x8, addend: 0x0, symName: __ZNSt3__118__debug_db_erase_cB7v160006INS_6vectorIN14GrammarMutator17MutationCandidateENS_9allocatorIS3_EEEEEEvPT_, symObjAddr: 0xC110, symBinAddr: 0x100010470, symSize: 0x10 }
  - { offsetInCU: 0x267CF, offset: 0x267CF, size: 0x8, addend: 0x0, symName: __ZNSt3__112__to_addressB7v160006IN14GrammarMutator17MutationCandidateEEEPT_S4_, symObjAddr: 0xC240, symBinAddr: 0x1000105A0, symSize: 0x10 }
  - { offsetInCU: 0x26804, offset: 0x26804, size: 0x8, addend: 0x0, symName: __ZNSt3__119__debug_db_insert_cB7v160006INS_12basic_stringIcNS_11char_traitsIcEENS_9allocatorIcEEEEEEvPT_, symObjAddr: 0xC5B0, symBinAddr: 0x100010910, symSize: 0x10 }
  - { offsetInCU: 0x26835, offset: 0x26835, size: 0x8, addend: 0x0, symName: __ZNSt3__118__constexpr_strlenB7v160006EPKc, symObjAddr: 0xC650, symBinAddr: 0x1000109B0, symSize: 0x20 }
  - { offsetInCU: 0x26861, offset: 0x26861, size: 0x8, addend: 0x0, symName: __ZNSt3__116__pad_and_outputB7v160006IcNS_11char_traitsIcEEEENS_19ostreambuf_iteratorIT_T0_EES6_PKS4_S8_S8_RNS_8ios_baseES4_, symObjAddr: 0xC950, symBinAddr: 0x100010CB0, symSize: 0x220 }
  - { offsetInCU: 0x26931, offset: 0x26931, size: 0x8, addend: 0x0, symName: __ZNSt3__112__to_addressB7v160006IcEEPT_S2_, symObjAddr: 0xCDB0, symBinAddr: 0x100011110, symSize: 0x10 }
  - { offsetInCU: 0x26999, offset: 0x26999, size: 0x8, addend: 0x0, symName: __ZNSt3__19use_facetB7v160006INS_5ctypeIcEEEERKT_RKNS_6localeE, symObjAddr: 0xD010, symBinAddr: 0x100011370, symSize: 0x30 }
  - { offsetInCU: 0x26E68, offset: 0x26E68, size: 0x8, addend: 0x0, symName: __ZNSt3__112__to_addressB7v160006IKcEEPT_S3_, symObjAddr: 0xD120, symBinAddr: 0x100011480, symSize: 0x10 }
  - { offsetInCU: 0x2723D, offset: 0x2723D, size: 0x8, addend: 0x0, symName: __ZSt28__throw_bad_array_new_lengthB7v160006v, symObjAddr: 0x33C0, symBinAddr: 0x100007720, symSize: 0x40 }
  - { offsetInCU: 0x2AD6A, offset: 0x2AD6A, size: 0x8, addend: 0x0, symName: __ZNSt3__16vectorIP7MutatorNS_9allocatorIS2_EEE26__swap_out_circular_bufferERNS_14__split_bufferIS2_RS4_EE, symObjAddr: 0x2C80, symBinAddr: 0x100006FE0, symSize: 0x130 }
  - { offsetInCU: 0x2AF41, offset: 0x2AF41, size: 0x8, addend: 0x0, symName: __ZNSt3__16vectorIP20MutatorSampleContextNS_9allocatorIS2_EEE26__swap_out_circular_bufferERNS_14__split_bufferIS2_RS4_EE, symObjAddr: 0x59A0, symBinAddr: 0x100009D00, symSize: 0x130 }
  - { offsetInCU: 0x2AF98, offset: 0x2AF98, size: 0x8, addend: 0x0, symName: __ZNSt3__16vectorIdNS_9allocatorIdEEE26__swap_out_circular_bufferERNS_14__split_bufferIdRS2_EE, symObjAddr: 0x70C0, symBinAddr: 0x10000B420, symSize: 0x130 }
  - { offsetInCU: 0x2D54F, offset: 0x2D54F, size: 0x8, addend: 0x0, symName: __Z15DebugBreakpointRKNSt3__112basic_stringIcNS_11char_traitsIcEENS_9allocatorIcEEEE, symObjAddr: 0x0, symBinAddr: 0x100004360, symSize: 0x70 }
  - { offsetInCU: 0x2D577, offset: 0x2D577, size: 0x8, addend: 0x0, symName: __Z13SignalHandleri, symObjAddr: 0x100, symBinAddr: 0x100004460, symSize: 0x50 }
  - { offsetInCU: 0x2D5A0, offset: 0x2D5A0, size: 0x8, addend: 0x0, symName: __Z14SetupDebugModev, symObjAddr: 0x150, symBinAddr: 0x1000044B0, symSize: 0x20 }
  - { offsetInCU: 0x2D62C, offset: 0x2D62C, size: 0x8, addend: 0x0, symName: __ZN12BinaryFuzzer13CreateMutatorEiPPcPN6Fuzzer13ThreadContextE, symObjAddr: 0x170, symBinAddr: 0x1000044D0, symSize: 0x930 }
  - { offsetInCU: 0x2DA5F, offset: 0x2DA5F, size: 0x8, addend: 0x0, symName: __ZN14PSelectMutatorC1Ev, symObjAddr: 0xAA0, symBinAddr: 0x100004E00, symSize: 0x20 }
  - { offsetInCU: 0x2DA89, offset: 0x2DA89, size: 0x8, addend: 0x0, symName: __ZN14PSelectMutator10AddMutatorEP7Mutatord, symObjAddr: 0xAC0, symBinAddr: 0x100004E20, symSize: 0x60 }
  - { offsetInCU: 0x2DB22, offset: 0x2DB22, size: 0x8, addend: 0x0, symName: __ZN15ByteFlipMutatorC1Ev, symObjAddr: 0xB20, symBinAddr: 0x100004E80, symSize: 0x20 }
  - { offsetInCU: 0x2DBA4, offset: 0x2DBA4, size: 0x8, addend: 0x0, symName: __ZN17ArithmeticMutatorC1Ev, symObjAddr: 0xB40, symBinAddr: 0x100004EA0, symSize: 0x20 }
  - { offsetInCU: 0x2DC4F, offset: 0x2DC4F, size: 0x8, addend: 0x0, symName: __ZN13AppendMutatorC1Eii, symObjAddr: 0xB60, symBinAddr: 0x100004EC0, symSize: 0x30 }
  - { offsetInCU: 0x2DD15, offset: 0x2DD15, size: 0x8, addend: 0x0, symName: __ZN18BlockInsertMutatorC1Eii, symObjAddr: 0xB90, symBinAddr: 0x100004EF0, symSize: 0x30 }
  - { offsetInCU: 0x2DDEE, offset: 0x2DDEE, size: 0x8, addend: 0x0, symName: __ZN16BlockFlipMutatorC1Eiib, symObjAddr: 0xBC0, symBinAddr: 0x100004F20, symSize: 0x40 }
  - { offsetInCU: 0x2DEE9, offset: 0x2DEE9, size: 0x8, addend: 0x0, symName: __ZN21BlockDuplicateMutatorC1Eiiii, symObjAddr: 0xC00, symBinAddr: 0x100004F60, symSize: 0x40 }
  - { offsetInCU: 0x2DFCD, offset: 0x2DFCD, size: 0x8, addend: 0x0, symName: __ZN13SpliceMutatorC1Eid, symObjAddr: 0xC40, symBinAddr: 0x100004FA0, symSize: 0x30 }
  - { offsetInCU: 0x2E0A0, offset: 0x2E0A0, size: 0x8, addend: 0x0, symName: __ZN12RangeMutatorC1EP7Mutator, symObjAddr: 0xC70, symBinAddr: 0x100004FD0, symSize: 0x30 }
  - { offsetInCU: 0x2E238, offset: 0x2E238, size: 0x8, addend: 0x0, symName: __ZN13RepeatMutatorC1EP7Mutatord, symObjAddr: 0xCA0, symBinAddr: 0x100005000, symSize: 0x30 }
  - { offsetInCU: 0x2E332, offset: 0x2E332, size: 0x8, addend: 0x0, symName: __ZN13NRoundMutatorC1EP7Mutatorm, symObjAddr: 0xCD0, symBinAddr: 0x100005030, symSize: 0x30 }
  - { offsetInCU: 0x2E4ED, offset: 0x2E4ED, size: 0x8, addend: 0x0, symName: __ZN15MutatorSequenceC1Ebb, symObjAddr: 0xD00, symBinAddr: 0x100005060, symSize: 0x40 }
  - { offsetInCU: 0x2E8BE, offset: 0x2E8BE, size: 0x8, addend: 0x0, symName: __ZN28DeterministicByteFlipMutatorC1Ev, symObjAddr: 0xD40, symBinAddr: 0x1000050A0, symSize: 0x20 }
  - { offsetInCU: 0x2EA0A, offset: 0x2EA0A, size: 0x8, addend: 0x0, symName: __ZN36DtermininsticNondeterministicMutatorC1EP7MutatormS1_m, symObjAddr: 0xD60, symBinAddr: 0x1000050C0, symSize: 0x40 }
  - { offsetInCU: 0x2EB56, offset: 0x2EB56, size: 0x8, addend: 0x0, symName: __ZN13GrammarFuzzerC2EPKc, symObjAddr: 0xDA0, symBinAddr: 0x100005100, symSize: 0x100 }
  - { offsetInCU: 0x2EB8F, offset: 0x2EB8F, size: 0x8, addend: 0x0, symName: __ZN6FuzzerC2Ev, symObjAddr: 0xEA0, symBinAddr: 0x100005200, symSize: 0x2F0 }
  - { offsetInCU: 0x2EBBB, offset: 0x2EBBB, size: 0x8, addend: 0x0, symName: __ZN6FuzzerD2Ev, symObjAddr: 0x1190, symBinAddr: 0x1000054F0, symSize: 0x140 }
  - { offsetInCU: 0x2EBE7, offset: 0x2EBE7, size: 0x8, addend: 0x0, symName: __ZN13GrammarFuzzerC1EPKc, symObjAddr: 0x12D0, symBinAddr: 0x100005630, symSize: 0x30 }
  - { offsetInCU: 0x2EC20, offset: 0x2EC20, size: 0x8, addend: 0x0, symName: __ZN13GrammarFuzzer13CreateMutatorEiPPcPN6Fuzzer13ThreadContextE, symObjAddr: 0x1300, symBinAddr: 0x100005660, symSize: 0xD0 }
  - { offsetInCU: 0x2EC8D, offset: 0x2EC8D, size: 0x8, addend: 0x0, symName: __ZN14GrammarMutatorC1EP7Grammar, symObjAddr: 0x13D0, symBinAddr: 0x100005730, symSize: 0x30 }
  - { offsetInCU: 0x2ECC5, offset: 0x2ECC5, size: 0x8, addend: 0x0, symName: __ZN13GrammarFuzzer15CreateMinimizerEiPPcPN6Fuzzer13ThreadContextE, symObjAddr: 0x1400, symBinAddr: 0x100005760, symSize: 0x70 }
  - { offsetInCU: 0x2EE9D, offset: 0x2EE9D, size: 0x8, addend: 0x0, symName: __ZN16GrammarMinimizerC1EP7Grammar, symObjAddr: 0x1470, symBinAddr: 0x1000057D0, symSize: 0x30 }
  - { offsetInCU: 0x2EED5, offset: 0x2EED5, size: 0x8, addend: 0x0, symName: __ZN13GrammarFuzzer12OutputFilterEP6SampleS1_PN6Fuzzer13ThreadContextE, symObjAddr: 0x14A0, symBinAddr: 0x100005800, symSize: 0xB0 }
  - { offsetInCU: 0x2EF34, offset: 0x2EF34, size: 0x8, addend: 0x0, symName: __ZN13GrammarFuzzer24IsReturnValueInterestingEy, symObjAddr: 0x1550, symBinAddr: 0x1000058B0, symSize: 0x20 }
  - { offsetInCU: 0x2EF68, offset: 0x2EF68, size: 0x8, addend: 0x0, symName: __Z11TestGrammarPc, symObjAddr: 0x1570, symBinAddr: 0x1000058D0, symSize: 0x1A0 }
  - { offsetInCU: 0x2EFD3, offset: 0x2EFD3, size: 0x8, addend: 0x0, symName: __ZNSt3__112basic_stringIcNS_11char_traitsIcEENS_9allocatorIcEEEC1B7v160006Ev, symObjAddr: 0x1710, symBinAddr: 0x100005A70, symSize: 0x20 }
  - { offsetInCU: 0x2EFFD, offset: 0x2EFFD, size: 0x8, addend: 0x0, symName: __ZNKSt3__112basic_stringIcNS_11char_traitsIcEENS_9allocatorIcEEE5c_strB7v160006Ev, symObjAddr: 0x1730, symBinAddr: 0x100005A90, symSize: 0x20 }
  - { offsetInCU: 0x2F023, offset: 0x2F023, size: 0x8, addend: 0x0, symName: _main, symObjAddr: 0x1750, symBinAddr: 0x100005AB0, symSize: 0x190 }
  - { offsetInCU: 0x2F076, offset: 0x2F076, size: 0x8, addend: 0x0, symName: __ZN12BinaryFuzzerC1Ev, symObjAddr: 0x18E0, symBinAddr: 0x100005C40, symSize: 0x20 }
  - { offsetInCU: 0x2F0A7, offset: 0x2F0A7, size: 0x8, addend: 0x0, symName: __ZNSt3__112basic_stringIcNS_11char_traitsIcEENS_9allocatorIcEEEC1B7v160006IDnEEPKc, symObjAddr: 0x1900, symBinAddr: 0x100005C60, symSize: 0x30 }
  - { offsetInCU: 0x2F0E5, offset: 0x2F0E5, size: 0x8, addend: 0x0, symName: __ZN6Fuzzer24IsReturnValueInterestingEy, symObjAddr: 0x1930, symBinAddr: 0x100005C90, symSize: 0x20 }
  - { offsetInCU: 0x2F119, offset: 0x2F119, size: 0x8, addend: 0x0, symName: __ZN12BinaryFuzzer15TrackHotOffsetsEv, symObjAddr: 0x1950, symBinAddr: 0x100005CB0, symSize: 0x20 }
  - { offsetInCU: 0x2F13F, offset: 0x2F13F, size: 0x8, addend: 0x0, symName: __ZN6Fuzzer15TrackHotOffsetsEv, symObjAddr: 0x1970, symBinAddr: 0x100005CD0, symSize: 0x20 }
  - { offsetInCU: 0x2F165, offset: 0x2F165, size: 0x8, addend: 0x0, symName: __ZN14PSelectMutatorC2Ev, symObjAddr: 0x1990, symBinAddr: 0x100005CF0, symSize: 0x50 }
  - { offsetInCU: 0x2F18F, offset: 0x2F18F, size: 0x8, addend: 0x0, symName: __ZN19HierarchicalMutatorC2Ev, symObjAddr: 0x19E0, symBinAddr: 0x100005D40, symSize: 0x40 }
  - { offsetInCU: 0x2F1BB, offset: 0x2F1BB, size: 0x8, addend: 0x0, symName: __ZNSt3__16vectorIdNS_9allocatorIdEEEC1B7v160006Ev, symObjAddr: 0x1A20, symBinAddr: 0x100005D80, symSize: 0x20 }
  - { offsetInCU: 0x2F1E5, offset: 0x2F1E5, size: 0x8, addend: 0x0, symName: __ZN14PSelectMutatorD1Ev, symObjAddr: 0x1A40, symBinAddr: 0x100005DA0, symSize: 0x20 }
  - { offsetInCU: 0x2F212, offset: 0x2F212, size: 0x8, addend: 0x0, symName: __ZN14PSelectMutatorD0Ev, symObjAddr: 0x1A60, symBinAddr: 0x100005DC0, symSize: 0x30 }
  - { offsetInCU: 0x2F23F, offset: 0x2F23F, size: 0x8, addend: 0x0, symName: __ZN19HierarchicalMutator19CreateSampleContextEP6Sample, symObjAddr: 0x1A90, symBinAddr: 0x100005DF0, symSize: 0x60 }
  - { offsetInCU: 0x2F281, offset: 0x2F281, size: 0x8, addend: 0x0, symName: __ZN19HierarchicalMutator9InitRoundEP6SampleP20MutatorSampleContext, symObjAddr: 0x1AF0, symBinAddr: 0x100005E50, symSize: 0xB0 }
  - { offsetInCU: 0x2F2DF, offset: 0x2F2DF, size: 0x8, addend: 0x0, symName: __ZN19HierarchicalMutator12AddHotOffsetEP20MutatorSampleContextm, symObjAddr: 0x1BA0, symBinAddr: 0x100005F00, symSize: 0xA0 }
  - { offsetInCU: 0x2F33D, offset: 0x2F33D, size: 0x8, addend: 0x0, symName: __ZN19HierarchicalMutator11SaveContextEP20MutatorSampleContextP7__sFILE, symObjAddr: 0x1C40, symBinAddr: 0x100005FA0, symSize: 0xA0 }
  - { offsetInCU: 0x2F39B, offset: 0x2F39B, size: 0x8, addend: 0x0, symName: __ZN19HierarchicalMutator11LoadContextEP20MutatorSampleContextP7__sFILE, symObjAddr: 0x1CE0, symBinAddr: 0x100006040, symSize: 0xA0 }
  - { offsetInCU: 0x2F3F9, offset: 0x2F3F9, size: 0x8, addend: 0x0, symName: __ZN19HierarchicalMutator15SaveGlobalStateEP7__sFILE, symObjAddr: 0x1D80, symBinAddr: 0x1000060E0, symSize: 0x80 }
  - { offsetInCU: 0x2F449, offset: 0x2F449, size: 0x8, addend: 0x0, symName: __ZN19HierarchicalMutator15LoadGlobalStateEP7__sFILE, symObjAddr: 0x1E00, symBinAddr: 0x100006160, symSize: 0x80 }
  - { offsetInCU: 0x2F499, offset: 0x2F499, size: 0x8, addend: 0x0, symName: __ZN14PSelectMutator6MutateEP6SampleP4PRNGRNSt3__16vectorIS1_NS4_9allocatorIS1_EEEE, symObjAddr: 0x1E80, symBinAddr: 0x1000061E0, symSize: 0x130 }
  - { offsetInCU: 0x2F545, offset: 0x2F545, size: 0x8, addend: 0x0, symName: __ZN14PSelectMutator12NotifyResultE9RunResultb, symObjAddr: 0x1FB0, symBinAddr: 0x100006310, symSize: 0x50 }
  - { offsetInCU: 0x2F589, offset: 0x2F589, size: 0x8, addend: 0x0, symName: __ZN19HierarchicalMutator17CanGenerateSampleEv, symObjAddr: 0x2000, symBinAddr: 0x100006360, symSize: 0xA0 }
  - { offsetInCU: 0x2F5CB, offset: 0x2F5CB, size: 0x8, addend: 0x0, symName: __ZN14PSelectMutator14GenerateSampleEP6SampleP4PRNG, symObjAddr: 0x20A0, symBinAddr: 0x100006400, symSize: 0x1D0 }
  - { offsetInCU: 0x2F6A5, offset: 0x2F6A5, size: 0x8, addend: 0x0, symName: __ZN14PSelectMutator10AddMutatorEP7Mutator, symObjAddr: 0x2270, symBinAddr: 0x1000065D0, symSize: 0x60 }
  - { offsetInCU: 0x2F6DA, offset: 0x2F6DA, size: 0x8, addend: 0x0, symName: __ZN19HierarchicalMutator9SetRangesEPNSt3__16vectorI5RangeNS0_9allocatorIS2_EEEE, symObjAddr: 0x22D0, symBinAddr: 0x100006630, symSize: 0x80 }
  - { offsetInCU: 0x2F72A, offset: 0x2F72A, size: 0x8, addend: 0x0, symName: __ZN7MutatorC2Ev, symObjAddr: 0x2350, symBinAddr: 0x1000066B0, symSize: 0x30 }
  - { offsetInCU: 0x2F756, offset: 0x2F756, size: 0x8, addend: 0x0, symName: __ZN19HierarchicalMutatorD1Ev, symObjAddr: 0x2380, symBinAddr: 0x1000066E0, symSize: 0x10 }
  - { offsetInCU: 0x2F782, offset: 0x2F782, size: 0x8, addend: 0x0, symName: __ZN19HierarchicalMutatorD0Ev, symObjAddr: 0x2390, symBinAddr: 0x1000066F0, symSize: 0x10 }
  - { offsetInCU: 0x2F7AE, offset: 0x2F7AE, size: 0x8, addend: 0x0, symName: __ZN19HierarchicalMutator12NotifyResultE9RunResultb, symObjAddr: 0x23A0, symBinAddr: 0x100006700, symSize: 0x90 }
  - { offsetInCU: 0x2F80C, offset: 0x2F80C, size: 0x8, addend: 0x0, symName: __ZN19HierarchicalMutator14GenerateSampleEP6SampleP4PRNG, symObjAddr: 0x2430, symBinAddr: 0x100006790, symSize: 0xD0 }
  - { offsetInCU: 0x2F86A, offset: 0x2F86A, size: 0x8, addend: 0x0, symName: __ZN7Mutator10AddMutatorEPS_, symObjAddr: 0x2500, symBinAddr: 0x100006860, symSize: 0x30 }
  - { offsetInCU: 0x2F89E, offset: 0x2F89E, size: 0x8, addend: 0x0, symName: __ZNSt3__16vectorIP7MutatorNS_9allocatorIS2_EEEC1B7v160006Ev, symObjAddr: 0x2530, symBinAddr: 0x100006890, symSize: 0x20 }
  - { offsetInCU: 0x2F8C8, offset: 0x2F8C8, size: 0x8, addend: 0x0, symName: __ZN7MutatorD1Ev, symObjAddr: 0x2550, symBinAddr: 0x1000068B0, symSize: 0x10 }
  - { offsetInCU: 0x2F8F2, offset: 0x2F8F2, size: 0x8, addend: 0x0, symName: __ZN7MutatorD0Ev, symObjAddr: 0x2560, symBinAddr: 0x1000068C0, symSize: 0x10 }
  - { offsetInCU: 0x2F91C, offset: 0x2F91C, size: 0x8, addend: 0x0, symName: __ZN7Mutator19CreateSampleContextEP6Sample, symObjAddr: 0x2570, symBinAddr: 0x1000068D0, symSize: 0x10 }
  - { offsetInCU: 0x2F950, offset: 0x2F950, size: 0x8, addend: 0x0, symName: __ZN7Mutator9InitRoundEP6SampleP20MutatorSampleContext, symObjAddr: 0x2580, symBinAddr: 0x1000068E0, symSize: 0x20 }
  - { offsetInCU: 0x2F992, offset: 0x2F992, size: 0x8, addend: 0x0, symName: __ZN7Mutator12AddHotOffsetEP20MutatorSampleContextm, symObjAddr: 0x25A0, symBinAddr: 0x100006900, symSize: 0x20 }
  - { offsetInCU: 0x2F9D4, offset: 0x2F9D4, size: 0x8, addend: 0x0, symName: __ZN7Mutator11SaveContextEP20MutatorSampleContextP7__sFILE, symObjAddr: 0x25C0, symBinAddr: 0x100006920, symSize: 0x20 }
  - { offsetInCU: 0x2FA16, offset: 0x2FA16, size: 0x8, addend: 0x0, symName: __ZN7Mutator11LoadContextEP20MutatorSampleContextP7__sFILE, symObjAddr: 0x25E0, symBinAddr: 0x100006940, symSize: 0x20 }
  - { offsetInCU: 0x2FA58, offset: 0x2FA58, size: 0x8, addend: 0x0, symName: __ZN7Mutator15SaveGlobalStateEP7__sFILE, symObjAddr: 0x2600, symBinAddr: 0x100006960, symSize: 0x10 }
  - { offsetInCU: 0x2FA8C, offset: 0x2FA8C, size: 0x8, addend: 0x0, symName: __ZN7Mutator15LoadGlobalStateEP7__sFILE, symObjAddr: 0x2610, symBinAddr: 0x100006970, symSize: 0x10 }
  - { offsetInCU: 0x2FAC0, offset: 0x2FAC0, size: 0x8, addend: 0x0, symName: __ZN7Mutator12NotifyResultE9RunResultb, symObjAddr: 0x2620, symBinAddr: 0x100006980, symSize: 0x20 }
  - { offsetInCU: 0x2FB02, offset: 0x2FB02, size: 0x8, addend: 0x0, symName: __ZN7Mutator17CanGenerateSampleEv, symObjAddr: 0x2640, symBinAddr: 0x1000069A0, symSize: 0x20 }
  - { offsetInCU: 0x2FB28, offset: 0x2FB28, size: 0x8, addend: 0x0, symName: __ZN7Mutator14GenerateSampleEP6SampleP4PRNG, symObjAddr: 0x2660, symBinAddr: 0x1000069C0, symSize: 0x20 }
  - { offsetInCU: 0x2FB6A, offset: 0x2FB6A, size: 0x8, addend: 0x0, symName: __ZN7Mutator9SetRangesEPNSt3__16vectorI5RangeNS0_9allocatorIS2_EEEE, symObjAddr: 0x2680, symBinAddr: 0x1000069E0, symSize: 0x10 }
  - { offsetInCU: 0x2FB9E, offset: 0x2FB9E, size: 0x8, addend: 0x0, symName: __ZNSt3__16vectorIP7MutatorNS_9allocatorIS2_EEEC2B7v160006Ev, symObjAddr: 0x2690, symBinAddr: 0x1000069F0, symSize: 0x60 }
  - { offsetInCU: 0x2FBD4, offset: 0x2FBD4, size: 0x8, addend: 0x0, symName: __ZNSt3__117__compressed_pairIPP7MutatorNS_9allocatorIS2_EEEC1B7v160006IDnNS_18__default_init_tagEEEOT_OT0_, symObjAddr: 0x26F0, symBinAddr: 0x100006A50, symSize: 0x30 }
  - { offsetInCU: 0x2FC2C, offset: 0x2FC2C, size: 0x8, addend: 0x0, symName: __ZNSt3__117__compressed_pairIPP7MutatorNS_9allocatorIS2_EEEC2B7v160006IDnNS_18__default_init_tagEEEOT_OT0_, symObjAddr: 0x2740, symBinAddr: 0x100006AA0, symSize: 0x40 }
  - { offsetInCU: 0x2FC84, offset: 0x2FC84, size: 0x8, addend: 0x0, symName: __ZNSt3__122__compressed_pair_elemIPP7MutatorLi0ELb0EEC2B7v160006IDnvEEOT_, symObjAddr: 0x2780, symBinAddr: 0x100006AE0, symSize: 0x20 }
  - { offsetInCU: 0x2FCC6, offset: 0x2FCC6, size: 0x8, addend: 0x0, symName: __ZNSt3__122__compressed_pair_elemINS_9allocatorIP7MutatorEELi1ELb1EEC2B7v160006ENS_18__default_init_tagE, symObjAddr: 0x27A0, symBinAddr: 0x100006B00, symSize: 0x20 }
  - { offsetInCU: 0x2FCFB, offset: 0x2FCFB, size: 0x8, addend: 0x0, symName: __ZNSt3__19allocatorIP7MutatorEC2B7v160006Ev, symObjAddr: 0x27C0, symBinAddr: 0x100006B20, symSize: 0x20 }
  - { offsetInCU: 0x2FD25, offset: 0x2FD25, size: 0x8, addend: 0x0, symName: __ZNSt3__116__non_trivial_ifILb1ENS_9allocatorIP7MutatorEEEC2B7v160006Ev, symObjAddr: 0x27E0, symBinAddr: 0x100006B40, symSize: 0x10 }
  - { offsetInCU: 0x2FD4F, offset: 0x2FD4F, size: 0x8, addend: 0x0, symName: __ZNKSt3__16vectorIP7MutatorNS_9allocatorIS2_EEE4sizeB7v160006Ev, symObjAddr: 0x27F0, symBinAddr: 0x100006B50, symSize: 0x20 }
  - { offsetInCU: 0x2FD75, offset: 0x2FD75, size: 0x8, addend: 0x0, symName: __ZNSt3__16vectorIP7MutatorNS_9allocatorIS2_EEEixB7v160006Em, symObjAddr: 0x2810, symBinAddr: 0x100006B70, symSize: 0x20 }
  - { offsetInCU: 0x2FDAC, offset: 0x2FDAC, size: 0x8, addend: 0x0, symName: __ZNSt3__16vectorIP7MutatorNS_9allocatorIS2_EEE9push_backB7v160006ERKS2_, symObjAddr: 0x2830, symBinAddr: 0x100006B90, symSize: 0x60 }
  - { offsetInCU: 0x2FDE3, offset: 0x2FDE3, size: 0x8, addend: 0x0, symName: __ZNSt3__16vectorIP7MutatorNS_9allocatorIS2_EEE9__end_capB7v160006Ev, symObjAddr: 0x2890, symBinAddr: 0x100006BF0, symSize: 0x20 }
  - { offsetInCU: 0x2FE09, offset: 0x2FE09, size: 0x8, addend: 0x0, symName: __ZNSt3__16vectorIP7MutatorNS_9allocatorIS2_EEE22__construct_one_at_endB7v160006IJRKS2_EEEvDpOT_, symObjAddr: 0x28B0, symBinAddr: 0x100006C10, symSize: 0x90 }
  - { offsetInCU: 0x2FE58, offset: 0x2FE58, size: 0x8, addend: 0x0, symName: __ZNSt3__16vectorIP7MutatorNS_9allocatorIS2_EEE21__push_back_slow_pathIRKS2_EEvOT_, symObjAddr: 0x2940, symBinAddr: 0x100006CA0, symSize: 0xD0 }
  - { offsetInCU: 0x2FEB6, offset: 0x2FEB6, size: 0x8, addend: 0x0, symName: __ZNSt3__117__compressed_pairIPP7MutatorNS_9allocatorIS2_EEE5firstB7v160006Ev, symObjAddr: 0x2A10, symBinAddr: 0x100006D70, symSize: 0x20 }
  - { offsetInCU: 0x2FEDC, offset: 0x2FEDC, size: 0x8, addend: 0x0, symName: __ZNSt3__122__compressed_pair_elemIPP7MutatorLi0ELb0EE5__getB7v160006Ev, symObjAddr: 0x2A30, symBinAddr: 0x100006D90, symSize: 0x10 }
  - { offsetInCU: 0x2FF1B, offset: 0x2FF1B, size: 0x8, addend: 0x0, symName: __ZNSt3__16vectorIP7MutatorNS_9allocatorIS2_EEE21_ConstructTransactionC1B7v160006ERS5_m, symObjAddr: 0x2A40, symBinAddr: 0x100006DA0, symSize: 0x30 }
  - { offsetInCU: 0x2FF63, offset: 0x2FF63, size: 0x8, addend: 0x0, symName: __ZNSt3__116allocator_traitsINS_9allocatorIP7MutatorEEE9constructB7v160006IS3_JRKS3_EvEEvRS4_PT_DpOT0_, symObjAddr: 0x2A70, symBinAddr: 0x100006DD0, symSize: 0x30 }
  - { offsetInCU: 0x2FFBA, offset: 0x2FFBA, size: 0x8, addend: 0x0, symName: __ZNSt3__16vectorIP7MutatorNS_9allocatorIS2_EEE7__allocB7v160006Ev, symObjAddr: 0x2AA0, symBinAddr: 0x100006E00, symSize: 0x20 }
  - { offsetInCU: 0x2FFE0, offset: 0x2FFE0, size: 0x8, addend: 0x0, symName: __ZNSt3__16vectorIP7MutatorNS_9allocatorIS2_EEE21_ConstructTransactionD1B7v160006Ev, symObjAddr: 0x2AD0, symBinAddr: 0x100006E30, symSize: 0x20 }
  - { offsetInCU: 0x3000A, offset: 0x3000A, size: 0x8, addend: 0x0, symName: __ZNSt3__16vectorIP7MutatorNS_9allocatorIS2_EEE21_ConstructTransactionC2B7v160006ERS5_m, symObjAddr: 0x2AF0, symBinAddr: 0x100006E50, symSize: 0x40 }
  - { offsetInCU: 0x30052, offset: 0x30052, size: 0x8, addend: 0x0, symName: __ZNSt3__19allocatorIP7MutatorE9constructB7v160006IS2_JRKS2_EEEvPT_DpOT0_, symObjAddr: 0x2B30, symBinAddr: 0x100006E90, symSize: 0x20 }
  - { offsetInCU: 0x300A8, offset: 0x300A8, size: 0x8, addend: 0x0, symName: __ZNSt3__117__compressed_pairIPP7MutatorNS_9allocatorIS2_EEE6secondB7v160006Ev, symObjAddr: 0x2B50, symBinAddr: 0x100006EB0, symSize: 0x20 }
  - { offsetInCU: 0x300CE, offset: 0x300CE, size: 0x8, addend: 0x0, symName: __ZNSt3__122__compressed_pair_elemINS_9allocatorIP7MutatorEELi1ELb1EE5__getB7v160006Ev, symObjAddr: 0x2B70, symBinAddr: 0x100006ED0, symSize: 0x10 }
  - { offsetInCU: 0x300F4, offset: 0x300F4, size: 0x8, addend: 0x0, symName: __ZNSt3__16vectorIP7MutatorNS_9allocatorIS2_EEE21_ConstructTransactionD2B7v160006Ev, symObjAddr: 0x2B80, symBinAddr: 0x100006EE0, symSize: 0x20 }
  - { offsetInCU: 0x3011E, offset: 0x3011E, size: 0x8, addend: 0x0, symName: __ZNKSt3__16vectorIP7MutatorNS_9allocatorIS2_EEE11__recommendB7v160006Em, symObjAddr: 0x2BA0, symBinAddr: 0x100006F00, symSize: 0xA0 }
  - { offsetInCU: 0x30173, offset: 0x30173, size: 0x8, addend: 0x0, symName: __ZNSt3__114__split_bufferIP7MutatorRNS_9allocatorIS2_EEEC1EmmS5_, symObjAddr: 0x2C40, symBinAddr: 0x100006FA0, symSize: 0x40 }
  - { offsetInCU: 0x301C9, offset: 0x301C9, size: 0x8, addend: 0x0, symName: __ZNSt3__114__split_bufferIP7MutatorRNS_9allocatorIS2_EEED1Ev, symObjAddr: 0x2DB0, symBinAddr: 0x100007110, symSize: 0x20 }
  - { offsetInCU: 0x301F5, offset: 0x301F5, size: 0x8, addend: 0x0, symName: __ZNKSt3__16vectorIP7MutatorNS_9allocatorIS2_EEE8max_sizeEv, symObjAddr: 0x2DD0, symBinAddr: 0x100007130, symSize: 0x60 }
  - { offsetInCU: 0x3021D, offset: 0x3021D, size: 0x8, addend: 0x0, symName: __ZNKSt3__16vectorIP7MutatorNS_9allocatorIS2_EEE20__throw_length_errorB7v160006Ev, symObjAddr: 0x2E30, symBinAddr: 0x100007190, symSize: 0x20 }
  - { offsetInCU: 0x30243, offset: 0x30243, size: 0x8, addend: 0x0, symName: __ZNKSt3__16vectorIP7MutatorNS_9allocatorIS2_EEE8capacityB7v160006Ev, symObjAddr: 0x2E50, symBinAddr: 0x1000071B0, symSize: 0x30 }
  - { offsetInCU: 0x30273, offset: 0x30273, size: 0x8, addend: 0x0, symName: __ZNSt3__116allocator_traitsINS_9allocatorIP7MutatorEEE8max_sizeB7v160006IS4_vEEmRKS4_, symObjAddr: 0x2EE0, symBinAddr: 0x100007240, symSize: 0x20 }
  - { offsetInCU: 0x302A1, offset: 0x302A1, size: 0x8, addend: 0x0, symName: __ZNKSt3__16vectorIP7MutatorNS_9allocatorIS2_EEE7__allocB7v160006Ev, symObjAddr: 0x2F00, symBinAddr: 0x100007260, symSize: 0x20 }
  - { offsetInCU: 0x302C7, offset: 0x302C7, size: 0x8, addend: 0x0, symName: __ZNSt3__114numeric_limitsIlE3maxB7v160006Ev, symObjAddr: 0x2F20, symBinAddr: 0x100007280, symSize: 0x10 }
  - { offsetInCU: 0x302E5, offset: 0x302E5, size: 0x8, addend: 0x0, symName: __ZNKSt3__16__lessImmEclB7v160006ERKmS3_, symObjAddr: 0x2F80, symBinAddr: 0x1000072E0, symSize: 0x30 }
  - { offsetInCU: 0x30327, offset: 0x30327, size: 0x8, addend: 0x0, symName: __ZNKSt3__19allocatorIP7MutatorE8max_sizeB7v160006Ev, symObjAddr: 0x2FB0, symBinAddr: 0x100007310, symSize: 0x20 }
  - { offsetInCU: 0x3034D, offset: 0x3034D, size: 0x8, addend: 0x0, symName: __ZNKSt3__117__compressed_pairIPP7MutatorNS_9allocatorIS2_EEE6secondB7v160006Ev, symObjAddr: 0x2FD0, symBinAddr: 0x100007330, symSize: 0x20 }
  - { offsetInCU: 0x30373, offset: 0x30373, size: 0x8, addend: 0x0, symName: __ZNKSt3__122__compressed_pair_elemINS_9allocatorIP7MutatorEELi1ELb1EE5__getB7v160006Ev, symObjAddr: 0x2FF0, symBinAddr: 0x100007350, symSize: 0x10 }
  - { offsetInCU: 0x30399, offset: 0x30399, size: 0x8, addend: 0x0, symName: __ZNSt3__123__libcpp_numeric_limitsIlLb1EE3maxB7v160006Ev, symObjAddr: 0x3000, symBinAddr: 0x100007360, symSize: 0x10 }
  - { offsetInCU: 0x303AD, offset: 0x303AD, size: 0x8, addend: 0x0, symName: __ZNSt12length_errorC1B7v160006EPKc, symObjAddr: 0x3080, symBinAddr: 0x1000073E0, symSize: 0x30 }
  - { offsetInCU: 0x303E5, offset: 0x303E5, size: 0x8, addend: 0x0, symName: __ZNSt12length_errorC2B7v160006EPKc, symObjAddr: 0x30B0, symBinAddr: 0x100007410, symSize: 0x40 }
  - { offsetInCU: 0x3041D, offset: 0x3041D, size: 0x8, addend: 0x0, symName: __ZNKSt3__16vectorIP7MutatorNS_9allocatorIS2_EEE9__end_capB7v160006Ev, symObjAddr: 0x30F0, symBinAddr: 0x100007450, symSize: 0x20 }
  - { offsetInCU: 0x30443, offset: 0x30443, size: 0x8, addend: 0x0, symName: __ZNKSt3__117__compressed_pairIPP7MutatorNS_9allocatorIS2_EEE5firstB7v160006Ev, symObjAddr: 0x3110, symBinAddr: 0x100007470, symSize: 0x20 }
  - { offsetInCU: 0x30469, offset: 0x30469, size: 0x8, addend: 0x0, symName: __ZNKSt3__122__compressed_pair_elemIPP7MutatorLi0ELb0EE5__getB7v160006Ev, symObjAddr: 0x3130, symBinAddr: 0x100007490, symSize: 0x10 }
  - { offsetInCU: 0x3048F, offset: 0x3048F, size: 0x8, addend: 0x0, symName: __ZNSt3__114__split_bufferIP7MutatorRNS_9allocatorIS2_EEEC2EmmS5_, symObjAddr: 0x3190, symBinAddr: 0x1000074F0, symSize: 0xD0 }
  - { offsetInCU: 0x30502, offset: 0x30502, size: 0x8, addend: 0x0, symName: __ZNSt3__117__compressed_pairIPP7MutatorRNS_9allocatorIS2_EEEC1B7v160006IDnS6_EEOT_OT0_, symObjAddr: 0x3260, symBinAddr: 0x1000075C0, symSize: 0x30 }
  - { offsetInCU: 0x3055A, offset: 0x3055A, size: 0x8, addend: 0x0, symName: __ZNSt3__114__split_bufferIP7MutatorRNS_9allocatorIS2_EEE7__allocB7v160006Ev, symObjAddr: 0x32D0, symBinAddr: 0x100007630, symSize: 0x20 }
  - { offsetInCU: 0x30580, offset: 0x30580, size: 0x8, addend: 0x0, symName: __ZNSt3__114__split_bufferIP7MutatorRNS_9allocatorIS2_EEE9__end_capB7v160006Ev, symObjAddr: 0x32F0, symBinAddr: 0x100007650, symSize: 0x20 }
  - { offsetInCU: 0x305A6, offset: 0x305A6, size: 0x8, addend: 0x0, symName: __ZNSt3__117__compressed_pairIPP7MutatorRNS_9allocatorIS2_EEEC2B7v160006IDnS6_EEOT_OT0_, symObjAddr: 0x3310, symBinAddr: 0x100007670, symSize: 0x40 }
  - { offsetInCU: 0x305FE, offset: 0x305FE, size: 0x8, addend: 0x0, symName: __ZNSt3__122__compressed_pair_elemIRNS_9allocatorIP7MutatorEELi1ELb0EEC2B7v160006IS5_vEEOT_, symObjAddr: 0x3350, symBinAddr: 0x1000076B0, symSize: 0x20 }
  - { offsetInCU: 0x30640, offset: 0x30640, size: 0x8, addend: 0x0, symName: __ZNSt3__19allocatorIP7MutatorE8allocateB7v160006Em, symObjAddr: 0x3370, symBinAddr: 0x1000076D0, symSize: 0x50 }
  - { offsetInCU: 0x30674, offset: 0x30674, size: 0x8, addend: 0x0, symName: __ZNSt3__117__compressed_pairIPP7MutatorRNS_9allocatorIS2_EEE6secondB7v160006Ev, symObjAddr: 0x34D0, symBinAddr: 0x100007830, symSize: 0x20 }
  - { offsetInCU: 0x3069A, offset: 0x3069A, size: 0x8, addend: 0x0, symName: __ZNSt3__122__compressed_pair_elemIRNS_9allocatorIP7MutatorEELi1ELb0EE5__getB7v160006Ev, symObjAddr: 0x34F0, symBinAddr: 0x100007850, symSize: 0x20 }
  - { offsetInCU: 0x306C0, offset: 0x306C0, size: 0x8, addend: 0x0, symName: __ZNSt3__117__compressed_pairIPP7MutatorRNS_9allocatorIS2_EEE5firstB7v160006Ev, symObjAddr: 0x3510, symBinAddr: 0x100007870, symSize: 0x20 }
  - { offsetInCU: 0x306E6, offset: 0x306E6, size: 0x8, addend: 0x0, symName: __ZNKSt3__16vectorIP7MutatorNS_9allocatorIS2_EEE17__annotate_deleteB7v160006Ev, symObjAddr: 0x3530, symBinAddr: 0x100007890, symSize: 0xB0 }
  - { offsetInCU: 0x3070C, offset: 0x3070C, size: 0x8, addend: 0x0, symName: __ZNSt3__116reverse_iteratorIPP7MutatorEC1B7v160006ES3_, symObjAddr: 0x3650, symBinAddr: 0x1000079B0, symSize: 0x30 }
  - { offsetInCU: 0x30744, offset: 0x30744, size: 0x8, addend: 0x0, symName: __ZNKSt3__116reverse_iteratorIPP7MutatorE4baseB7v160006Ev, symObjAddr: 0x3680, symBinAddr: 0x1000079E0, symSize: 0x20 }
  - { offsetInCU: 0x3076A, offset: 0x3076A, size: 0x8, addend: 0x0, symName: __ZNKSt3__16vectorIP7MutatorNS_9allocatorIS2_EEE14__annotate_newB7v160006Em, symObjAddr: 0x36E0, symBinAddr: 0x100007A40, symSize: 0xB0 }
  - { offsetInCU: 0x3079F, offset: 0x3079F, size: 0x8, addend: 0x0, symName: __ZNKSt3__16vectorIP7MutatorNS_9allocatorIS2_EEE31__annotate_contiguous_containerB7v160006EPKvS7_S7_S7_, symObjAddr: 0x37A0, symBinAddr: 0x100007B00, symSize: 0x20 }
  - { offsetInCU: 0x307F1, offset: 0x307F1, size: 0x8, addend: 0x0, symName: __ZNKSt3__16vectorIP7MutatorNS_9allocatorIS2_EEE4dataB7v160006Ev, symObjAddr: 0x37C0, symBinAddr: 0x100007B20, symSize: 0x20 }
  - { offsetInCU: 0x3083B, offset: 0x3083B, size: 0x8, addend: 0x0, symName: __ZNKSt3__111__move_loopINS_17_ClassicAlgPolicyEEclB7v160006INS_16reverse_iteratorIPP7MutatorEES8_S8_EENS_4pairIT_T1_EESA_T0_SB_, symObjAddr: 0x3C20, symBinAddr: 0x100007F80, symSize: 0xA0 }
  - { offsetInCU: 0x308AC, offset: 0x308AC, size: 0x8, addend: 0x0, symName: __ZNSt3__18_IterOpsINS_17_ClassicAlgPolicyEE11__iter_moveB7v160006IRNS_16reverse_iteratorIPP7MutatorEEEENS_9enable_ifIXsr12is_referenceIDTdeclsr3stdE7declvalIRT_EEEEE5valueEDTclsr3stdE4movedeclsr3stdE7declvalISC_EEEEE4typeEOSB_, symObjAddr: 0x3E40, symBinAddr: 0x1000081A0, symSize: 0x20 }
  - { offsetInCU: 0x308D8, offset: 0x308D8, size: 0x8, addend: 0x0, symName: __ZNKSt3__116reverse_iteratorIPP7MutatorEdeB7v160006Ev, symObjAddr: 0x3E60, symBinAddr: 0x1000081C0, symSize: 0x30 }
  - { offsetInCU: 0x3090C, offset: 0x3090C, size: 0x8, addend: 0x0, symName: __ZNSt3__116reverse_iteratorIPP7MutatorEppB7v160006Ev, symObjAddr: 0x3E90, symBinAddr: 0x1000081F0, symSize: 0x20 }
  - { offsetInCU: 0x30932, offset: 0x30932, size: 0x8, addend: 0x0, symName: __ZNSt3__18_IterOpsINS_17_ClassicAlgPolicyEE25__validate_iter_referenceB7v160006IRNS_16reverse_iteratorIPP7MutatorEEEEvv, symObjAddr: 0x3EB0, symBinAddr: 0x100008210, symSize: 0x10 }
  - { offsetInCU: 0x30950, offset: 0x30950, size: 0x8, addend: 0x0, symName: __ZNSt3__118__unwrap_iter_implINS_16reverse_iteratorIPP7MutatorEELb0EE8__unwrapB7v160006ES5_, symObjAddr: 0x3EC0, symBinAddr: 0x100008220, symSize: 0x20 }
  - { offsetInCU: 0x30979, offset: 0x30979, size: 0x8, addend: 0x0, symName: __ZNSt3__14pairINS_16reverse_iteratorIPP7MutatorEES5_EC1B7v160006IS5_S5_LPv0EEEOT_OT0_, symObjAddr: 0x3EE0, symBinAddr: 0x100008240, symSize: 0x30 }
  - { offsetInCU: 0x309D7, offset: 0x309D7, size: 0x8, addend: 0x0, symName: __ZNSt3__14pairINS_16reverse_iteratorIPP7MutatorEES5_EC2B7v160006IS5_S5_LPv0EEEOT_OT0_, symObjAddr: 0x3F10, symBinAddr: 0x100008270, symSize: 0x40 }
  - { offsetInCU: 0x30A35, offset: 0x30A35, size: 0x8, addend: 0x0, symName: __ZNSt3__118__unwrap_iter_implINS_16reverse_iteratorIPP7MutatorEELb0EE8__rewrapB7v160006ES5_S5_, symObjAddr: 0x3F50, symBinAddr: 0x1000082B0, symSize: 0x30 }
  - { offsetInCU: 0x30A63, offset: 0x30A63, size: 0x8, addend: 0x0, symName: __ZNSt3__116reverse_iteratorIPP7MutatorEC2B7v160006ES3_, symObjAddr: 0x3F80, symBinAddr: 0x1000082E0, symSize: 0x30 }
  - { offsetInCU: 0x30A9B, offset: 0x30A9B, size: 0x8, addend: 0x0, symName: __ZNSt3__114__split_bufferIP7MutatorRNS_9allocatorIS2_EEED2Ev, symObjAddr: 0x3FB0, symBinAddr: 0x100008310, symSize: 0x70 }
  - { offsetInCU: 0x30AC7, offset: 0x30AC7, size: 0x8, addend: 0x0, symName: __ZNSt3__114__split_bufferIP7MutatorRNS_9allocatorIS2_EEE5clearB7v160006Ev, symObjAddr: 0x4020, symBinAddr: 0x100008380, symSize: 0x20 }
  - { offsetInCU: 0x30AED, offset: 0x30AED, size: 0x8, addend: 0x0, symName: __ZNSt3__116allocator_traitsINS_9allocatorIP7MutatorEEE10deallocateB7v160006ERS4_PS3_m, symObjAddr: 0x4040, symBinAddr: 0x1000083A0, symSize: 0x30 }
  - { offsetInCU: 0x30B2F, offset: 0x30B2F, size: 0x8, addend: 0x0, symName: __ZNKSt3__114__split_bufferIP7MutatorRNS_9allocatorIS2_EEE8capacityB7v160006Ev, symObjAddr: 0x4070, symBinAddr: 0x1000083D0, symSize: 0x30 }
  - { offsetInCU: 0x30B55, offset: 0x30B55, size: 0x8, addend: 0x0, symName: __ZNSt3__114__split_bufferIP7MutatorRNS_9allocatorIS2_EEE17__destruct_at_endB7v160006EPS2_, symObjAddr: 0x40A0, symBinAddr: 0x100008400, symSize: 0x30 }
  - { offsetInCU: 0x30B89, offset: 0x30B89, size: 0x8, addend: 0x0, symName: __ZNSt3__114__split_bufferIP7MutatorRNS_9allocatorIS2_EEE17__destruct_at_endB7v160006EPS2_NS_17integral_constantIbLb0EEE, symObjAddr: 0x40D0, symBinAddr: 0x100008430, symSize: 0x80 }
  - { offsetInCU: 0x30BCA, offset: 0x30BCA, size: 0x8, addend: 0x0, symName: __ZNSt3__116allocator_traitsINS_9allocatorIP7MutatorEEE7destroyB7v160006IS3_vEEvRS4_PT_, symObjAddr: 0x4150, symBinAddr: 0x1000084B0, symSize: 0x30 }
  - { offsetInCU: 0x30C07, offset: 0x30C07, size: 0x8, addend: 0x0, symName: __ZNSt3__19allocatorIP7MutatorE7destroyB7v160006EPS2_, symObjAddr: 0x4180, symBinAddr: 0x1000084E0, symSize: 0x10 }
  - { offsetInCU: 0x30C3B, offset: 0x30C3B, size: 0x8, addend: 0x0, symName: __ZNSt3__19allocatorIP7MutatorE10deallocateB7v160006EPS2_m, symObjAddr: 0x4190, symBinAddr: 0x1000084F0, symSize: 0x40 }
  - { offsetInCU: 0x30C7D, offset: 0x30C7D, size: 0x8, addend: 0x0, symName: __ZNKSt3__114__split_bufferIP7MutatorRNS_9allocatorIS2_EEE9__end_capB7v160006Ev, symObjAddr: 0x42D0, symBinAddr: 0x100008630, symSize: 0x20 }
  - { offsetInCU: 0x30CA3, offset: 0x30CA3, size: 0x8, addend: 0x0, symName: __ZNKSt3__117__compressed_pairIPP7MutatorRNS_9allocatorIS2_EEE5firstB7v160006Ev, symObjAddr: 0x42F0, symBinAddr: 0x100008650, symSize: 0x20 }
  - { offsetInCU: 0x30CC9, offset: 0x30CC9, size: 0x8, addend: 0x0, symName: __ZNSt3__16vectorIdNS_9allocatorIdEEEC2B7v160006Ev, symObjAddr: 0x4310, symBinAddr: 0x100008670, symSize: 0x60 }
  - { offsetInCU: 0x30CF3, offset: 0x30CF3, size: 0x8, addend: 0x0, symName: __ZNSt3__117__compressed_pairIPdNS_9allocatorIdEEEC1B7v160006IDnNS_18__default_init_tagEEEOT_OT0_, symObjAddr: 0x4370, symBinAddr: 0x1000086D0, symSize: 0x30 }
  - { offsetInCU: 0x30D4B, offset: 0x30D4B, size: 0x8, addend: 0x0, symName: __ZNSt3__117__compressed_pairIPdNS_9allocatorIdEEEC2B7v160006IDnNS_18__default_init_tagEEEOT_OT0_, symObjAddr: 0x43B0, symBinAddr: 0x100008710, symSize: 0x40 }
  - { offsetInCU: 0x30DA3, offset: 0x30DA3, size: 0x8, addend: 0x0, symName: __ZNSt3__122__compressed_pair_elemIPdLi0ELb0EEC2B7v160006IDnvEEOT_, symObjAddr: 0x43F0, symBinAddr: 0x100008750, symSize: 0x20 }
  - { offsetInCU: 0x30DE5, offset: 0x30DE5, size: 0x8, addend: 0x0, symName: __ZNSt3__122__compressed_pair_elemINS_9allocatorIdEELi1ELb1EEC2B7v160006ENS_18__default_init_tagE, symObjAddr: 0x4410, symBinAddr: 0x100008770, symSize: 0x20 }
  - { offsetInCU: 0x30E1A, offset: 0x30E1A, size: 0x8, addend: 0x0, symName: __ZNSt3__19allocatorIdEC2B7v160006Ev, symObjAddr: 0x4430, symBinAddr: 0x100008790, symSize: 0x20 }
  - { offsetInCU: 0x30E44, offset: 0x30E44, size: 0x8, addend: 0x0, symName: __ZNSt3__116__non_trivial_ifILb1ENS_9allocatorIdEEEC2B7v160006Ev, symObjAddr: 0x4450, symBinAddr: 0x1000087B0, symSize: 0x10 }
  - { offsetInCU: 0x30E6E, offset: 0x30E6E, size: 0x8, addend: 0x0, symName: __ZN14PSelectMutatorD2Ev, symObjAddr: 0x4460, symBinAddr: 0x1000087C0, symSize: 0x40 }
  - { offsetInCU: 0x30E9B, offset: 0x30E9B, size: 0x8, addend: 0x0, symName: __ZNSt3__16vectorIdNS_9allocatorIdEEED1B7v160006Ev, symObjAddr: 0x44A0, symBinAddr: 0x100008800, symSize: 0x20 }
  - { offsetInCU: 0x30EC5, offset: 0x30EC5, size: 0x8, addend: 0x0, symName: __ZN19HierarchicalMutatorD2Ev, symObjAddr: 0x44C0, symBinAddr: 0x100008820, symSize: 0x20 }
  - { offsetInCU: 0x30EF1, offset: 0x30EF1, size: 0x8, addend: 0x0, symName: __ZNSt3__16vectorIdNS_9allocatorIdEEED2B7v160006Ev, symObjAddr: 0x44E0, symBinAddr: 0x100008840, symSize: 0x40 }
  - { offsetInCU: 0x30F1B, offset: 0x30F1B, size: 0x8, addend: 0x0, symName: __ZNSt3__16vectorIdNS_9allocatorIdEEE16__destroy_vectorC1ERS3_, symObjAddr: 0x4520, symBinAddr: 0x100008880, symSize: 0x30 }
  - { offsetInCU: 0x30F54, offset: 0x30F54, size: 0x8, addend: 0x0, symName: __ZNSt3__16vectorIdNS_9allocatorIdEEE16__destroy_vectorclB7v160006Ev, symObjAddr: 0x4550, symBinAddr: 0x1000088B0, symSize: 0x90 }
  - { offsetInCU: 0x30F7A, offset: 0x30F7A, size: 0x8, addend: 0x0, symName: __ZNSt3__16vectorIdNS_9allocatorIdEEE16__destroy_vectorC2ERS3_, symObjAddr: 0x45E0, symBinAddr: 0x100008940, symSize: 0x20 }
  - { offsetInCU: 0x30FB3, offset: 0x30FB3, size: 0x8, addend: 0x0, symName: __ZNKSt3__16vectorIdNS_9allocatorIdEEE17__annotate_deleteB7v160006Ev, symObjAddr: 0x4600, symBinAddr: 0x100008960, symSize: 0xB0 }
  - { offsetInCU: 0x30FD9, offset: 0x30FD9, size: 0x8, addend: 0x0, symName: __ZNSt3__16vectorIdNS_9allocatorIdEEE7__clearB7v160006Ev, symObjAddr: 0x46C0, symBinAddr: 0x100008A20, symSize: 0x20 }
  - { offsetInCU: 0x30FFF, offset: 0x30FFF, size: 0x8, addend: 0x0, symName: __ZNSt3__116allocator_traitsINS_9allocatorIdEEE10deallocateB7v160006ERS2_Pdm, symObjAddr: 0x46E0, symBinAddr: 0x100008A40, symSize: 0x30 }
  - { offsetInCU: 0x31041, offset: 0x31041, size: 0x8, addend: 0x0, symName: __ZNSt3__16vectorIdNS_9allocatorIdEEE7__allocB7v160006Ev, symObjAddr: 0x4710, symBinAddr: 0x100008A70, symSize: 0x20 }
  - { offsetInCU: 0x31067, offset: 0x31067, size: 0x8, addend: 0x0, symName: __ZNKSt3__16vectorIdNS_9allocatorIdEEE8capacityB7v160006Ev, symObjAddr: 0x4730, symBinAddr: 0x100008A90, symSize: 0x30 }
  - { offsetInCU: 0x3108D, offset: 0x3108D, size: 0x8, addend: 0x0, symName: __ZNKSt3__16vectorIdNS_9allocatorIdEEE31__annotate_contiguous_containerB7v160006EPKvS5_S5_S5_, symObjAddr: 0x4760, symBinAddr: 0x100008AC0, symSize: 0x20 }
  - { offsetInCU: 0x310DF, offset: 0x310DF, size: 0x8, addend: 0x0, symName: __ZNKSt3__16vectorIdNS_9allocatorIdEEE4dataB7v160006Ev, symObjAddr: 0x4780, symBinAddr: 0x100008AE0, symSize: 0x20 }
  - { offsetInCU: 0x31105, offset: 0x31105, size: 0x8, addend: 0x0, symName: __ZNKSt3__16vectorIdNS_9allocatorIdEEE4sizeB7v160006Ev, symObjAddr: 0x47A0, symBinAddr: 0x100008B00, symSize: 0x20 }
  - { offsetInCU: 0x3112B, offset: 0x3112B, size: 0x8, addend: 0x0, symName: __ZNSt3__16vectorIdNS_9allocatorIdEEE22__base_destruct_at_endB7v160006EPd, symObjAddr: 0x47D0, symBinAddr: 0x100008B30, symSize: 0x80 }
  - { offsetInCU: 0x3116F, offset: 0x3116F, size: 0x8, addend: 0x0, symName: __ZNSt3__116allocator_traitsINS_9allocatorIdEEE7destroyB7v160006IdvEEvRS2_PT_, symObjAddr: 0x4850, symBinAddr: 0x100008BB0, symSize: 0x30 }
  - { offsetInCU: 0x311AC, offset: 0x311AC, size: 0x8, addend: 0x0, symName: __ZNSt3__19allocatorIdE7destroyB7v160006EPd, symObjAddr: 0x4880, symBinAddr: 0x100008BE0, symSize: 0x10 }
  - { offsetInCU: 0x311E0, offset: 0x311E0, size: 0x8, addend: 0x0, symName: __ZNSt3__19allocatorIdE10deallocateB7v160006EPdm, symObjAddr: 0x4890, symBinAddr: 0x100008BF0, symSize: 0x40 }
  - { offsetInCU: 0x31222, offset: 0x31222, size: 0x8, addend: 0x0, symName: __ZNSt3__117__compressed_pairIPdNS_9allocatorIdEEE6secondB7v160006Ev, symObjAddr: 0x48D0, symBinAddr: 0x100008C30, symSize: 0x20 }
  - { offsetInCU: 0x31248, offset: 0x31248, size: 0x8, addend: 0x0, symName: __ZNSt3__122__compressed_pair_elemINS_9allocatorIdEELi1ELb1EE5__getB7v160006Ev, symObjAddr: 0x48F0, symBinAddr: 0x100008C50, symSize: 0x10 }
  - { offsetInCU: 0x3126E, offset: 0x3126E, size: 0x8, addend: 0x0, symName: __ZNKSt3__16vectorIdNS_9allocatorIdEEE9__end_capB7v160006Ev, symObjAddr: 0x4900, symBinAddr: 0x100008C60, symSize: 0x20 }
  - { offsetInCU: 0x31294, offset: 0x31294, size: 0x8, addend: 0x0, symName: __ZNKSt3__117__compressed_pairIPdNS_9allocatorIdEEE5firstB7v160006Ev, symObjAddr: 0x4920, symBinAddr: 0x100008C80, symSize: 0x20 }
  - { offsetInCU: 0x312BA, offset: 0x312BA, size: 0x8, addend: 0x0, symName: __ZNKSt3__122__compressed_pair_elemIPdLi0ELb0EE5__getB7v160006Ev, symObjAddr: 0x4940, symBinAddr: 0x100008CA0, symSize: 0x10 }
  - { offsetInCU: 0x312E0, offset: 0x312E0, size: 0x8, addend: 0x0, symName: __ZN7MutatorD2Ev, symObjAddr: 0x4950, symBinAddr: 0x100008CB0, symSize: 0x30 }
  - { offsetInCU: 0x3130A, offset: 0x3130A, size: 0x8, addend: 0x0, symName: __ZNSt3__16vectorIP7MutatorNS_9allocatorIS2_EEED1B7v160006Ev, symObjAddr: 0x4980, symBinAddr: 0x100008CE0, symSize: 0x20 }
  - { offsetInCU: 0x31334, offset: 0x31334, size: 0x8, addend: 0x0, symName: __ZNSt3__16vectorIP7MutatorNS_9allocatorIS2_EEED2B7v160006Ev, symObjAddr: 0x49A0, symBinAddr: 0x100008D00, symSize: 0x40 }
  - { offsetInCU: 0x3135E, offset: 0x3135E, size: 0x8, addend: 0x0, symName: __ZNSt3__16vectorIP7MutatorNS_9allocatorIS2_EEE16__destroy_vectorC1ERS5_, symObjAddr: 0x49E0, symBinAddr: 0x100008D40, symSize: 0x30 }
  - { offsetInCU: 0x31397, offset: 0x31397, size: 0x8, addend: 0x0, symName: __ZNSt3__16vectorIP7MutatorNS_9allocatorIS2_EEE16__destroy_vectorclB7v160006Ev, symObjAddr: 0x4A10, symBinAddr: 0x100008D70, symSize: 0x90 }
  - { offsetInCU: 0x313BD, offset: 0x313BD, size: 0x8, addend: 0x0, symName: __ZNSt3__16vectorIP7MutatorNS_9allocatorIS2_EEE16__destroy_vectorC2ERS5_, symObjAddr: 0x4AA0, symBinAddr: 0x100008E00, symSize: 0x20 }
  - { offsetInCU: 0x313F6, offset: 0x313F6, size: 0x8, addend: 0x0, symName: __ZNSt3__16vectorIP7MutatorNS_9allocatorIS2_EEE7__clearB7v160006Ev, symObjAddr: 0x4AD0, symBinAddr: 0x100008E30, symSize: 0x20 }
  - { offsetInCU: 0x3141C, offset: 0x3141C, size: 0x8, addend: 0x0, symName: __ZNSt3__16vectorIP7MutatorNS_9allocatorIS2_EEE22__base_destruct_at_endB7v160006EPS2_, symObjAddr: 0x4AF0, symBinAddr: 0x100008E50, symSize: 0x80 }
  - { offsetInCU: 0x31460, offset: 0x31460, size: 0x8, addend: 0x0, symName: __ZN20MutatorSampleContextC1Ev, symObjAddr: 0x4B70, symBinAddr: 0x100008ED0, symSize: 0x20 }
  - { offsetInCU: 0x3148C, offset: 0x3148C, size: 0x8, addend: 0x0, symName: __ZN19HierarchicalMutator19CreateChildContextsEP6SampleP20MutatorSampleContext, symObjAddr: 0x4B90, symBinAddr: 0x100008EF0, symSize: 0xC0 }
  - { offsetInCU: 0x314EA, offset: 0x314EA, size: 0x8, addend: 0x0, symName: __ZN20MutatorSampleContextC2Ev, symObjAddr: 0x4C50, symBinAddr: 0x100008FB0, symSize: 0x30 }
  - { offsetInCU: 0x31516, offset: 0x31516, size: 0x8, addend: 0x0, symName: __ZNSt3__16vectorIP20MutatorSampleContextNS_9allocatorIS2_EEEC1B7v160006Ev, symObjAddr: 0x4C80, symBinAddr: 0x100008FE0, symSize: 0x20 }
  - { offsetInCU: 0x31540, offset: 0x31540, size: 0x8, addend: 0x0, symName: __ZN20MutatorSampleContextD1Ev, symObjAddr: 0x4CA0, symBinAddr: 0x100009000, symSize: 0x20 }
  - { offsetInCU: 0x3156A, offset: 0x3156A, size: 0x8, addend: 0x0, symName: __ZN20MutatorSampleContextD0Ev, symObjAddr: 0x4CC0, symBinAddr: 0x100009020, symSize: 0x30 }
  - { offsetInCU: 0x31594, offset: 0x31594, size: 0x8, addend: 0x0, symName: __ZNSt3__16vectorIP20MutatorSampleContextNS_9allocatorIS2_EEEC2B7v160006Ev, symObjAddr: 0x4CF0, symBinAddr: 0x100009050, symSize: 0x60 }
  - { offsetInCU: 0x315BE, offset: 0x315BE, size: 0x8, addend: 0x0, symName: __ZNSt3__117__compressed_pairIPP20MutatorSampleContextNS_9allocatorIS2_EEEC1B7v160006IDnNS_18__default_init_tagEEEOT_OT0_, symObjAddr: 0x4D50, symBinAddr: 0x1000090B0, symSize: 0x30 }
  - { offsetInCU: 0x31616, offset: 0x31616, size: 0x8, addend: 0x0, symName: __ZNSt3__117__compressed_pairIPP20MutatorSampleContextNS_9allocatorIS2_EEEC2B7v160006IDnNS_18__default_init_tagEEEOT_OT0_, symObjAddr: 0x4D90, symBinAddr: 0x1000090F0, symSize: 0x40 }
  - { offsetInCU: 0x3166E, offset: 0x3166E, size: 0x8, addend: 0x0, symName: __ZNSt3__122__compressed_pair_elemIPP20MutatorSampleContextLi0ELb0EEC2B7v160006IDnvEEOT_, symObjAddr: 0x4DD0, symBinAddr: 0x100009130, symSize: 0x20 }
  - { offsetInCU: 0x316B0, offset: 0x316B0, size: 0x8, addend: 0x0, symName: __ZNSt3__122__compressed_pair_elemINS_9allocatorIP20MutatorSampleContextEELi1ELb1EEC2B7v160006ENS_18__default_init_tagE, symObjAddr: 0x4DF0, symBinAddr: 0x100009150, symSize: 0x20 }
  - { offsetInCU: 0x316E5, offset: 0x316E5, size: 0x8, addend: 0x0, symName: __ZNSt3__19allocatorIP20MutatorSampleContextEC2B7v160006Ev, symObjAddr: 0x4E10, symBinAddr: 0x100009170, symSize: 0x20 }
  - { offsetInCU: 0x3170F, offset: 0x3170F, size: 0x8, addend: 0x0, symName: __ZNSt3__116__non_trivial_ifILb1ENS_9allocatorIP20MutatorSampleContextEEEC2B7v160006Ev, symObjAddr: 0x4E30, symBinAddr: 0x100009190, symSize: 0x10 }
  - { offsetInCU: 0x31739, offset: 0x31739, size: 0x8, addend: 0x0, symName: __ZN20MutatorSampleContextD2Ev, symObjAddr: 0x4E40, symBinAddr: 0x1000091A0, symSize: 0xB0 }
  - { offsetInCU: 0x317B4, offset: 0x317B4, size: 0x8, addend: 0x0, symName: __ZNSt3__16vectorIP20MutatorSampleContextNS_9allocatorIS2_EEE5beginB7v160006Ev, symObjAddr: 0x4EF0, symBinAddr: 0x100009250, symSize: 0x30 }
  - { offsetInCU: 0x317DC, offset: 0x317DC, size: 0x8, addend: 0x0, symName: __ZNSt3__16vectorIP20MutatorSampleContextNS_9allocatorIS2_EEE3endB7v160006Ev, symObjAddr: 0x4F20, symBinAddr: 0x100009280, symSize: 0x30 }
  - { offsetInCU: 0x31804, offset: 0x31804, size: 0x8, addend: 0x0, symName: __ZNKSt3__111__wrap_iterIPP20MutatorSampleContextEdeB7v160006Ev, symObjAddr: 0x4F80, symBinAddr: 0x1000092E0, symSize: 0x20 }
  - { offsetInCU: 0x3182A, offset: 0x3182A, size: 0x8, addend: 0x0, symName: __ZNSt3__111__wrap_iterIPP20MutatorSampleContextEppB7v160006Ev, symObjAddr: 0x4FA0, symBinAddr: 0x100009300, symSize: 0x20 }
  - { offsetInCU: 0x31850, offset: 0x31850, size: 0x8, addend: 0x0, symName: __ZNSt3__16vectorIP20MutatorSampleContextNS_9allocatorIS2_EEED1B7v160006Ev, symObjAddr: 0x4FC0, symBinAddr: 0x100009320, symSize: 0x20 }
  - { offsetInCU: 0x3187A, offset: 0x3187A, size: 0x8, addend: 0x0, symName: __ZNSt3__16vectorIP20MutatorSampleContextNS_9allocatorIS2_EEE11__make_iterB7v160006EPS2_, symObjAddr: 0x4FE0, symBinAddr: 0x100009340, symSize: 0x30 }
  - { offsetInCU: 0x318AF, offset: 0x318AF, size: 0x8, addend: 0x0, symName: __ZNSt3__111__wrap_iterIPP20MutatorSampleContextEC1B7v160006EPKvS3_, symObjAddr: 0x5010, symBinAddr: 0x100009370, symSize: 0x30 }
  - { offsetInCU: 0x318F5, offset: 0x318F5, size: 0x8, addend: 0x0, symName: __ZNSt3__111__wrap_iterIPP20MutatorSampleContextEC2B7v160006EPKvS3_, symObjAddr: 0x5040, symBinAddr: 0x1000093A0, symSize: 0x20 }
  - { offsetInCU: 0x3193B, offset: 0x3193B, size: 0x8, addend: 0x0, symName: __ZNKSt3__111__wrap_iterIPP20MutatorSampleContextE4baseB7v160006Ev, symObjAddr: 0x50A0, symBinAddr: 0x100009400, symSize: 0x20 }
  - { offsetInCU: 0x31961, offset: 0x31961, size: 0x8, addend: 0x0, symName: __ZNSt3__16vectorIP20MutatorSampleContextNS_9allocatorIS2_EEED2B7v160006Ev, symObjAddr: 0x50C0, symBinAddr: 0x100009420, symSize: 0x40 }
  - { offsetInCU: 0x3198B, offset: 0x3198B, size: 0x8, addend: 0x0, symName: __ZNSt3__16vectorIP20MutatorSampleContextNS_9allocatorIS2_EEE16__destroy_vectorC1ERS5_, symObjAddr: 0x5100, symBinAddr: 0x100009460, symSize: 0x30 }
  - { offsetInCU: 0x319C4, offset: 0x319C4, size: 0x8, addend: 0x0, symName: __ZNSt3__16vectorIP20MutatorSampleContextNS_9allocatorIS2_EEE16__destroy_vectorclB7v160006Ev, symObjAddr: 0x5130, symBinAddr: 0x100009490, symSize: 0x90 }
  - { offsetInCU: 0x319EA, offset: 0x319EA, size: 0x8, addend: 0x0, symName: __ZNSt3__16vectorIP20MutatorSampleContextNS_9allocatorIS2_EEE16__destroy_vectorC2ERS5_, symObjAddr: 0x51C0, symBinAddr: 0x100009520, symSize: 0x20 }
  - { offsetInCU: 0x31A23, offset: 0x31A23, size: 0x8, addend: 0x0, symName: __ZNKSt3__16vectorIP20MutatorSampleContextNS_9allocatorIS2_EEE17__annotate_deleteB7v160006Ev, symObjAddr: 0x51E0, symBinAddr: 0x100009540, symSize: 0xB0 }
  - { offsetInCU: 0x31A49, offset: 0x31A49, size: 0x8, addend: 0x0, symName: __ZNSt3__16vectorIP20MutatorSampleContextNS_9allocatorIS2_EEE7__clearB7v160006Ev, symObjAddr: 0x52A0, symBinAddr: 0x100009600, symSize: 0x20 }
  - { offsetInCU: 0x31A6F, offset: 0x31A6F, size: 0x8, addend: 0x0, symName: __ZNSt3__116allocator_traitsINS_9allocatorIP20MutatorSampleContextEEE10deallocateB7v160006ERS4_PS3_m, symObjAddr: 0x52C0, symBinAddr: 0x100009620, symSize: 0x30 }
  - { offsetInCU: 0x31AB1, offset: 0x31AB1, size: 0x8, addend: 0x0, symName: __ZNSt3__16vectorIP20MutatorSampleContextNS_9allocatorIS2_EEE7__allocB7v160006Ev, symObjAddr: 0x52F0, symBinAddr: 0x100009650, symSize: 0x20 }
  - { offsetInCU: 0x31AD7, offset: 0x31AD7, size: 0x8, addend: 0x0, symName: __ZNKSt3__16vectorIP20MutatorSampleContextNS_9allocatorIS2_EEE8capacityB7v160006Ev, symObjAddr: 0x5310, symBinAddr: 0x100009670, symSize: 0x30 }
  - { offsetInCU: 0x31AFD, offset: 0x31AFD, size: 0x8, addend: 0x0, symName: __ZNKSt3__16vectorIP20MutatorSampleContextNS_9allocatorIS2_EEE31__annotate_contiguous_containerB7v160006EPKvS7_S7_S7_, symObjAddr: 0x5340, symBinAddr: 0x1000096A0, symSize: 0x20 }
  - { offsetInCU: 0x31B4F, offset: 0x31B4F, size: 0x8, addend: 0x0, symName: __ZNKSt3__16vectorIP20MutatorSampleContextNS_9allocatorIS2_EEE4dataB7v160006Ev, symObjAddr: 0x5360, symBinAddr: 0x1000096C0, symSize: 0x20 }
  - { offsetInCU: 0x31B75, offset: 0x31B75, size: 0x8, addend: 0x0, symName: __ZNKSt3__16vectorIP20MutatorSampleContextNS_9allocatorIS2_EEE4sizeB7v160006Ev, symObjAddr: 0x5380, symBinAddr: 0x1000096E0, symSize: 0x20 }
  - { offsetInCU: 0x31B9B, offset: 0x31B9B, size: 0x8, addend: 0x0, symName: __ZNSt3__16vectorIP20MutatorSampleContextNS_9allocatorIS2_EEE22__base_destruct_at_endB7v160006EPS2_, symObjAddr: 0x53B0, symBinAddr: 0x100009710, symSize: 0x80 }
  - { offsetInCU: 0x31BDF, offset: 0x31BDF, size: 0x8, addend: 0x0, symName: __ZNSt3__116allocator_traitsINS_9allocatorIP20MutatorSampleContextEEE7destroyB7v160006IS3_vEEvRS4_PT_, symObjAddr: 0x5430, symBinAddr: 0x100009790, symSize: 0x30 }
  - { offsetInCU: 0x31C1C, offset: 0x31C1C, size: 0x8, addend: 0x0, symName: __ZNSt3__19allocatorIP20MutatorSampleContextE7destroyB7v160006EPS2_, symObjAddr: 0x5460, symBinAddr: 0x1000097C0, symSize: 0x10 }
  - { offsetInCU: 0x31C50, offset: 0x31C50, size: 0x8, addend: 0x0, symName: __ZNSt3__19allocatorIP20MutatorSampleContextE10deallocateB7v160006EPS2_m, symObjAddr: 0x5470, symBinAddr: 0x1000097D0, symSize: 0x40 }
  - { offsetInCU: 0x31C92, offset: 0x31C92, size: 0x8, addend: 0x0, symName: __ZNSt3__117__compressed_pairIPP20MutatorSampleContextNS_9allocatorIS2_EEE6secondB7v160006Ev, symObjAddr: 0x54B0, symBinAddr: 0x100009810, symSize: 0x20 }
  - { offsetInCU: 0x31CB8, offset: 0x31CB8, size: 0x8, addend: 0x0, symName: __ZNSt3__122__compressed_pair_elemINS_9allocatorIP20MutatorSampleContextEELi1ELb1EE5__getB7v160006Ev, symObjAddr: 0x54D0, symBinAddr: 0x100009830, symSize: 0x10 }
  - { offsetInCU: 0x31CDE, offset: 0x31CDE, size: 0x8, addend: 0x0, symName: __ZNKSt3__16vectorIP20MutatorSampleContextNS_9allocatorIS2_EEE9__end_capB7v160006Ev, symObjAddr: 0x54E0, symBinAddr: 0x100009840, symSize: 0x20 }
  - { offsetInCU: 0x31D04, offset: 0x31D04, size: 0x8, addend: 0x0, symName: __ZNKSt3__117__compressed_pairIPP20MutatorSampleContextNS_9allocatorIS2_EEE5firstB7v160006Ev, symObjAddr: 0x5500, symBinAddr: 0x100009860, symSize: 0x20 }
  - { offsetInCU: 0x31D2A, offset: 0x31D2A, size: 0x8, addend: 0x0, symName: __ZNKSt3__122__compressed_pair_elemIPP20MutatorSampleContextLi0ELb0EE5__getB7v160006Ev, symObjAddr: 0x5520, symBinAddr: 0x100009880, symSize: 0x10 }
  - { offsetInCU: 0x31D50, offset: 0x31D50, size: 0x8, addend: 0x0, symName: __ZNSt3__16vectorIP20MutatorSampleContextNS_9allocatorIS2_EEE6resizeEm, symObjAddr: 0x5530, symBinAddr: 0x100009890, symSize: 0x80 }
  - { offsetInCU: 0x31D96, offset: 0x31D96, size: 0x8, addend: 0x0, symName: __ZNSt3__16vectorIP20MutatorSampleContextNS_9allocatorIS2_EEEixB7v160006Em, symObjAddr: 0x55B0, symBinAddr: 0x100009910, symSize: 0x20 }
  - { offsetInCU: 0x31DCD, offset: 0x31DCD, size: 0x8, addend: 0x0, symName: __ZNSt3__16vectorIP20MutatorSampleContextNS_9allocatorIS2_EEE8__appendEm, symObjAddr: 0x55D0, symBinAddr: 0x100009930, symSize: 0x100 }
  - { offsetInCU: 0x31E28, offset: 0x31E28, size: 0x8, addend: 0x0, symName: __ZNSt3__16vectorIP20MutatorSampleContextNS_9allocatorIS2_EEE17__destruct_at_endB7v160006EPS2_, symObjAddr: 0x56D0, symBinAddr: 0x100009A30, symSize: 0x60 }
  - { offsetInCU: 0x31E6C, offset: 0x31E6C, size: 0x8, addend: 0x0, symName: __ZNSt3__16vectorIP20MutatorSampleContextNS_9allocatorIS2_EEE9__end_capB7v160006Ev, symObjAddr: 0x5730, symBinAddr: 0x100009A90, symSize: 0x20 }
  - { offsetInCU: 0x31E92, offset: 0x31E92, size: 0x8, addend: 0x0, symName: __ZNSt3__16vectorIP20MutatorSampleContextNS_9allocatorIS2_EEE18__construct_at_endEm, symObjAddr: 0x5750, symBinAddr: 0x100009AB0, symSize: 0xC0 }
  - { offsetInCU: 0x31F04, offset: 0x31F04, size: 0x8, addend: 0x0, symName: __ZNKSt3__16vectorIP20MutatorSampleContextNS_9allocatorIS2_EEE11__recommendB7v160006Em, symObjAddr: 0x5810, symBinAddr: 0x100009B70, symSize: 0xA0 }
  - { offsetInCU: 0x31F59, offset: 0x31F59, size: 0x8, addend: 0x0, symName: __ZNSt3__114__split_bufferIP20MutatorSampleContextRNS_9allocatorIS2_EEEC1EmmS5_, symObjAddr: 0x58B0, symBinAddr: 0x100009C10, symSize: 0x40 }
  - { offsetInCU: 0x31FAF, offset: 0x31FAF, size: 0x8, addend: 0x0, symName: __ZNSt3__114__split_bufferIP20MutatorSampleContextRNS_9allocatorIS2_EEE18__construct_at_endEm, symObjAddr: 0x58F0, symBinAddr: 0x100009C50, symSize: 0xB0 }
  - { offsetInCU: 0x31FF2, offset: 0x31FF2, size: 0x8, addend: 0x0, symName: __ZNSt3__114__split_bufferIP20MutatorSampleContextRNS_9allocatorIS2_EEED1Ev, symObjAddr: 0x5AD0, symBinAddr: 0x100009E30, symSize: 0x20 }
  - { offsetInCU: 0x3201E, offset: 0x3201E, size: 0x8, addend: 0x0, symName: __ZNSt3__117__compressed_pairIPP20MutatorSampleContextNS_9allocatorIS2_EEE5firstB7v160006Ev, symObjAddr: 0x5AF0, symBinAddr: 0x100009E50, symSize: 0x20 }
  - { offsetInCU: 0x32044, offset: 0x32044, size: 0x8, addend: 0x0, symName: __ZNSt3__122__compressed_pair_elemIPP20MutatorSampleContextLi0ELb0EE5__getB7v160006Ev, symObjAddr: 0x5B10, symBinAddr: 0x100009E70, symSize: 0x10 }
  - { offsetInCU: 0x32083, offset: 0x32083, size: 0x8, addend: 0x0, symName: __ZNSt3__16vectorIP20MutatorSampleContextNS_9allocatorIS2_EEE21_ConstructTransactionC1B7v160006ERS5_m, symObjAddr: 0x5B20, symBinAddr: 0x100009E80, symSize: 0x30 }
  - { offsetInCU: 0x320CB, offset: 0x320CB, size: 0x8, addend: 0x0, symName: __ZNSt3__116allocator_traitsINS_9allocatorIP20MutatorSampleContextEEE9constructB7v160006IS3_JEvEEvRS4_PT_DpOT0_, symObjAddr: 0x5B50, symBinAddr: 0x100009EB0, symSize: 0x30 }
  - { offsetInCU: 0x3210D, offset: 0x3210D, size: 0x8, addend: 0x0, symName: __ZNSt3__16vectorIP20MutatorSampleContextNS_9allocatorIS2_EEE21_ConstructTransactionD1B7v160006Ev, symObjAddr: 0x5B80, symBinAddr: 0x100009EE0, symSize: 0x20 }
  - { offsetInCU: 0x32137, offset: 0x32137, size: 0x8, addend: 0x0, symName: __ZNSt3__16vectorIP20MutatorSampleContextNS_9allocatorIS2_EEE21_ConstructTransactionC2B7v160006ERS5_m, symObjAddr: 0x5BA0, symBinAddr: 0x100009F00, symSize: 0x40 }
  - { offsetInCU: 0x3217F, offset: 0x3217F, size: 0x8, addend: 0x0, symName: __ZNSt3__19allocatorIP20MutatorSampleContextE9constructB7v160006IS2_JEEEvPT_DpOT0_, symObjAddr: 0x5BE0, symBinAddr: 0x100009F40, symSize: 0x20 }
  - { offsetInCU: 0x321C1, offset: 0x321C1, size: 0x8, addend: 0x0, symName: __ZNSt3__16vectorIP20MutatorSampleContextNS_9allocatorIS2_EEE21_ConstructTransactionD2B7v160006Ev, symObjAddr: 0x5C00, symBinAddr: 0x100009F60, symSize: 0x20 }
  - { offsetInCU: 0x321EB, offset: 0x321EB, size: 0x8, addend: 0x0, symName: __ZNKSt3__16vectorIP20MutatorSampleContextNS_9allocatorIS2_EEE8max_sizeEv, symObjAddr: 0x5C20, symBinAddr: 0x100009F80, symSize: 0x60 }
  - { offsetInCU: 0x32213, offset: 0x32213, size: 0x8, addend: 0x0, symName: __ZNKSt3__16vectorIP20MutatorSampleContextNS_9allocatorIS2_EEE20__throw_length_errorB7v160006Ev, symObjAddr: 0x5C80, symBinAddr: 0x100009FE0, symSize: 0x20 }
  - { offsetInCU: 0x32243, offset: 0x32243, size: 0x8, addend: 0x0, symName: __ZNSt3__116allocator_traitsINS_9allocatorIP20MutatorSampleContextEEE8max_sizeB7v160006IS4_vEEmRKS4_, symObjAddr: 0x5CA0, symBinAddr: 0x10000A000, symSize: 0x20 }
  - { offsetInCU: 0x32271, offset: 0x32271, size: 0x8, addend: 0x0, symName: __ZNKSt3__16vectorIP20MutatorSampleContextNS_9allocatorIS2_EEE7__allocB7v160006Ev, symObjAddr: 0x5CC0, symBinAddr: 0x10000A020, symSize: 0x20 }
  - { offsetInCU: 0x32297, offset: 0x32297, size: 0x8, addend: 0x0, symName: __ZNKSt3__19allocatorIP20MutatorSampleContextE8max_sizeB7v160006Ev, symObjAddr: 0x5CE0, symBinAddr: 0x10000A040, symSize: 0x20 }
  - { offsetInCU: 0x322BD, offset: 0x322BD, size: 0x8, addend: 0x0, symName: __ZNKSt3__117__compressed_pairIPP20MutatorSampleContextNS_9allocatorIS2_EEE6secondB7v160006Ev, symObjAddr: 0x5D00, symBinAddr: 0x10000A060, symSize: 0x20 }
  - { offsetInCU: 0x322E3, offset: 0x322E3, size: 0x8, addend: 0x0, symName: __ZNKSt3__122__compressed_pair_elemINS_9allocatorIP20MutatorSampleContextEELi1ELb1EE5__getB7v160006Ev, symObjAddr: 0x5D20, symBinAddr: 0x10000A080, symSize: 0x10 }
  - { offsetInCU: 0x32309, offset: 0x32309, size: 0x8, addend: 0x0, symName: __ZNSt3__114__split_bufferIP20MutatorSampleContextRNS_9allocatorIS2_EEEC2EmmS5_, symObjAddr: 0x5D30, symBinAddr: 0x10000A090, symSize: 0xD0 }
  - { offsetInCU: 0x3237C, offset: 0x3237C, size: 0x8, addend: 0x0, symName: __ZNSt3__117__compressed_pairIPP20MutatorSampleContextRNS_9allocatorIS2_EEEC1B7v160006IDnS6_EEOT_OT0_, symObjAddr: 0x5E00, symBinAddr: 0x10000A160, symSize: 0x30 }
  - { offsetInCU: 0x323D4, offset: 0x323D4, size: 0x8, addend: 0x0, symName: __ZNSt3__114__split_bufferIP20MutatorSampleContextRNS_9allocatorIS2_EEE7__allocB7v160006Ev, symObjAddr: 0x5E70, symBinAddr: 0x10000A1D0, symSize: 0x20 }
  - { offsetInCU: 0x323FA, offset: 0x323FA, size: 0x8, addend: 0x0, symName: __ZNSt3__114__split_bufferIP20MutatorSampleContextRNS_9allocatorIS2_EEE9__end_capB7v160006Ev, symObjAddr: 0x5E90, symBinAddr: 0x10000A1F0, symSize: 0x20 }
  - { offsetInCU: 0x32420, offset: 0x32420, size: 0x8, addend: 0x0, symName: __ZNSt3__117__compressed_pairIPP20MutatorSampleContextRNS_9allocatorIS2_EEEC2B7v160006IDnS6_EEOT_OT0_, symObjAddr: 0x5EB0, symBinAddr: 0x10000A210, symSize: 0x40 }
  - { offsetInCU: 0x32478, offset: 0x32478, size: 0x8, addend: 0x0, symName: __ZNSt3__122__compressed_pair_elemIRNS_9allocatorIP20MutatorSampleContextEELi1ELb0EEC2B7v160006IS5_vEEOT_, symObjAddr: 0x5EF0, symBinAddr: 0x10000A250, symSize: 0x20 }
  - { offsetInCU: 0x324BA, offset: 0x324BA, size: 0x8, addend: 0x0, symName: __ZNSt3__19allocatorIP20MutatorSampleContextE8allocateB7v160006Em, symObjAddr: 0x5F10, symBinAddr: 0x10000A270, symSize: 0x50 }
  - { offsetInCU: 0x324EE, offset: 0x324EE, size: 0x8, addend: 0x0, symName: __ZNSt3__117__compressed_pairIPP20MutatorSampleContextRNS_9allocatorIS2_EEE6secondB7v160006Ev, symObjAddr: 0x5F60, symBinAddr: 0x10000A2C0, symSize: 0x20 }
  - { offsetInCU: 0x32514, offset: 0x32514, size: 0x8, addend: 0x0, symName: __ZNSt3__122__compressed_pair_elemIRNS_9allocatorIP20MutatorSampleContextEELi1ELb0EE5__getB7v160006Ev, symObjAddr: 0x5F80, symBinAddr: 0x10000A2E0, symSize: 0x20 }
  - { offsetInCU: 0x3253A, offset: 0x3253A, size: 0x8, addend: 0x0, symName: __ZNSt3__117__compressed_pairIPP20MutatorSampleContextRNS_9allocatorIS2_EEE5firstB7v160006Ev, symObjAddr: 0x5FA0, symBinAddr: 0x10000A300, symSize: 0x20 }
  - { offsetInCU: 0x3256A, offset: 0x3256A, size: 0x8, addend: 0x0, symName: __ZNSt3__114__split_bufferIP20MutatorSampleContextRNS_9allocatorIS2_EEE21_ConstructTransactionC1B7v160006EPPS2_m, symObjAddr: 0x5FC0, symBinAddr: 0x10000A320, symSize: 0x30 }
  - { offsetInCU: 0x325B0, offset: 0x325B0, size: 0x8, addend: 0x0, symName: __ZNSt3__114__split_bufferIP20MutatorSampleContextRNS_9allocatorIS2_EEE21_ConstructTransactionD1B7v160006Ev, symObjAddr: 0x5FF0, symBinAddr: 0x10000A350, symSize: 0x20 }
  - { offsetInCU: 0x325DA, offset: 0x325DA, size: 0x8, addend: 0x0, symName: __ZNSt3__114__split_bufferIP20MutatorSampleContextRNS_9allocatorIS2_EEE21_ConstructTransactionC2B7v160006EPPS2_m, symObjAddr: 0x6010, symBinAddr: 0x10000A370, symSize: 0x40 }
  - { offsetInCU: 0x32620, offset: 0x32620, size: 0x8, addend: 0x0, symName: __ZNSt3__114__split_bufferIP20MutatorSampleContextRNS_9allocatorIS2_EEE21_ConstructTransactionD2B7v160006Ev, symObjAddr: 0x6050, symBinAddr: 0x10000A3B0, symSize: 0x20 }
  - { offsetInCU: 0x3264A, offset: 0x3264A, size: 0x8, addend: 0x0, symName: __ZNSt3__116reverse_iteratorIPP20MutatorSampleContextEC1B7v160006ES3_, symObjAddr: 0x60E0, symBinAddr: 0x10000A440, symSize: 0x30 }
  - { offsetInCU: 0x32682, offset: 0x32682, size: 0x8, addend: 0x0, symName: __ZNKSt3__116reverse_iteratorIPP20MutatorSampleContextE4baseB7v160006Ev, symObjAddr: 0x6110, symBinAddr: 0x10000A470, symSize: 0x20 }
  - { offsetInCU: 0x326A8, offset: 0x326A8, size: 0x8, addend: 0x0, symName: __ZNKSt3__16vectorIP20MutatorSampleContextNS_9allocatorIS2_EEE14__annotate_newB7v160006Em, symObjAddr: 0x6170, symBinAddr: 0x10000A4D0, symSize: 0xB0 }
  - { offsetInCU: 0x326F7, offset: 0x326F7, size: 0x8, addend: 0x0, symName: __ZNKSt3__111__move_loopINS_17_ClassicAlgPolicyEEclB7v160006INS_16reverse_iteratorIPP20MutatorSampleContextEES8_S8_EENS_4pairIT_T1_EESA_T0_SB_, symObjAddr: 0x6670, symBinAddr: 0x10000A9D0, symSize: 0xA0 }
  - { offsetInCU: 0x32768, offset: 0x32768, size: 0x8, addend: 0x0, symName: __ZNSt3__18_IterOpsINS_17_ClassicAlgPolicyEE11__iter_moveB7v160006IRNS_16reverse_iteratorIPP20MutatorSampleContextEEEENS_9enable_ifIXsr12is_referenceIDTdeclsr3stdE7declvalIRT_EEEEE5valueEDTclsr3stdE4movedeclsr3stdE7declvalISC_EEEEE4typeEOSB_, symObjAddr: 0x6890, symBinAddr: 0x10000ABF0, symSize: 0x20 }
  - { offsetInCU: 0x32794, offset: 0x32794, size: 0x8, addend: 0x0, symName: __ZNKSt3__116reverse_iteratorIPP20MutatorSampleContextEdeB7v160006Ev, symObjAddr: 0x68B0, symBinAddr: 0x10000AC10, symSize: 0x30 }
  - { offsetInCU: 0x327C8, offset: 0x327C8, size: 0x8, addend: 0x0, symName: __ZNSt3__116reverse_iteratorIPP20MutatorSampleContextEppB7v160006Ev, symObjAddr: 0x68E0, symBinAddr: 0x10000AC40, symSize: 0x20 }
  - { offsetInCU: 0x327EE, offset: 0x327EE, size: 0x8, addend: 0x0, symName: __ZNSt3__18_IterOpsINS_17_ClassicAlgPolicyEE25__validate_iter_referenceB7v160006IRNS_16reverse_iteratorIPP20MutatorSampleContextEEEEvv, symObjAddr: 0x6900, symBinAddr: 0x10000AC60, symSize: 0x10 }
  - { offsetInCU: 0x3280C, offset: 0x3280C, size: 0x8, addend: 0x0, symName: __ZNSt3__118__unwrap_iter_implINS_16reverse_iteratorIPP20MutatorSampleContextEELb0EE8__unwrapB7v160006ES5_, symObjAddr: 0x6910, symBinAddr: 0x10000AC70, symSize: 0x20 }
  - { offsetInCU: 0x32835, offset: 0x32835, size: 0x8, addend: 0x0, symName: __ZNSt3__14pairINS_16reverse_iteratorIPP20MutatorSampleContextEES5_EC1B7v160006IS5_S5_LPv0EEEOT_OT0_, symObjAddr: 0x6930, symBinAddr: 0x10000AC90, symSize: 0x30 }
  - { offsetInCU: 0x32893, offset: 0x32893, size: 0x8, addend: 0x0, symName: __ZNSt3__14pairINS_16reverse_iteratorIPP20MutatorSampleContextEES5_EC2B7v160006IS5_S5_LPv0EEEOT_OT0_, symObjAddr: 0x6960, symBinAddr: 0x10000ACC0, symSize: 0x40 }
  - { offsetInCU: 0x328F1, offset: 0x328F1, size: 0x8, addend: 0x0, symName: __ZNSt3__118__unwrap_iter_implINS_16reverse_iteratorIPP20MutatorSampleContextEELb0EE8__rewrapB7v160006ES5_S5_, symObjAddr: 0x69A0, symBinAddr: 0x10000AD00, symSize: 0x30 }
  - { offsetInCU: 0x3291F, offset: 0x3291F, size: 0x8, addend: 0x0, symName: __ZNSt3__116reverse_iteratorIPP20MutatorSampleContextEC2B7v160006ES3_, symObjAddr: 0x69D0, symBinAddr: 0x10000AD30, symSize: 0x30 }
  - { offsetInCU: 0x32957, offset: 0x32957, size: 0x8, addend: 0x0, symName: __ZNSt3__114__split_bufferIP20MutatorSampleContextRNS_9allocatorIS2_EEED2Ev, symObjAddr: 0x6A00, symBinAddr: 0x10000AD60, symSize: 0x70 }
  - { offsetInCU: 0x32983, offset: 0x32983, size: 0x8, addend: 0x0, symName: __ZNSt3__114__split_bufferIP20MutatorSampleContextRNS_9allocatorIS2_EEE5clearB7v160006Ev, symObjAddr: 0x6A70, symBinAddr: 0x10000ADD0, symSize: 0x20 }
  - { offsetInCU: 0x329A9, offset: 0x329A9, size: 0x8, addend: 0x0, symName: __ZNKSt3__114__split_bufferIP20MutatorSampleContextRNS_9allocatorIS2_EEE8capacityB7v160006Ev, symObjAddr: 0x6A90, symBinAddr: 0x10000ADF0, symSize: 0x30 }
  - { offsetInCU: 0x329CF, offset: 0x329CF, size: 0x8, addend: 0x0, symName: __ZNSt3__114__split_bufferIP20MutatorSampleContextRNS_9allocatorIS2_EEE17__destruct_at_endB7v160006EPS2_, symObjAddr: 0x6AC0, symBinAddr: 0x10000AE20, symSize: 0x30 }
  - { offsetInCU: 0x32A03, offset: 0x32A03, size: 0x8, addend: 0x0, symName: __ZNSt3__114__split_bufferIP20MutatorSampleContextRNS_9allocatorIS2_EEE17__destruct_at_endB7v160006EPS2_NS_17integral_constantIbLb0EEE, symObjAddr: 0x6AF0, symBinAddr: 0x10000AE50, symSize: 0x80 }
  - { offsetInCU: 0x32A44, offset: 0x32A44, size: 0x8, addend: 0x0, symName: __ZNKSt3__114__split_bufferIP20MutatorSampleContextRNS_9allocatorIS2_EEE9__end_capB7v160006Ev, symObjAddr: 0x6B70, symBinAddr: 0x10000AED0, symSize: 0x20 }
  - { offsetInCU: 0x32A6A, offset: 0x32A6A, size: 0x8, addend: 0x0, symName: __ZNKSt3__117__compressed_pairIPP20MutatorSampleContextRNS_9allocatorIS2_EEE5firstB7v160006Ev, symObjAddr: 0x6B90, symBinAddr: 0x10000AEF0, symSize: 0x20 }
  - { offsetInCU: 0x32A90, offset: 0x32A90, size: 0x8, addend: 0x0, symName: __ZNSt3__16vectorIP20MutatorSampleContextNS_9allocatorIS2_EEE27__invalidate_iterators_pastB7v160006EPS2_, symObjAddr: 0x6BB0, symBinAddr: 0x10000AF10, symSize: 0x10 }
  - { offsetInCU: 0x32AC7, offset: 0x32AC7, size: 0x8, addend: 0x0, symName: __ZNKSt3__16vectorIP20MutatorSampleContextNS_9allocatorIS2_EEE17__annotate_shrinkB7v160006Em, symObjAddr: 0x6BC0, symBinAddr: 0x10000AF20, symSize: 0xA0 }
  - { offsetInCU: 0x32AFC, offset: 0x32AFC, size: 0x8, addend: 0x0, symName: __ZN4PRNG8RandRealEv, symObjAddr: 0x6C60, symBinAddr: 0x10000AFC0, symSize: 0x40 }
  - { offsetInCU: 0x32B22, offset: 0x32B22, size: 0x8, addend: 0x0, symName: __ZNSt3__16vectorIdNS_9allocatorIdEEEixB7v160006Em, symObjAddr: 0x6CA0, symBinAddr: 0x10000B000, symSize: 0x20 }
  - { offsetInCU: 0x32B59, offset: 0x32B59, size: 0x8, addend: 0x0, symName: __ZNSt3__16vectorIdNS_9allocatorIdEEE9push_backB7v160006EOd, symObjAddr: 0x6CC0, symBinAddr: 0x10000B020, symSize: 0x60 }
  - { offsetInCU: 0x32B90, offset: 0x32B90, size: 0x8, addend: 0x0, symName: __ZNSt3__16vectorIdNS_9allocatorIdEEE9__end_capB7v160006Ev, symObjAddr: 0x6D20, symBinAddr: 0x10000B080, symSize: 0x20 }
  - { offsetInCU: 0x32BBC, offset: 0x32BBC, size: 0x8, addend: 0x0, symName: __ZNSt3__16vectorIdNS_9allocatorIdEEE22__construct_one_at_endB7v160006IJdEEEvDpOT_, symObjAddr: 0x6D40, symBinAddr: 0x10000B0A0, symSize: 0x90 }
  - { offsetInCU: 0x32C0B, offset: 0x32C0B, size: 0x8, addend: 0x0, symName: __ZNSt3__16vectorIdNS_9allocatorIdEEE21__push_back_slow_pathIdEEvOT_, symObjAddr: 0x6DD0, symBinAddr: 0x10000B130, symSize: 0xD0 }
  - { offsetInCU: 0x32C69, offset: 0x32C69, size: 0x8, addend: 0x0, symName: __ZNSt3__117__compressed_pairIPdNS_9allocatorIdEEE5firstB7v160006Ev, symObjAddr: 0x6EA0, symBinAddr: 0x10000B200, symSize: 0x20 }
  - { offsetInCU: 0x32C8F, offset: 0x32C8F, size: 0x8, addend: 0x0, symName: __ZNSt3__122__compressed_pair_elemIPdLi0ELb0EE5__getB7v160006Ev, symObjAddr: 0x6EC0, symBinAddr: 0x10000B220, symSize: 0x10 }
  - { offsetInCU: 0x32CCE, offset: 0x32CCE, size: 0x8, addend: 0x0, symName: __ZNSt3__16vectorIdNS_9allocatorIdEEE21_ConstructTransactionC1B7v160006ERS3_m, symObjAddr: 0x6ED0, symBinAddr: 0x10000B230, symSize: 0x30 }
  - { offsetInCU: 0x32D16, offset: 0x32D16, size: 0x8, addend: 0x0, symName: __ZNSt3__116allocator_traitsINS_9allocatorIdEEE9constructB7v160006IdJdEvEEvRS2_PT_DpOT0_, symObjAddr: 0x6F00, symBinAddr: 0x10000B260, symSize: 0x30 }
  - { offsetInCU: 0x32D6D, offset: 0x32D6D, size: 0x8, addend: 0x0, symName: __ZNSt3__16vectorIdNS_9allocatorIdEEE21_ConstructTransactionD1B7v160006Ev, symObjAddr: 0x6F30, symBinAddr: 0x10000B290, symSize: 0x20 }
  - { offsetInCU: 0x32D97, offset: 0x32D97, size: 0x8, addend: 0x0, symName: __ZNSt3__16vectorIdNS_9allocatorIdEEE21_ConstructTransactionC2B7v160006ERS3_m, symObjAddr: 0x6F50, symBinAddr: 0x10000B2B0, symSize: 0x40 }
  - { offsetInCU: 0x32DDF, offset: 0x32DDF, size: 0x8, addend: 0x0, symName: __ZNSt3__19allocatorIdE9constructB7v160006IdJdEEEvPT_DpOT0_, symObjAddr: 0x6F90, symBinAddr: 0x10000B2F0, symSize: 0x30 }
  - { offsetInCU: 0x32E35, offset: 0x32E35, size: 0x8, addend: 0x0, symName: __ZNSt3__16vectorIdNS_9allocatorIdEEE21_ConstructTransactionD2B7v160006Ev, symObjAddr: 0x6FC0, symBinAddr: 0x10000B320, symSize: 0x20 }
  - { offsetInCU: 0x32E5F, offset: 0x32E5F, size: 0x8, addend: 0x0, symName: __ZNKSt3__16vectorIdNS_9allocatorIdEEE11__recommendB7v160006Em, symObjAddr: 0x6FE0, symBinAddr: 0x10000B340, symSize: 0xA0 }
  - { offsetInCU: 0x32EB4, offset: 0x32EB4, size: 0x8, addend: 0x0, symName: __ZNSt3__114__split_bufferIdRNS_9allocatorIdEEEC1EmmS3_, symObjAddr: 0x7080, symBinAddr: 0x10000B3E0, symSize: 0x40 }
  - { offsetInCU: 0x32F0A, offset: 0x32F0A, size: 0x8, addend: 0x0, symName: __ZNSt3__114__split_bufferIdRNS_9allocatorIdEEED1Ev, symObjAddr: 0x71F0, symBinAddr: 0x10000B550, symSize: 0x20 }
  - { offsetInCU: 0x32F36, offset: 0x32F36, size: 0x8, addend: 0x0, symName: __ZNKSt3__16vectorIdNS_9allocatorIdEEE8max_sizeEv, symObjAddr: 0x7210, symBinAddr: 0x10000B570, symSize: 0x60 }
  - { offsetInCU: 0x32F5E, offset: 0x32F5E, size: 0x8, addend: 0x0, symName: __ZNKSt3__16vectorIdNS_9allocatorIdEEE20__throw_length_errorB7v160006Ev, symObjAddr: 0x7270, symBinAddr: 0x10000B5D0, symSize: 0x20 }
  - { offsetInCU: 0x32F8E, offset: 0x32F8E, size: 0x8, addend: 0x0, symName: __ZNSt3__116allocator_traitsINS_9allocatorIdEEE8max_sizeB7v160006IS2_vEEmRKS2_, symObjAddr: 0x7290, symBinAddr: 0x10000B5F0, symSize: 0x20 }
  - { offsetInCU: 0x32FBC, offset: 0x32FBC, size: 0x8, addend: 0x0, symName: __ZNKSt3__16vectorIdNS_9allocatorIdEEE7__allocB7v160006Ev, symObjAddr: 0x72B0, symBinAddr: 0x10000B610, symSize: 0x20 }
  - { offsetInCU: 0x32FE2, offset: 0x32FE2, size: 0x8, addend: 0x0, symName: __ZNKSt3__19allocatorIdE8max_sizeB7v160006Ev, symObjAddr: 0x72D0, symBinAddr: 0x10000B630, symSize: 0x20 }
  - { offsetInCU: 0x33008, offset: 0x33008, size: 0x8, addend: 0x0, symName: __ZNKSt3__117__compressed_pairIPdNS_9allocatorIdEEE6secondB7v160006Ev, symObjAddr: 0x72F0, symBinAddr: 0x10000B650, symSize: 0x20 }
  - { offsetInCU: 0x3302E, offset: 0x3302E, size: 0x8, addend: 0x0, symName: __ZNKSt3__122__compressed_pair_elemINS_9allocatorIdEELi1ELb1EE5__getB7v160006Ev, symObjAddr: 0x7310, symBinAddr: 0x10000B670, symSize: 0x10 }
  - { offsetInCU: 0x33054, offset: 0x33054, size: 0x8, addend: 0x0, symName: __ZNSt3__114__split_bufferIdRNS_9allocatorIdEEEC2EmmS3_, symObjAddr: 0x7320, symBinAddr: 0x10000B680, symSize: 0xD0 }
  - { offsetInCU: 0x330C7, offset: 0x330C7, size: 0x8, addend: 0x0, symName: __ZNSt3__117__compressed_pairIPdRNS_9allocatorIdEEEC1B7v160006IDnS4_EEOT_OT0_, symObjAddr: 0x73F0, symBinAddr: 0x10000B750, symSize: 0x30 }
  - { offsetInCU: 0x3311F, offset: 0x3311F, size: 0x8, addend: 0x0, symName: __ZNSt3__114__split_bufferIdRNS_9allocatorIdEEE7__allocB7v160006Ev, symObjAddr: 0x7460, symBinAddr: 0x10000B7C0, symSize: 0x20 }
  - { offsetInCU: 0x33145, offset: 0x33145, size: 0x8, addend: 0x0, symName: __ZNSt3__114__split_bufferIdRNS_9allocatorIdEEE9__end_capB7v160006Ev, symObjAddr: 0x7480, symBinAddr: 0x10000B7E0, symSize: 0x20 }
  - { offsetInCU: 0x3316B, offset: 0x3316B, size: 0x8, addend: 0x0, symName: __ZNSt3__117__compressed_pairIPdRNS_9allocatorIdEEEC2B7v160006IDnS4_EEOT_OT0_, symObjAddr: 0x74A0, symBinAddr: 0x10000B800, symSize: 0x40 }
  - { offsetInCU: 0x331C3, offset: 0x331C3, size: 0x8, addend: 0x0, symName: __ZNSt3__122__compressed_pair_elemIRNS_9allocatorIdEELi1ELb0EEC2B7v160006IS3_vEEOT_, symObjAddr: 0x74E0, symBinAddr: 0x10000B840, symSize: 0x20 }
  - { offsetInCU: 0x33205, offset: 0x33205, size: 0x8, addend: 0x0, symName: __ZNSt3__19allocatorIdE8allocateB7v160006Em, symObjAddr: 0x7500, symBinAddr: 0x10000B860, symSize: 0x50 }
  - { offsetInCU: 0x33239, offset: 0x33239, size: 0x8, addend: 0x0, symName: __ZNSt3__117__compressed_pairIPdRNS_9allocatorIdEEE6secondB7v160006Ev, symObjAddr: 0x7550, symBinAddr: 0x10000B8B0, symSize: 0x20 }
  - { offsetInCU: 0x3325F, offset: 0x3325F, size: 0x8, addend: 0x0, symName: __ZNSt3__122__compressed_pair_elemIRNS_9allocatorIdEELi1ELb0EE5__getB7v160006Ev, symObjAddr: 0x7570, symBinAddr: 0x10000B8D0, symSize: 0x20 }
  - { offsetInCU: 0x33285, offset: 0x33285, size: 0x8, addend: 0x0, symName: __ZNSt3__117__compressed_pairIPdRNS_9allocatorIdEEE5firstB7v160006Ev, symObjAddr: 0x7590, symBinAddr: 0x10000B8F0, symSize: 0x20 }
  - { offsetInCU: 0x332AB, offset: 0x332AB, size: 0x8, addend: 0x0, symName: __ZNSt3__116reverse_iteratorIPdEC1B7v160006ES1_, symObjAddr: 0x7620, symBinAddr: 0x10000B980, symSize: 0x30 }
  - { offsetInCU: 0x332E3, offset: 0x332E3, size: 0x8, addend: 0x0, symName: __ZNKSt3__116reverse_iteratorIPdE4baseB7v160006Ev, symObjAddr: 0x7650, symBinAddr: 0x10000B9B0, symSize: 0x20 }
  - { offsetInCU: 0x33309, offset: 0x33309, size: 0x8, addend: 0x0, symName: __ZNKSt3__16vectorIdNS_9allocatorIdEEE14__annotate_newB7v160006Em, symObjAddr: 0x76B0, symBinAddr: 0x10000BA10, symSize: 0xB0 }
  - { offsetInCU: 0x33358, offset: 0x33358, size: 0x8, addend: 0x0, symName: __ZNKSt3__111__move_loopINS_17_ClassicAlgPolicyEEclB7v160006INS_16reverse_iteratorIPdEES6_S6_EENS_4pairIT_T1_EES8_T0_S9_, symObjAddr: 0x7BB0, symBinAddr: 0x10000BF10, symSize: 0xA0 }
  - { offsetInCU: 0x333C3, offset: 0x333C3, size: 0x8, addend: 0x0, symName: __ZNSt3__18_IterOpsINS_17_ClassicAlgPolicyEE11__iter_moveB7v160006IRNS_16reverse_iteratorIPdEEEENS_9enable_ifIXsr12is_referenceIDTdeclsr3stdE7declvalIRT_EEEEE5valueEDTclsr3stdE4movedeclsr3stdE7declvalISA_EEEEE4typeEOS9_, symObjAddr: 0x7DD0, symBinAddr: 0x10000C130, symSize: 0x20 }
  - { offsetInCU: 0x333EF, offset: 0x333EF, size: 0x8, addend: 0x0, symName: __ZNKSt3__116reverse_iteratorIPdEdeB7v160006Ev, symObjAddr: 0x7DF0, symBinAddr: 0x10000C150, symSize: 0x30 }
  - { offsetInCU: 0x33423, offset: 0x33423, size: 0x8, addend: 0x0, symName: __ZNSt3__116reverse_iteratorIPdEppB7v160006Ev, symObjAddr: 0x7E20, symBinAddr: 0x10000C180, symSize: 0x20 }
  - { offsetInCU: 0x33449, offset: 0x33449, size: 0x8, addend: 0x0, symName: __ZNSt3__18_IterOpsINS_17_ClassicAlgPolicyEE25__validate_iter_referenceB7v160006IRNS_16reverse_iteratorIPdEEEEvv, symObjAddr: 0x7E40, symBinAddr: 0x10000C1A0, symSize: 0x10 }
  - { offsetInCU: 0x33467, offset: 0x33467, size: 0x8, addend: 0x0, symName: __ZNSt3__118__unwrap_iter_implINS_16reverse_iteratorIPdEELb0EE8__unwrapB7v160006ES3_, symObjAddr: 0x7E50, symBinAddr: 0x10000C1B0, symSize: 0x20 }
  - { offsetInCU: 0x33490, offset: 0x33490, size: 0x8, addend: 0x0, symName: __ZNSt3__14pairINS_16reverse_iteratorIPdEES3_EC1B7v160006IS3_S3_LPv0EEEOT_OT0_, symObjAddr: 0x7E70, symBinAddr: 0x10000C1D0, symSize: 0x30 }
  - { offsetInCU: 0x334EE, offset: 0x334EE, size: 0x8, addend: 0x0, symName: __ZNSt3__14pairINS_16reverse_iteratorIPdEES3_EC2B7v160006IS3_S3_LPv0EEEOT_OT0_, symObjAddr: 0x7EA0, symBinAddr: 0x10000C200, symSize: 0x40 }
  - { offsetInCU: 0x3354C, offset: 0x3354C, size: 0x8, addend: 0x0, symName: __ZNSt3__118__unwrap_iter_implINS_16reverse_iteratorIPdEELb0EE8__rewrapB7v160006ES3_S3_, symObjAddr: 0x7EE0, symBinAddr: 0x10000C240, symSize: 0x30 }
  - { offsetInCU: 0x3357A, offset: 0x3357A, size: 0x8, addend: 0x0, symName: __ZNSt3__116reverse_iteratorIPdEC2B7v160006ES1_, symObjAddr: 0x7F10, symBinAddr: 0x10000C270, symSize: 0x30 }
  - { offsetInCU: 0x335B2, offset: 0x335B2, size: 0x8, addend: 0x0, symName: __ZNSt3__114__split_bufferIdRNS_9allocatorIdEEED2Ev, symObjAddr: 0x7F40, symBinAddr: 0x10000C2A0, symSize: 0x70 }
  - { offsetInCU: 0x335DE, offset: 0x335DE, size: 0x8, addend: 0x0, symName: __ZNSt3__114__split_bufferIdRNS_9allocatorIdEEE5clearB7v160006Ev, symObjAddr: 0x7FB0, symBinAddr: 0x10000C310, symSize: 0x20 }
  - { offsetInCU: 0x33604, offset: 0x33604, size: 0x8, addend: 0x0, symName: __ZNKSt3__114__split_bufferIdRNS_9allocatorIdEEE8capacityB7v160006Ev, symObjAddr: 0x7FD0, symBinAddr: 0x10000C330, symSize: 0x30 }
  - { offsetInCU: 0x3362A, offset: 0x3362A, size: 0x8, addend: 0x0, symName: __ZNSt3__114__split_bufferIdRNS_9allocatorIdEEE17__destruct_at_endB7v160006EPd, symObjAddr: 0x8000, symBinAddr: 0x10000C360, symSize: 0x30 }
  - { offsetInCU: 0x3365E, offset: 0x3365E, size: 0x8, addend: 0x0, symName: __ZNSt3__114__split_bufferIdRNS_9allocatorIdEEE17__destruct_at_endB7v160006EPdNS_17integral_constantIbLb0EEE, symObjAddr: 0x8030, symBinAddr: 0x10000C390, symSize: 0x80 }
  - { offsetInCU: 0x3369F, offset: 0x3369F, size: 0x8, addend: 0x0, symName: __ZNKSt3__114__split_bufferIdRNS_9allocatorIdEEE9__end_capB7v160006Ev, symObjAddr: 0x80B0, symBinAddr: 0x10000C410, symSize: 0x20 }
  - { offsetInCU: 0x336C5, offset: 0x336C5, size: 0x8, addend: 0x0, symName: __ZNKSt3__117__compressed_pairIPdRNS_9allocatorIdEEE5firstB7v160006Ev, symObjAddr: 0x80D0, symBinAddr: 0x10000C430, symSize: 0x20 }
  - { offsetInCU: 0x336EB, offset: 0x336EB, size: 0x8, addend: 0x0, symName: __ZNSt3__16vectorIdNS_9allocatorIdEEE9push_backB7v160006ERKd, symObjAddr: 0x80F0, symBinAddr: 0x10000C450, symSize: 0x60 }
  - { offsetInCU: 0x33722, offset: 0x33722, size: 0x8, addend: 0x0, symName: __ZNSt3__16vectorIdNS_9allocatorIdEEE22__construct_one_at_endB7v160006IJRKdEEEvDpOT_, symObjAddr: 0x8150, symBinAddr: 0x10000C4B0, symSize: 0x90 }
  - { offsetInCU: 0x33771, offset: 0x33771, size: 0x8, addend: 0x0, symName: __ZNSt3__16vectorIdNS_9allocatorIdEEE21__push_back_slow_pathIRKdEEvOT_, symObjAddr: 0x81E0, symBinAddr: 0x10000C540, symSize: 0xD0 }
  - { offsetInCU: 0x337CF, offset: 0x337CF, size: 0x8, addend: 0x0, symName: __ZNSt3__116allocator_traitsINS_9allocatorIdEEE9constructB7v160006IdJRKdEvEEvRS2_PT_DpOT0_, symObjAddr: 0x82B0, symBinAddr: 0x10000C610, symSize: 0x30 }
  - { offsetInCU: 0x33826, offset: 0x33826, size: 0x8, addend: 0x0, symName: __ZNSt3__19allocatorIdE9constructB7v160006IdJRKdEEEvPT_DpOT0_, symObjAddr: 0x82E0, symBinAddr: 0x10000C640, symSize: 0x30 }
  - { offsetInCU: 0x3387C, offset: 0x3387C, size: 0x8, addend: 0x0, symName: __ZN15ByteFlipMutatorC2Ev, symObjAddr: 0x8310, symBinAddr: 0x10000C670, symSize: 0x40 }
  - { offsetInCU: 0x338A9, offset: 0x338A9, size: 0x8, addend: 0x0, symName: __ZN17ArithmeticMutatorC2Ev, symObjAddr: 0x8350, symBinAddr: 0x10000C6B0, symSize: 0x40 }
  - { offsetInCU: 0x338D6, offset: 0x338D6, size: 0x8, addend: 0x0, symName: __ZN13AppendMutatorC2Eii, symObjAddr: 0x8390, symBinAddr: 0x10000C6F0, symSize: 0x50 }
  - { offsetInCU: 0x3391E, offset: 0x3391E, size: 0x8, addend: 0x0, symName: __ZN18BlockInsertMutatorC2Eii, symObjAddr: 0x83E0, symBinAddr: 0x10000C740, symSize: 0x50 }
  - { offsetInCU: 0x33966, offset: 0x33966, size: 0x8, addend: 0x0, symName: __ZN16BlockFlipMutatorC2Eiib, symObjAddr: 0x8430, symBinAddr: 0x10000C790, symSize: 0x60 }
  - { offsetInCU: 0x339BD, offset: 0x339BD, size: 0x8, addend: 0x0, symName: __ZN21BlockDuplicateMutatorC2Eiiii, symObjAddr: 0x8490, symBinAddr: 0x10000C7F0, symSize: 0x60 }
  - { offsetInCU: 0x33A23, offset: 0x33A23, size: 0x8, addend: 0x0, symName: __ZN13SpliceMutatorC2Eid, symObjAddr: 0x84F0, symBinAddr: 0x10000C850, symSize: 0x50 }
  - { offsetInCU: 0x33A6B, offset: 0x33A6B, size: 0x8, addend: 0x0, symName: __ZN12RangeMutatorC2EP7Mutator, symObjAddr: 0x8540, symBinAddr: 0x10000C8A0, symSize: 0x70 }
  - { offsetInCU: 0x33AA4, offset: 0x33AA4, size: 0x8, addend: 0x0, symName: __ZN13RepeatMutatorC2EP7Mutatord, symObjAddr: 0x85B0, symBinAddr: 0x10000C910, symSize: 0xA0 }
  - { offsetInCU: 0x33AEC, offset: 0x33AEC, size: 0x8, addend: 0x0, symName: __ZN13NRoundMutatorC2EP7Mutatorm, symObjAddr: 0x8650, symBinAddr: 0x10000C9B0, symSize: 0x80 }
  - { offsetInCU: 0x33B32, offset: 0x33B32, size: 0x8, addend: 0x0, symName: __ZN13NRoundMutatorD1Ev, symObjAddr: 0x86D0, symBinAddr: 0x10000CA30, symSize: 0x20 }
  - { offsetInCU: 0x33B5E, offset: 0x33B5E, size: 0x8, addend: 0x0, symName: __ZN13NRoundMutatorD0Ev, symObjAddr: 0x86F0, symBinAddr: 0x10000CA50, symSize: 0x30 }
  - { offsetInCU: 0x33B8A, offset: 0x33B8A, size: 0x8, addend: 0x0, symName: __ZN13NRoundMutator9InitRoundEP6SampleP20MutatorSampleContext, symObjAddr: 0x8720, symBinAddr: 0x10000CA80, symSize: 0x40 }
  - { offsetInCU: 0x33BCC, offset: 0x33BCC, size: 0x8, addend: 0x0, symName: __ZN13NRoundMutator6MutateEP6SampleP4PRNGRNSt3__16vectorIS1_NS4_9allocatorIS1_EEEE, symObjAddr: 0x8760, symBinAddr: 0x10000CAC0, symSize: 0x80 }
  - { offsetInCU: 0x33C1C, offset: 0x33C1C, size: 0x8, addend: 0x0, symName: __ZN13NRoundMutatorD2Ev, symObjAddr: 0x87E0, symBinAddr: 0x10000CB40, symSize: 0x20 }
  - { offsetInCU: 0x33C48, offset: 0x33C48, size: 0x8, addend: 0x0, symName: __ZN15MutatorSequenceC2Ebb, symObjAddr: 0x8800, symBinAddr: 0x10000CB60, symSize: 0x60 }
  - { offsetInCU: 0x33C8E, offset: 0x33C8E, size: 0x8, addend: 0x0, symName: __ZN15MutatorSequenceD1Ev, symObjAddr: 0x8860, symBinAddr: 0x10000CBC0, symSize: 0x20 }
  - { offsetInCU: 0x33CBA, offset: 0x33CBA, size: 0x8, addend: 0x0, symName: __ZN15MutatorSequenceD0Ev, symObjAddr: 0x8880, symBinAddr: 0x10000CBE0, symSize: 0x30 }
  - { offsetInCU: 0x33CE6, offset: 0x33CE6, size: 0x8, addend: 0x0, symName: __ZN15MutatorSequence19CreateSampleContextEP6Sample, symObjAddr: 0x88B0, symBinAddr: 0x10000CC10, symSize: 0x60 }
  - { offsetInCU: 0x33D28, offset: 0x33D28, size: 0x8, addend: 0x0, symName: __ZN15MutatorSequence9InitRoundEP6SampleP20MutatorSampleContext, symObjAddr: 0x8910, symBinAddr: 0x10000CC70, symSize: 0x60 }
  - { offsetInCU: 0x33D6A, offset: 0x33D6A, size: 0x8, addend: 0x0, symName: __ZN15MutatorSequence12AddHotOffsetEP20MutatorSampleContextm, symObjAddr: 0x8970, symBinAddr: 0x10000CCD0, symSize: 0x50 }
  - { offsetInCU: 0x33DAC, offset: 0x33DAC, size: 0x8, addend: 0x0, symName: __ZN15MutatorSequence11SaveContextEP20MutatorSampleContextP7__sFILE, symObjAddr: 0x89C0, symBinAddr: 0x10000CD20, symSize: 0x60 }
  - { offsetInCU: 0x33DFC, offset: 0x33DFC, size: 0x8, addend: 0x0, symName: __ZN15MutatorSequence11LoadContextEP20MutatorSampleContextP7__sFILE, symObjAddr: 0x8A20, symBinAddr: 0x10000CD80, symSize: 0x60 }
  - { offsetInCU: 0x33E4C, offset: 0x33E4C, size: 0x8, addend: 0x0, symName: __ZN15MutatorSequence6MutateEP6SampleP4PRNGRNSt3__16vectorIS1_NS4_9allocatorIS1_EEEE, symObjAddr: 0x8A80, symBinAddr: 0x10000CDE0, symSize: 0xD0 }
  - { offsetInCU: 0x33EC6, offset: 0x33EC6, size: 0x8, addend: 0x0, symName: __ZN15MutatorSequence12NotifyResultE9RunResultb, symObjAddr: 0x8B50, symBinAddr: 0x10000CEB0, symSize: 0x50 }
  - { offsetInCU: 0x33F08, offset: 0x33F08, size: 0x8, addend: 0x0, symName: __ZN15MutatorSequenceD2Ev, symObjAddr: 0x8BA0, symBinAddr: 0x10000CF00, symSize: 0x20 }
  - { offsetInCU: 0x33F39, offset: 0x33F39, size: 0x8, addend: 0x0, symName: __ZN22MutatorSequenceContextC1Ev, symObjAddr: 0x8BC0, symBinAddr: 0x10000CF20, symSize: 0x20 }
  - { offsetInCU: 0x33F65, offset: 0x33F65, size: 0x8, addend: 0x0, symName: __ZN22MutatorSequenceContextC2Ev, symObjAddr: 0x8BE0, symBinAddr: 0x10000CF40, symSize: 0x40 }
  - { offsetInCU: 0x33F91, offset: 0x33F91, size: 0x8, addend: 0x0, symName: __ZN22MutatorSequenceContextD1Ev, symObjAddr: 0x8C20, symBinAddr: 0x10000CF80, symSize: 0x20 }
  - { offsetInCU: 0x33FBD, offset: 0x33FBD, size: 0x8, addend: 0x0, symName: __ZN22MutatorSequenceContextD0Ev, symObjAddr: 0x8C40, symBinAddr: 0x10000CFA0, symSize: 0x30 }
  - { offsetInCU: 0x33FE9, offset: 0x33FE9, size: 0x8, addend: 0x0, symName: __ZN22MutatorSequenceContextD2Ev, symObjAddr: 0x8C70, symBinAddr: 0x10000CFD0, symSize: 0x20 }
  - { offsetInCU: 0x34015, offset: 0x34015, size: 0x8, addend: 0x0, symName: __ZN28DeterministicByteFlipMutatorC2Ev, symObjAddr: 0x8C90, symBinAddr: 0x10000CFF0, symSize: 0x40 }
  - { offsetInCU: 0x34042, offset: 0x34042, size: 0x8, addend: 0x0, symName: __ZN24BaseDeterministicMutatorC2Ev, symObjAddr: 0x8CD0, symBinAddr: 0x10000D030, symSize: 0x40 }
  - { offsetInCU: 0x3406F, offset: 0x3406F, size: 0x8, addend: 0x0, symName: __ZN36DtermininsticNondeterministicMutatorC2EP7MutatormS1_m, symObjAddr: 0x8D10, symBinAddr: 0x10000D070, symSize: 0xC0 }
  - { offsetInCU: 0x340D5, offset: 0x340D5, size: 0x8, addend: 0x0, symName: __ZN36DtermininsticNondeterministicMutatorD1Ev, symObjAddr: 0x8DD0, symBinAddr: 0x10000D130, symSize: 0x20 }
  - { offsetInCU: 0x34102, offset: 0x34102, size: 0x8, addend: 0x0, symName: __ZN36DtermininsticNondeterministicMutatorD0Ev, symObjAddr: 0x8DF0, symBinAddr: 0x10000D150, symSize: 0x30 }
  - { offsetInCU: 0x3412F, offset: 0x3412F, size: 0x8, addend: 0x0, symName: __ZN36DtermininsticNondeterministicMutator9InitRoundEP6SampleP20MutatorSampleContext, symObjAddr: 0x8E20, symBinAddr: 0x10000D180, symSize: 0x40 }
  - { offsetInCU: 0x34173, offset: 0x34173, size: 0x8, addend: 0x0, symName: __ZN36DtermininsticNondeterministicMutator6MutateEP6SampleP4PRNGRNSt3__16vectorIS1_NS4_9allocatorIS1_EEEE, symObjAddr: 0x8E60, symBinAddr: 0x10000D1C0, symSize: 0xF0 }
  - { offsetInCU: 0x341D5, offset: 0x341D5, size: 0x8, addend: 0x0, symName: __ZN36DtermininsticNondeterministicMutator12NotifyResultE9RunResultb, symObjAddr: 0x8F50, symBinAddr: 0x10000D2B0, symSize: 0x40 }
  - { offsetInCU: 0x34219, offset: 0x34219, size: 0x8, addend: 0x0, symName: __ZN36DtermininsticNondeterministicMutatorD2Ev, symObjAddr: 0x8F90, symBinAddr: 0x10000D2F0, symSize: 0x20 }
  - { offsetInCU: 0x34246, offset: 0x34246, size: 0x8, addend: 0x0, symName: __ZNSt3__16vectorIP6SampleNS_9allocatorIS2_EEEC1B7v160006Ev, symObjAddr: 0x8FB0, symBinAddr: 0x10000D310, symSize: 0x20 }
  - { offsetInCU: 0x34270, offset: 0x34270, size: 0x8, addend: 0x0, symName: __ZNSt3__16vectorIPN6Fuzzer16SampleQueueEntryENS_9allocatorIS3_EEEC1B7v160006Ev, symObjAddr: 0x8FD0, symBinAddr: 0x10000D330, symSize: 0x20 }
  - { offsetInCU: 0x3429A, offset: 0x3429A, size: 0x8, addend: 0x0, symName: __ZNSt3__114priority_queueIPN6Fuzzer16SampleQueueEntryENS_6vectorIS3_NS_9allocatorIS3_EEEENS1_12CmpEntryPtrsEEC1B7v160006Ev, symObjAddr: 0x8FF0, symBinAddr: 0x10000D350, symSize: 0x20 }
  - { offsetInCU: 0x342C4, offset: 0x342C4, size: 0x8, addend: 0x0, symName: __ZNSt3__14listI14ModuleCoverageNS_9allocatorIS1_EEEC1B7v160006Ev, symObjAddr: 0x9010, symBinAddr: 0x10000D370, symSize: 0x20 }
  - { offsetInCU: 0x342EE, offset: 0x342EE, size: 0x8, addend: 0x0, symName: __ZNSt3__14listINS_12basic_stringIcNS_11char_traitsIcEENS_9allocatorIcEEEENS4_IS6_EEEC1B7v160006Ev, symObjAddr: 0x9030, symBinAddr: 0x10000D390, symSize: 0x20 }
  - { offsetInCU: 0x34318, offset: 0x34318, size: 0x8, addend: 0x0, symName: __ZNSt3__14listIP6SampleNS_9allocatorIS2_EEEC1B7v160006Ev, symObjAddr: 0x9050, symBinAddr: 0x10000D3B0, symSize: 0x20 }
  - { offsetInCU: 0x34342, offset: 0x34342, size: 0x8, addend: 0x0, symName: __ZNSt3__113unordered_mapINS_12basic_stringIcNS_11char_traitsIcEENS_9allocatorIcEEEEiNS_4hashIS6_EENS_8equal_toIS6_EENS4_INS_4pairIKS6_iEEEEEC1B7v160006Ev, symObjAddr: 0x9070, symBinAddr: 0x10000D3D0, symSize: 0x20 }
  - { offsetInCU: 0x3436C, offset: 0x3436C, size: 0x8, addend: 0x0, symName: __ZN10SampleTrieC1Ev, symObjAddr: 0x9090, symBinAddr: 0x10000D3F0, symSize: 0x20 }
  - { offsetInCU: 0x34396, offset: 0x34396, size: 0x8, addend: 0x0, symName: __ZNSt3__113unordered_mapINS_12basic_stringIcNS_11char_traitsIcEENS_9allocatorIcEEEEiNS_4hashIS6_EENS_8equal_toIS6_EENS4_INS_4pairIKS6_iEEEEED1B7v160006Ev, symObjAddr: 0x90B0, symBinAddr: 0x10000D410, symSize: 0x20 }
  - { offsetInCU: 0x343C0, offset: 0x343C0, size: 0x8, addend: 0x0, symName: __ZN5MutexD1Ev, symObjAddr: 0x90D0, symBinAddr: 0x10000D430, symSize: 0x20 }
  - { offsetInCU: 0x343EC, offset: 0x343EC, size: 0x8, addend: 0x0, symName: __ZNSt3__14listIP6SampleNS_9allocatorIS2_EEED1Ev, symObjAddr: 0x90F0, symBinAddr: 0x10000D450, symSize: 0x20 }
  - { offsetInCU: 0x34419, offset: 0x34419, size: 0x8, addend: 0x0, symName: __ZNSt3__14listINS_12basic_stringIcNS_11char_traitsIcEENS_9allocatorIcEEEENS4_IS6_EEED1Ev, symObjAddr: 0x9110, symBinAddr: 0x10000D470, symSize: 0x20 }
  - { offsetInCU: 0x34446, offset: 0x34446, size: 0x8, addend: 0x0, symName: __ZNSt3__14listI14ModuleCoverageNS_9allocatorIS1_EEED1Ev, symObjAddr: 0x9130, symBinAddr: 0x10000D490, symSize: 0x20 }
  - { offsetInCU: 0x34473, offset: 0x34473, size: 0x8, addend: 0x0, symName: __ZNSt3__114priority_queueIPN6Fuzzer16SampleQueueEntryENS_6vectorIS3_NS_9allocatorIS3_EEEENS1_12CmpEntryPtrsEED1Ev, symObjAddr: 0x9150, symBinAddr: 0x10000D4B0, symSize: 0x20 }
  - { offsetInCU: 0x344A0, offset: 0x344A0, size: 0x8, addend: 0x0, symName: __ZNSt3__16vectorIPN6Fuzzer16SampleQueueEntryENS_9allocatorIS3_EEED1B7v160006Ev, symObjAddr: 0x9170, symBinAddr: 0x10000D4D0, symSize: 0x20 }
  - { offsetInCU: 0x344CA, offset: 0x344CA, size: 0x8, addend: 0x0, symName: __ZNSt3__16vectorIP6SampleNS_9allocatorIS2_EEED1B7v160006Ev, symObjAddr: 0x9190, symBinAddr: 0x10000D4F0, symSize: 0x20 }
  - { offsetInCU: 0x344F4, offset: 0x344F4, size: 0x8, addend: 0x0, symName: __ZNSt3__16vectorIP6SampleNS_9allocatorIS2_EEEC2B7v160006Ev, symObjAddr: 0x91B0, symBinAddr: 0x10000D510, symSize: 0x60 }
  - { offsetInCU: 0x3451E, offset: 0x3451E, size: 0x8, addend: 0x0, symName: __ZNSt3__117__compressed_pairIPP6SampleNS_9allocatorIS2_EEEC1B7v160006IDnNS_18__default_init_tagEEEOT_OT0_, symObjAddr: 0x9210, symBinAddr: 0x10000D570, symSize: 0x30 }
  - { offsetInCU: 0x34576, offset: 0x34576, size: 0x8, addend: 0x0, symName: __ZNSt3__117__compressed_pairIPP6SampleNS_9allocatorIS2_EEEC2B7v160006IDnNS_18__default_init_tagEEEOT_OT0_, symObjAddr: 0x9250, symBinAddr: 0x10000D5B0, symSize: 0x40 }
  - { offsetInCU: 0x345CE, offset: 0x345CE, size: 0x8, addend: 0x0, symName: __ZNSt3__122__compressed_pair_elemIPP6SampleLi0ELb0EEC2B7v160006IDnvEEOT_, symObjAddr: 0x9290, symBinAddr: 0x10000D5F0, symSize: 0x20 }
  - { offsetInCU: 0x34610, offset: 0x34610, size: 0x8, addend: 0x0, symName: __ZNSt3__122__compressed_pair_elemINS_9allocatorIP6SampleEELi1ELb1EEC2B7v160006ENS_18__default_init_tagE, symObjAddr: 0x92B0, symBinAddr: 0x10000D610, symSize: 0x20 }
  - { offsetInCU: 0x34645, offset: 0x34645, size: 0x8, addend: 0x0, symName: __ZNSt3__19allocatorIP6SampleEC2B7v160006Ev, symObjAddr: 0x92D0, symBinAddr: 0x10000D630, symSize: 0x20 }
  - { offsetInCU: 0x3466F, offset: 0x3466F, size: 0x8, addend: 0x0, symName: __ZNSt3__116__non_trivial_ifILb1ENS_9allocatorIP6SampleEEEC2B7v160006Ev, symObjAddr: 0x92F0, symBinAddr: 0x10000D650, symSize: 0x10 }
  - { offsetInCU: 0x34699, offset: 0x34699, size: 0x8, addend: 0x0, symName: __ZNSt3__16vectorIPN6Fuzzer16SampleQueueEntryENS_9allocatorIS3_EEEC2B7v160006Ev, symObjAddr: 0x9300, symBinAddr: 0x10000D660, symSize: 0x60 }
  - { offsetInCU: 0x346C3, offset: 0x346C3, size: 0x8, addend: 0x0, symName: __ZNSt3__117__compressed_pairIPPN6Fuzzer16SampleQueueEntryENS_9allocatorIS3_EEEC1B7v160006IDnNS_18__default_init_tagEEEOT_OT0_, symObjAddr: 0x9360, symBinAddr: 0x10000D6C0, symSize: 0x30 }
  - { offsetInCU: 0x3471B, offset: 0x3471B, size: 0x8, addend: 0x0, symName: __ZNSt3__117__compressed_pairIPPN6Fuzzer16SampleQueueEntryENS_9allocatorIS3_EEEC2B7v160006IDnNS_18__default_init_tagEEEOT_OT0_, symObjAddr: 0x93A0, symBinAddr: 0x10000D700, symSize: 0x40 }
  - { offsetInCU: 0x34773, offset: 0x34773, size: 0x8, addend: 0x0, symName: __ZNSt3__122__compressed_pair_elemIPPN6Fuzzer16SampleQueueEntryELi0ELb0EEC2B7v160006IDnvEEOT_, symObjAddr: 0x93E0, symBinAddr: 0x10000D740, symSize: 0x20 }
  - { offsetInCU: 0x347B5, offset: 0x347B5, size: 0x8, addend: 0x0, symName: __ZNSt3__122__compressed_pair_elemINS_9allocatorIPN6Fuzzer16SampleQueueEntryEEELi1ELb1EEC2B7v160006ENS_18__default_init_tagE, symObjAddr: 0x9400, symBinAddr: 0x10000D760, symSize: 0x20 }
  - { offsetInCU: 0x347EA, offset: 0x347EA, size: 0x8, addend: 0x0, symName: __ZNSt3__19allocatorIPN6Fuzzer16SampleQueueEntryEEC2B7v160006Ev, symObjAddr: 0x9420, symBinAddr: 0x10000D780, symSize: 0x20 }
  - { offsetInCU: 0x34814, offset: 0x34814, size: 0x8, addend: 0x0, symName: __ZNSt3__116__non_trivial_ifILb1ENS_9allocatorIPN6Fuzzer16SampleQueueEntryEEEEC2B7v160006Ev, symObjAddr: 0x9440, symBinAddr: 0x10000D7A0, symSize: 0x10 }
  - { offsetInCU: 0x3483E, offset: 0x3483E, size: 0x8, addend: 0x0, symName: __ZNSt3__114priority_queueIPN6Fuzzer16SampleQueueEntryENS_6vectorIS3_NS_9allocatorIS3_EEEENS1_12CmpEntryPtrsEEC2B7v160006Ev, symObjAddr: 0x9450, symBinAddr: 0x10000D7B0, symSize: 0x20 }
  - { offsetInCU: 0x34868, offset: 0x34868, size: 0x8, addend: 0x0, symName: __ZNSt3__14listI14ModuleCoverageNS_9allocatorIS1_EEEC2B7v160006Ev, symObjAddr: 0x9470, symBinAddr: 0x10000D7D0, symSize: 0x40 }
  - { offsetInCU: 0x34892, offset: 0x34892, size: 0x8, addend: 0x0, symName: __ZNSt3__110__list_impI14ModuleCoverageNS_9allocatorIS1_EEEC2Ev, symObjAddr: 0x94B0, symBinAddr: 0x10000D810, symSize: 0x50 }
  - { offsetInCU: 0x348BE, offset: 0x348BE, size: 0x8, addend: 0x0, symName: __ZNSt3__116__list_node_baseI14ModuleCoveragePvEC1B7v160006Ev, symObjAddr: 0x9510, symBinAddr: 0x10000D870, symSize: 0x20 }
  - { offsetInCU: 0x348EE, offset: 0x348EE, size: 0x8, addend: 0x0, symName: __ZNSt3__117__compressed_pairImNS_9allocatorINS_11__list_nodeI14ModuleCoveragePvEEEEEC1B7v160006IiNS_18__default_init_tagEEEOT_OT0_, symObjAddr: 0x9530, symBinAddr: 0x10000D890, symSize: 0x30 }
  - { offsetInCU: 0x34946, offset: 0x34946, size: 0x8, addend: 0x0, symName: __ZNSt3__116__list_node_baseI14ModuleCoveragePvEC2B7v160006Ev, symObjAddr: 0x9560, symBinAddr: 0x10000D8C0, symSize: 0x50 }
  - { offsetInCU: 0x34970, offset: 0x34970, size: 0x8, addend: 0x0, symName: __ZNSt3__126__list_node_pointer_traitsI14ModuleCoveragePvE26__unsafe_link_pointer_castB7v160006EPNS_16__list_node_baseIS1_S2_EE, symObjAddr: 0x95B0, symBinAddr: 0x10000D910, symSize: 0x10 }
  - { offsetInCU: 0x34994, offset: 0x34994, size: 0x8, addend: 0x0, symName: __ZNSt3__116__list_node_baseI14ModuleCoveragePvE6__selfB7v160006Ev, symObjAddr: 0x95C0, symBinAddr: 0x10000D920, symSize: 0x20 }
  - { offsetInCU: 0x349BF, offset: 0x349BF, size: 0x8, addend: 0x0, symName: __ZNSt3__114pointer_traitsIPNS_16__list_node_baseI14ModuleCoveragePvEEE10pointer_toB7v160006ERS4_, symObjAddr: 0x95E0, symBinAddr: 0x10000D940, symSize: 0x10 }
  - { offsetInCU: 0x349E2, offset: 0x349E2, size: 0x8, addend: 0x0, symName: __ZNSt3__117__compressed_pairImNS_9allocatorINS_11__list_nodeI14ModuleCoveragePvEEEEEC2B7v160006IiNS_18__default_init_tagEEEOT_OT0_, symObjAddr: 0x95F0, symBinAddr: 0x10000D950, symSize: 0x40 }
  - { offsetInCU: 0x34A3A, offset: 0x34A3A, size: 0x8, addend: 0x0, symName: __ZNSt3__122__compressed_pair_elemImLi0ELb0EEC2B7v160006IivEEOT_, symObjAddr: 0x9630, symBinAddr: 0x10000D990, symSize: 0x20 }
  - { offsetInCU: 0x34A7C, offset: 0x34A7C, size: 0x8, addend: 0x0, symName: __ZNSt3__122__compressed_pair_elemINS_9allocatorINS_11__list_nodeI14ModuleCoveragePvEEEELi1ELb1EEC2B7v160006ENS_18__default_init_tagE, symObjAddr: 0x9650, symBinAddr: 0x10000D9B0, symSize: 0x20 }
  - { offsetInCU: 0x34AB1, offset: 0x34AB1, size: 0x8, addend: 0x0, symName: __ZNSt3__19allocatorINS_11__list_nodeI14ModuleCoveragePvEEEC2B7v160006Ev, symObjAddr: 0x9670, symBinAddr: 0x10000D9D0, symSize: 0x20 }
  - { offsetInCU: 0x34ADB, offset: 0x34ADB, size: 0x8, addend: 0x0, symName: __ZNSt3__116__non_trivial_ifILb1ENS_9allocatorINS_11__list_nodeI14ModuleCoveragePvEEEEEC2B7v160006Ev, symObjAddr: 0x9690, symBinAddr: 0x10000D9F0, symSize: 0x10 }
  - { offsetInCU: 0x34B05, offset: 0x34B05, size: 0x8, addend: 0x0, symName: __ZNSt3__14listINS_12basic_stringIcNS_11char_traitsIcEENS_9allocatorIcEEEENS4_IS6_EEEC2B7v160006Ev, symObjAddr: 0x96A0, symBinAddr: 0x10000DA00, symSize: 0x40 }
  - { offsetInCU: 0x34B2F, offset: 0x34B2F, size: 0x8, addend: 0x0, symName: __ZNSt3__110__list_impINS_12basic_stringIcNS_11char_traitsIcEENS_9allocatorIcEEEENS4_IS6_EEEC2Ev, symObjAddr: 0x96E0, symBinAddr: 0x10000DA40, symSize: 0x50 }
  - { offsetInCU: 0x34B5B, offset: 0x34B5B, size: 0x8, addend: 0x0, symName: __ZNSt3__116__list_node_baseINS_12basic_stringIcNS_11char_traitsIcEENS_9allocatorIcEEEEPvEC1B7v160006Ev, symObjAddr: 0x9740, symBinAddr: 0x10000DAA0, symSize: 0x20 }
  - { offsetInCU: 0x34B85, offset: 0x34B85, size: 0x8, addend: 0x0, symName: __ZNSt3__117__compressed_pairImNS_9allocatorINS_11__list_nodeINS_12basic_stringIcNS_11char_traitsIcEENS1_IcEEEEPvEEEEEC1B7v160006IiNS_18__default_init_tagEEEOT_OT0_, symObjAddr: 0x9760, symBinAddr: 0x10000DAC0, symSize: 0x30 }
  - { offsetInCU: 0x34BDD, offset: 0x34BDD, size: 0x8, addend: 0x0, symName: __ZNSt3__116__list_node_baseINS_12basic_stringIcNS_11char_traitsIcEENS_9allocatorIcEEEEPvEC2B7v160006Ev, symObjAddr: 0x9790, symBinAddr: 0x10000DAF0, symSize: 0x50 }
  - { offsetInCU: 0x34C07, offset: 0x34C07, size: 0x8, addend: 0x0, symName: __ZNSt3__126__list_node_pointer_traitsINS_12basic_stringIcNS_11char_traitsIcEENS_9allocatorIcEEEEPvE26__unsafe_link_pointer_castB7v160006EPNS_16__list_node_baseIS6_S7_EE, symObjAddr: 0x97E0, symBinAddr: 0x10000DB40, symSize: 0x10 }
  - { offsetInCU: 0x34C2B, offset: 0x34C2B, size: 0x8, addend: 0x0, symName: __ZNSt3__116__list_node_baseINS_12basic_stringIcNS_11char_traitsIcEENS_9allocatorIcEEEEPvE6__selfB7v160006Ev, symObjAddr: 0x97F0, symBinAddr: 0x10000DB50, symSize: 0x20 }
  - { offsetInCU: 0x34C56, offset: 0x34C56, size: 0x8, addend: 0x0, symName: __ZNSt3__114pointer_traitsIPNS_16__list_node_baseINS_12basic_stringIcNS_11char_traitsIcEENS_9allocatorIcEEEEPvEEE10pointer_toB7v160006ERS9_, symObjAddr: 0x9810, symBinAddr: 0x10000DB70, symSize: 0x10 }
  - { offsetInCU: 0x34C79, offset: 0x34C79, size: 0x8, addend: 0x0, symName: __ZNSt3__117__compressed_pairImNS_9allocatorINS_11__list_nodeINS_12basic_stringIcNS_11char_traitsIcEENS1_IcEEEEPvEEEEEC2B7v160006IiNS_18__default_init_tagEEEOT_OT0_, symObjAddr: 0x9820, symBinAddr: 0x10000DB80, symSize: 0x40 }
  - { offsetInCU: 0x34CD1, offset: 0x34CD1, size: 0x8, addend: 0x0, symName: __ZNSt3__122__compressed_pair_elemINS_9allocatorINS_11__list_nodeINS_12basic_stringIcNS_11char_traitsIcEENS1_IcEEEEPvEEEELi1ELb1EEC2B7v160006ENS_18__default_init_tagE, symObjAddr: 0x9860, symBinAddr: 0x10000DBC0, symSize: 0x20 }
  - { offsetInCU: 0x34D06, offset: 0x34D06, size: 0x8, addend: 0x0, symName: __ZNSt3__19allocatorINS_11__list_nodeINS_12basic_stringIcNS_11char_traitsIcEENS0_IcEEEEPvEEEC2B7v160006Ev, symObjAddr: 0x9880, symBinAddr: 0x10000DBE0, symSize: 0x20 }
  - { offsetInCU: 0x34D30, offset: 0x34D30, size: 0x8, addend: 0x0, symName: __ZNSt3__116__non_trivial_ifILb1ENS_9allocatorINS_11__list_nodeINS_12basic_stringIcNS_11char_traitsIcEENS1_IcEEEEPvEEEEEC2B7v160006Ev, symObjAddr: 0x98A0, symBinAddr: 0x10000DC00, symSize: 0x10 }
  - { offsetInCU: 0x34D5A, offset: 0x34D5A, size: 0x8, addend: 0x0, symName: __ZNSt3__14listIP6SampleNS_9allocatorIS2_EEEC2B7v160006Ev, symObjAddr: 0x98B0, symBinAddr: 0x10000DC10, symSize: 0x40 }
  - { offsetInCU: 0x34D84, offset: 0x34D84, size: 0x8, addend: 0x0, symName: __ZNSt3__110__list_impIP6SampleNS_9allocatorIS2_EEEC2Ev, symObjAddr: 0x98F0, symBinAddr: 0x10000DC50, symSize: 0x50 }
  - { offsetInCU: 0x34DB0, offset: 0x34DB0, size: 0x8, addend: 0x0, symName: __ZNSt3__116__list_node_baseIP6SamplePvEC1B7v160006Ev, symObjAddr: 0x9950, symBinAddr: 0x10000DCB0, symSize: 0x20 }
  - { offsetInCU: 0x34DDA, offset: 0x34DDA, size: 0x8, addend: 0x0, symName: __ZNSt3__117__compressed_pairImNS_9allocatorINS_11__list_nodeIP6SamplePvEEEEEC1B7v160006IiNS_18__default_init_tagEEEOT_OT0_, symObjAddr: 0x9970, symBinAddr: 0x10000DCD0, symSize: 0x30 }
  - { offsetInCU: 0x34E32, offset: 0x34E32, size: 0x8, addend: 0x0, symName: __ZNSt3__116__list_node_baseIP6SamplePvEC2B7v160006Ev, symObjAddr: 0x99A0, symBinAddr: 0x10000DD00, symSize: 0x50 }
  - { offsetInCU: 0x34E5C, offset: 0x34E5C, size: 0x8, addend: 0x0, symName: __ZNSt3__126__list_node_pointer_traitsIP6SamplePvE26__unsafe_link_pointer_castB7v160006EPNS_16__list_node_baseIS2_S3_EE, symObjAddr: 0x99F0, symBinAddr: 0x10000DD50, symSize: 0x10 }
  - { offsetInCU: 0x34E80, offset: 0x34E80, size: 0x8, addend: 0x0, symName: __ZNSt3__116__list_node_baseIP6SamplePvE6__selfB7v160006Ev, symObjAddr: 0x9A00, symBinAddr: 0x10000DD60, symSize: 0x20 }
  - { offsetInCU: 0x34EAB, offset: 0x34EAB, size: 0x8, addend: 0x0, symName: __ZNSt3__114pointer_traitsIPNS_16__list_node_baseIP6SamplePvEEE10pointer_toB7v160006ERS5_, symObjAddr: 0x9A20, symBinAddr: 0x10000DD80, symSize: 0x10 }
  - { offsetInCU: 0x34ECE, offset: 0x34ECE, size: 0x8, addend: 0x0, symName: __ZNSt3__117__compressed_pairImNS_9allocatorINS_11__list_nodeIP6SamplePvEEEEEC2B7v160006IiNS_18__default_init_tagEEEOT_OT0_, symObjAddr: 0x9A30, symBinAddr: 0x10000DD90, symSize: 0x40 }
  - { offsetInCU: 0x34F26, offset: 0x34F26, size: 0x8, addend: 0x0, symName: __ZNSt3__122__compressed_pair_elemINS_9allocatorINS_11__list_nodeIP6SamplePvEEEELi1ELb1EEC2B7v160006ENS_18__default_init_tagE, symObjAddr: 0x9A70, symBinAddr: 0x10000DDD0, symSize: 0x20 }
  - { offsetInCU: 0x34F5B, offset: 0x34F5B, size: 0x8, addend: 0x0, symName: __ZNSt3__19allocatorINS_11__list_nodeIP6SamplePvEEEC2B7v160006Ev, symObjAddr: 0x9A90, symBinAddr: 0x10000DDF0, symSize: 0x20 }
  - { offsetInCU: 0x34F85, offset: 0x34F85, size: 0x8, addend: 0x0, symName: __ZNSt3__116__non_trivial_ifILb1ENS_9allocatorINS_11__list_nodeIP6SamplePvEEEEEC2B7v160006Ev, symObjAddr: 0x9AB0, symBinAddr: 0x10000DE10, symSize: 0x10 }
  - { offsetInCU: 0x34FAF, offset: 0x34FAF, size: 0x8, addend: 0x0, symName: __ZNSt3__113unordered_mapINS_12basic_stringIcNS_11char_traitsIcEENS_9allocatorIcEEEEiNS_4hashIS6_EENS_8equal_toIS6_EENS4_INS_4pairIKS6_iEEEEEC2B7v160006Ev, symObjAddr: 0x9AC0, symBinAddr: 0x10000DE20, symSize: 0x40 }
  - { offsetInCU: 0x34FD9, offset: 0x34FD9, size: 0x8, addend: 0x0, symName: __ZNSt3__112__hash_tableINS_17__hash_value_typeINS_12basic_stringIcNS_11char_traitsIcEENS_9allocatorIcEEEEiEENS_22__unordered_map_hasherIS7_S8_NS_4hashIS7_EENS_8equal_toIS7_EELb1EEENS_21__unordered_map_equalIS7_S8_SD_SB_Lb1EEENS5_IS8_EEEC1Ev, symObjAddr: 0x9B00, symBinAddr: 0x10000DE60, symSize: 0x20 }
  - { offsetInCU: 0x35005, offset: 0x35005, size: 0x8, addend: 0x0, symName: __ZNSt3__112__hash_tableINS_17__hash_value_typeINS_12basic_stringIcNS_11char_traitsIcEENS_9allocatorIcEEEEiEENS_22__unordered_map_hasherIS7_S8_NS_4hashIS7_EENS_8equal_toIS7_EELb1EEENS_21__unordered_map_equalIS7_S8_SD_SB_Lb1EEENS5_IS8_EEEC2Ev, symObjAddr: 0x9B30, symBinAddr: 0x10000DE90, symSize: 0x80 }
  - { offsetInCU: 0x35031, offset: 0x35031, size: 0x8, addend: 0x0, symName: __ZNSt3__110unique_ptrIA_PNS_16__hash_node_baseIPNS_11__hash_nodeINS_17__hash_value_typeINS_12basic_stringIcNS_11char_traitsIcEENS_9allocatorIcEEEEiEEPvEEEENS_25__bucket_list_deallocatorINS7_ISF_EEEEEC1B7v160006ILb1EvEEv, symObjAddr: 0x9BB0, symBinAddr: 0x10000DF10, symSize: 0x20 }
  - { offsetInCU: 0x35066, offset: 0x35066, size: 0x8, addend: 0x0, symName: __ZNSt3__117__compressed_pairINS_16__hash_node_baseIPNS_11__hash_nodeINS_17__hash_value_typeINS_12basic_stringIcNS_11char_traitsIcEENS_9allocatorIcEEEEiEEPvEEEENS7_ISC_EEEC1B7v160006ILb1EvEEv, symObjAddr: 0x9BD0, symBinAddr: 0x10000DF30, symSize: 0x20 }
  - { offsetInCU: 0x3509B, offset: 0x3509B, size: 0x8, addend: 0x0, symName: __ZNSt3__117__compressed_pairImNS_22__unordered_map_hasherINS_12basic_stringIcNS_11char_traitsIcEENS_9allocatorIcEEEENS_17__hash_value_typeIS7_iEENS_4hashIS7_EENS_8equal_toIS7_EELb1EEEEC1B7v160006IiNS_18__default_init_tagEEEOT_OT0_, symObjAddr: 0x9BF0, symBinAddr: 0x10000DF50, symSize: 0x30 }
  - { offsetInCU: 0x350F9, offset: 0x350F9, size: 0x8, addend: 0x0, symName: __ZNSt3__117__compressed_pairIfNS_21__unordered_map_equalINS_12basic_stringIcNS_11char_traitsIcEENS_9allocatorIcEEEENS_17__hash_value_typeIS7_iEENS_8equal_toIS7_EENS_4hashIS7_EELb1EEEEC1B7v160006IfNS_18__default_init_tagEEEOT_OT0_, symObjAddr: 0x9C20, symBinAddr: 0x10000DF80, symSize: 0x30 }
  - { offsetInCU: 0x35151, offset: 0x35151, size: 0x8, addend: 0x0, symName: __ZNSt3__110unique_ptrIA_PNS_16__hash_node_baseIPNS_11__hash_nodeINS_17__hash_value_typeINS_12basic_stringIcNS_11char_traitsIcEENS_9allocatorIcEEEEiEEPvEEEENS_25__bucket_list_deallocatorINS7_ISF_EEEEEC2B7v160006ILb1EvEEv, symObjAddr: 0x9C50, symBinAddr: 0x10000DFB0, symSize: 0x30 }
  - { offsetInCU: 0x3518C, offset: 0x3518C, size: 0x8, addend: 0x0, symName: __ZNSt3__117__compressed_pairIPPNS_16__hash_node_baseIPNS_11__hash_nodeINS_17__hash_value_typeINS_12basic_stringIcNS_11char_traitsIcEENS_9allocatorIcEEEEiEEPvEEEENS_25__bucket_list_deallocatorINS7_ISF_EEEEEC1B7v160006INS_16__value_init_tagESM_EEOT_OT0_, symObjAddr: 0x9C80, symBinAddr: 0x10000DFE0, symSize: 0x30 }
  - { offsetInCU: 0x351E4, offset: 0x351E4, size: 0x8, addend: 0x0, symName: __ZNSt3__117__compressed_pairIPPNS_16__hash_node_baseIPNS_11__hash_nodeINS_17__hash_value_typeINS_12basic_stringIcNS_11char_traitsIcEENS_9allocatorIcEEEEiEEPvEEEENS_25__bucket_list_deallocatorINS7_ISF_EEEEEC2B7v160006INS_16__value_init_tagESM_EEOT_OT0_, symObjAddr: 0x9CB0, symBinAddr: 0x10000E010, symSize: 0x40 }
  - { offsetInCU: 0x3523C, offset: 0x3523C, size: 0x8, addend: 0x0, symName: __ZNSt3__122__compressed_pair_elemIPPNS_16__hash_node_baseIPNS_11__hash_nodeINS_17__hash_value_typeINS_12basic_stringIcNS_11char_traitsIcEENS_9allocatorIcEEEEiEEPvEEEELi0ELb0EEC2B7v160006ENS_16__value_init_tagE, symObjAddr: 0x9CF0, symBinAddr: 0x10000E050, symSize: 0x20 }
  - { offsetInCU: 0x35271, offset: 0x35271, size: 0x8, addend: 0x0, symName: __ZNSt3__122__compressed_pair_elemINS_25__bucket_list_deallocatorINS_9allocatorIPNS_16__hash_node_baseIPNS_11__hash_nodeINS_17__hash_value_typeINS_12basic_stringIcNS_11char_traitsIcEENS2_IcEEEEiEEPvEEEEEEEELi1ELb0EEC2B7v160006ENS_16__value_init_tagE, symObjAddr: 0x9D10, symBinAddr: 0x10000E070, symSize: 0x20 }
  - { offsetInCU: 0x352A6, offset: 0x352A6, size: 0x8, addend: 0x0, symName: __ZNSt3__125__bucket_list_deallocatorINS_9allocatorIPNS_16__hash_node_baseIPNS_11__hash_nodeINS_17__hash_value_typeINS_12basic_stringIcNS_11char_traitsIcEENS1_IcEEEEiEEPvEEEEEEEC1B7v160006Ev, symObjAddr: 0x9D30, symBinAddr: 0x10000E090, symSize: 0x20 }
  - { offsetInCU: 0x352D0, offset: 0x352D0, size: 0x8, addend: 0x0, symName: __ZNSt3__125__bucket_list_deallocatorINS_9allocatorIPNS_16__hash_node_baseIPNS_11__hash_nodeINS_17__hash_value_typeINS_12basic_stringIcNS_11char_traitsIcEENS1_IcEEEEiEEPvEEEEEEEC2B7v160006Ev, symObjAddr: 0x9D50, symBinAddr: 0x10000E0B0, symSize: 0x40 }
  - { offsetInCU: 0x352FA, offset: 0x352FA, size: 0x8, addend: 0x0, symName: __ZNSt3__117__compressed_pairImNS_9allocatorIPNS_16__hash_node_baseIPNS_11__hash_nodeINS_17__hash_value_typeINS_12basic_stringIcNS_11char_traitsIcEENS1_IcEEEEiEEPvEEEEEEEC1B7v160006IiNS_18__default_init_tagEEEOT_OT0_, symObjAddr: 0x9D90, symBinAddr: 0x10000E0F0, symSize: 0x30 }
  - { offsetInCU: 0x35352, offset: 0x35352, size: 0x8, addend: 0x0, symName: __ZNSt3__117__compressed_pairImNS_9allocatorIPNS_16__hash_node_baseIPNS_11__hash_nodeINS_17__hash_value_typeINS_12basic_stringIcNS_11char_traitsIcEENS1_IcEEEEiEEPvEEEEEEEC2B7v160006IiNS_18__default_init_tagEEEOT_OT0_, symObjAddr: 0x9DC0, symBinAddr: 0x10000E120, symSize: 0x40 }
  - { offsetInCU: 0x353AA, offset: 0x353AA, size: 0x8, addend: 0x0, symName: __ZNSt3__122__compressed_pair_elemINS_9allocatorIPNS_16__hash_node_baseIPNS_11__hash_nodeINS_17__hash_value_typeINS_12basic_stringIcNS_11char_traitsIcEENS1_IcEEEEiEEPvEEEEEELi1ELb1EEC2B7v160006ENS_18__default_init_tagE, symObjAddr: 0x9E00, symBinAddr: 0x10000E160, symSize: 0x20 }
  - { offsetInCU: 0x353DF, offset: 0x353DF, size: 0x8, addend: 0x0, symName: __ZNSt3__19allocatorIPNS_16__hash_node_baseIPNS_11__hash_nodeINS_17__hash_value_typeINS_12basic_stringIcNS_11char_traitsIcEENS0_IcEEEEiEEPvEEEEEC2B7v160006Ev, symObjAddr: 0x9E20, symBinAddr: 0x10000E180, symSize: 0x20 }
  - { offsetInCU: 0x35409, offset: 0x35409, size: 0x8, addend: 0x0, symName: __ZNSt3__116__non_trivial_ifILb1ENS_9allocatorIPNS_16__hash_node_baseIPNS_11__hash_nodeINS_17__hash_value_typeINS_12basic_stringIcNS_11char_traitsIcEENS1_IcEEEEiEEPvEEEEEEEC2B7v160006Ev, symObjAddr: 0x9E40, symBinAddr: 0x10000E1A0, symSize: 0x10 }
  - { offsetInCU: 0x35433, offset: 0x35433, size: 0x8, addend: 0x0, symName: __ZNSt3__117__compressed_pairINS_16__hash_node_baseIPNS_11__hash_nodeINS_17__hash_value_typeINS_12basic_stringIcNS_11char_traitsIcEENS_9allocatorIcEEEEiEEPvEEEENS7_ISC_EEEC2B7v160006ILb1EvEEv, symObjAddr: 0x9E50, symBinAddr: 0x10000E1B0, symSize: 0x30 }
  - { offsetInCU: 0x35468, offset: 0x35468, size: 0x8, addend: 0x0, symName: __ZNSt3__122__compressed_pair_elemINS_16__hash_node_baseIPNS_11__hash_nodeINS_17__hash_value_typeINS_12basic_stringIcNS_11char_traitsIcEENS_9allocatorIcEEEEiEEPvEEEELi0ELb0EEC2B7v160006ENS_16__value_init_tagE, symObjAddr: 0x9E80, symBinAddr: 0x10000E1E0, symSize: 0x20 }
  - { offsetInCU: 0x3549D, offset: 0x3549D, size: 0x8, addend: 0x0, symName: __ZNSt3__122__compressed_pair_elemINS_9allocatorINS_11__hash_nodeINS_17__hash_value_typeINS_12basic_stringIcNS_11char_traitsIcEENS1_IcEEEEiEEPvEEEELi1ELb1EEC2B7v160006ENS_16__value_init_tagE, symObjAddr: 0x9EA0, symBinAddr: 0x10000E200, symSize: 0x20 }
  - { offsetInCU: 0x354D2, offset: 0x354D2, size: 0x8, addend: 0x0, symName: __ZNSt3__116__hash_node_baseIPNS_11__hash_nodeINS_17__hash_value_typeINS_12basic_stringIcNS_11char_traitsIcEENS_9allocatorIcEEEEiEEPvEEEC1B7v160006Ev, symObjAddr: 0x9EC0, symBinAddr: 0x10000E220, symSize: 0x20 }
  - { offsetInCU: 0x354FC, offset: 0x354FC, size: 0x8, addend: 0x0, symName: __ZNSt3__116__hash_node_baseIPNS_11__hash_nodeINS_17__hash_value_typeINS_12basic_stringIcNS_11char_traitsIcEENS_9allocatorIcEEEEiEEPvEEEC2B7v160006Ev, symObjAddr: 0x9EE0, symBinAddr: 0x10000E240, symSize: 0x20 }
  - { offsetInCU: 0x35526, offset: 0x35526, size: 0x8, addend: 0x0, symName: __ZNSt3__19allocatorINS_11__hash_nodeINS_17__hash_value_typeINS_12basic_stringIcNS_11char_traitsIcEENS0_IcEEEEiEEPvEEEC2B7v160006Ev, symObjAddr: 0x9F00, symBinAddr: 0x10000E260, symSize: 0x20 }
  - { offsetInCU: 0x35550, offset: 0x35550, size: 0x8, addend: 0x0, symName: __ZNSt3__116__non_trivial_ifILb1ENS_9allocatorINS_11__hash_nodeINS_17__hash_value_typeINS_12basic_stringIcNS_11char_traitsIcEENS1_IcEEEEiEEPvEEEEEC2B7v160006Ev, symObjAddr: 0x9F20, symBinAddr: 0x10000E280, symSize: 0x10 }
  - { offsetInCU: 0x3557A, offset: 0x3557A, size: 0x8, addend: 0x0, symName: __ZNSt3__117__compressed_pairImNS_22__unordered_map_hasherINS_12basic_stringIcNS_11char_traitsIcEENS_9allocatorIcEEEENS_17__hash_value_typeIS7_iEENS_4hashIS7_EENS_8equal_toIS7_EELb1EEEEC2B7v160006IiNS_18__default_init_tagEEEOT_OT0_, symObjAddr: 0x9F30, symBinAddr: 0x10000E290, symSize: 0x40 }
  - { offsetInCU: 0x355D2, offset: 0x355D2, size: 0x8, addend: 0x0, symName: __ZNSt3__122__compressed_pair_elemINS_22__unordered_map_hasherINS_12basic_stringIcNS_11char_traitsIcEENS_9allocatorIcEEEENS_17__hash_value_typeIS7_iEENS_4hashIS7_EENS_8equal_toIS7_EELb1EEELi1ELb1EEC2B7v160006ENS_18__default_init_tagE, symObjAddr: 0x9F70, symBinAddr: 0x10000E2D0, symSize: 0x20 }
  - { offsetInCU: 0x35607, offset: 0x35607, size: 0x8, addend: 0x0, symName: __ZNSt3__122__unordered_map_hasherINS_12basic_stringIcNS_11char_traitsIcEENS_9allocatorIcEEEENS_17__hash_value_typeIS6_iEENS_4hashIS6_EENS_8equal_toIS6_EELb1EEC2B7v160006Ev, symObjAddr: 0x9F90, symBinAddr: 0x10000E2F0, symSize: 0x10 }
  - { offsetInCU: 0x35631, offset: 0x35631, size: 0x8, addend: 0x0, symName: __ZNSt3__117__compressed_pairIfNS_21__unordered_map_equalINS_12basic_stringIcNS_11char_traitsIcEENS_9allocatorIcEEEENS_17__hash_value_typeIS7_iEENS_8equal_toIS7_EENS_4hashIS7_EELb1EEEEC2B7v160006IfNS_18__default_init_tagEEEOT_OT0_, symObjAddr: 0x9FA0, symBinAddr: 0x10000E300, symSize: 0x40 }
  - { offsetInCU: 0x35689, offset: 0x35689, size: 0x8, addend: 0x0, symName: __ZNSt3__122__compressed_pair_elemIfLi0ELb0EEC2B7v160006IfvEEOT_, symObjAddr: 0x9FE0, symBinAddr: 0x10000E340, symSize: 0x20 }
  - { offsetInCU: 0x356CB, offset: 0x356CB, size: 0x8, addend: 0x0, symName: __ZNSt3__122__compressed_pair_elemINS_21__unordered_map_equalINS_12basic_stringIcNS_11char_traitsIcEENS_9allocatorIcEEEENS_17__hash_value_typeIS7_iEENS_8equal_toIS7_EENS_4hashIS7_EELb1EEELi1ELb1EEC2B7v160006ENS_18__default_init_tagE, symObjAddr: 0xA000, symBinAddr: 0x10000E360, symSize: 0x20 }
  - { offsetInCU: 0x35700, offset: 0x35700, size: 0x8, addend: 0x0, symName: __ZNSt3__121__unordered_map_equalINS_12basic_stringIcNS_11char_traitsIcEENS_9allocatorIcEEEENS_17__hash_value_typeIS6_iEENS_8equal_toIS6_EENS_4hashIS6_EELb1EEC2B7v160006Ev, symObjAddr: 0xA020, symBinAddr: 0x10000E380, symSize: 0x10 }
  - { offsetInCU: 0x3572A, offset: 0x3572A, size: 0x8, addend: 0x0, symName: __ZN10SampleTrieC2Ev, symObjAddr: 0xA030, symBinAddr: 0x10000E390, symSize: 0x20 }
  - { offsetInCU: 0x35754, offset: 0x35754, size: 0x8, addend: 0x0, symName: __ZNSt3__113unordered_mapINS_12basic_stringIcNS_11char_traitsIcEENS_9allocatorIcEEEEiNS_4hashIS6_EENS_8equal_toIS6_EENS4_INS_4pairIKS6_iEEEEED2B7v160006Ev, symObjAddr: 0xA050, symBinAddr: 0x10000E3B0, symSize: 0x20 }
  - { offsetInCU: 0x3577E, offset: 0x3577E, size: 0x8, addend: 0x0, symName: __ZNSt3__112__hash_tableINS_17__hash_value_typeINS_12basic_stringIcNS_11char_traitsIcEENS_9allocatorIcEEEEiEENS_22__unordered_map_hasherIS7_S8_NS_4hashIS7_EENS_8equal_toIS7_EELb1EEENS_21__unordered_map_equalIS7_S8_SD_SB_Lb1EEENS5_IS8_EEED1Ev, symObjAddr: 0xA070, symBinAddr: 0x10000E3D0, symSize: 0x20 }
  - { offsetInCU: 0x357AA, offset: 0x357AA, size: 0x8, addend: 0x0, symName: __ZNSt3__112__hash_tableINS_17__hash_value_typeINS_12basic_stringIcNS_11char_traitsIcEENS_9allocatorIcEEEEiEENS_22__unordered_map_hasherIS7_S8_NS_4hashIS7_EENS_8equal_toIS7_EELb1EEENS_21__unordered_map_equalIS7_S8_SD_SB_Lb1EEENS5_IS8_EEED2Ev, symObjAddr: 0xA090, symBinAddr: 0x10000E3F0, symSize: 0x50 }
  - { offsetInCU: 0x357D6, offset: 0x357D6, size: 0x8, addend: 0x0, symName: __ZNSt3__112__hash_tableINS_17__hash_value_typeINS_12basic_stringIcNS_11char_traitsIcEENS_9allocatorIcEEEEiEENS_22__unordered_map_hasherIS7_S8_NS_4hashIS7_EENS_8equal_toIS7_EELb1EEENS_21__unordered_map_equalIS7_S8_SD_SB_Lb1EEENS5_IS8_EEE17__deallocate_nodeEPNS_16__hash_node_baseIPNS_11__hash_nodeIS8_PvEEEE, symObjAddr: 0xA0E0, symBinAddr: 0x10000E440, symSize: 0xA0 }
  - { offsetInCU: 0x35840, offset: 0x35840, size: 0x8, addend: 0x0, symName: __ZNSt3__117__compressed_pairINS_16__hash_node_baseIPNS_11__hash_nodeINS_17__hash_value_typeINS_12basic_stringIcNS_11char_traitsIcEENS_9allocatorIcEEEEiEEPvEEEENS7_ISC_EEE5firstB7v160006Ev, symObjAddr: 0xA180, symBinAddr: 0x10000E4E0, symSize: 0x20 }
  - { offsetInCU: 0x35866, offset: 0x35866, size: 0x8, addend: 0x0, symName: __ZNSt3__110unique_ptrIA_PNS_16__hash_node_baseIPNS_11__hash_nodeINS_17__hash_value_typeINS_12basic_stringIcNS_11char_traitsIcEENS_9allocatorIcEEEEiEEPvEEEENS_25__bucket_list_deallocatorINS7_ISF_EEEEED1B7v160006Ev, symObjAddr: 0xA1B0, symBinAddr: 0x10000E510, symSize: 0x20 }
  - { offsetInCU: 0x35890, offset: 0x35890, size: 0x8, addend: 0x0, symName: __ZNSt3__112__hash_tableINS_17__hash_value_typeINS_12basic_stringIcNS_11char_traitsIcEENS_9allocatorIcEEEEiEENS_22__unordered_map_hasherIS7_S8_NS_4hashIS7_EENS_8equal_toIS7_EELb1EEENS_21__unordered_map_equalIS7_S8_SD_SB_Lb1EEENS5_IS8_EEE12__node_allocB7v160006Ev, symObjAddr: 0xA1D0, symBinAddr: 0x10000E530, symSize: 0x20 }
  - { offsetInCU: 0x358B6, offset: 0x358B6, size: 0x8, addend: 0x0, symName: __ZNSt3__116__hash_node_baseIPNS_11__hash_nodeINS_17__hash_value_typeINS_12basic_stringIcNS_11char_traitsIcEENS_9allocatorIcEEEEiEEPvEEE8__upcastB7v160006Ev, symObjAddr: 0xA1F0, symBinAddr: 0x10000E550, symSize: 0x20 }
  - { offsetInCU: 0x358E1, offset: 0x358E1, size: 0x8, addend: 0x0, symName: __ZNSt3__116allocator_traitsINS_9allocatorINS_11__hash_nodeINS_17__hash_value_typeINS_12basic_stringIcNS_11char_traitsIcEENS1_IcEEEEiEEPvEEEEE7destroyB7v160006INS_4pairIKS8_iEEvvEEvRSC_PT_, symObjAddr: 0xA210, symBinAddr: 0x10000E570, symSize: 0x20 }
  - { offsetInCU: 0x3591B, offset: 0x3591B, size: 0x8, addend: 0x0, symName: __ZNSt3__122__hash_key_value_typesINS_17__hash_value_typeINS_12basic_stringIcNS_11char_traitsIcEENS_9allocatorIcEEEEiEEE9__get_ptrB7v160006ERS8_, symObjAddr: 0xA230, symBinAddr: 0x10000E590, symSize: 0x20 }
  - { offsetInCU: 0x3593E, offset: 0x3593E, size: 0x8, addend: 0x0, symName: __ZNSt3__116allocator_traitsINS_9allocatorINS_11__hash_nodeINS_17__hash_value_typeINS_12basic_stringIcNS_11char_traitsIcEENS1_IcEEEEiEEPvEEEEE10deallocateB7v160006ERSC_PSB_m, symObjAddr: 0xA250, symBinAddr: 0x10000E5B0, symSize: 0x30 }
  - { offsetInCU: 0x35980, offset: 0x35980, size: 0x8, addend: 0x0, symName: __ZNSt3__117__compressed_pairINS_16__hash_node_baseIPNS_11__hash_nodeINS_17__hash_value_typeINS_12basic_stringIcNS_11char_traitsIcEENS_9allocatorIcEEEEiEEPvEEEENS7_ISC_EEE6secondB7v160006Ev, symObjAddr: 0xA280, symBinAddr: 0x10000E5E0, symSize: 0x20 }
  - { offsetInCU: 0x359A6, offset: 0x359A6, size: 0x8, addend: 0x0, symName: __ZNSt3__122__compressed_pair_elemINS_9allocatorINS_11__hash_nodeINS_17__hash_value_typeINS_12basic_stringIcNS_11char_traitsIcEENS1_IcEEEEiEEPvEEEELi1ELb1EE5__getB7v160006Ev, symObjAddr: 0xA2A0, symBinAddr: 0x10000E600, symSize: 0x10 }
  - { offsetInCU: 0x359CC, offset: 0x359CC, size: 0x8, addend: 0x0, symName: __ZNSt3__114pointer_traitsIPNS_16__hash_node_baseIPNS_11__hash_nodeINS_17__hash_value_typeINS_12basic_stringIcNS_11char_traitsIcEENS_9allocatorIcEEEEiEEPvEEEEE10pointer_toB7v160006ERSE_, symObjAddr: 0xA2B0, symBinAddr: 0x10000E610, symSize: 0x10 }
  - { offsetInCU: 0x359EF, offset: 0x359EF, size: 0x8, addend: 0x0, symName: __ZNSt3__14pairIKNS_12basic_stringIcNS_11char_traitsIcEENS_9allocatorIcEEEEiED1Ev, symObjAddr: 0xA2C0, symBinAddr: 0x10000E620, symSize: 0x20 }
  - { offsetInCU: 0x35A1B, offset: 0x35A1B, size: 0x8, addend: 0x0, symName: __ZNSt3__14pairIKNS_12basic_stringIcNS_11char_traitsIcEENS_9allocatorIcEEEEiED2Ev, symObjAddr: 0xA2E0, symBinAddr: 0x10000E640, symSize: 0x20 }
  - { offsetInCU: 0x35A47, offset: 0x35A47, size: 0x8, addend: 0x0, symName: __ZNSt3__117__hash_value_typeINS_12basic_stringIcNS_11char_traitsIcEENS_9allocatorIcEEEEiE11__get_valueB7v160006Ev, symObjAddr: 0xA300, symBinAddr: 0x10000E660, symSize: 0x20 }
  - { offsetInCU: 0x35A6D, offset: 0x35A6D, size: 0x8, addend: 0x0, symName: __ZNSt3__19allocatorINS_11__hash_nodeINS_17__hash_value_typeINS_12basic_stringIcNS_11char_traitsIcEENS0_IcEEEEiEEPvEEE10deallocateB7v160006EPSA_m, symObjAddr: 0xA350, symBinAddr: 0x10000E6B0, symSize: 0x50 }
  - { offsetInCU: 0x35AAF, offset: 0x35AAF, size: 0x8, addend: 0x0, symName: __ZNSt3__122__compressed_pair_elemINS_16__hash_node_baseIPNS_11__hash_nodeINS_17__hash_value_typeINS_12basic_stringIcNS_11char_traitsIcEENS_9allocatorIcEEEEiEEPvEEEELi0ELb0EE5__getB7v160006Ev, symObjAddr: 0xA3A0, symBinAddr: 0x10000E700, symSize: 0x10 }
  - { offsetInCU: 0x35AD5, offset: 0x35AD5, size: 0x8, addend: 0x0, symName: __ZNSt3__110unique_ptrIA_PNS_16__hash_node_baseIPNS_11__hash_nodeINS_17__hash_value_typeINS_12basic_stringIcNS_11char_traitsIcEENS_9allocatorIcEEEEiEEPvEEEENS_25__bucket_list_deallocatorINS7_ISF_EEEEED2B7v160006Ev, symObjAddr: 0xA3B0, symBinAddr: 0x10000E710, symSize: 0x20 }
  - { offsetInCU: 0x35AFF, offset: 0x35AFF, size: 0x8, addend: 0x0, symName: __ZNSt3__110unique_ptrIA_PNS_16__hash_node_baseIPNS_11__hash_nodeINS_17__hash_value_typeINS_12basic_stringIcNS_11char_traitsIcEENS_9allocatorIcEEEEiEEPvEEEENS_25__bucket_list_deallocatorINS7_ISF_EEEEE5resetB7v160006EDn, symObjAddr: 0xA3D0, symBinAddr: 0x10000E730, symSize: 0x60 }
  - { offsetInCU: 0x35B3F, offset: 0x35B3F, size: 0x8, addend: 0x0, symName: __ZNSt3__117__compressed_pairIPPNS_16__hash_node_baseIPNS_11__hash_nodeINS_17__hash_value_typeINS_12basic_stringIcNS_11char_traitsIcEENS_9allocatorIcEEEEiEEPvEEEENS_25__bucket_list_deallocatorINS7_ISF_EEEEE5firstB7v160006Ev, symObjAddr: 0xA430, symBinAddr: 0x10000E790, symSize: 0x20 }
  - { offsetInCU: 0x35B65, offset: 0x35B65, size: 0x8, addend: 0x0, symName: __ZNSt3__117__compressed_pairIPPNS_16__hash_node_baseIPNS_11__hash_nodeINS_17__hash_value_typeINS_12basic_stringIcNS_11char_traitsIcEENS_9allocatorIcEEEEiEEPvEEEENS_25__bucket_list_deallocatorINS7_ISF_EEEEE6secondB7v160006Ev, symObjAddr: 0xA450, symBinAddr: 0x10000E7B0, symSize: 0x20 }
  - { offsetInCU: 0x35B8B, offset: 0x35B8B, size: 0x8, addend: 0x0, symName: __ZNSt3__125__bucket_list_deallocatorINS_9allocatorIPNS_16__hash_node_baseIPNS_11__hash_nodeINS_17__hash_value_typeINS_12basic_stringIcNS_11char_traitsIcEENS1_IcEEEEiEEPvEEEEEEEclB7v160006EPSF_, symObjAddr: 0xA470, symBinAddr: 0x10000E7D0, symSize: 0x50 }
  - { offsetInCU: 0x35BC0, offset: 0x35BC0, size: 0x8, addend: 0x0, symName: __ZNSt3__122__compressed_pair_elemIPPNS_16__hash_node_baseIPNS_11__hash_nodeINS_17__hash_value_typeINS_12basic_stringIcNS_11char_traitsIcEENS_9allocatorIcEEEEiEEPvEEEELi0ELb0EE5__getB7v160006Ev, symObjAddr: 0xA4C0, symBinAddr: 0x10000E820, symSize: 0x10 }
  - { offsetInCU: 0x35BE6, offset: 0x35BE6, size: 0x8, addend: 0x0, symName: __ZNSt3__122__compressed_pair_elemINS_25__bucket_list_deallocatorINS_9allocatorIPNS_16__hash_node_baseIPNS_11__hash_nodeINS_17__hash_value_typeINS_12basic_stringIcNS_11char_traitsIcEENS2_IcEEEEiEEPvEEEEEEEELi1ELb0EE5__getB7v160006Ev, symObjAddr: 0xA4D0, symBinAddr: 0x10000E830, symSize: 0x10 }
  - { offsetInCU: 0x35C0C, offset: 0x35C0C, size: 0x8, addend: 0x0, symName: __ZNSt3__116allocator_traitsINS_9allocatorIPNS_16__hash_node_baseIPNS_11__hash_nodeINS_17__hash_value_typeINS_12basic_stringIcNS_11char_traitsIcEENS1_IcEEEEiEEPvEEEEEEE10deallocateB7v160006ERSG_PSF_m, symObjAddr: 0xA4E0, symBinAddr: 0x10000E840, symSize: 0x30 }
  - { offsetInCU: 0x35C4E, offset: 0x35C4E, size: 0x8, addend: 0x0, symName: __ZNSt3__125__bucket_list_deallocatorINS_9allocatorIPNS_16__hash_node_baseIPNS_11__hash_nodeINS_17__hash_value_typeINS_12basic_stringIcNS_11char_traitsIcEENS1_IcEEEEiEEPvEEEEEEE7__allocB7v160006Ev, symObjAddr: 0xA510, symBinAddr: 0x10000E870, symSize: 0x20 }
  - { offsetInCU: 0x35C74, offset: 0x35C74, size: 0x8, addend: 0x0, symName: __ZNSt3__125__bucket_list_deallocatorINS_9allocatorIPNS_16__hash_node_baseIPNS_11__hash_nodeINS_17__hash_value_typeINS_12basic_stringIcNS_11char_traitsIcEENS1_IcEEEEiEEPvEEEEEEE4sizeB7v160006Ev, symObjAddr: 0xA530, symBinAddr: 0x10000E890, symSize: 0x20 }
  - { offsetInCU: 0x35C9A, offset: 0x35C9A, size: 0x8, addend: 0x0, symName: __ZNSt3__19allocatorIPNS_16__hash_node_baseIPNS_11__hash_nodeINS_17__hash_value_typeINS_12basic_stringIcNS_11char_traitsIcEENS0_IcEEEEiEEPvEEEEE10deallocateB7v160006EPSE_m, symObjAddr: 0xA550, symBinAddr: 0x10000E8B0, symSize: 0x40 }
  - { offsetInCU: 0x35CDC, offset: 0x35CDC, size: 0x8, addend: 0x0, symName: __ZNSt3__117__compressed_pairImNS_9allocatorIPNS_16__hash_node_baseIPNS_11__hash_nodeINS_17__hash_value_typeINS_12basic_stringIcNS_11char_traitsIcEENS1_IcEEEEiEEPvEEEEEEE6secondB7v160006Ev, symObjAddr: 0xA590, symBinAddr: 0x10000E8F0, symSize: 0x20 }
  - { offsetInCU: 0x35D02, offset: 0x35D02, size: 0x8, addend: 0x0, symName: __ZNSt3__122__compressed_pair_elemINS_9allocatorIPNS_16__hash_node_baseIPNS_11__hash_nodeINS_17__hash_value_typeINS_12basic_stringIcNS_11char_traitsIcEENS1_IcEEEEiEEPvEEEEEELi1ELb1EE5__getB7v160006Ev, symObjAddr: 0xA5B0, symBinAddr: 0x10000E910, symSize: 0x10 }
  - { offsetInCU: 0x35D28, offset: 0x35D28, size: 0x8, addend: 0x0, symName: __ZNSt3__117__compressed_pairImNS_9allocatorIPNS_16__hash_node_baseIPNS_11__hash_nodeINS_17__hash_value_typeINS_12basic_stringIcNS_11char_traitsIcEENS1_IcEEEEiEEPvEEEEEEE5firstB7v160006Ev, symObjAddr: 0xA5C0, symBinAddr: 0x10000E920, symSize: 0x20 }
  - { offsetInCU: 0x35D4E, offset: 0x35D4E, size: 0x8, addend: 0x0, symName: __ZNSt3__122__compressed_pair_elemImLi0ELb0EE5__getB7v160006Ev, symObjAddr: 0xA5E0, symBinAddr: 0x10000E940, symSize: 0x10 }
  - { offsetInCU: 0x35D74, offset: 0x35D74, size: 0x8, addend: 0x0, symName: __ZN5MutexD2Ev, symObjAddr: 0xA5F0, symBinAddr: 0x10000E950, symSize: 0x20 }
  - { offsetInCU: 0x35DA0, offset: 0x35DA0, size: 0x8, addend: 0x0, symName: __ZNSt3__14listIP6SampleNS_9allocatorIS2_EEED2Ev, symObjAddr: 0xA610, symBinAddr: 0x10000E970, symSize: 0x20 }
  - { offsetInCU: 0x35DCD, offset: 0x35DCD, size: 0x8, addend: 0x0, symName: __ZNSt3__110__list_impIP6SampleNS_9allocatorIS2_EEED2Ev, symObjAddr: 0xA630, symBinAddr: 0x10000E990, symSize: 0x40 }
  - { offsetInCU: 0x35DF9, offset: 0x35DF9, size: 0x8, addend: 0x0, symName: __ZNSt3__110__list_impIP6SampleNS_9allocatorIS2_EEE5clearEv, symObjAddr: 0xA670, symBinAddr: 0x10000E9D0, symSize: 0xF0 }
  - { offsetInCU: 0x35E69, offset: 0x35E69, size: 0x8, addend: 0x0, symName: __ZNKSt3__110__list_impIP6SampleNS_9allocatorIS2_EEE5emptyB7v160006Ev, symObjAddr: 0xA770, symBinAddr: 0x10000EAD0, symSize: 0x30 }
  - { offsetInCU: 0x35E8F, offset: 0x35E8F, size: 0x8, addend: 0x0, symName: __ZNSt3__110__list_impIP6SampleNS_9allocatorIS2_EEE12__node_allocB7v160006Ev, symObjAddr: 0xA7A0, symBinAddr: 0x10000EB00, symSize: 0x20 }
  - { offsetInCU: 0x35EB5, offset: 0x35EB5, size: 0x8, addend: 0x0, symName: __ZNKSt3__110__list_impIP6SampleNS_9allocatorIS2_EEE13__end_as_linkB7v160006Ev, symObjAddr: 0xA7C0, symBinAddr: 0x10000EB20, symSize: 0x30 }
  - { offsetInCU: 0x35EDB, offset: 0x35EDB, size: 0x8, addend: 0x0, symName: __ZNSt3__110__list_impIP6SampleNS_9allocatorIS2_EEE14__unlink_nodesEPNS_16__list_node_baseIS2_PvEES9_, symObjAddr: 0xA7F0, symBinAddr: 0x10000EB50, symSize: 0x40 }
  - { offsetInCU: 0x35F10, offset: 0x35F10, size: 0x8, addend: 0x0, symName: __ZNSt3__110__list_impIP6SampleNS_9allocatorIS2_EEE4__szB7v160006Ev, symObjAddr: 0xA830, symBinAddr: 0x10000EB90, symSize: 0x20 }
  - { offsetInCU: 0x35F36, offset: 0x35F36, size: 0x8, addend: 0x0, symName: __ZNSt3__116__list_node_baseIP6SamplePvE9__as_nodeB7v160006Ev, symObjAddr: 0xA850, symBinAddr: 0x10000EBB0, symSize: 0x20 }
  - { offsetInCU: 0x35F61, offset: 0x35F61, size: 0x8, addend: 0x0, symName: __ZNSt3__116allocator_traitsINS_9allocatorINS_11__list_nodeIP6SamplePvEEEEE7destroyB7v160006IS4_vvEEvRS7_PT_, symObjAddr: 0xA870, symBinAddr: 0x10000EBD0, symSize: 0x10 }
  - { offsetInCU: 0x35F9B, offset: 0x35F9B, size: 0x8, addend: 0x0, symName: __ZNSt3__116allocator_traitsINS_9allocatorINS_11__list_nodeIP6SamplePvEEEEE10deallocateB7v160006ERS7_PS6_m, symObjAddr: 0xA880, symBinAddr: 0x10000EBE0, symSize: 0x30 }
  - { offsetInCU: 0x35FDD, offset: 0x35FDD, size: 0x8, addend: 0x0, symName: __ZNKSt3__110__list_impIP6SampleNS_9allocatorIS2_EEE4__szB7v160006Ev, symObjAddr: 0xA8C0, symBinAddr: 0x10000EC20, symSize: 0x20 }
  - { offsetInCU: 0x36003, offset: 0x36003, size: 0x8, addend: 0x0, symName: __ZNKSt3__117__compressed_pairImNS_9allocatorINS_11__list_nodeIP6SamplePvEEEEE5firstB7v160006Ev, symObjAddr: 0xA8E0, symBinAddr: 0x10000EC40, symSize: 0x20 }
  - { offsetInCU: 0x36029, offset: 0x36029, size: 0x8, addend: 0x0, symName: __ZNKSt3__122__compressed_pair_elemImLi0ELb0EE5__getB7v160006Ev, symObjAddr: 0xA900, symBinAddr: 0x10000EC60, symSize: 0x10 }
  - { offsetInCU: 0x3604F, offset: 0x3604F, size: 0x8, addend: 0x0, symName: __ZNSt3__117__compressed_pairImNS_9allocatorINS_11__list_nodeIP6SamplePvEEEEE6secondB7v160006Ev, symObjAddr: 0xA910, symBinAddr: 0x10000EC70, symSize: 0x20 }
  - { offsetInCU: 0x36075, offset: 0x36075, size: 0x8, addend: 0x0, symName: __ZNSt3__122__compressed_pair_elemINS_9allocatorINS_11__list_nodeIP6SamplePvEEEELi1ELb1EE5__getB7v160006Ev, symObjAddr: 0xA930, symBinAddr: 0x10000EC90, symSize: 0x10 }
  - { offsetInCU: 0x3609B, offset: 0x3609B, size: 0x8, addend: 0x0, symName: __ZNSt3__117__compressed_pairImNS_9allocatorINS_11__list_nodeIP6SamplePvEEEEE5firstB7v160006Ev, symObjAddr: 0xA940, symBinAddr: 0x10000ECA0, symSize: 0x20 }
  - { offsetInCU: 0x360C1, offset: 0x360C1, size: 0x8, addend: 0x0, symName: __ZNSt3__19allocatorINS_11__list_nodeIP6SamplePvEEE10deallocateB7v160006EPS5_m, symObjAddr: 0xA960, symBinAddr: 0x10000ECC0, symSize: 0x50 }
  - { offsetInCU: 0x36103, offset: 0x36103, size: 0x8, addend: 0x0, symName: __ZNSt3__14listINS_12basic_stringIcNS_11char_traitsIcEENS_9allocatorIcEEEENS4_IS6_EEED2Ev, symObjAddr: 0xA9B0, symBinAddr: 0x10000ED10, symSize: 0x20 }
  - { offsetInCU: 0x36130, offset: 0x36130, size: 0x8, addend: 0x0, symName: __ZNSt3__110__list_impINS_12basic_stringIcNS_11char_traitsIcEENS_9allocatorIcEEEENS4_IS6_EEED2Ev, symObjAddr: 0xA9D0, symBinAddr: 0x10000ED30, symSize: 0x40 }
  - { offsetInCU: 0x3615C, offset: 0x3615C, size: 0x8, addend: 0x0, symName: __ZNSt3__110__list_impINS_12basic_stringIcNS_11char_traitsIcEENS_9allocatorIcEEEENS4_IS6_EEE5clearEv, symObjAddr: 0xAA10, symBinAddr: 0x10000ED70, symSize: 0xF0 }
  - { offsetInCU: 0x361CC, offset: 0x361CC, size: 0x8, addend: 0x0, symName: __ZNKSt3__110__list_impINS_12basic_stringIcNS_11char_traitsIcEENS_9allocatorIcEEEENS4_IS6_EEE5emptyB7v160006Ev, symObjAddr: 0xAB10, symBinAddr: 0x10000EE70, symSize: 0x30 }
  - { offsetInCU: 0x361F2, offset: 0x361F2, size: 0x8, addend: 0x0, symName: __ZNSt3__110__list_impINS_12basic_stringIcNS_11char_traitsIcEENS_9allocatorIcEEEENS4_IS6_EEE12__node_allocB7v160006Ev, symObjAddr: 0xAB40, symBinAddr: 0x10000EEA0, symSize: 0x20 }
  - { offsetInCU: 0x36218, offset: 0x36218, size: 0x8, addend: 0x0, symName: __ZNKSt3__110__list_impINS_12basic_stringIcNS_11char_traitsIcEENS_9allocatorIcEEEENS4_IS6_EEE13__end_as_linkB7v160006Ev, symObjAddr: 0xAB60, symBinAddr: 0x10000EEC0, symSize: 0x30 }
  - { offsetInCU: 0x3623E, offset: 0x3623E, size: 0x8, addend: 0x0, symName: __ZNSt3__110__list_impINS_12basic_stringIcNS_11char_traitsIcEENS_9allocatorIcEEEENS4_IS6_EEE14__unlink_nodesEPNS_16__list_node_baseIS6_PvEESC_, symObjAddr: 0xAB90, symBinAddr: 0x10000EEF0, symSize: 0x40 }
  - { offsetInCU: 0x36273, offset: 0x36273, size: 0x8, addend: 0x0, symName: __ZNSt3__110__list_impINS_12basic_stringIcNS_11char_traitsIcEENS_9allocatorIcEEEENS4_IS6_EEE4__szB7v160006Ev, symObjAddr: 0xABD0, symBinAddr: 0x10000EF30, symSize: 0x20 }
  - { offsetInCU: 0x36299, offset: 0x36299, size: 0x8, addend: 0x0, symName: __ZNSt3__116__list_node_baseINS_12basic_stringIcNS_11char_traitsIcEENS_9allocatorIcEEEEPvE9__as_nodeB7v160006Ev, symObjAddr: 0xABF0, symBinAddr: 0x10000EF50, symSize: 0x20 }
  - { offsetInCU: 0x362C4, offset: 0x362C4, size: 0x8, addend: 0x0, symName: __ZNSt3__116allocator_traitsINS_9allocatorINS_11__list_nodeINS_12basic_stringIcNS_11char_traitsIcEENS1_IcEEEEPvEEEEE7destroyB7v160006IS7_vvEEvRSA_PT_, symObjAddr: 0xAC10, symBinAddr: 0x10000EF70, symSize: 0x20 }
  - { offsetInCU: 0x362FE, offset: 0x362FE, size: 0x8, addend: 0x0, symName: __ZNSt3__116allocator_traitsINS_9allocatorINS_11__list_nodeINS_12basic_stringIcNS_11char_traitsIcEENS1_IcEEEEPvEEEEE10deallocateB7v160006ERSA_PS9_m, symObjAddr: 0xAC30, symBinAddr: 0x10000EF90, symSize: 0x30 }
  - { offsetInCU: 0x36340, offset: 0x36340, size: 0x8, addend: 0x0, symName: __ZNKSt3__110__list_impINS_12basic_stringIcNS_11char_traitsIcEENS_9allocatorIcEEEENS4_IS6_EEE4__szB7v160006Ev, symObjAddr: 0xAC70, symBinAddr: 0x10000EFD0, symSize: 0x20 }
  - { offsetInCU: 0x36366, offset: 0x36366, size: 0x8, addend: 0x0, symName: __ZNKSt3__117__compressed_pairImNS_9allocatorINS_11__list_nodeINS_12basic_stringIcNS_11char_traitsIcEENS1_IcEEEEPvEEEEE5firstB7v160006Ev, symObjAddr: 0xAC90, symBinAddr: 0x10000EFF0, symSize: 0x20 }
  - { offsetInCU: 0x3638C, offset: 0x3638C, size: 0x8, addend: 0x0, symName: __ZNSt3__117__compressed_pairImNS_9allocatorINS_11__list_nodeINS_12basic_stringIcNS_11char_traitsIcEENS1_IcEEEEPvEEEEE6secondB7v160006Ev, symObjAddr: 0xACB0, symBinAddr: 0x10000F010, symSize: 0x20 }
  - { offsetInCU: 0x363B2, offset: 0x363B2, size: 0x8, addend: 0x0, symName: __ZNSt3__122__compressed_pair_elemINS_9allocatorINS_11__list_nodeINS_12basic_stringIcNS_11char_traitsIcEENS1_IcEEEEPvEEEELi1ELb1EE5__getB7v160006Ev, symObjAddr: 0xACD0, symBinAddr: 0x10000F030, symSize: 0x10 }
  - { offsetInCU: 0x363D8, offset: 0x363D8, size: 0x8, addend: 0x0, symName: __ZNSt3__117__compressed_pairImNS_9allocatorINS_11__list_nodeINS_12basic_stringIcNS_11char_traitsIcEENS1_IcEEEEPvEEEEE5firstB7v160006Ev, symObjAddr: 0xACE0, symBinAddr: 0x10000F040, symSize: 0x20 }
  - { offsetInCU: 0x363FE, offset: 0x363FE, size: 0x8, addend: 0x0, symName: __ZNSt3__19allocatorINS_11__list_nodeINS_12basic_stringIcNS_11char_traitsIcEENS0_IcEEEEPvEEE10deallocateB7v160006EPS8_m, symObjAddr: 0xAD00, symBinAddr: 0x10000F060, symSize: 0x50 }
  - { offsetInCU: 0x36440, offset: 0x36440, size: 0x8, addend: 0x0, symName: __ZNSt3__14listI14ModuleCoverageNS_9allocatorIS1_EEED2Ev, symObjAddr: 0xAD50, symBinAddr: 0x10000F0B0, symSize: 0x20 }
  - { offsetInCU: 0x3646D, offset: 0x3646D, size: 0x8, addend: 0x0, symName: __ZNSt3__110__list_impI14ModuleCoverageNS_9allocatorIS1_EEED2Ev, symObjAddr: 0xAD70, symBinAddr: 0x10000F0D0, symSize: 0x40 }
  - { offsetInCU: 0x36499, offset: 0x36499, size: 0x8, addend: 0x0, symName: __ZNSt3__110__list_impI14ModuleCoverageNS_9allocatorIS1_EEE5clearEv, symObjAddr: 0xADB0, symBinAddr: 0x10000F110, symSize: 0xF0 }
  - { offsetInCU: 0x36509, offset: 0x36509, size: 0x8, addend: 0x0, symName: __ZNKSt3__110__list_impI14ModuleCoverageNS_9allocatorIS1_EEE5emptyB7v160006Ev, symObjAddr: 0xAEB0, symBinAddr: 0x10000F210, symSize: 0x30 }
  - { offsetInCU: 0x3652F, offset: 0x3652F, size: 0x8, addend: 0x0, symName: __ZNSt3__110__list_impI14ModuleCoverageNS_9allocatorIS1_EEE12__node_allocB7v160006Ev, symObjAddr: 0xAEE0, symBinAddr: 0x10000F240, symSize: 0x20 }
  - { offsetInCU: 0x36555, offset: 0x36555, size: 0x8, addend: 0x0, symName: __ZNKSt3__110__list_impI14ModuleCoverageNS_9allocatorIS1_EEE13__end_as_linkB7v160006Ev, symObjAddr: 0xAF00, symBinAddr: 0x10000F260, symSize: 0x30 }
  - { offsetInCU: 0x3657B, offset: 0x3657B, size: 0x8, addend: 0x0, symName: __ZNSt3__110__list_impI14ModuleCoverageNS_9allocatorIS1_EEE14__unlink_nodesEPNS_16__list_node_baseIS1_PvEES8_, symObjAddr: 0xAF30, symBinAddr: 0x10000F290, symSize: 0x40 }
  - { offsetInCU: 0x365B0, offset: 0x365B0, size: 0x8, addend: 0x0, symName: __ZNSt3__110__list_impI14ModuleCoverageNS_9allocatorIS1_EEE4__szB7v160006Ev, symObjAddr: 0xAF70, symBinAddr: 0x10000F2D0, symSize: 0x20 }
  - { offsetInCU: 0x365D6, offset: 0x365D6, size: 0x8, addend: 0x0, symName: __ZNSt3__116__list_node_baseI14ModuleCoveragePvE9__as_nodeB7v160006Ev, symObjAddr: 0xAF90, symBinAddr: 0x10000F2F0, symSize: 0x20 }
  - { offsetInCU: 0x36601, offset: 0x36601, size: 0x8, addend: 0x0, symName: __ZNSt3__116allocator_traitsINS_9allocatorINS_11__list_nodeI14ModuleCoveragePvEEEEE7destroyB7v160006IS3_vvEEvRS6_PT_, symObjAddr: 0xAFB0, symBinAddr: 0x10000F310, symSize: 0x20 }
  - { offsetInCU: 0x3663B, offset: 0x3663B, size: 0x8, addend: 0x0, symName: __ZNSt3__116allocator_traitsINS_9allocatorINS_11__list_nodeI14ModuleCoveragePvEEEEE10deallocateB7v160006ERS6_PS5_m, symObjAddr: 0xAFD0, symBinAddr: 0x10000F330, symSize: 0x30 }
  - { offsetInCU: 0x3667D, offset: 0x3667D, size: 0x8, addend: 0x0, symName: __ZNKSt3__110__list_impI14ModuleCoverageNS_9allocatorIS1_EEE4__szB7v160006Ev, symObjAddr: 0xB010, symBinAddr: 0x10000F370, symSize: 0x20 }
  - { offsetInCU: 0x366A3, offset: 0x366A3, size: 0x8, addend: 0x0, symName: __ZNKSt3__117__compressed_pairImNS_9allocatorINS_11__list_nodeI14ModuleCoveragePvEEEEE5firstB7v160006Ev, symObjAddr: 0xB030, symBinAddr: 0x10000F390, symSize: 0x20 }
  - { offsetInCU: 0x366C9, offset: 0x366C9, size: 0x8, addend: 0x0, symName: __ZNSt3__117__compressed_pairImNS_9allocatorINS_11__list_nodeI14ModuleCoveragePvEEEEE6secondB7v160006Ev, symObjAddr: 0xB050, symBinAddr: 0x10000F3B0, symSize: 0x20 }
  - { offsetInCU: 0x366EF, offset: 0x366EF, size: 0x8, addend: 0x0, symName: __ZNSt3__122__compressed_pair_elemINS_9allocatorINS_11__list_nodeI14ModuleCoveragePvEEEELi1ELb1EE5__getB7v160006Ev, symObjAddr: 0xB070, symBinAddr: 0x10000F3D0, symSize: 0x10 }
  - { offsetInCU: 0x36715, offset: 0x36715, size: 0x8, addend: 0x0, symName: __ZNSt3__117__compressed_pairImNS_9allocatorINS_11__list_nodeI14ModuleCoveragePvEEEEE5firstB7v160006Ev, symObjAddr: 0xB080, symBinAddr: 0x10000F3E0, symSize: 0x20 }
  - { offsetInCU: 0x3673B, offset: 0x3673B, size: 0x8, addend: 0x0, symName: __ZN14ModuleCoverageD1Ev, symObjAddr: 0xB0A0, symBinAddr: 0x10000F400, symSize: 0x20 }
  - { offsetInCU: 0x36767, offset: 0x36767, size: 0x8, addend: 0x0, symName: __ZN14ModuleCoverageD2Ev, symObjAddr: 0xB0C0, symBinAddr: 0x10000F420, symSize: 0x30 }
  - { offsetInCU: 0x36793, offset: 0x36793, size: 0x8, addend: 0x0, symName: __ZNSt3__13setIyNS_4lessIyEENS_9allocatorIyEEED1B7v160006Ev, symObjAddr: 0xB0F0, symBinAddr: 0x10000F450, symSize: 0x20 }
  - { offsetInCU: 0x367BD, offset: 0x367BD, size: 0x8, addend: 0x0, symName: __ZNSt3__13setIyNS_4lessIyEENS_9allocatorIyEEED2B7v160006Ev, symObjAddr: 0xB110, symBinAddr: 0x10000F470, symSize: 0x20 }
  - { offsetInCU: 0x367E7, offset: 0x367E7, size: 0x8, addend: 0x0, symName: __ZNSt3__16__treeIyNS_4lessIyEENS_9allocatorIyEEED1Ev, symObjAddr: 0xB130, symBinAddr: 0x10000F490, symSize: 0x20 }
  - { offsetInCU: 0x36813, offset: 0x36813, size: 0x8, addend: 0x0, symName: __ZNSt3__16__treeIyNS_4lessIyEENS_9allocatorIyEEED2Ev, symObjAddr: 0xB150, symBinAddr: 0x10000F4B0, symSize: 0x30 }
  - { offsetInCU: 0x3683F, offset: 0x3683F, size: 0x8, addend: 0x0, symName: __ZNSt3__16__treeIyNS_4lessIyEENS_9allocatorIyEEE7destroyEPNS_11__tree_nodeIyPvEE, symObjAddr: 0xB180, symBinAddr: 0x10000F4E0, symSize: 0xB0 }
  - { offsetInCU: 0x3688B, offset: 0x3688B, size: 0x8, addend: 0x0, symName: __ZNKSt3__16__treeIyNS_4lessIyEENS_9allocatorIyEEE6__rootB7v160006Ev, symObjAddr: 0xB230, symBinAddr: 0x10000F590, symSize: 0x20 }
  - { offsetInCU: 0x368B1, offset: 0x368B1, size: 0x8, addend: 0x0, symName: __ZNSt3__16__treeIyNS_4lessIyEENS_9allocatorIyEEE12__node_allocB7v160006Ev, symObjAddr: 0xB250, symBinAddr: 0x10000F5B0, symSize: 0x20 }
  - { offsetInCU: 0x368DC, offset: 0x368DC, size: 0x8, addend: 0x0, symName: __ZNSt3__116allocator_traitsINS_9allocatorINS_11__tree_nodeIyPvEEEEE7destroyB7v160006IyvvEEvRS5_PT_, symObjAddr: 0xB270, symBinAddr: 0x10000F5D0, symSize: 0x10 }
  - { offsetInCU: 0x36916, offset: 0x36916, size: 0x8, addend: 0x0, symName: __ZNSt3__122__tree_key_value_typesIyE9__get_ptrB7v160006ERy, symObjAddr: 0xB280, symBinAddr: 0x10000F5E0, symSize: 0x10 }
  - { offsetInCU: 0x3693A, offset: 0x3693A, size: 0x8, addend: 0x0, symName: __ZNSt3__116allocator_traitsINS_9allocatorINS_11__tree_nodeIyPvEEEEE10deallocateB7v160006ERS5_PS4_m, symObjAddr: 0xB290, symBinAddr: 0x10000F5F0, symSize: 0x30 }
  - { offsetInCU: 0x3697C, offset: 0x3697C, size: 0x8, addend: 0x0, symName: __ZNSt3__117__compressed_pairINS_15__tree_end_nodeIPNS_16__tree_node_baseIPvEEEENS_9allocatorINS_11__tree_nodeIyS3_EEEEE6secondB7v160006Ev, symObjAddr: 0xB2C0, symBinAddr: 0x10000F620, symSize: 0x20 }
  - { offsetInCU: 0x369A2, offset: 0x369A2, size: 0x8, addend: 0x0, symName: __ZNSt3__122__compressed_pair_elemINS_9allocatorINS_11__tree_nodeIyPvEEEELi1ELb1EE5__getB7v160006Ev, symObjAddr: 0xB2E0, symBinAddr: 0x10000F640, symSize: 0x10 }
  - { offsetInCU: 0x369C8, offset: 0x369C8, size: 0x8, addend: 0x0, symName: __ZNSt3__19allocatorINS_11__tree_nodeIyPvEEE10deallocateB7v160006EPS3_m, symObjAddr: 0xB2F0, symBinAddr: 0x10000F650, symSize: 0x50 }
  - { offsetInCU: 0x36A0A, offset: 0x36A0A, size: 0x8, addend: 0x0, symName: __ZNKSt3__16__treeIyNS_4lessIyEENS_9allocatorIyEEE10__end_nodeB7v160006Ev, symObjAddr: 0xB340, symBinAddr: 0x10000F6A0, symSize: 0x30 }
  - { offsetInCU: 0x36A30, offset: 0x36A30, size: 0x8, addend: 0x0, symName: __ZNSt3__114pointer_traitsIPNS_15__tree_end_nodeIPNS_16__tree_node_baseIPvEEEEE10pointer_toB7v160006ERS6_, symObjAddr: 0xB370, symBinAddr: 0x10000F6D0, symSize: 0x10 }
  - { offsetInCU: 0x36A53, offset: 0x36A53, size: 0x8, addend: 0x0, symName: __ZNKSt3__117__compressed_pairINS_15__tree_end_nodeIPNS_16__tree_node_baseIPvEEEENS_9allocatorINS_11__tree_nodeIyS3_EEEEE5firstB7v160006Ev, symObjAddr: 0xB380, symBinAddr: 0x10000F6E0, symSize: 0x20 }
  - { offsetInCU: 0x36A79, offset: 0x36A79, size: 0x8, addend: 0x0, symName: __ZNKSt3__122__compressed_pair_elemINS_15__tree_end_nodeIPNS_16__tree_node_baseIPvEEEELi0ELb0EE5__getB7v160006Ev, symObjAddr: 0xB3A0, symBinAddr: 0x10000F700, symSize: 0x10 }
  - { offsetInCU: 0x36A9F, offset: 0x36A9F, size: 0x8, addend: 0x0, symName: __ZNSt3__19allocatorINS_11__list_nodeI14ModuleCoveragePvEEE10deallocateB7v160006EPS4_m, symObjAddr: 0xB3B0, symBinAddr: 0x10000F710, symSize: 0x40 }
  - { offsetInCU: 0x36AE1, offset: 0x36AE1, size: 0x8, addend: 0x0, symName: __ZNSt3__114priority_queueIPN6Fuzzer16SampleQueueEntryENS_6vectorIS3_NS_9allocatorIS3_EEEENS1_12CmpEntryPtrsEED2Ev, symObjAddr: 0xB3F0, symBinAddr: 0x10000F750, symSize: 0x20 }
  - { offsetInCU: 0x36B0E, offset: 0x36B0E, size: 0x8, addend: 0x0, symName: __ZNSt3__16vectorIPN6Fuzzer16SampleQueueEntryENS_9allocatorIS3_EEED2B7v160006Ev, symObjAddr: 0xB410, symBinAddr: 0x10000F770, symSize: 0x40 }
  - { offsetInCU: 0x36B38, offset: 0x36B38, size: 0x8, addend: 0x0, symName: __ZNSt3__16vectorIPN6Fuzzer16SampleQueueEntryENS_9allocatorIS3_EEE16__destroy_vectorC1ERS6_, symObjAddr: 0xB450, symBinAddr: 0x10000F7B0, symSize: 0x30 }
  - { offsetInCU: 0x36B71, offset: 0x36B71, size: 0x8, addend: 0x0, symName: __ZNSt3__16vectorIPN6Fuzzer16SampleQueueEntryENS_9allocatorIS3_EEE16__destroy_vectorclB7v160006Ev, symObjAddr: 0xB480, symBinAddr: 0x10000F7E0, symSize: 0x90 }
  - { offsetInCU: 0x36B97, offset: 0x36B97, size: 0x8, addend: 0x0, symName: __ZNSt3__16vectorIPN6Fuzzer16SampleQueueEntryENS_9allocatorIS3_EEE16__destroy_vectorC2ERS6_, symObjAddr: 0xB510, symBinAddr: 0x10000F870, symSize: 0x20 }
  - { offsetInCU: 0x36BD0, offset: 0x36BD0, size: 0x8, addend: 0x0, symName: __ZNKSt3__16vectorIPN6Fuzzer16SampleQueueEntryENS_9allocatorIS3_EEE17__annotate_deleteB7v160006Ev, symObjAddr: 0xB530, symBinAddr: 0x10000F890, symSize: 0xB0 }
  - { offsetInCU: 0x36BF6, offset: 0x36BF6, size: 0x8, addend: 0x0, symName: __ZNSt3__16vectorIPN6Fuzzer16SampleQueueEntryENS_9allocatorIS3_EEE7__clearB7v160006Ev, symObjAddr: 0xB5F0, symBinAddr: 0x10000F950, symSize: 0x20 }
  - { offsetInCU: 0x36C1C, offset: 0x36C1C, size: 0x8, addend: 0x0, symName: __ZNSt3__116allocator_traitsINS_9allocatorIPN6Fuzzer16SampleQueueEntryEEEE10deallocateB7v160006ERS5_PS4_m, symObjAddr: 0xB610, symBinAddr: 0x10000F970, symSize: 0x30 }
  - { offsetInCU: 0x36C5E, offset: 0x36C5E, size: 0x8, addend: 0x0, symName: __ZNSt3__16vectorIPN6Fuzzer16SampleQueueEntryENS_9allocatorIS3_EEE7__allocB7v160006Ev, symObjAddr: 0xB640, symBinAddr: 0x10000F9A0, symSize: 0x20 }
  - { offsetInCU: 0x36C84, offset: 0x36C84, size: 0x8, addend: 0x0, symName: __ZNKSt3__16vectorIPN6Fuzzer16SampleQueueEntryENS_9allocatorIS3_EEE8capacityB7v160006Ev, symObjAddr: 0xB660, symBinAddr: 0x10000F9C0, symSize: 0x30 }
  - { offsetInCU: 0x36CAA, offset: 0x36CAA, size: 0x8, addend: 0x0, symName: __ZNKSt3__16vectorIPN6Fuzzer16SampleQueueEntryENS_9allocatorIS3_EEE31__annotate_contiguous_containerB7v160006EPKvS8_S8_S8_, symObjAddr: 0xB690, symBinAddr: 0x10000F9F0, symSize: 0x20 }
  - { offsetInCU: 0x36CFC, offset: 0x36CFC, size: 0x8, addend: 0x0, symName: __ZNKSt3__16vectorIPN6Fuzzer16SampleQueueEntryENS_9allocatorIS3_EEE4dataB7v160006Ev, symObjAddr: 0xB6B0, symBinAddr: 0x10000FA10, symSize: 0x20 }
  - { offsetInCU: 0x36D22, offset: 0x36D22, size: 0x8, addend: 0x0, symName: __ZNKSt3__16vectorIPN6Fuzzer16SampleQueueEntryENS_9allocatorIS3_EEE4sizeB7v160006Ev, symObjAddr: 0xB6D0, symBinAddr: 0x10000FA30, symSize: 0x20 }
  - { offsetInCU: 0x36D48, offset: 0x36D48, size: 0x8, addend: 0x0, symName: __ZNSt3__16vectorIPN6Fuzzer16SampleQueueEntryENS_9allocatorIS3_EEE22__base_destruct_at_endB7v160006EPS3_, symObjAddr: 0xB700, symBinAddr: 0x10000FA60, symSize: 0x80 }
  - { offsetInCU: 0x36D8C, offset: 0x36D8C, size: 0x8, addend: 0x0, symName: __ZNSt3__116allocator_traitsINS_9allocatorIPN6Fuzzer16SampleQueueEntryEEEE7destroyB7v160006IS4_vEEvRS5_PT_, symObjAddr: 0xB780, symBinAddr: 0x10000FAE0, symSize: 0x30 }
  - { offsetInCU: 0x36DC9, offset: 0x36DC9, size: 0x8, addend: 0x0, symName: __ZNSt3__19allocatorIPN6Fuzzer16SampleQueueEntryEE7destroyB7v160006EPS3_, symObjAddr: 0xB7B0, symBinAddr: 0x10000FB10, symSize: 0x10 }
  - { offsetInCU: 0x36DFD, offset: 0x36DFD, size: 0x8, addend: 0x0, symName: __ZNSt3__19allocatorIPN6Fuzzer16SampleQueueEntryEE10deallocateB7v160006EPS3_m, symObjAddr: 0xB7C0, symBinAddr: 0x10000FB20, symSize: 0x40 }
  - { offsetInCU: 0x36E3F, offset: 0x36E3F, size: 0x8, addend: 0x0, symName: __ZNSt3__117__compressed_pairIPPN6Fuzzer16SampleQueueEntryENS_9allocatorIS3_EEE6secondB7v160006Ev, symObjAddr: 0xB800, symBinAddr: 0x10000FB60, symSize: 0x20 }
  - { offsetInCU: 0x36E65, offset: 0x36E65, size: 0x8, addend: 0x0, symName: __ZNSt3__122__compressed_pair_elemINS_9allocatorIPN6Fuzzer16SampleQueueEntryEEELi1ELb1EE5__getB7v160006Ev, symObjAddr: 0xB820, symBinAddr: 0x10000FB80, symSize: 0x10 }
  - { offsetInCU: 0x36E8B, offset: 0x36E8B, size: 0x8, addend: 0x0, symName: __ZNKSt3__16vectorIPN6Fuzzer16SampleQueueEntryENS_9allocatorIS3_EEE9__end_capB7v160006Ev, symObjAddr: 0xB830, symBinAddr: 0x10000FB90, symSize: 0x20 }
  - { offsetInCU: 0x36EB1, offset: 0x36EB1, size: 0x8, addend: 0x0, symName: __ZNKSt3__117__compressed_pairIPPN6Fuzzer16SampleQueueEntryENS_9allocatorIS3_EEE5firstB7v160006Ev, symObjAddr: 0xB850, symBinAddr: 0x10000FBB0, symSize: 0x20 }
  - { offsetInCU: 0x36ED7, offset: 0x36ED7, size: 0x8, addend: 0x0, symName: __ZNKSt3__122__compressed_pair_elemIPPN6Fuzzer16SampleQueueEntryELi0ELb0EE5__getB7v160006Ev, symObjAddr: 0xB870, symBinAddr: 0x10000FBD0, symSize: 0x10 }
  - { offsetInCU: 0x36EFD, offset: 0x36EFD, size: 0x8, addend: 0x0, symName: __ZNSt3__16vectorIP6SampleNS_9allocatorIS2_EEED2B7v160006Ev, symObjAddr: 0xB880, symBinAddr: 0x10000FBE0, symSize: 0x40 }
  - { offsetInCU: 0x36F27, offset: 0x36F27, size: 0x8, addend: 0x0, symName: __ZNSt3__16vectorIP6SampleNS_9allocatorIS2_EEE16__destroy_vectorC1ERS5_, symObjAddr: 0xB8C0, symBinAddr: 0x10000FC20, symSize: 0x30 }
  - { offsetInCU: 0x36F60, offset: 0x36F60, size: 0x8, addend: 0x0, symName: __ZNSt3__16vectorIP6SampleNS_9allocatorIS2_EEE16__destroy_vectorclB7v160006Ev, symObjAddr: 0xB8F0, symBinAddr: 0x10000FC50, symSize: 0x90 }
  - { offsetInCU: 0x36F86, offset: 0x36F86, size: 0x8, addend: 0x0, symName: __ZNSt3__16vectorIP6SampleNS_9allocatorIS2_EEE16__destroy_vectorC2ERS5_, symObjAddr: 0xB980, symBinAddr: 0x10000FCE0, symSize: 0x20 }
  - { offsetInCU: 0x36FBF, offset: 0x36FBF, size: 0x8, addend: 0x0, symName: __ZNKSt3__16vectorIP6SampleNS_9allocatorIS2_EEE17__annotate_deleteB7v160006Ev, symObjAddr: 0xB9A0, symBinAddr: 0x10000FD00, symSize: 0xB0 }
  - { offsetInCU: 0x36FE5, offset: 0x36FE5, size: 0x8, addend: 0x0, symName: __ZNSt3__16vectorIP6SampleNS_9allocatorIS2_EEE7__clearB7v160006Ev, symObjAddr: 0xBA60, symBinAddr: 0x10000FDC0, symSize: 0x20 }
  - { offsetInCU: 0x3700B, offset: 0x3700B, size: 0x8, addend: 0x0, symName: __ZNSt3__116allocator_traitsINS_9allocatorIP6SampleEEE10deallocateB7v160006ERS4_PS3_m, symObjAddr: 0xBA80, symBinAddr: 0x10000FDE0, symSize: 0x30 }
  - { offsetInCU: 0x3704D, offset: 0x3704D, size: 0x8, addend: 0x0, symName: __ZNSt3__16vectorIP6SampleNS_9allocatorIS2_EEE7__allocB7v160006Ev, symObjAddr: 0xBAB0, symBinAddr: 0x10000FE10, symSize: 0x20 }
  - { offsetInCU: 0x37073, offset: 0x37073, size: 0x8, addend: 0x0, symName: __ZNKSt3__16vectorIP6SampleNS_9allocatorIS2_EEE8capacityB7v160006Ev, symObjAddr: 0xBAD0, symBinAddr: 0x10000FE30, symSize: 0x30 }
  - { offsetInCU: 0x37099, offset: 0x37099, size: 0x8, addend: 0x0, symName: __ZNKSt3__16vectorIP6SampleNS_9allocatorIS2_EEE31__annotate_contiguous_containerB7v160006EPKvS7_S7_S7_, symObjAddr: 0xBB00, symBinAddr: 0x10000FE60, symSize: 0x20 }
  - { offsetInCU: 0x370EB, offset: 0x370EB, size: 0x8, addend: 0x0, symName: __ZNKSt3__16vectorIP6SampleNS_9allocatorIS2_EEE4dataB7v160006Ev, symObjAddr: 0xBB20, symBinAddr: 0x10000FE80, symSize: 0x20 }
  - { offsetInCU: 0x37111, offset: 0x37111, size: 0x8, addend: 0x0, symName: __ZNKSt3__16vectorIP6SampleNS_9allocatorIS2_EEE4sizeB7v160006Ev, symObjAddr: 0xBB40, symBinAddr: 0x10000FEA0, symSize: 0x20 }
  - { offsetInCU: 0x37137, offset: 0x37137, size: 0x8, addend: 0x0, symName: __ZNSt3__16vectorIP6SampleNS_9allocatorIS2_EEE22__base_destruct_at_endB7v160006EPS2_, symObjAddr: 0xBB70, symBinAddr: 0x10000FED0, symSize: 0x80 }
  - { offsetInCU: 0x3717B, offset: 0x3717B, size: 0x8, addend: 0x0, symName: __ZNSt3__116allocator_traitsINS_9allocatorIP6SampleEEE7destroyB7v160006IS3_vEEvRS4_PT_, symObjAddr: 0xBBF0, symBinAddr: 0x10000FF50, symSize: 0x30 }
  - { offsetInCU: 0x371B8, offset: 0x371B8, size: 0x8, addend: 0x0, symName: __ZNSt3__19allocatorIP6SampleE7destroyB7v160006EPS2_, symObjAddr: 0xBC20, symBinAddr: 0x10000FF80, symSize: 0x10 }
  - { offsetInCU: 0x371EC, offset: 0x371EC, size: 0x8, addend: 0x0, symName: __ZNSt3__19allocatorIP6SampleE10deallocateB7v160006EPS2_m, symObjAddr: 0xBC30, symBinAddr: 0x10000FF90, symSize: 0x40 }
  - { offsetInCU: 0x3722E, offset: 0x3722E, size: 0x8, addend: 0x0, symName: __ZNSt3__117__compressed_pairIPP6SampleNS_9allocatorIS2_EEE6secondB7v160006Ev, symObjAddr: 0xBC70, symBinAddr: 0x10000FFD0, symSize: 0x20 }
  - { offsetInCU: 0x37254, offset: 0x37254, size: 0x8, addend: 0x0, symName: __ZNSt3__122__compressed_pair_elemINS_9allocatorIP6SampleEELi1ELb1EE5__getB7v160006Ev, symObjAddr: 0xBC90, symBinAddr: 0x10000FFF0, symSize: 0x10 }
  - { offsetInCU: 0x3727A, offset: 0x3727A, size: 0x8, addend: 0x0, symName: __ZNKSt3__16vectorIP6SampleNS_9allocatorIS2_EEE9__end_capB7v160006Ev, symObjAddr: 0xBCA0, symBinAddr: 0x100010000, symSize: 0x20 }
  - { offsetInCU: 0x372A0, offset: 0x372A0, size: 0x8, addend: 0x0, symName: __ZNKSt3__117__compressed_pairIPP6SampleNS_9allocatorIS2_EEE5firstB7v160006Ev, symObjAddr: 0xBCC0, symBinAddr: 0x100010020, symSize: 0x20 }
  - { offsetInCU: 0x372C6, offset: 0x372C6, size: 0x8, addend: 0x0, symName: __ZNKSt3__122__compressed_pair_elemIPP6SampleLi0ELb0EE5__getB7v160006Ev, symObjAddr: 0xBCE0, symBinAddr: 0x100010040, symSize: 0x10 }
  - { offsetInCU: 0x372EC, offset: 0x372EC, size: 0x8, addend: 0x0, symName: __ZN14GrammarMutatorC2EP7Grammar, symObjAddr: 0xBCF0, symBinAddr: 0x100010050, symSize: 0xC0 }
  - { offsetInCU: 0x37324, offset: 0x37324, size: 0x8, addend: 0x0, symName: __ZNSt3__16vectorIN14GrammarMutator17MutationCandidateENS_9allocatorIS2_EEEC1B7v160006Ev, symObjAddr: 0xBDB0, symBinAddr: 0x100010110, symSize: 0x20 }
  - { offsetInCU: 0x3734E, offset: 0x3734E, size: 0x8, addend: 0x0, symName: __ZNSt3__16vectorIN14GrammarMutator17MutationCandidateENS_9allocatorIS2_EEED1B7v160006Ev, symObjAddr: 0xBDD0, symBinAddr: 0x100010130, symSize: 0x20 }
  - { offsetInCU: 0x37378, offset: 0x37378, size: 0x8, addend: 0x0, symName: __ZNSt3__16vectorIN14GrammarMutator17MutationCandidateENS_9allocatorIS2_EEEC2B7v160006Ev, symObjAddr: 0xBDF0, symBinAddr: 0x100010150, symSize: 0x60 }
  - { offsetInCU: 0x373A2, offset: 0x373A2, size: 0x8, addend: 0x0, symName: __ZNSt3__117__compressed_pairIPN14GrammarMutator17MutationCandidateENS_9allocatorIS2_EEEC1B7v160006IDnNS_18__default_init_tagEEEOT_OT0_, symObjAddr: 0xBE50, symBinAddr: 0x1000101B0, symSize: 0x30 }
  - { offsetInCU: 0x373FA, offset: 0x373FA, size: 0x8, addend: 0x0, symName: __ZNSt3__117__compressed_pairIPN14GrammarMutator17MutationCandidateENS_9allocatorIS2_EEEC2B7v160006IDnNS_18__default_init_tagEEEOT_OT0_, symObjAddr: 0xBE90, symBinAddr: 0x1000101F0, symSize: 0x40 }
  - { offsetInCU: 0x37452, offset: 0x37452, size: 0x8, addend: 0x0, symName: __ZNSt3__122__compressed_pair_elemIPN14GrammarMutator17MutationCandidateELi0ELb0EEC2B7v160006IDnvEEOT_, symObjAddr: 0xBED0, symBinAddr: 0x100010230, symSize: 0x20 }
  - { offsetInCU: 0x37494, offset: 0x37494, size: 0x8, addend: 0x0, symName: __ZNSt3__122__compressed_pair_elemINS_9allocatorIN14GrammarMutator17MutationCandidateEEELi1ELb1EEC2B7v160006ENS_18__default_init_tagE, symObjAddr: 0xBEF0, symBinAddr: 0x100010250, symSize: 0x20 }
  - { offsetInCU: 0x374C9, offset: 0x374C9, size: 0x8, addend: 0x0, symName: __ZNSt3__19allocatorIN14GrammarMutator17MutationCandidateEEC2B7v160006Ev, symObjAddr: 0xBF10, symBinAddr: 0x100010270, symSize: 0x20 }
  - { offsetInCU: 0x374F3, offset: 0x374F3, size: 0x8, addend: 0x0, symName: __ZNSt3__116__non_trivial_ifILb1ENS_9allocatorIN14GrammarMutator17MutationCandidateEEEEC2B7v160006Ev, symObjAddr: 0xBF30, symBinAddr: 0x100010290, symSize: 0x10 }
  - { offsetInCU: 0x3751D, offset: 0x3751D, size: 0x8, addend: 0x0, symName: __ZNSt3__16vectorIN14GrammarMutator17MutationCandidateENS_9allocatorIS2_EEED2B7v160006Ev, symObjAddr: 0xBF40, symBinAddr: 0x1000102A0, symSize: 0x40 }
  - { offsetInCU: 0x37547, offset: 0x37547, size: 0x8, addend: 0x0, symName: __ZNSt3__16vectorIN14GrammarMutator17MutationCandidateENS_9allocatorIS2_EEE16__destroy_vectorC1ERS5_, symObjAddr: 0xBF80, symBinAddr: 0x1000102E0, symSize: 0x30 }
  - { offsetInCU: 0x37580, offset: 0x37580, size: 0x8, addend: 0x0, symName: __ZNSt3__16vectorIN14GrammarMutator17MutationCandidateENS_9allocatorIS2_EEE16__destroy_vectorclB7v160006Ev, symObjAddr: 0xBFB0, symBinAddr: 0x100010310, symSize: 0x90 }
  - { offsetInCU: 0x375A6, offset: 0x375A6, size: 0x8, addend: 0x0, symName: __ZNSt3__16vectorIN14GrammarMutator17MutationCandidateENS_9allocatorIS2_EEE16__destroy_vectorC2ERS5_, symObjAddr: 0xC040, symBinAddr: 0x1000103A0, symSize: 0x20 }
  - { offsetInCU: 0x375DF, offset: 0x375DF, size: 0x8, addend: 0x0, symName: __ZNKSt3__16vectorIN14GrammarMutator17MutationCandidateENS_9allocatorIS2_EEE17__annotate_deleteB7v160006Ev, symObjAddr: 0xC060, symBinAddr: 0x1000103C0, symSize: 0xB0 }
  - { offsetInCU: 0x37605, offset: 0x37605, size: 0x8, addend: 0x0, symName: __ZNSt3__16vectorIN14GrammarMutator17MutationCandidateENS_9allocatorIS2_EEE7__clearB7v160006Ev, symObjAddr: 0xC120, symBinAddr: 0x100010480, symSize: 0x20 }
  - { offsetInCU: 0x3762B, offset: 0x3762B, size: 0x8, addend: 0x0, symName: __ZNSt3__116allocator_traitsINS_9allocatorIN14GrammarMutator17MutationCandidateEEEE10deallocateB7v160006ERS4_PS3_m, symObjAddr: 0xC140, symBinAddr: 0x1000104A0, symSize: 0x30 }
  - { offsetInCU: 0x3766D, offset: 0x3766D, size: 0x8, addend: 0x0, symName: __ZNSt3__16vectorIN14GrammarMutator17MutationCandidateENS_9allocatorIS2_EEE7__allocB7v160006Ev, symObjAddr: 0xC170, symBinAddr: 0x1000104D0, symSize: 0x20 }
  - { offsetInCU: 0x37693, offset: 0x37693, size: 0x8, addend: 0x0, symName: __ZNKSt3__16vectorIN14GrammarMutator17MutationCandidateENS_9allocatorIS2_EEE8capacityB7v160006Ev, symObjAddr: 0xC190, symBinAddr: 0x1000104F0, symSize: 0x40 }
  - { offsetInCU: 0x376B9, offset: 0x376B9, size: 0x8, addend: 0x0, symName: __ZNKSt3__16vectorIN14GrammarMutator17MutationCandidateENS_9allocatorIS2_EEE31__annotate_contiguous_containerB7v160006EPKvS7_S7_S7_, symObjAddr: 0xC1D0, symBinAddr: 0x100010530, symSize: 0x20 }
  - { offsetInCU: 0x3770B, offset: 0x3770B, size: 0x8, addend: 0x0, symName: __ZNKSt3__16vectorIN14GrammarMutator17MutationCandidateENS_9allocatorIS2_EEE4dataB7v160006Ev, symObjAddr: 0xC1F0, symBinAddr: 0x100010550, symSize: 0x20 }
  - { offsetInCU: 0x37731, offset: 0x37731, size: 0x8, addend: 0x0, symName: __ZNKSt3__16vectorIN14GrammarMutator17MutationCandidateENS_9allocatorIS2_EEE4sizeB7v160006Ev, symObjAddr: 0xC210, symBinAddr: 0x100010570, symSize: 0x30 }
  - { offsetInCU: 0x37757, offset: 0x37757, size: 0x8, addend: 0x0, symName: __ZNSt3__16vectorIN14GrammarMutator17MutationCandidateENS_9allocatorIS2_EEE22__base_destruct_at_endB7v160006EPS2_, symObjAddr: 0xC250, symBinAddr: 0x1000105B0, symSize: 0x80 }
  - { offsetInCU: 0x3779B, offset: 0x3779B, size: 0x8, addend: 0x0, symName: __ZNSt3__116allocator_traitsINS_9allocatorIN14GrammarMutator17MutationCandidateEEEE7destroyB7v160006IS3_vEEvRS4_PT_, symObjAddr: 0xC2D0, symBinAddr: 0x100010630, symSize: 0x30 }
  - { offsetInCU: 0x377D8, offset: 0x377D8, size: 0x8, addend: 0x0, symName: __ZNSt3__19allocatorIN14GrammarMutator17MutationCandidateEE7destroyB7v160006EPS2_, symObjAddr: 0xC300, symBinAddr: 0x100010660, symSize: 0x10 }
  - { offsetInCU: 0x3780C, offset: 0x3780C, size: 0x8, addend: 0x0, symName: __ZNSt3__19allocatorIN14GrammarMutator17MutationCandidateEE10deallocateB7v160006EPS2_m, symObjAddr: 0xC310, symBinAddr: 0x100010670, symSize: 0x50 }
  - { offsetInCU: 0x3784E, offset: 0x3784E, size: 0x8, addend: 0x0, symName: __ZNSt3__117__compressed_pairIPN14GrammarMutator17MutationCandidateENS_9allocatorIS2_EEE6secondB7v160006Ev, symObjAddr: 0xC360, symBinAddr: 0x1000106C0, symSize: 0x20 }
  - { offsetInCU: 0x37874, offset: 0x37874, size: 0x8, addend: 0x0, symName: __ZNSt3__122__compressed_pair_elemINS_9allocatorIN14GrammarMutator17MutationCandidateEEELi1ELb1EE5__getB7v160006Ev, symObjAddr: 0xC380, symBinAddr: 0x1000106E0, symSize: 0x10 }
  - { offsetInCU: 0x3789A, offset: 0x3789A, size: 0x8, addend: 0x0, symName: __ZNKSt3__16vectorIN14GrammarMutator17MutationCandidateENS_9allocatorIS2_EEE9__end_capB7v160006Ev, symObjAddr: 0xC390, symBinAddr: 0x1000106F0, symSize: 0x20 }
  - { offsetInCU: 0x378C0, offset: 0x378C0, size: 0x8, addend: 0x0, symName: __ZNKSt3__117__compressed_pairIPN14GrammarMutator17MutationCandidateENS_9allocatorIS2_EEE5firstB7v160006Ev, symObjAddr: 0xC3B0, symBinAddr: 0x100010710, symSize: 0x20 }
  - { offsetInCU: 0x378E6, offset: 0x378E6, size: 0x8, addend: 0x0, symName: __ZNKSt3__122__compressed_pair_elemIPN14GrammarMutator17MutationCandidateELi0ELb0EE5__getB7v160006Ev, symObjAddr: 0xC3D0, symBinAddr: 0x100010730, symSize: 0x10 }
  - { offsetInCU: 0x3790C, offset: 0x3790C, size: 0x8, addend: 0x0, symName: __ZN16GrammarMinimizerC2EP7Grammar, symObjAddr: 0xC3E0, symBinAddr: 0x100010740, symSize: 0x40 }
  - { offsetInCU: 0x37944, offset: 0x37944, size: 0x8, addend: 0x0, symName: __ZN9MinimizerC2Ev, symObjAddr: 0xC420, symBinAddr: 0x100010780, symSize: 0x20 }
  - { offsetInCU: 0x37970, offset: 0x37970, size: 0x8, addend: 0x0, symName: __ZN9Minimizer13CreateContextEP6Sample, symObjAddr: 0xC440, symBinAddr: 0x1000107A0, symSize: 0x10 }
  - { offsetInCU: 0x379A4, offset: 0x379A4, size: 0x8, addend: 0x0, symName: __ZN9Minimizer12MinimizeStepEP6SampleP16MinimizerContext, symObjAddr: 0xC450, symBinAddr: 0x1000107B0, symSize: 0x20 }
  - { offsetInCU: 0x379E6, offset: 0x379E6, size: 0x8, addend: 0x0, symName: __ZN9Minimizer13ReportSuccessEP6SampleP16MinimizerContext, symObjAddr: 0xC470, symBinAddr: 0x1000107D0, symSize: 0x20 }
  - { offsetInCU: 0x37A28, offset: 0x37A28, size: 0x8, addend: 0x0, symName: __ZN9Minimizer10ReportFailEP6SampleP16MinimizerContext, symObjAddr: 0xC490, symBinAddr: 0x1000107F0, symSize: 0x20 }
  - { offsetInCU: 0x37A6A, offset: 0x37A6A, size: 0x8, addend: 0x0, symName: __ZN12BinaryFuzzerC2Ev, symObjAddr: 0xC4B0, symBinAddr: 0x100010810, symSize: 0x40 }
  - { offsetInCU: 0x37A96, offset: 0x37A96, size: 0x8, addend: 0x0, symName: __ZNSt3__112basic_stringIcNS_11char_traitsIcEENS_9allocatorIcEEEC2B7v160006IDnEEPKc, symObjAddr: 0xC4F0, symBinAddr: 0x100010850, symSize: 0x60 }
  - { offsetInCU: 0x37AD4, offset: 0x37AD4, size: 0x8, addend: 0x0, symName: __ZNSt3__117__compressed_pairINS_12basic_stringIcNS_11char_traitsIcEENS_9allocatorIcEEE5__repES5_EC1B7v160006INS_18__default_init_tagESA_EEOT_OT0_, symObjAddr: 0xC550, symBinAddr: 0x1000108B0, symSize: 0x30 }
  - { offsetInCU: 0x37B2C, offset: 0x37B2C, size: 0x8, addend: 0x0, symName: __ZNSt3__111char_traitsIcE6lengthEPKc, symObjAddr: 0xC580, symBinAddr: 0x1000108E0, symSize: 0x30 }
  - { offsetInCU: 0x37B4F, offset: 0x37B4F, size: 0x8, addend: 0x0, symName: __ZNSt3__117__compressed_pairINS_12basic_stringIcNS_11char_traitsIcEENS_9allocatorIcEEE5__repES5_EC2B7v160006INS_18__default_init_tagESA_EEOT_OT0_, symObjAddr: 0xC5C0, symBinAddr: 0x100010920, symSize: 0x30 }
  - { offsetInCU: 0x37BA7, offset: 0x37BA7, size: 0x8, addend: 0x0, symName: __ZNSt3__122__compressed_pair_elemINS_12basic_stringIcNS_11char_traitsIcEENS_9allocatorIcEEE5__repELi0ELb0EEC2B7v160006ENS_18__default_init_tagE, symObjAddr: 0xC5F0, symBinAddr: 0x100010950, symSize: 0x10 }
  - { offsetInCU: 0x37BDC, offset: 0x37BDC, size: 0x8, addend: 0x0, symName: __ZNSt3__122__compressed_pair_elemINS_9allocatorIcEELi1ELb1EEC2B7v160006ENS_18__default_init_tagE, symObjAddr: 0xC600, symBinAddr: 0x100010960, symSize: 0x20 }
  - { offsetInCU: 0x37C11, offset: 0x37C11, size: 0x8, addend: 0x0, symName: __ZNSt3__19allocatorIcEC2B7v160006Ev, symObjAddr: 0xC620, symBinAddr: 0x100010980, symSize: 0x20 }
  - { offsetInCU: 0x37C3B, offset: 0x37C3B, size: 0x8, addend: 0x0, symName: __ZNSt3__116__non_trivial_ifILb1ENS_9allocatorIcEEEC2B7v160006Ev, symObjAddr: 0xC640, symBinAddr: 0x1000109A0, symSize: 0x10 }
  - { offsetInCU: 0x37C65, offset: 0x37C65, size: 0x8, addend: 0x0, symName: __ZNSt3__112basic_stringIcNS_11char_traitsIcEENS_9allocatorIcEEEC2B7v160006Ev, symObjAddr: 0xC670, symBinAddr: 0x1000109D0, symSize: 0x50 }
  - { offsetInCU: 0x37C8F, offset: 0x37C8F, size: 0x8, addend: 0x0, symName: __ZNSt3__112basic_stringIcNS_11char_traitsIcEENS_9allocatorIcEEE14__default_initB7v160006Ev, symObjAddr: 0xC6C0, symBinAddr: 0x100010A20, symSize: 0x50 }
  - { offsetInCU: 0x37CB5, offset: 0x37CB5, size: 0x8, addend: 0x0, symName: __ZNSt3__117__compressed_pairINS_12basic_stringIcNS_11char_traitsIcEENS_9allocatorIcEEE5__repES5_E5firstB7v160006Ev, symObjAddr: 0xC710, symBinAddr: 0x100010A70, symSize: 0x20 }
  - { offsetInCU: 0x37CDB, offset: 0x37CDB, size: 0x8, addend: 0x0, symName: __ZNSt3__122__compressed_pair_elemINS_12basic_stringIcNS_11char_traitsIcEENS_9allocatorIcEEE5__repELi0ELb0EE5__getB7v160006Ev, symObjAddr: 0xC730, symBinAddr: 0x100010A90, symSize: 0x10 }
  - { offsetInCU: 0x37D1F, offset: 0x37D1F, size: 0x8, addend: 0x0, symName: __ZNKSt3__113basic_ostreamIcNS_11char_traitsIcEEE6sentrycvbB7v160006Ev, symObjAddr: 0xC930, symBinAddr: 0x100010C90, symSize: 0x20 }
  - { offsetInCU: 0x37D45, offset: 0x37D45, size: 0x8, addend: 0x0, symName: __ZNSt3__119ostreambuf_iteratorIcNS_11char_traitsIcEEEC1B7v160006ERNS_13basic_ostreamIcS2_EE, symObjAddr: 0xCB70, symBinAddr: 0x100010ED0, symSize: 0x30 }
  - { offsetInCU: 0x37D7D, offset: 0x37D7D, size: 0x8, addend: 0x0, symName: __ZNKSt3__18ios_base5flagsB7v160006Ev, symObjAddr: 0xCBA0, symBinAddr: 0x100010F00, symSize: 0x20 }
  - { offsetInCU: 0x37DA5, offset: 0x37DA5, size: 0x8, addend: 0x0, symName: __ZNKSt3__19basic_iosIcNS_11char_traitsIcEEE4fillB7v160006Ev, symObjAddr: 0xCBC0, symBinAddr: 0x100010F20, symSize: 0x70 }
  - { offsetInCU: 0x37DCD, offset: 0x37DCD, size: 0x8, addend: 0x0, symName: __ZNKSt3__119ostreambuf_iteratorIcNS_11char_traitsIcEEE6failedB7v160006Ev, symObjAddr: 0xCC30, symBinAddr: 0x100010F90, symSize: 0x20 }
  - { offsetInCU: 0x37DF3, offset: 0x37DF3, size: 0x8, addend: 0x0, symName: __ZNSt3__19basic_iosIcNS_11char_traitsIcEEE8setstateB7v160006Ej, symObjAddr: 0xCC50, symBinAddr: 0x100010FB0, symSize: 0x30 }
  - { offsetInCU: 0x37E28, offset: 0x37E28, size: 0x8, addend: 0x0, symName: __ZNKSt3__18ios_base5widthB7v160006Ev, symObjAddr: 0xCC80, symBinAddr: 0x100010FE0, symSize: 0x20 }
  - { offsetInCU: 0x37E50, offset: 0x37E50, size: 0x8, addend: 0x0, symName: __ZNSt3__115basic_streambufIcNS_11char_traitsIcEEE5sputnB7v160006EPKcl, symObjAddr: 0xCCA0, symBinAddr: 0x100011000, symSize: 0x30 }
  - { offsetInCU: 0x37E92, offset: 0x37E92, size: 0x8, addend: 0x0, symName: __ZNSt3__112basic_stringIcNS_11char_traitsIcEENS_9allocatorIcEEEC1B7v160006Emc, symObjAddr: 0xCCD0, symBinAddr: 0x100011030, symSize: 0x30 }
  - { offsetInCU: 0x37EDA, offset: 0x37EDA, size: 0x8, addend: 0x0, symName: __ZNSt3__112basic_stringIcNS_11char_traitsIcEENS_9allocatorIcEEE4dataB7v160006Ev, symObjAddr: 0xCD00, symBinAddr: 0x100011060, symSize: 0x30 }
  - { offsetInCU: 0x37F00, offset: 0x37F00, size: 0x8, addend: 0x0, symName: __ZNSt3__18ios_base5widthB7v160006El, symObjAddr: 0xCD30, symBinAddr: 0x100011090, symSize: 0x30 }
  - { offsetInCU: 0x37F46, offset: 0x37F46, size: 0x8, addend: 0x0, symName: __ZNSt3__112basic_stringIcNS_11char_traitsIcEENS_9allocatorIcEEEC2B7v160006Emc, symObjAddr: 0xCD60, symBinAddr: 0x1000110C0, symSize: 0x50 }
  - { offsetInCU: 0x37F8E, offset: 0x37F8E, size: 0x8, addend: 0x0, symName: __ZNSt3__112basic_stringIcNS_11char_traitsIcEENS_9allocatorIcEEE13__get_pointerB7v160006Ev, symObjAddr: 0xCDC0, symBinAddr: 0x100011120, symSize: 0x50 }
  - { offsetInCU: 0x37FB4, offset: 0x37FB4, size: 0x8, addend: 0x0, symName: __ZNKSt3__112basic_stringIcNS_11char_traitsIcEENS_9allocatorIcEEE9__is_longB7v160006Ev, symObjAddr: 0xCE10, symBinAddr: 0x100011170, symSize: 0x30 }
  - { offsetInCU: 0x37FDA, offset: 0x37FDA, size: 0x8, addend: 0x0, symName: __ZNSt3__112basic_stringIcNS_11char_traitsIcEENS_9allocatorIcEEE18__get_long_pointerB7v160006Ev, symObjAddr: 0xCE40, symBinAddr: 0x1000111A0, symSize: 0x20 }
  - { offsetInCU: 0x38000, offset: 0x38000, size: 0x8, addend: 0x0, symName: __ZNSt3__112basic_stringIcNS_11char_traitsIcEENS_9allocatorIcEEE19__get_short_pointerB7v160006Ev, symObjAddr: 0xCE60, symBinAddr: 0x1000111C0, symSize: 0x30 }
  - { offsetInCU: 0x38026, offset: 0x38026, size: 0x8, addend: 0x0, symName: __ZNKSt3__117__compressed_pairINS_12basic_stringIcNS_11char_traitsIcEENS_9allocatorIcEEE5__repES5_E5firstB7v160006Ev, symObjAddr: 0xCE90, symBinAddr: 0x1000111F0, symSize: 0x20 }
  - { offsetInCU: 0x3804C, offset: 0x3804C, size: 0x8, addend: 0x0, symName: __ZNKSt3__122__compressed_pair_elemINS_12basic_stringIcNS_11char_traitsIcEENS_9allocatorIcEEE5__repELi0ELb0EE5__getB7v160006Ev, symObjAddr: 0xCEB0, symBinAddr: 0x100011210, symSize: 0x10 }
  - { offsetInCU: 0x38072, offset: 0x38072, size: 0x8, addend: 0x0, symName: __ZNSt3__114pointer_traitsIPcE10pointer_toB7v160006ERc, symObjAddr: 0xCEC0, symBinAddr: 0x100011220, symSize: 0x10 }
  - { offsetInCU: 0x38095, offset: 0x38095, size: 0x8, addend: 0x0, symName: __ZNSt3__119ostreambuf_iteratorIcNS_11char_traitsIcEEEC2B7v160006ERNS_13basic_ostreamIcS2_EE, symObjAddr: 0xCED0, symBinAddr: 0x100011230, symSize: 0x50 }
  - { offsetInCU: 0x380CD, offset: 0x380CD, size: 0x8, addend: 0x0, symName: __ZNKSt3__19basic_iosIcNS_11char_traitsIcEEE5rdbufB7v160006Ev, symObjAddr: 0xCF20, symBinAddr: 0x100011280, symSize: 0x20 }
  - { offsetInCU: 0x380F5, offset: 0x380F5, size: 0x8, addend: 0x0, symName: __ZNKSt3__18ios_base5rdbufB7v160006Ev, symObjAddr: 0xCF40, symBinAddr: 0x1000112A0, symSize: 0x20 }
  - { offsetInCU: 0x3811B, offset: 0x3811B, size: 0x8, addend: 0x0, symName: __ZNSt3__111char_traitsIcE11eq_int_typeEii, symObjAddr: 0xCF60, symBinAddr: 0x1000112C0, symSize: 0x20 }
  - { offsetInCU: 0x3814C, offset: 0x3814C, size: 0x8, addend: 0x0, symName: __ZNSt3__111char_traitsIcE3eofEv, symObjAddr: 0xCF80, symBinAddr: 0x1000112E0, symSize: 0x10 }
  - { offsetInCU: 0x38160, offset: 0x38160, size: 0x8, addend: 0x0, symName: __ZNKSt3__19basic_iosIcNS_11char_traitsIcEEE5widenB7v160006Ec, symObjAddr: 0xCF90, symBinAddr: 0x1000112F0, symSize: 0x80 }
  - { offsetInCU: 0x381CE, offset: 0x381CE, size: 0x8, addend: 0x0, symName: __ZNKSt3__15ctypeIcE5widenB7v160006Ec, symObjAddr: 0xD040, symBinAddr: 0x1000113A0, symSize: 0x30 }
  - { offsetInCU: 0x38203, offset: 0x38203, size: 0x8, addend: 0x0, symName: __ZNSt3__18ios_base8setstateB7v160006Ej, symObjAddr: 0xD070, symBinAddr: 0x1000113D0, symSize: 0x30 }
  - { offsetInCU: 0x3823A, offset: 0x3823A, size: 0x8, addend: 0x0, symName: __ZNKSt3__112basic_stringIcNS_11char_traitsIcEENS_9allocatorIcEEE4dataB7v160006Ev, symObjAddr: 0xD0A0, symBinAddr: 0x100011400, symSize: 0x30 }
  - { offsetInCU: 0x38260, offset: 0x38260, size: 0x8, addend: 0x0, symName: __ZNKSt3__112basic_stringIcNS_11char_traitsIcEENS_9allocatorIcEEE4sizeB7v160006Ev, symObjAddr: 0xD0D0, symBinAddr: 0x100011430, symSize: 0x50 }
  - { offsetInCU: 0x38286, offset: 0x38286, size: 0x8, addend: 0x0, symName: __ZNKSt3__112basic_stringIcNS_11char_traitsIcEENS_9allocatorIcEEE13__get_pointerB7v160006Ev, symObjAddr: 0xD130, symBinAddr: 0x100011490, symSize: 0x50 }
  - { offsetInCU: 0x382AC, offset: 0x382AC, size: 0x8, addend: 0x0, symName: __ZNKSt3__112basic_stringIcNS_11char_traitsIcEENS_9allocatorIcEEE18__get_long_pointerB7v160006Ev, symObjAddr: 0xD180, symBinAddr: 0x1000114E0, symSize: 0x20 }
  - { offsetInCU: 0x382D2, offset: 0x382D2, size: 0x8, addend: 0x0, symName: __ZNKSt3__112basic_stringIcNS_11char_traitsIcEENS_9allocatorIcEEE19__get_short_pointerB7v160006Ev, symObjAddr: 0xD1A0, symBinAddr: 0x100011500, symSize: 0x30 }
  - { offsetInCU: 0x382F8, offset: 0x382F8, size: 0x8, addend: 0x0, symName: __ZNSt3__114pointer_traitsIPKcE10pointer_toB7v160006ERS1_, symObjAddr: 0xD1D0, symBinAddr: 0x100011530, symSize: 0x10 }
  - { offsetInCU: 0x3831B, offset: 0x3831B, size: 0x8, addend: 0x0, symName: __ZNKSt3__112basic_stringIcNS_11char_traitsIcEENS_9allocatorIcEEE15__get_long_sizeB7v160006Ev, symObjAddr: 0xD1E0, symBinAddr: 0x100011540, symSize: 0x20 }
  - { offsetInCU: 0x38341, offset: 0x38341, size: 0x8, addend: 0x0, symName: __ZNKSt3__112basic_stringIcNS_11char_traitsIcEENS_9allocatorIcEEE16__get_short_sizeB7v160006Ev, symObjAddr: 0xD200, symBinAddr: 0x100011560, symSize: 0x23 }
  - { offsetInCU: 0x5AC5, offset: 0x3E1EF, size: 0x8, addend: 0x0, symName: __ZNSt3__1plB7v160006IcNS_11char_traitsIcEENS_9allocatorIcEEEENS_12basic_stringIT_T0_T1_EEOS9_PKS6_, symObjAddr: 0xD30, symBinAddr: 0x100012250, symSize: 0x50 }
  - { offsetInCU: 0x5B1D, offset: 0x3E247, size: 0x8, addend: 0x0, symName: __ZNSt3__111__str_rfindB7v160006IcmNS_11char_traitsIcEELm18446744073709551615EEET0_PKT_S3_S6_S3_S3_, symObjAddr: 0x1630, symBinAddr: 0x100012710, symSize: 0x100 }
  - { offsetInCU: 0x5BC4, offset: 0x3E2EE, size: 0x8, addend: 0x0, symName: __ZNSt3__118__find_end_classicB7v160006IPKcS2_DoFbccEEET_S4_S4_T0_S5_RT1_, symObjAddr: 0x17E0, symBinAddr: 0x100012810, symSize: 0x60 }
  - { offsetInCU: 0x5C51, offset: 0x3E37B, size: 0x8, addend: 0x0, symName: __ZNSt3__115__find_end_implB7v160006INS_17_ClassicAlgPolicyEPKcS3_S3_S3_DoFbccENS_10__identityES5_EENS_4pairIT0_S7_EES7_T1_T2_T3_RT4_RT5_RT6_NS_20forward_iterator_tagESI_, symObjAddr: 0x18F0, symBinAddr: 0x1000128A0, symSize: 0x1E0 }
  - { offsetInCU: 0x5E85, offset: 0x3E5AF, size: 0x8, addend: 0x0, symName: __ZNSt3__18__invokeB7v160006IRDoFbccEJRKcS4_EEEDTclclsr3stdE7declvalIT_EEspclsr3stdE7declvalIT0_EEEEOS5_DpOS6_, symObjAddr: 0x1B20, symBinAddr: 0x100012AD0, symSize: 0x40 }
  - { offsetInCU: 0x5EEA, offset: 0x3E614, size: 0x8, addend: 0x0, symName: __ZNSt3__18__invokeB7v160006IRNS_10__identityEJRKcEEEDTclclsr3stdE7declvalIT_EEspclsr3stdE7declvalIT0_EEEEOS5_DpOS6_, symObjAddr: 0x1B60, symBinAddr: 0x100012B10, symSize: 0x30 }
  - { offsetInCU: 0x5F68, offset: 0x3E692, size: 0x8, addend: 0x0, symName: __ZNSt3__115__debug_db_swapB7v160006INS_12basic_stringIcNS_11char_traitsIcEENS_9allocatorIcEEEEEEvPT_S8_, symObjAddr: 0x1DC0, symBinAddr: 0x100012C60, symSize: 0x10 }
  - { offsetInCU: 0x8838, offset: 0x40F62, size: 0x8, addend: 0x0, symName: __ZN14CoverageClient4InitEiPPc, symObjAddr: 0x0, symBinAddr: 0x100011590, symSize: 0x280 }
  - { offsetInCU: 0x88C2, offset: 0x40FEC, size: 0x8, addend: 0x0, symName: __ZNSt3__112basic_stringIcNS_11char_traitsIcEENS_9allocatorIcEEEaSB7v160006EOS5_, symObjAddr: 0x2B0, symBinAddr: 0x100011810, symSize: 0x30 }
  - { offsetInCU: 0x88F7, offset: 0x41021, size: 0x8, addend: 0x0, symName: __ZNKSt3__112basic_stringIcNS_11char_traitsIcEENS_9allocatorIcEEE5rfindB7v160006EPKcm, symObjAddr: 0x2E0, symBinAddr: 0x100011840, symSize: 0x70 }
  - { offsetInCU: 0x893D, offset: 0x41067, size: 0x8, addend: 0x0, symName: __ZNKSt3__112basic_stringIcNS_11char_traitsIcEENS_9allocatorIcEEE6substrB7v160006Emm, symObjAddr: 0x350, symBinAddr: 0x1000118B0, symSize: 0x70 }
  - { offsetInCU: 0x8981, offset: 0x410AB, size: 0x8, addend: 0x0, symName: __ZN14CoverageClientD2Ev, symObjAddr: 0x3E0, symBinAddr: 0x100011920, symSize: 0x30 }
  - { offsetInCU: 0x89AD, offset: 0x410D7, size: 0x8, addend: 0x0, symName: __ZN14CoverageClientD1Ev, symObjAddr: 0x410, symBinAddr: 0x100011950, symSize: 0x20 }
  - { offsetInCU: 0x89D9, offset: 0x41103, size: 0x8, addend: 0x0, symName: __ZN14CoverageClient18TryConnectToServerEv, symObjAddr: 0x430, symBinAddr: 0x100011970, symSize: 0x110 }
  - { offsetInCU: 0x8A0F, offset: 0x41139, size: 0x8, addend: 0x0, symName: __ZL12_OSSwapInt16t, symObjAddr: 0x540, symBinAddr: 0x100011A80, symSize: 0x20 }
  - { offsetInCU: 0x8A3C, offset: 0x41166, size: 0x8, addend: 0x0, symName: __ZN14CoverageClient15ConnectToServerEc, symObjAddr: 0x560, symBinAddr: 0x100011AA0, symSize: 0xE0 }
  - { offsetInCU: 0x8A9C, offset: 0x411C6, size: 0x8, addend: 0x0, symName: __ZN14CoverageClient20DisconnectFromServerEv, symObjAddr: 0x640, symBinAddr: 0x100011B80, symSize: 0x30 }
  - { offsetInCU: 0x8AC4, offset: 0x411EE, size: 0x8, addend: 0x0, symName: __ZN14CoverageClient11ReportCrashEP6SampleRNSt3__112basic_stringIcNS2_11char_traitsIcEENS2_9allocatorIcEEEE, symObjAddr: 0x670, symBinAddr: 0x100011BB0, symSize: 0xD0 }
  - { offsetInCU: 0x8B08, offset: 0x41232, size: 0x8, addend: 0x0, symName: __ZN14CoverageClient17ReportNewCoverageEPNSt3__14listI14ModuleCoverageNS0_9allocatorIS2_EEEEP6Sample, symObjAddr: 0x740, symBinAddr: 0x100011C80, symSize: 0x110 }
  - { offsetInCU: 0x8B5A, offset: 0x41284, size: 0x8, addend: 0x0, symName: __ZN14CoverageClient10GetUpdatesERNSt3__14listIP6SampleNS0_9allocatorIS3_EEEEy, symObjAddr: 0x850, symBinAddr: 0x100011D90, symSize: 0x4C0 }
  - { offsetInCU: 0x8C28, offset: 0x41352, size: 0x8, addend: 0x0, symName: __ZNSt3__14listIP6SampleNS_9allocatorIS2_EEE9push_backERKS2_, symObjAddr: 0xD80, symBinAddr: 0x1000122A0, symSize: 0x100 }
  - { offsetInCU: 0x8C7D, offset: 0x413A7, size: 0x8, addend: 0x0, symName: __ZN14CoverageClient9SaveStateEP7__sFILE, symObjAddr: 0xE80, symBinAddr: 0x1000123A0, symSize: 0x70 }
  - { offsetInCU: 0x8CB3, offset: 0x413DD, size: 0x8, addend: 0x0, symName: __ZN14CoverageClient9LoadStateEP7__sFILE, symObjAddr: 0xEF0, symBinAddr: 0x100012410, symSize: 0x70 }
  - { offsetInCU: 0x8CE9, offset: 0x41413, size: 0x8, addend: 0x0, symName: __ZNSt3__112basic_stringIcNS_11char_traitsIcEENS_9allocatorIcEEE13__move_assignB7v160006ERS5_NS_17integral_constantIbLb1EEE, symObjAddr: 0x11C0, symBinAddr: 0x100012480, symSize: 0xD0 }
  - { offsetInCU: 0x8D2B, offset: 0x41455, size: 0x8, addend: 0x0, symName: __ZNSt3__116allocator_traitsINS_9allocatorIcEEE10deallocateB7v160006ERS2_Pcm, symObjAddr: 0x12C0, symBinAddr: 0x100012550, symSize: 0x30 }
  - { offsetInCU: 0x8D6D, offset: 0x41497, size: 0x8, addend: 0x0, symName: __ZNSt3__112basic_stringIcNS_11char_traitsIcEENS_9allocatorIcEEE7__allocB7v160006Ev, symObjAddr: 0x12F0, symBinAddr: 0x100012580, symSize: 0x20 }
  - { offsetInCU: 0x8D93, offset: 0x414BD, size: 0x8, addend: 0x0, symName: __ZNKSt3__112basic_stringIcNS_11char_traitsIcEENS_9allocatorIcEEE14__get_long_capB7v160006Ev, symObjAddr: 0x1330, symBinAddr: 0x1000125A0, symSize: 0x30 }
  - { offsetInCU: 0x8DB9, offset: 0x414E3, size: 0x8, addend: 0x0, symName: __ZNSt3__112basic_stringIcNS_11char_traitsIcEENS_9allocatorIcEEE19__move_assign_allocB7v160006ERS5_, symObjAddr: 0x1360, symBinAddr: 0x1000125D0, symSize: 0x30 }
  - { offsetInCU: 0x8DEE, offset: 0x41518, size: 0x8, addend: 0x0, symName: __ZNSt3__112basic_stringIcNS_11char_traitsIcEENS_9allocatorIcEEE16__set_short_sizeB7v160006Em, symObjAddr: 0x1390, symBinAddr: 0x100012600, symSize: 0x50 }
  - { offsetInCU: 0x8E23, offset: 0x4154D, size: 0x8, addend: 0x0, symName: __ZNSt3__111char_traitsIcE6assignERcRKc, symObjAddr: 0x13E0, symBinAddr: 0x100012650, symSize: 0x20 }
  - { offsetInCU: 0x8E54, offset: 0x4157E, size: 0x8, addend: 0x0, symName: __ZNSt3__19allocatorIcE10deallocateB7v160006EPcm, symObjAddr: 0x1460, symBinAddr: 0x100012670, symSize: 0x40 }
  - { offsetInCU: 0x8E96, offset: 0x415C0, size: 0x8, addend: 0x0, symName: __ZNSt3__117__compressed_pairINS_12basic_stringIcNS_11char_traitsIcEENS_9allocatorIcEEE5__repES5_E6secondB7v160006Ev, symObjAddr: 0x15C0, symBinAddr: 0x1000126B0, symSize: 0x20 }
  - { offsetInCU: 0x8EBC, offset: 0x415E6, size: 0x8, addend: 0x0, symName: __ZNSt3__122__compressed_pair_elemINS_9allocatorIcEELi1ELb1EE5__getB7v160006Ev, symObjAddr: 0x15E0, symBinAddr: 0x1000126D0, symSize: 0x10 }
  - { offsetInCU: 0x8EE2, offset: 0x4160C, size: 0x8, addend: 0x0, symName: __ZNSt3__112basic_stringIcNS_11char_traitsIcEENS_9allocatorIcEEE19__move_assign_allocB7v160006ERS5_NS_17integral_constantIbLb1EEE, symObjAddr: 0x15F0, symBinAddr: 0x1000126E0, symSize: 0x30 }
  - { offsetInCU: 0x8F22, offset: 0x4164C, size: 0x8, addend: 0x0, symName: __ZNSt3__111char_traitsIcE2eqEcc, symObjAddr: 0x1840, symBinAddr: 0x100012870, symSize: 0x30 }
  - { offsetInCU: 0x8F53, offset: 0x4167D, size: 0x8, addend: 0x0, symName: __ZNSt3__18_IterOpsINS_17_ClassicAlgPolicyEE4nextB7v160006IPKcEET_S6_S6_, symObjAddr: 0x1AD0, symBinAddr: 0x100012A80, symSize: 0x20 }
  - { offsetInCU: 0x8FA9, offset: 0x416D3, size: 0x8, addend: 0x0, symName: __ZNSt3__14pairIPKcS2_EC1B7v160006IRS2_S5_LPv0EEEOT_OT0_, symObjAddr: 0x1AF0, symBinAddr: 0x100012AA0, symSize: 0x30 }
  - { offsetInCU: 0x9007, offset: 0x41731, size: 0x8, addend: 0x0, symName: __ZNSt3__14pairIPKcS2_EC2B7v160006IRS2_S5_LPv0EEEOT_OT0_, symObjAddr: 0x1B90, symBinAddr: 0x100012B40, symSize: 0x30 }
  - { offsetInCU: 0x906F, offset: 0x41799, size: 0x8, addend: 0x0, symName: __ZNKSt3__110__identityclIRKcEEOT_S5_, symObjAddr: 0x1BC0, symBinAddr: 0x100012B70, symSize: 0x20 }
  - { offsetInCU: 0x90AC, offset: 0x417D6, size: 0x8, addend: 0x0, symName: __ZNSt3__19allocatorIcEC1B7v160006Ev, symObjAddr: 0x1CF0, symBinAddr: 0x100012B90, symSize: 0x20 }
  - { offsetInCU: 0x90D6, offset: 0x41800, size: 0x8, addend: 0x0, symName: __ZNSt3__112basic_stringIcNS_11char_traitsIcEENS_9allocatorIcEEEC1B7v160006EOS5_, symObjAddr: 0x1D10, symBinAddr: 0x100012BB0, symSize: 0x30 }
  - { offsetInCU: 0x910F, offset: 0x41839, size: 0x8, addend: 0x0, symName: __ZNSt3__112basic_stringIcNS_11char_traitsIcEENS_9allocatorIcEEEC2B7v160006EOS5_, symObjAddr: 0x1D40, symBinAddr: 0x100012BE0, symSize: 0x80 }
  - { offsetInCU: 0x9148, offset: 0x41872, size: 0x8, addend: 0x0, symName: __ZNSt3__14listIP6SampleNS_9allocatorIS2_EEE15__allocate_nodeB7v160006ERNS3_INS_11__list_nodeIS2_PvEEEE, symObjAddr: 0x1DF0, symBinAddr: 0x100012C70, symSize: 0x80 }
  - { offsetInCU: 0x918C, offset: 0x418B6, size: 0x8, addend: 0x0, symName: __ZNSt3__116allocator_traitsINS_9allocatorINS_11__list_nodeIP6SamplePvEEEEE9constructB7v160006IS4_JRKS4_EvEEvRS7_PT_DpOT0_, symObjAddr: 0x1E70, symBinAddr: 0x100012CF0, symSize: 0x30 }
  - { offsetInCU: 0x91E3, offset: 0x4190D, size: 0x8, addend: 0x0, symName: __ZNKSt3__110unique_ptrINS_11__list_nodeIP6SamplePvEENS_22__allocator_destructorINS_9allocatorIS5_EEEEEptB7v160006Ev, symObjAddr: 0x1EA0, symBinAddr: 0x100012D20, symSize: 0x20 }
  - { offsetInCU: 0x9209, offset: 0x41933, size: 0x8, addend: 0x0, symName: __ZNSt3__14listIP6SampleNS_9allocatorIS2_EEE20__link_nodes_at_backEPNS_16__list_node_baseIS2_PvEES9_, symObjAddr: 0x1EC0, symBinAddr: 0x100012D40, symSize: 0x60 }
  - { offsetInCU: 0x924F, offset: 0x41979, size: 0x8, addend: 0x0, symName: __ZNKSt3__110unique_ptrINS_11__list_nodeIP6SamplePvEENS_22__allocator_destructorINS_9allocatorIS5_EEEEE3getB7v160006Ev, symObjAddr: 0x1F20, symBinAddr: 0x100012DA0, symSize: 0x20 }
  - { offsetInCU: 0x9275, offset: 0x4199F, size: 0x8, addend: 0x0, symName: __ZNSt3__111__list_nodeIP6SamplePvE9__as_linkB7v160006Ev, symObjAddr: 0x1F40, symBinAddr: 0x100012DC0, symSize: 0x20 }
  - { offsetInCU: 0x929B, offset: 0x419C5, size: 0x8, addend: 0x0, symName: __ZNSt3__110unique_ptrINS_11__list_nodeIP6SamplePvEENS_22__allocator_destructorINS_9allocatorIS5_EEEEE7releaseB7v160006Ev, symObjAddr: 0x1F80, symBinAddr: 0x100012DE0, symSize: 0x40 }
  - { offsetInCU: 0x92D0, offset: 0x419FA, size: 0x8, addend: 0x0, symName: __ZNSt3__110unique_ptrINS_11__list_nodeIP6SamplePvEENS_22__allocator_destructorINS_9allocatorIS5_EEEEED1B7v160006Ev, symObjAddr: 0x1FC0, symBinAddr: 0x100012E20, symSize: 0x20 }
  - { offsetInCU: 0x92FA, offset: 0x41A24, size: 0x8, addend: 0x0, symName: __ZNSt3__116allocator_traitsINS_9allocatorINS_11__list_nodeIP6SamplePvEEEEE8allocateB7v160006ERS7_m, symObjAddr: 0x2010, symBinAddr: 0x100012E40, symSize: 0x30 }
  - { offsetInCU: 0x932D, offset: 0x41A57, size: 0x8, addend: 0x0, symName: __ZNSt3__122__allocator_destructorINS_9allocatorINS_11__list_nodeIP6SamplePvEEEEEC1B7v160006ERS7_m, symObjAddr: 0x2040, symBinAddr: 0x100012E70, symSize: 0x30 }
  - { offsetInCU: 0x9379, offset: 0x41AA3, size: 0x8, addend: 0x0, symName: __ZNSt3__110unique_ptrINS_11__list_nodeIP6SamplePvEENS_22__allocator_destructorINS_9allocatorIS5_EEEEEC1B7v160006ILb1EvEEPS5_NS_16__dependent_typeINS_27__unique_ptr_deleter_sfinaeIS9_EEXT_EE20__good_rval_ref_typeE, symObjAddr: 0x2070, symBinAddr: 0x100012EA0, symSize: 0x30 }
  - { offsetInCU: 0x93CA, offset: 0x41AF4, size: 0x8, addend: 0x0, symName: __ZNSt3__19allocatorINS_11__list_nodeIP6SamplePvEEE8allocateB7v160006Em, symObjAddr: 0x20A0, symBinAddr: 0x100012ED0, symSize: 0x50 }
  - { offsetInCU: 0x9408, offset: 0x41B32, size: 0x8, addend: 0x0, symName: __ZNSt3__116allocator_traitsINS_9allocatorINS_11__list_nodeIP6SamplePvEEEEE8max_sizeB7v160006IS7_vEEmRKS7_, symObjAddr: 0x20F0, symBinAddr: 0x100012F20, symSize: 0x20 }
  - { offsetInCU: 0x9436, offset: 0x41B60, size: 0x8, addend: 0x0, symName: __ZNKSt3__19allocatorINS_11__list_nodeIP6SamplePvEEE8max_sizeB7v160006Ev, symObjAddr: 0x21B0, symBinAddr: 0x100012F40, symSize: 0x20 }
  - { offsetInCU: 0x945C, offset: 0x41B86, size: 0x8, addend: 0x0, symName: __ZNSt3__122__allocator_destructorINS_9allocatorINS_11__list_nodeIP6SamplePvEEEEEC2B7v160006ERS7_m, symObjAddr: 0x2220, symBinAddr: 0x100012F60, symSize: 0x30 }
  - { offsetInCU: 0x94A2, offset: 0x41BCC, size: 0x8, addend: 0x0, symName: __ZNSt3__110unique_ptrINS_11__list_nodeIP6SamplePvEENS_22__allocator_destructorINS_9allocatorIS5_EEEEEC2B7v160006ILb1EvEEPS5_NS_16__dependent_typeINS_27__unique_ptr_deleter_sfinaeIS9_EEXT_EE20__good_rval_ref_typeE, symObjAddr: 0x2250, symBinAddr: 0x100012F90, symSize: 0x40 }
  - { offsetInCU: 0x94F3, offset: 0x41C1D, size: 0x8, addend: 0x0, symName: __ZNSt3__117__compressed_pairIPNS_11__list_nodeIP6SamplePvEENS_22__allocator_destructorINS_9allocatorIS5_EEEEEC1B7v160006IRS6_SA_EEOT_OT0_, symObjAddr: 0x2290, symBinAddr: 0x100012FD0, symSize: 0x30 }
  - { offsetInCU: 0x954B, offset: 0x41C75, size: 0x8, addend: 0x0, symName: __ZNSt3__117__compressed_pairIPNS_11__list_nodeIP6SamplePvEENS_22__allocator_destructorINS_9allocatorIS5_EEEEEC2B7v160006IRS6_SA_EEOT_OT0_, symObjAddr: 0x22C0, symBinAddr: 0x100013000, symSize: 0x40 }
  - { offsetInCU: 0x95A3, offset: 0x41CCD, size: 0x8, addend: 0x0, symName: __ZNSt3__122__compressed_pair_elemIPNS_11__list_nodeIP6SamplePvEELi0ELb0EEC2B7v160006IRS6_vEEOT_, symObjAddr: 0x2300, symBinAddr: 0x100013040, symSize: 0x20 }
  - { offsetInCU: 0x95E5, offset: 0x41D0F, size: 0x8, addend: 0x0, symName: __ZNSt3__122__compressed_pair_elemINS_22__allocator_destructorINS_9allocatorINS_11__list_nodeIP6SamplePvEEEEEELi1ELb0EEC2B7v160006IS9_vEEOT_, symObjAddr: 0x2320, symBinAddr: 0x100013060, symSize: 0x30 }
  - { offsetInCU: 0x9627, offset: 0x41D51, size: 0x8, addend: 0x0, symName: __ZNSt3__19allocatorINS_11__list_nodeIP6SamplePvEEE9constructB7v160006IS3_JRKS3_EEEvPT_DpOT0_, symObjAddr: 0x2350, symBinAddr: 0x100013090, symSize: 0x20 }
  - { offsetInCU: 0x967D, offset: 0x41DA7, size: 0x8, addend: 0x0, symName: __ZNKSt3__117__compressed_pairIPNS_11__list_nodeIP6SamplePvEENS_22__allocator_destructorINS_9allocatorIS5_EEEEE5firstB7v160006Ev, symObjAddr: 0x2370, symBinAddr: 0x1000130B0, symSize: 0x20 }
  - { offsetInCU: 0x96A3, offset: 0x41DCD, size: 0x8, addend: 0x0, symName: __ZNKSt3__122__compressed_pair_elemIPNS_11__list_nodeIP6SamplePvEELi0ELb0EE5__getB7v160006Ev, symObjAddr: 0x2390, symBinAddr: 0x1000130D0, symSize: 0x10 }
  - { offsetInCU: 0x96C9, offset: 0x41DF3, size: 0x8, addend: 0x0, symName: __ZNSt3__117__compressed_pairIPNS_11__list_nodeIP6SamplePvEENS_22__allocator_destructorINS_9allocatorIS5_EEEEE5firstB7v160006Ev, symObjAddr: 0x2460, symBinAddr: 0x1000130E0, symSize: 0x20 }
  - { offsetInCU: 0x96EF, offset: 0x41E19, size: 0x8, addend: 0x0, symName: __ZNSt3__122__compressed_pair_elemIPNS_11__list_nodeIP6SamplePvEELi0ELb0EE5__getB7v160006Ev, symObjAddr: 0x2480, symBinAddr: 0x100013100, symSize: 0x10 }
  - { offsetInCU: 0x9715, offset: 0x41E3F, size: 0x8, addend: 0x0, symName: __ZNSt3__110unique_ptrINS_11__list_nodeIP6SamplePvEENS_22__allocator_destructorINS_9allocatorIS5_EEEEED2B7v160006Ev, symObjAddr: 0x2490, symBinAddr: 0x100013110, symSize: 0x20 }
  - { offsetInCU: 0x973F, offset: 0x41E69, size: 0x8, addend: 0x0, symName: __ZNSt3__110unique_ptrINS_11__list_nodeIP6SamplePvEENS_22__allocator_destructorINS_9allocatorIS5_EEEEE5resetB7v160006EPS5_, symObjAddr: 0x24B0, symBinAddr: 0x100013130, symSize: 0x70 }
  - { offsetInCU: 0x9783, offset: 0x41EAD, size: 0x8, addend: 0x0, symName: __ZNSt3__117__compressed_pairIPNS_11__list_nodeIP6SamplePvEENS_22__allocator_destructorINS_9allocatorIS5_EEEEE6secondB7v160006Ev, symObjAddr: 0x2520, symBinAddr: 0x1000131A0, symSize: 0x20 }
  - { offsetInCU: 0x97A9, offset: 0x41ED3, size: 0x8, addend: 0x0, symName: __ZNSt3__122__allocator_destructorINS_9allocatorINS_11__list_nodeIP6SamplePvEEEEEclB7v160006EPS6_, symObjAddr: 0x2540, symBinAddr: 0x1000131C0, symSize: 0x30 }
  - { offsetInCU: 0x97DD, offset: 0x41F07, size: 0x8, addend: 0x0, symName: __ZNSt3__122__compressed_pair_elemINS_22__allocator_destructorINS_9allocatorINS_11__list_nodeIP6SamplePvEEEEEELi1ELb0EE5__getB7v160006Ev, symObjAddr: 0x2570, symBinAddr: 0x1000131F0, symSize: 0x10 }
  - { offsetInCU: 0x5D7A, offset: 0x47DA2, size: 0x8, addend: 0x0, symName: __Z19GetFilesInDirectoryNSt3__112basic_stringIcNS_11char_traitsIcEENS_9allocatorIcEEEERNS_4listIS5_NS3_IS5_EEEE, symObjAddr: 0x0, symBinAddr: 0x100013200, symSize: 0x1C0 }
  - { offsetInCU: 0x5F56, offset: 0x47F7E, size: 0x8, addend: 0x0, symName: __ZNSt3__14listINS_12basic_stringIcNS_11char_traitsIcEENS_9allocatorIcEEEENS4_IS6_EEE9push_backEOS6_, symObjAddr: 0x1E0, symBinAddr: 0x1000133C0, symSize: 0x100 }
  - { offsetInCU: 0x5FAB, offset: 0x47FD3, size: 0x8, addend: 0x0, symName: __Z7DirJoinNSt3__112basic_stringIcNS_11char_traitsIcEENS_9allocatorIcEEEES5_, symObjAddr: 0x2E0, symBinAddr: 0x1000134C0, symSize: 0xF0 }
  - { offsetInCU: 0x5FFB, offset: 0x48023, size: 0x8, addend: 0x0, symName: __ZNKSt3__14listINS_12basic_stringIcNS_11char_traitsIcEENS_9allocatorIcEEEENS4_IS6_EEE4sizeB7v160006Ev, symObjAddr: 0x400, symBinAddr: 0x1000135B0, symSize: 0x20 }
  - { offsetInCU: 0x6021, offset: 0x48049, size: 0x8, addend: 0x0, symName: __Z15CreateDirectoryRNSt3__112basic_stringIcNS_11char_traitsIcEENS_9allocatorIcEEEE, symObjAddr: 0x420, symBinAddr: 0x1000135D0, symSize: 0x40 }
  - { offsetInCU: 0x604D, offset: 0x48075, size: 0x8, addend: 0x0, symName: __ZNKSt3__112basic_stringIcNS_11char_traitsIcEENS_9allocatorIcEEE5emptyB7v160006Ev, symObjAddr: 0x460, symBinAddr: 0x100013610, symSize: 0x30 }
  - { offsetInCU: 0x6073, offset: 0x4809B, size: 0x8, addend: 0x0, symName: __ZNSt3__112basic_stringIcNS_11char_traitsIcEENS_9allocatorIcEEE4backB7v160006Ev, symObjAddr: 0x4C0, symBinAddr: 0x100013640, symSize: 0x40 }
  - { offsetInCU: 0x6099, offset: 0x480C1, size: 0x8, addend: 0x0, symName: __ZNSt3__112basic_stringIcNS_11char_traitsIcEENS_9allocatorIcEEEpLB7v160006Ec, symObjAddr: 0x500, symBinAddr: 0x100013680, symSize: 0x30 }
  - { offsetInCU: 0x60CE, offset: 0x480F6, size: 0x8, addend: 0x0, symName: __ZNSt3__112basic_stringIcNS_11char_traitsIcEENS_9allocatorIcEEEpLB7v160006ERKS5_, symObjAddr: 0x530, symBinAddr: 0x1000136B0, symSize: 0x30 }
  - { offsetInCU: 0x6103, offset: 0x4812B, size: 0x8, addend: 0x0, symName: __ZNSt3__14listINS_12basic_stringIcNS_11char_traitsIcEENS_9allocatorIcEEEENS4_IS6_EEE15__allocate_nodeB7v160006ERNS4_INS_11__list_nodeIS6_PvEEEE, symObjAddr: 0x860, symBinAddr: 0x1000136E0, symSize: 0x80 }
  - { offsetInCU: 0x614D, offset: 0x48175, size: 0x8, addend: 0x0, symName: __ZNSt3__116allocator_traitsINS_9allocatorINS_11__list_nodeINS_12basic_stringIcNS_11char_traitsIcEENS1_IcEEEEPvEEEEE9constructB7v160006IS7_JS7_EvEEvRSA_PT_DpOT0_, symObjAddr: 0x8E0, symBinAddr: 0x100013760, symSize: 0x30 }
  - { offsetInCU: 0x61A4, offset: 0x481CC, size: 0x8, addend: 0x0, symName: __ZNKSt3__110unique_ptrINS_11__list_nodeINS_12basic_stringIcNS_11char_traitsIcEENS_9allocatorIcEEEEPvEENS_22__allocator_destructorINS5_IS9_EEEEEptB7v160006Ev, symObjAddr: 0x910, symBinAddr: 0x100013790, symSize: 0x20 }
  - { offsetInCU: 0x61CA, offset: 0x481F2, size: 0x8, addend: 0x0, symName: __ZNSt3__14listINS_12basic_stringIcNS_11char_traitsIcEENS_9allocatorIcEEEENS4_IS6_EEE20__link_nodes_at_backEPNS_16__list_node_baseIS6_PvEESC_, symObjAddr: 0x930, symBinAddr: 0x1000137B0, symSize: 0x60 }
  - { offsetInCU: 0x6210, offset: 0x48238, size: 0x8, addend: 0x0, symName: __ZNKSt3__110unique_ptrINS_11__list_nodeINS_12basic_stringIcNS_11char_traitsIcEENS_9allocatorIcEEEEPvEENS_22__allocator_destructorINS5_IS9_EEEEE3getB7v160006Ev, symObjAddr: 0x990, symBinAddr: 0x100013810, symSize: 0x20 }
  - { offsetInCU: 0x6236, offset: 0x4825E, size: 0x8, addend: 0x0, symName: __ZNSt3__111__list_nodeINS_12basic_stringIcNS_11char_traitsIcEENS_9allocatorIcEEEEPvE9__as_linkB7v160006Ev, symObjAddr: 0x9B0, symBinAddr: 0x100013830, symSize: 0x20 }
  - { offsetInCU: 0x625C, offset: 0x48284, size: 0x8, addend: 0x0, symName: __ZNSt3__110unique_ptrINS_11__list_nodeINS_12basic_stringIcNS_11char_traitsIcEENS_9allocatorIcEEEEPvEENS_22__allocator_destructorINS5_IS9_EEEEE7releaseB7v160006Ev, symObjAddr: 0x9F0, symBinAddr: 0x100013850, symSize: 0x40 }
  - { offsetInCU: 0x6291, offset: 0x482B9, size: 0x8, addend: 0x0, symName: __ZNSt3__110unique_ptrINS_11__list_nodeINS_12basic_stringIcNS_11char_traitsIcEENS_9allocatorIcEEEEPvEENS_22__allocator_destructorINS5_IS9_EEEEED1B7v160006Ev, symObjAddr: 0xA30, symBinAddr: 0x100013890, symSize: 0x20 }
  - { offsetInCU: 0x62BB, offset: 0x482E3, size: 0x8, addend: 0x0, symName: __ZNSt3__116allocator_traitsINS_9allocatorINS_11__list_nodeINS_12basic_stringIcNS_11char_traitsIcEENS1_IcEEEEPvEEEEE8allocateB7v160006ERSA_m, symObjAddr: 0xA80, symBinAddr: 0x1000138B0, symSize: 0x30 }
  - { offsetInCU: 0x62EE, offset: 0x48316, size: 0x8, addend: 0x0, symName: __ZNSt3__122__allocator_destructorINS_9allocatorINS_11__list_nodeINS_12basic_stringIcNS_11char_traitsIcEENS1_IcEEEEPvEEEEEC1B7v160006ERSA_m, symObjAddr: 0xAB0, symBinAddr: 0x1000138E0, symSize: 0x30 }
  - { offsetInCU: 0x633A, offset: 0x48362, size: 0x8, addend: 0x0, symName: __ZNSt3__110unique_ptrINS_11__list_nodeINS_12basic_stringIcNS_11char_traitsIcEENS_9allocatorIcEEEEPvEENS_22__allocator_destructorINS5_IS9_EEEEEC1B7v160006ILb1EvEEPS9_NS_16__dependent_typeINS_27__unique_ptr_deleter_sfinaeISC_EEXT_EE20__good_rval_ref_typeE, symObjAddr: 0xAE0, symBinAddr: 0x100013910, symSize: 0x30 }
  - { offsetInCU: 0x638B, offset: 0x483B3, size: 0x8, addend: 0x0, symName: __ZNSt3__19allocatorINS_11__list_nodeINS_12basic_stringIcNS_11char_traitsIcEENS0_IcEEEEPvEEE8allocateB7v160006Em, symObjAddr: 0xB10, symBinAddr: 0x100013940, symSize: 0x50 }
  - { offsetInCU: 0x63C9, offset: 0x483F1, size: 0x8, addend: 0x0, symName: __ZNSt3__116allocator_traitsINS_9allocatorINS_11__list_nodeINS_12basic_stringIcNS_11char_traitsIcEENS1_IcEEEEPvEEEEE8max_sizeB7v160006ISA_vEEmRKSA_, symObjAddr: 0xB60, symBinAddr: 0x100013990, symSize: 0x20 }
  - { offsetInCU: 0x63F7, offset: 0x4841F, size: 0x8, addend: 0x0, symName: __ZNKSt3__19allocatorINS_11__list_nodeINS_12basic_stringIcNS_11char_traitsIcEENS0_IcEEEEPvEEE8max_sizeB7v160006Ev, symObjAddr: 0xC20, symBinAddr: 0x1000139B0, symSize: 0x20 }
  - { offsetInCU: 0x641D, offset: 0x48445, size: 0x8, addend: 0x0, symName: __ZNSt3__122__allocator_destructorINS_9allocatorINS_11__list_nodeINS_12basic_stringIcNS_11char_traitsIcEENS1_IcEEEEPvEEEEEC2B7v160006ERSA_m, symObjAddr: 0xCB0, symBinAddr: 0x1000139D0, symSize: 0x30 }
  - { offsetInCU: 0x6463, offset: 0x4848B, size: 0x8, addend: 0x0, symName: __ZNSt3__110unique_ptrINS_11__list_nodeINS_12basic_stringIcNS_11char_traitsIcEENS_9allocatorIcEEEEPvEENS_22__allocator_destructorINS5_IS9_EEEEEC2B7v160006ILb1EvEEPS9_NS_16__dependent_typeINS_27__unique_ptr_deleter_sfinaeISC_EEXT_EE20__good_rval_ref_typeE, symObjAddr: 0xCE0, symBinAddr: 0x100013A00, symSize: 0x40 }
  - { offsetInCU: 0x64B4, offset: 0x484DC, size: 0x8, addend: 0x0, symName: __ZNSt3__117__compressed_pairIPNS_11__list_nodeINS_12basic_stringIcNS_11char_traitsIcEENS_9allocatorIcEEEEPvEENS_22__allocator_destructorINS5_IS9_EEEEEC1B7v160006IRSA_SD_EEOT_OT0_, symObjAddr: 0xD20, symBinAddr: 0x100013A40, symSize: 0x30 }
  - { offsetInCU: 0x650C, offset: 0x48534, size: 0x8, addend: 0x0, symName: __ZNSt3__117__compressed_pairIPNS_11__list_nodeINS_12basic_stringIcNS_11char_traitsIcEENS_9allocatorIcEEEEPvEENS_22__allocator_destructorINS5_IS9_EEEEEC2B7v160006IRSA_SD_EEOT_OT0_, symObjAddr: 0xD50, symBinAddr: 0x100013A70, symSize: 0x40 }
  - { offsetInCU: 0x6564, offset: 0x4858C, size: 0x8, addend: 0x0, symName: __ZNSt3__122__compressed_pair_elemIPNS_11__list_nodeINS_12basic_stringIcNS_11char_traitsIcEENS_9allocatorIcEEEEPvEELi0ELb0EEC2B7v160006IRSA_vEEOT_, symObjAddr: 0xD90, symBinAddr: 0x100013AB0, symSize: 0x20 }
  - { offsetInCU: 0x65A6, offset: 0x485CE, size: 0x8, addend: 0x0, symName: __ZNSt3__122__compressed_pair_elemINS_22__allocator_destructorINS_9allocatorINS_11__list_nodeINS_12basic_stringIcNS_11char_traitsIcEENS2_IcEEEEPvEEEEEELi1ELb0EEC2B7v160006ISC_vEEOT_, symObjAddr: 0xDB0, symBinAddr: 0x100013AD0, symSize: 0x30 }
  - { offsetInCU: 0x65E8, offset: 0x48610, size: 0x8, addend: 0x0, symName: __ZNSt3__19allocatorINS_11__list_nodeINS_12basic_stringIcNS_11char_traitsIcEENS0_IcEEEEPvEEE9constructB7v160006IS6_JS6_EEEvPT_DpOT0_, symObjAddr: 0xDE0, symBinAddr: 0x100013B00, symSize: 0x30 }
  - { offsetInCU: 0x663E, offset: 0x48666, size: 0x8, addend: 0x0, symName: __ZNKSt3__117__compressed_pairIPNS_11__list_nodeINS_12basic_stringIcNS_11char_traitsIcEENS_9allocatorIcEEEEPvEENS_22__allocator_destructorINS5_IS9_EEEEE5firstB7v160006Ev, symObjAddr: 0xE10, symBinAddr: 0x100013B30, symSize: 0x20 }
  - { offsetInCU: 0x6664, offset: 0x4868C, size: 0x8, addend: 0x0, symName: __ZNKSt3__122__compressed_pair_elemIPNS_11__list_nodeINS_12basic_stringIcNS_11char_traitsIcEENS_9allocatorIcEEEEPvEELi0ELb0EE5__getB7v160006Ev, symObjAddr: 0xE30, symBinAddr: 0x100013B50, symSize: 0x10 }
  - { offsetInCU: 0x668A, offset: 0x486B2, size: 0x8, addend: 0x0, symName: __ZNSt3__117__compressed_pairIPNS_11__list_nodeINS_12basic_stringIcNS_11char_traitsIcEENS_9allocatorIcEEEEPvEENS_22__allocator_destructorINS5_IS9_EEEEE5firstB7v160006Ev, symObjAddr: 0xF00, symBinAddr: 0x100013B60, symSize: 0x20 }
  - { offsetInCU: 0x66B0, offset: 0x486D8, size: 0x8, addend: 0x0, symName: __ZNSt3__122__compressed_pair_elemIPNS_11__list_nodeINS_12basic_stringIcNS_11char_traitsIcEENS_9allocatorIcEEEEPvEELi0ELb0EE5__getB7v160006Ev, symObjAddr: 0xF20, symBinAddr: 0x100013B80, symSize: 0x10 }
  - { offsetInCU: 0x66D6, offset: 0x486FE, size: 0x8, addend: 0x0, symName: __ZNSt3__110unique_ptrINS_11__list_nodeINS_12basic_stringIcNS_11char_traitsIcEENS_9allocatorIcEEEEPvEENS_22__allocator_destructorINS5_IS9_EEEEED2B7v160006Ev, symObjAddr: 0xF30, symBinAddr: 0x100013B90, symSize: 0x20 }
  - { offsetInCU: 0x6700, offset: 0x48728, size: 0x8, addend: 0x0, symName: __ZNSt3__110unique_ptrINS_11__list_nodeINS_12basic_stringIcNS_11char_traitsIcEENS_9allocatorIcEEEEPvEENS_22__allocator_destructorINS5_IS9_EEEEE5resetB7v160006EPS9_, symObjAddr: 0xF50, symBinAddr: 0x100013BB0, symSize: 0x70 }
  - { offsetInCU: 0x6744, offset: 0x4876C, size: 0x8, addend: 0x0, symName: __ZNSt3__117__compressed_pairIPNS_11__list_nodeINS_12basic_stringIcNS_11char_traitsIcEENS_9allocatorIcEEEEPvEENS_22__allocator_destructorINS5_IS9_EEEEE6secondB7v160006Ev, symObjAddr: 0xFC0, symBinAddr: 0x100013C20, symSize: 0x20 }
  - { offsetInCU: 0x676A, offset: 0x48792, size: 0x8, addend: 0x0, symName: __ZNSt3__122__allocator_destructorINS_9allocatorINS_11__list_nodeINS_12basic_stringIcNS_11char_traitsIcEENS1_IcEEEEPvEEEEEclB7v160006EPS9_, symObjAddr: 0xFE0, symBinAddr: 0x100013C40, symSize: 0x30 }
  - { offsetInCU: 0x679E, offset: 0x487C6, size: 0x8, addend: 0x0, symName: __ZNSt3__122__compressed_pair_elemINS_22__allocator_destructorINS_9allocatorINS_11__list_nodeINS_12basic_stringIcNS_11char_traitsIcEENS2_IcEEEEPvEEEEEELi1ELb0EE5__getB7v160006Ev, symObjAddr: 0x1010, symBinAddr: 0x100013C70, symSize: 0x10 }
  - { offsetInCU: 0x67C4, offset: 0x487EC, size: 0x8, addend: 0x0, symName: __ZNSt3__112basic_stringIcNS_11char_traitsIcEENS_9allocatorIcEEE6appendB7v160006ERKS5_, symObjAddr: 0x1450, symBinAddr: 0x100013C80, symSize: 0x44 }
  - { offsetInCU: 0x5C, offset: 0x48926, size: 0x8, addend: 0x0, symName: __ZNSt3__1L19piecewise_constructE, symObjAddr: 0x18FD5, symBinAddr: 0x10046A60E, symSize: 0x0 }
  - { offsetInCU: 0x129A8, offset: 0x5B272, size: 0x8, addend: 0x0, symName: __ZNSt3__16copy_nB7v160006IPKcmPcEENS_9enable_ifIXsr33__is_cpp17_random_access_iteratorIT_EE5valueET1_E4typeES5_T0_S6_, symObjAddr: 0xDC00, symBinAddr: 0x10001F0A0, symSize: 0x40 }
  - { offsetInCU: 0x12A4F, offset: 0x5B319, size: 0x8, addend: 0x0, symName: __ZNSt3__17advanceB7v160006IP5RangemmvEEvRT_T0_, symObjAddr: 0xE590, symBinAddr: 0x10001F920, symSize: 0x50 }
  - { offsetInCU: 0x131FA, offset: 0x5BAC4, size: 0x8, addend: 0x0, symName: __ZNSt3__17advanceB7v160006INS_21__tree_const_iteratorIyPNS_11__tree_nodeIyPvEElEEllvEEvRT_T0_, symObjAddr: 0x14140, symBinAddr: 0x100025190, symSize: 0x50 }
  - { offsetInCU: 0x1328B, offset: 0x5BB55, size: 0x8, addend: 0x0, symName: __ZNSt3__117__floyd_sift_downB7v160006INS_17_ClassicAlgPolicyERN6Fuzzer12CmpEntryPtrsENS_11__wrap_iterIPPNS2_16SampleQueueEntryEEEEET1_SA_OT0_NS_15iterator_traitsISA_E15difference_typeE, symObjAddr: 0x16430, symBinAddr: 0x1000273E0, symSize: 0x130 }
  - { offsetInCU: 0x1448B, offset: 0x5CD55, size: 0x8, addend: 0x0, symName: __ZNSt3__1eqB7v160006IcNS_11char_traitsIcEENS_9allocatorIcEEEEbRKNS_12basic_stringIT_T0_T1_EEPKS6_, symObjAddr: 0x5C0, symBinAddr: 0x100014290, symSize: 0x90 }
  - { offsetInCU: 0x144F2, offset: 0x5CDBC, size: 0x8, addend: 0x0, symName: __ZNSt3__1neB7v160006ERKNS_15__list_iteratorI14ModuleCoveragePvEES5_, symObjAddr: 0x1360, symBinAddr: 0x100014F60, symSize: 0x30 }
  - { offsetInCU: 0x1452F, offset: 0x5CDF9, size: 0x8, addend: 0x0, symName: __ZNSt3__1eqB7v160006ERKNS_19__hash_map_iteratorINS_15__hash_iteratorIPNS_11__hash_nodeINS_17__hash_value_typeINS_12basic_stringIcNS_11char_traitsIcEENS_9allocatorIcEEEEiEEPvEEEEEESH_, symObjAddr: 0x2010, symBinAddr: 0x100015C10, symSize: 0x30 }
  - { offsetInCU: 0x1456C, offset: 0x5CE36, size: 0x8, addend: 0x0, symName: __ZNSt3__1plB7v160006IcNS_11char_traitsIcEENS_9allocatorIcEEEENS_12basic_stringIT_T0_T1_EEOS9_SA_, symObjAddr: 0x2110, symBinAddr: 0x100015D10, symSize: 0x50 }
  - { offsetInCU: 0x145C4, offset: 0x5CE8E, size: 0x8, addend: 0x0, symName: __ZNSt3__1plB7v160006IcNS_11char_traitsIcEENS_9allocatorIcEEEENS_12basic_stringIT_T0_T1_EERKS9_PKS6_, symObjAddr: 0x2160, symBinAddr: 0x100015D60, symSize: 0x100 }
  - { offsetInCU: 0x14666, offset: 0x5CF30, size: 0x8, addend: 0x0, symName: __ZNSt3__1neB7v160006IPPN6Fuzzer16SampleQueueEntryEEEbRKNS_11__wrap_iterIT_EES9_, symObjAddr: 0x5640, symBinAddr: 0x100019170, symSize: 0x30 }
  - { offsetInCU: 0x146A9, offset: 0x5CF73, size: 0x8, addend: 0x0, symName: __ZNSt3__1plB7v160006IcNS_11char_traitsIcEENS_9allocatorIcEEEENS_12basic_stringIT_T0_T1_EEOS9_RKS9_, symObjAddr: 0x63C0, symBinAddr: 0x100019EF0, symSize: 0x50 }
  - { offsetInCU: 0x14701, offset: 0x5CFCB, size: 0x8, addend: 0x0, symName: __ZNSt3__119__debug_db_insert_cB7v160006INS_6vectorI6SampleNS_9allocatorIS2_EEEEEEvPT_, symObjAddr: 0x7720, symBinAddr: 0x10001A750, symSize: 0x10 }
  - { offsetInCU: 0x14732, offset: 0x5CFFC, size: 0x8, addend: 0x0, symName: __ZNSt3__119__debug_db_insert_cB7v160006INS_6vectorIN14CoverageServer14TimestampIndexENS_9allocatorIS3_EEEEEEvPT_, symObjAddr: 0x7870, symBinAddr: 0x10001A8A0, symSize: 0x10 }
  - { offsetInCU: 0x14763, offset: 0x5D02D, size: 0x8, addend: 0x0, symName: __ZNSt3__118__debug_db_erase_cB7v160006INS_6vectorIN14CoverageServer14TimestampIndexENS_9allocatorIS3_EEEEEEvPT_, symObjAddr: 0x8240, symBinAddr: 0x10001ACC0, symSize: 0x10 }
  - { offsetInCU: 0x14794, offset: 0x5D05E, size: 0x8, addend: 0x0, symName: __ZNSt3__112__to_addressB7v160006IN14CoverageServer14TimestampIndexEEEPT_S4_, symObjAddr: 0x8350, symBinAddr: 0x10001ADD0, symSize: 0x10 }
  - { offsetInCU: 0x147C9, offset: 0x5D093, size: 0x8, addend: 0x0, symName: __ZNSt3__118__debug_db_erase_cB7v160006INS_6vectorI6SampleNS_9allocatorIS2_EEEEEEvPT_, symObjAddr: 0x86B0, symBinAddr: 0x10001B130, symSize: 0x10 }
  - { offsetInCU: 0x147FA, offset: 0x5D0C4, size: 0x8, addend: 0x0, symName: __ZNSt3__112__to_addressB7v160006I6SampleEEPT_S3_, symObjAddr: 0x87E0, symBinAddr: 0x10001B260, symSize: 0x10 }
  - { offsetInCU: 0x1482F, offset: 0x5D0F9, size: 0x8, addend: 0x0, symName: __ZNSt3__1eqB7v160006IPPN6Fuzzer16SampleQueueEntryEEEbRKNS_11__wrap_iterIT_EES9_, symObjAddr: 0x9070, symBinAddr: 0x10001B540, symSize: 0x40 }
  - { offsetInCU: 0x14872, offset: 0x5D13C, size: 0x8, addend: 0x0, symName: __ZNSt3__119__debug_db_insert_cB7v160006INS_6vectorI5RangeNS_9allocatorIS2_EEEEEEvPT_, symObjAddr: 0x96B0, symBinAddr: 0x10001B8D0, symSize: 0x10 }
  - { offsetInCU: 0x148A3, offset: 0x5D16D, size: 0x8, addend: 0x0, symName: __ZNSt3__118__debug_db_erase_cB7v160006INS_6vectorI5RangeNS_9allocatorIS2_EEEEEEvPT_, symObjAddr: 0x9940, symBinAddr: 0x10001BB60, symSize: 0x10 }
  - { offsetInCU: 0x148D4, offset: 0x5D19E, size: 0x8, addend: 0x0, symName: __ZNSt3__112__to_addressB7v160006I5RangeEEPT_S3_, symObjAddr: 0x9A30, symBinAddr: 0x10001BC50, symSize: 0x10 }
  - { offsetInCU: 0x14909, offset: 0x5D1D3, size: 0x8, addend: 0x0, symName: __ZNSt3__1eqB7v160006ERKNS_15__list_iteratorI14ModuleCoveragePvEES5_, symObjAddr: 0xA630, symBinAddr: 0x10001BEA0, symSize: 0x30 }
  - { offsetInCU: 0x14979, offset: 0x5D243, size: 0x8, addend: 0x0, symName: __ZNSt3__116__constrain_hashB7v160006Emm, symObjAddr: 0xA900, symBinAddr: 0x10001C170, symSize: 0x80 }
  - { offsetInCU: 0x149B3, offset: 0x5D27D, size: 0x8, addend: 0x0, symName: __ZNSt3__116__do_string_hashB7v160006IPKcEEmT_S3_, symObjAddr: 0xAB20, symBinAddr: 0x10001C390, symSize: 0x40 }
  - { offsetInCU: 0x149F9, offset: 0x5D2C3, size: 0x8, addend: 0x0, symName: __ZNSt3__110__loadwordB7v160006ImEET_PKv, symObjAddr: 0xB440, symBinAddr: 0x10001CC80, symSize: 0x20 }
  - { offsetInCU: 0x14A3C, offset: 0x5D306, size: 0x8, addend: 0x0, symName: __ZNSt3__14swapB7v160006ImEENS_9enable_ifIXaasr21is_move_constructibleIT_EE5valuesr18is_move_assignableIS2_EE5valueEvE4typeERS2_S5_, symObjAddr: 0xB600, symBinAddr: 0x10001CE40, symSize: 0x40 }
  - { offsetInCU: 0x14A8D, offset: 0x5D357, size: 0x8, addend: 0x0, symName: __ZNSt3__110__loadwordB7v160006IjEET_PKv, symObjAddr: 0xB690, symBinAddr: 0x10001CED0, symSize: 0x20 }
  - { offsetInCU: 0x14AD0, offset: 0x5D39A, size: 0x8, addend: 0x0, symName: __ZNSt3__1eqB7v160006INS_9allocatorIcEEEEbRKNS_12basic_stringIcNS_11char_traitsIcEET_EES9_, symObjAddr: 0xB9E0, symBinAddr: 0x10001D160, symSize: 0x110 }
  - { offsetInCU: 0x14B43, offset: 0x5D40D, size: 0x8, addend: 0x0, symName: __ZNSt3__118__constexpr_memcmpB7v160006IcEEiPKT_S3_m, symObjAddr: 0xBB50, symBinAddr: 0x10001D2D0, symSize: 0x30 }
  - { offsetInCU: 0x14B94, offset: 0x5D45E, size: 0x8, addend: 0x0, symName: __ZNSt3__17launderB7v160006IKNS_4pairIKNS_12basic_stringIcNS_11char_traitsIcEENS_9allocatorIcEEEEiEEEEPT_SC_, symObjAddr: 0xBB80, symBinAddr: 0x10001D300, symSize: 0x20 }
  - { offsetInCU: 0x14BCB, offset: 0x5D495, size: 0x8, addend: 0x0, symName: __ZNSt3__19__launderB7v160006IKNS_4pairIKNS_12basic_stringIcNS_11char_traitsIcEENS_9allocatorIcEEEEiEEEEPT_SC_, symObjAddr: 0xBBA0, symBinAddr: 0x10001D320, symSize: 0x10 }
  - { offsetInCU: 0x14C02, offset: 0x5D4CC, size: 0x8, addend: 0x0, symName: __ZNSt3__1eqB7v160006ERKNS_15__hash_iteratorIPNS_11__hash_nodeINS_17__hash_value_typeINS_12basic_stringIcNS_11char_traitsIcEENS_9allocatorIcEEEEiEEPvEEEESF_, symObjAddr: 0xBBF0, symBinAddr: 0x10001D370, symSize: 0x30 }
  - { offsetInCU: 0x14C76, offset: 0x5D540, size: 0x8, addend: 0x0, symName: __ZNSt3__116forward_as_tupleB7v160006IJRKNS_12basic_stringIcNS_11char_traitsIcEENS_9allocatorIcEEEEEEENS_5tupleIJDpOT_EEESC_, symObjAddr: 0xC1F0, symBinAddr: 0x10001D970, symSize: 0x30 }
  - { offsetInCU: 0x14CAF, offset: 0x5D579, size: 0x8, addend: 0x0, symName: __ZNSt3__116forward_as_tupleB7v160006IJEEENS_5tupleIJDpOT_EEES4_, symObjAddr: 0xC220, symBinAddr: 0x10001D9A0, symSize: 0x10 }
  - { offsetInCU: 0x14CD3, offset: 0x5D59D, size: 0x8, addend: 0x0, symName: __ZNSt3__116__is_hash_power2B7v160006Em, symObjAddr: 0xC450, symBinAddr: 0x10001DBA0, symSize: 0x40 }
  - { offsetInCU: 0x14D29, offset: 0x5D5F3, size: 0x8, addend: 0x0, symName: __ZNSt3__13getB7v160006ILm0EJRKNS_12basic_stringIcNS_11char_traitsIcEENS_9allocatorIcEEEEEEERNS_13tuple_elementIXT_ENS_5tupleIJDpT0_EEEE4typeERSD_, symObjAddr: 0xCA40, symBinAddr: 0x10001E0A0, symSize: 0x20 }
  - { offsetInCU: 0x14D6C, offset: 0x5D636, size: 0x8, addend: 0x0, symName: __ZNSt3__116__next_hash_pow2B7v160006Em, symObjAddr: 0xCF90, symBinAddr: 0x10001E5F0, symSize: 0x60 }
  - { offsetInCU: 0x14D98, offset: 0x5D662, size: 0x8, addend: 0x0, symName: __ZNSt3__125__debug_db_invalidate_allB7v160006INS_12__hash_tableINS_17__hash_value_typeINS_12basic_stringIcNS_11char_traitsIcEENS_9allocatorIcEEEEiEENS_22__unordered_map_hasherIS8_S9_NS_4hashIS8_EENS_8equal_toIS8_EELb1EEENS_21__unordered_map_equalIS8_S9_SE_SC_Lb1EEENS6_IS9_EEEEEEvPT_, symObjAddr: 0xCFF0, symBinAddr: 0x10001E650, symSize: 0x10 }
  - { offsetInCU: 0x14DC9, offset: 0x5D693, size: 0x8, addend: 0x0, symName: __ZNSt3__112__libcpp_clzB7v160006Em, symObjAddr: 0xD150, symBinAddr: 0x10001E7B0, symSize: 0x20 }
  - { offsetInCU: 0x14E7F, offset: 0x5D749, size: 0x8, addend: 0x0, symName: __ZNSt3__14copyB7v160006IPKcPcEET0_T_S5_S4_, symObjAddr: 0xDC40, symBinAddr: 0x10001F0E0, symSize: 0x40 }
  - { offsetInCU: 0x14ED9, offset: 0x5D7A3, size: 0x8, addend: 0x0, symName: __ZNSt3__16__copyB7v160006INS_17_ClassicAlgPolicyEPKcS3_PcEENS_4pairIT0_T2_EES6_T1_S7_, symObjAddr: 0xDC80, symBinAddr: 0x10001F120, symSize: 0x40 }
  - { offsetInCU: 0x14F45, offset: 0x5D80F, size: 0x8, addend: 0x0, symName: __ZNSt3__123__dispatch_copy_or_moveB7v160006INS_17_ClassicAlgPolicyENS_11__copy_loopIS1_EENS_14__copy_trivialEPKcS6_PcEENS_4pairIT2_T4_EES9_T3_SA_, symObjAddr: 0xDCC0, symBinAddr: 0x10001F160, symSize: 0x40 }
  - { offsetInCU: 0x14FC3, offset: 0x5D88D, size: 0x8, addend: 0x0, symName: __ZNSt3__121__unwrap_and_dispatchB7v160006INS_10__overloadINS_11__copy_loopINS_17_ClassicAlgPolicyEEENS_14__copy_trivialEEEPKcS8_PcLi0EEENS_4pairIT0_T2_EESB_T1_SC_, symObjAddr: 0xDD00, symBinAddr: 0x10001F1A0, symSize: 0xB0 }
  - { offsetInCU: 0x15052, offset: 0x5D91C, size: 0x8, addend: 0x0, symName: __ZNSt3__114__unwrap_rangeB7v160006IPKcS2_EENS_4pairIT0_S4_EET_S6_, symObjAddr: 0xDDB0, symBinAddr: 0x10001F250, symSize: 0x50 }
  - { offsetInCU: 0x15223, offset: 0x5DAED, size: 0x8, addend: 0x0, symName: __ZNSt3__113__unwrap_iterB7v160006IPcNS_18__unwrap_iter_implIS1_Lb1EEELi0EEEDTclsrT0_8__unwrapclsr3stdE7declvalIT_EEEES5_, symObjAddr: 0xDE40, symBinAddr: 0x10001F2E0, symSize: 0x20 }
  - { offsetInCU: 0x15267, offset: 0x5DB31, size: 0x8, addend: 0x0, symName: __ZNSt3__19make_pairB7v160006IPKcPcEENS_4pairINS_18__unwrap_ref_decayIT_E4typeENS5_IT0_E4typeEEEOS6_OS9_, symObjAddr: 0xDE60, symBinAddr: 0x10001F300, symSize: 0x30 }
  - { offsetInCU: 0x152B6, offset: 0x5DB80, size: 0x8, addend: 0x0, symName: __ZNSt3__114__rewrap_rangeB7v160006IPKcS2_EET_S3_T0_, symObjAddr: 0xDE90, symBinAddr: 0x10001F330, symSize: 0x30 }
  - { offsetInCU: 0x15302, offset: 0x5DBCC, size: 0x8, addend: 0x0, symName: __ZNSt3__113__rewrap_iterB7v160006IPcS1_NS_18__unwrap_iter_implIS1_Lb1EEEEET_S4_T0_, symObjAddr: 0xDEC0, symBinAddr: 0x10001F360, symSize: 0x40 }
  - { offsetInCU: 0x15357, offset: 0x5DC21, size: 0x8, addend: 0x0, symName: __ZNSt3__19make_pairB7v160006IPKcS2_EENS_4pairINS_18__unwrap_ref_decayIT_E4typeENS4_IT0_E4typeEEEOS5_OS8_, symObjAddr: 0xDF00, symBinAddr: 0x10001F3A0, symSize: 0x30 }
  - { offsetInCU: 0x153A6, offset: 0x5DC70, size: 0x8, addend: 0x0, symName: __ZNSt3__113__unwrap_iterB7v160006IPKcNS_18__unwrap_iter_implIS2_Lb1EEELi0EEEDTclsrT0_8__unwrapclsr3stdE7declvalIT_EEEES6_, symObjAddr: 0xDF30, symBinAddr: 0x10001F3D0, symSize: 0x20 }
  - { offsetInCU: 0x15511, offset: 0x5DDDB, size: 0x8, addend: 0x0, symName: __ZNSt3__119__copy_trivial_implB7v160006IKccEENS_4pairIPT_PT0_EES4_S4_S6_, symObjAddr: 0xDFD0, symBinAddr: 0x10001F470, symSize: 0x70 }
  - { offsetInCU: 0x15579, offset: 0x5DE43, size: 0x8, addend: 0x0, symName: __ZNSt3__19make_pairB7v160006IRPKcPcEENS_4pairINS_18__unwrap_ref_decayIT_E4typeENS6_IT0_E4typeEEEOS7_OSA_, symObjAddr: 0xE040, symBinAddr: 0x10001F4E0, symSize: 0x30 }
  - { offsetInCU: 0x1561B, offset: 0x5DEE5, size: 0x8, addend: 0x0, symName: __ZNSt3__113__rewrap_iterB7v160006IPKcS2_NS_18__unwrap_iter_implIS2_Lb1EEEEET_S5_T0_, symObjAddr: 0xE150, symBinAddr: 0x10001F5F0, symSize: 0x40 }
  - { offsetInCU: 0x15670, offset: 0x5DF3A, size: 0x8, addend: 0x0, symName: __ZNSt3__16fill_nB7v160006IPcmcEET_S2_T0_RKT1_, symObjAddr: 0xE210, symBinAddr: 0x10001F6B0, symSize: 0x40 }
  - { offsetInCU: 0x156D3, offset: 0x5DF9D, size: 0x8, addend: 0x0, symName: __ZNSt3__18__fill_nB7v160006IPcmcEET_S2_T0_RKT1_, symObjAddr: 0xE250, symBinAddr: 0x10001F6F0, symSize: 0x50 }
  - { offsetInCU: 0x15736, offset: 0x5E000, size: 0x8, addend: 0x0, symName: __ZNSt3__121__convert_to_integralB7v160006Em, symObjAddr: 0xE2A0, symBinAddr: 0x10001F740, symSize: 0x10 }
  - { offsetInCU: 0x15762, offset: 0x5E02C, size: 0x8, addend: 0x0, symName: __ZNSt3__18distanceB7v160006IP5RangeEENS_15iterator_traitsIT_E15difference_typeES4_S4_, symObjAddr: 0xE560, symBinAddr: 0x10001F8F0, symSize: 0x30 }
  - { offsetInCU: 0x157A5, offset: 0x5E06F, size: 0x8, addend: 0x0, symName: __ZNSt3__14copyB7v160006IP5RangeS2_EET0_T_S4_S3_, symObjAddr: 0xE5E0, symBinAddr: 0x10001F970, symSize: 0x40 }
  - { offsetInCU: 0x157FF, offset: 0x5E0C9, size: 0x8, addend: 0x0, symName: __ZNSt3__125__debug_db_invalidate_allB7v160006INS_6vectorI5RangeNS_9allocatorIS2_EEEEEEvPT_, symObjAddr: 0xE8D0, symBinAddr: 0x10001FC60, symSize: 0x10 }
  - { offsetInCU: 0x15830, offset: 0x5E0FA, size: 0x8, addend: 0x0, symName: __ZNSt3__110__distanceB7v160006IP5RangeEENS_15iterator_traitsIT_E15difference_typeES4_S4_NS_26random_access_iterator_tagE, symObjAddr: 0xE8E0, symBinAddr: 0x10001FC70, symSize: 0x20 }
  - { offsetInCU: 0x1587E, offset: 0x5E148, size: 0x8, addend: 0x0, symName: __ZNSt3__19__advanceB7v160006IP5RangeEEvRT_NS_15iterator_traitsIS3_E15difference_typeENS_26random_access_iterator_tagE, symObjAddr: 0xE900, symBinAddr: 0x10001FC90, symSize: 0x20 }
  - { offsetInCU: 0x158C8, offset: 0x5E192, size: 0x8, addend: 0x0, symName: __ZNSt3__16__copyB7v160006INS_17_ClassicAlgPolicyEP5RangeS3_S3_EENS_4pairIT0_T2_EES5_T1_S6_, symObjAddr: 0xE920, symBinAddr: 0x10001FCB0, symSize: 0x40 }
  - { offsetInCU: 0x15934, offset: 0x5E1FE, size: 0x8, addend: 0x0, symName: __ZNSt3__123__dispatch_copy_or_moveB7v160006INS_17_ClassicAlgPolicyENS_11__copy_loopIS1_EENS_14__copy_trivialEP5RangeS6_S6_EENS_4pairIT2_T4_EES8_T3_S9_, symObjAddr: 0xE960, symBinAddr: 0x10001FCF0, symSize: 0x40 }
  - { offsetInCU: 0x159B2, offset: 0x5E27C, size: 0x8, addend: 0x0, symName: __ZNSt3__121__unwrap_and_dispatchB7v160006INS_10__overloadINS_11__copy_loopINS_17_ClassicAlgPolicyEEENS_14__copy_trivialEEEP5RangeS8_S8_Li0EEENS_4pairIT0_T2_EESA_T1_SB_, symObjAddr: 0xE9A0, symBinAddr: 0x10001FD30, symSize: 0xB0 }
  - { offsetInCU: 0x15A41, offset: 0x5E30B, size: 0x8, addend: 0x0, symName: __ZNSt3__114__unwrap_rangeB7v160006IP5RangeS2_EENS_4pairIT0_S4_EET_S6_, symObjAddr: 0xEA50, symBinAddr: 0x10001FDE0, symSize: 0x50 }
  - { offsetInCU: 0x15B90, offset: 0x5E45A, size: 0x8, addend: 0x0, symName: __ZNSt3__113__unwrap_iterB7v160006IP5RangeNS_18__unwrap_iter_implIS2_Lb1EEELi0EEEDTclsrT0_8__unwrapclsr3stdE7declvalIT_EEEES6_, symObjAddr: 0xEAE0, symBinAddr: 0x10001FE70, symSize: 0x20 }
  - { offsetInCU: 0x15BD4, offset: 0x5E49E, size: 0x8, addend: 0x0, symName: __ZNSt3__19make_pairB7v160006IP5RangeS2_EENS_4pairINS_18__unwrap_ref_decayIT_E4typeENS4_IT0_E4typeEEEOS5_OS8_, symObjAddr: 0xEB00, symBinAddr: 0x10001FE90, symSize: 0x30 }
  - { offsetInCU: 0x15C23, offset: 0x5E4ED, size: 0x8, addend: 0x0, symName: __ZNSt3__114__rewrap_rangeB7v160006IP5RangeS2_EET_S3_T0_, symObjAddr: 0xEB30, symBinAddr: 0x10001FEC0, symSize: 0x30 }
  - { offsetInCU: 0x15C6F, offset: 0x5E539, size: 0x8, addend: 0x0, symName: __ZNSt3__113__rewrap_iterB7v160006IP5RangeS2_NS_18__unwrap_iter_implIS2_Lb1EEEEET_S5_T0_, symObjAddr: 0xEB60, symBinAddr: 0x10001FEF0, symSize: 0x40 }
  - { offsetInCU: 0x15CC4, offset: 0x5E58E, size: 0x8, addend: 0x0, symName: __ZNSt3__119__copy_trivial_implB7v160006I5RangeS1_EENS_4pairIPT_PT0_EES4_S4_S6_, symObjAddr: 0xEBA0, symBinAddr: 0x10001FF30, symSize: 0x80 }
  - { offsetInCU: 0x15D2C, offset: 0x5E5F6, size: 0x8, addend: 0x0, symName: __ZNSt3__19make_pairB7v160006IRP5RangeS2_EENS_4pairINS_18__unwrap_ref_decayIT_E4typeENS5_IT0_E4typeEEEOS6_OS9_, symObjAddr: 0xEC20, symBinAddr: 0x10001FFB0, symSize: 0x30 }
  - { offsetInCU: 0x15DCE, offset: 0x5E698, size: 0x8, addend: 0x0, symName: __ZNSt3__130__uninitialized_allocator_copyB7v160006INS_9allocatorI5RangeEEPS2_S4_S4_EET2_RT_T0_T1_S5_, symObjAddr: 0xEDB0, symBinAddr: 0x100020140, symSize: 0x100 }
  - { offsetInCU: 0x15E6C, offset: 0x5E736, size: 0x8, addend: 0x0, symName: __ZNSt3__122__make_exception_guardB7v160006INS_29_AllocatorDestroyRangeReverseINS_9allocatorI5RangeEEPS3_EEEENS_28__exception_guard_exceptionsIT_EES8_, symObjAddr: 0xEF10, symBinAddr: 0x1000202A0, symSize: 0x60 }
  - { offsetInCU: 0x15EA1, offset: 0x5E76B, size: 0x8, addend: 0x0, symName: __ZNSt3__119__allocator_destroyB7v160006INS_9allocatorI5RangeEENS_16reverse_iteratorIPS2_EES6_EEvRT_T0_T1_, symObjAddr: 0xF1A0, symBinAddr: 0x100020530, symSize: 0x70 }
  - { offsetInCU: 0x15F04, offset: 0x5E7CE, size: 0x8, addend: 0x0, symName: __ZNSt3__1neB7v160006IP5RangeS2_EEbRKNS_16reverse_iteratorIT_EERKNS3_IT0_EE, symObjAddr: 0xF240, symBinAddr: 0x1000205D0, symSize: 0x40 }
  - { offsetInCU: 0x15F50, offset: 0x5E81A, size: 0x8, addend: 0x0, symName: __ZNSt3__112__to_addressB7v160006INS_16reverse_iteratorIP5RangeEEvEENS_5decayIDTclsr19__to_address_helperIT_EE6__callclsr3stdE7declvalIRKS6_EEEEE4typeES8_, symObjAddr: 0xF280, symBinAddr: 0x100020610, symSize: 0x20 }
  - { offsetInCU: 0x15FB0, offset: 0x5E87A, size: 0x8, addend: 0x0, symName: __ZNSt3__119__allocate_at_leastB7v160006INS_9allocatorI5RangeEEEENS_19__allocation_resultINS_16allocator_traitsIT_E7pointerEEERS6_m, symObjAddr: 0xF590, symBinAddr: 0x100020920, symSize: 0x40 }
  - { offsetInCU: 0x15FF3, offset: 0x5E8BD, size: 0x8, addend: 0x0, symName: __ZNSt3__119__allocate_at_leastB7v160006INS_9allocatorIP6SampleEEEENS_19__allocation_resultINS_16allocator_traitsIT_E7pointerEEERS7_m, symObjAddr: 0xFEF0, symBinAddr: 0x1000211E0, symSize: 0x40 }
  - { offsetInCU: 0x16036, offset: 0x5E900, size: 0x8, addend: 0x0, symName: __ZNSt3__142__uninitialized_allocator_move_if_noexceptB7v160006INS_9allocatorIP6SampleEENS_16reverse_iteratorIPS3_EES7_S3_vEET1_RT_T0_SB_S8_, symObjAddr: 0x10080, symBinAddr: 0x100021370, symSize: 0x70 }
  - { offsetInCU: 0x160B2, offset: 0x5E97C, size: 0x8, addend: 0x0, symName: __ZNSt3__14swapB7v160006IPP6SampleEENS_9enable_ifIXaasr21is_move_constructibleIT_EE5valuesr18is_move_assignableIS5_EE5valueEvE4typeERS5_S8_, symObjAddr: 0x10140, symBinAddr: 0x100021430, symSize: 0x40 }
  - { offsetInCU: 0x16103, offset: 0x5E9CD, size: 0x8, addend: 0x0, symName: __ZNSt3__125__debug_db_invalidate_allB7v160006INS_6vectorIP6SampleNS_9allocatorIS3_EEEEEEvPT_, symObjAddr: 0x10230, symBinAddr: 0x100021520, symSize: 0x10 }
  - { offsetInCU: 0x16134, offset: 0x5E9FE, size: 0x8, addend: 0x0, symName: __ZNSt3__14moveB7v160006INS_16reverse_iteratorIPP6SampleEES5_EET0_T_S7_S6_, symObjAddr: 0x10240, symBinAddr: 0x100021530, symSize: 0x80 }
  - { offsetInCU: 0x1618E, offset: 0x5EA58, size: 0x8, addend: 0x0, symName: __ZNSt3__16__moveB7v160006INS_17_ClassicAlgPolicyENS_16reverse_iteratorIPP6SampleEES6_S6_EENS_4pairIT0_T2_EES8_T1_S9_, symObjAddr: 0x102C0, symBinAddr: 0x1000215B0, symSize: 0x90 }
  - { offsetInCU: 0x161FA, offset: 0x5EAC4, size: 0x8, addend: 0x0, symName: __ZNSt3__123__dispatch_copy_or_moveB7v160006INS_17_ClassicAlgPolicyENS_11__move_loopIS1_EENS_14__move_trivialENS_16reverse_iteratorIPP6SampleEES9_S9_EENS_4pairIT2_T4_EESB_T3_SC_, symObjAddr: 0x10350, symBinAddr: 0x100021640, symSize: 0x90 }
  - { offsetInCU: 0x16278, offset: 0x5EB42, size: 0x8, addend: 0x0, symName: __ZNSt3__121__unwrap_and_dispatchB7v160006INS_10__overloadINS_11__move_loopINS_17_ClassicAlgPolicyEEENS_14__move_trivialEEENS_16reverse_iteratorIPP6SampleEESB_SB_Li0EEENS_4pairIT0_T2_EESD_T1_SE_, symObjAddr: 0x103E0, symBinAddr: 0x1000216D0, symSize: 0x210 }
  - { offsetInCU: 0x16307, offset: 0x5EBD1, size: 0x8, addend: 0x0, symName: __ZNSt3__114__unwrap_rangeB7v160006INS_16reverse_iteratorIPP6SampleEES5_EENS_4pairIT0_S7_EET_S9_, symObjAddr: 0x105F0, symBinAddr: 0x1000218E0, symSize: 0x90 }
  - { offsetInCU: 0x164F7, offset: 0x5EDC1, size: 0x8, addend: 0x0, symName: __ZNSt3__113__unwrap_iterB7v160006INS_16reverse_iteratorIPP6SampleEENS_18__unwrap_iter_implIS5_Lb0EEELi0EEEDTclsrT0_8__unwrapclsr3stdE7declvalIT_EEEES9_, symObjAddr: 0x10720, symBinAddr: 0x100021A10, symSize: 0x40 }
  - { offsetInCU: 0x1653B, offset: 0x5EE05, size: 0x8, addend: 0x0, symName: __ZNSt3__19make_pairB7v160006INS_16reverse_iteratorIPP6SampleEES5_EENS_4pairINS_18__unwrap_ref_decayIT_E4typeENS7_IT0_E4typeEEEOS8_OSB_, symObjAddr: 0x10760, symBinAddr: 0x100021A50, symSize: 0x30 }
  - { offsetInCU: 0x1658A, offset: 0x5EE54, size: 0x8, addend: 0x0, symName: __ZNSt3__114__rewrap_rangeB7v160006INS_16reverse_iteratorIPP6SampleEES5_EET_S6_T0_, symObjAddr: 0x10790, symBinAddr: 0x100021A80, symSize: 0x60 }
  - { offsetInCU: 0x165D6, offset: 0x5EEA0, size: 0x8, addend: 0x0, symName: __ZNSt3__113__rewrap_iterB7v160006INS_16reverse_iteratorIPP6SampleEES5_NS_18__unwrap_iter_implIS5_Lb0EEEEET_S8_T0_, symObjAddr: 0x107F0, symBinAddr: 0x100021AE0, symSize: 0x70 }
  - { offsetInCU: 0x1662B, offset: 0x5EEF5, size: 0x8, addend: 0x0, symName: __ZNSt3__1neB7v160006IPP6SampleS3_EEbRKNS_16reverse_iteratorIT_EERKNS4_IT0_EE, symObjAddr: 0x10860, symBinAddr: 0x100021B50, symSize: 0x40 }
  - { offsetInCU: 0x167C2, offset: 0x5F08C, size: 0x8, addend: 0x0, symName: __ZNSt3__119__allocate_at_leastB7v160006INS_9allocatorIPN6Fuzzer16SampleQueueEntryEEEEENS_19__allocation_resultINS_16allocator_traitsIT_E7pointerEEERS8_m, symObjAddr: 0x11390, symBinAddr: 0x1000225A0, symSize: 0x40 }
  - { offsetInCU: 0x16805, offset: 0x5F0CF, size: 0x8, addend: 0x0, symName: __ZNSt3__142__uninitialized_allocator_move_if_noexceptB7v160006INS_9allocatorIPN6Fuzzer16SampleQueueEntryEEENS_16reverse_iteratorIPS4_EES8_S4_vEET1_RT_T0_SC_S9_, symObjAddr: 0x115F0, symBinAddr: 0x100022730, symSize: 0x70 }
  - { offsetInCU: 0x16881, offset: 0x5F14B, size: 0x8, addend: 0x0, symName: __ZNSt3__14swapB7v160006IPPN6Fuzzer16SampleQueueEntryEEENS_9enable_ifIXaasr21is_move_constructibleIT_EE5valuesr18is_move_assignableIS6_EE5valueEvE4typeERS6_S9_, symObjAddr: 0x116B0, symBinAddr: 0x1000227F0, symSize: 0x40 }
  - { offsetInCU: 0x168D2, offset: 0x5F19C, size: 0x8, addend: 0x0, symName: __ZNSt3__125__debug_db_invalidate_allB7v160006INS_6vectorIPN6Fuzzer16SampleQueueEntryENS_9allocatorIS4_EEEEEEvPT_, symObjAddr: 0x117A0, symBinAddr: 0x1000228E0, symSize: 0x10 }
  - { offsetInCU: 0x16903, offset: 0x5F1CD, size: 0x8, addend: 0x0, symName: __ZNSt3__14moveB7v160006INS_16reverse_iteratorIPPN6Fuzzer16SampleQueueEntryEEES6_EET0_T_S8_S7_, symObjAddr: 0x117F0, symBinAddr: 0x1000228F0, symSize: 0x80 }
  - { offsetInCU: 0x1695D, offset: 0x5F227, size: 0x8, addend: 0x0, symName: __ZNSt3__16__moveB7v160006INS_17_ClassicAlgPolicyENS_16reverse_iteratorIPPN6Fuzzer16SampleQueueEntryEEES7_S7_EENS_4pairIT0_T2_EES9_T1_SA_, symObjAddr: 0x11870, symBinAddr: 0x100022970, symSize: 0x90 }
  - { offsetInCU: 0x169C9, offset: 0x5F293, size: 0x8, addend: 0x0, symName: __ZNSt3__123__dispatch_copy_or_moveB7v160006INS_17_ClassicAlgPolicyENS_11__move_loopIS1_EENS_14__move_trivialENS_16reverse_iteratorIPPN6Fuzzer16SampleQueueEntryEEESA_SA_EENS_4pairIT2_T4_EESC_T3_SD_, symObjAddr: 0x11900, symBinAddr: 0x100022A00, symSize: 0x90 }
  - { offsetInCU: 0x16A47, offset: 0x5F311, size: 0x8, addend: 0x0, symName: __ZNSt3__121__unwrap_and_dispatchB7v160006INS_10__overloadINS_11__move_loopINS_17_ClassicAlgPolicyEEENS_14__move_trivialEEENS_16reverse_iteratorIPPN6Fuzzer16SampleQueueEntryEEESC_SC_Li0EEENS_4pairIT0_T2_EESE_T1_SF_, symObjAddr: 0x11990, symBinAddr: 0x100022A90, symSize: 0x210 }
  - { offsetInCU: 0x16AD6, offset: 0x5F3A0, size: 0x8, addend: 0x0, symName: __ZNSt3__114__unwrap_rangeB7v160006INS_16reverse_iteratorIPPN6Fuzzer16SampleQueueEntryEEES6_EENS_4pairIT0_S8_EET_SA_, symObjAddr: 0x11BA0, symBinAddr: 0x100022CA0, symSize: 0x90 }
  - { offsetInCU: 0x16BF6, offset: 0x5F4C0, size: 0x8, addend: 0x0, symName: __ZNSt3__113__unwrap_iterB7v160006INS_16reverse_iteratorIPPN6Fuzzer16SampleQueueEntryEEENS_18__unwrap_iter_implIS6_Lb0EEELi0EEEDTclsrT0_8__unwrapclsr3stdE7declvalIT_EEEESA_, symObjAddr: 0x11CD0, symBinAddr: 0x100022DD0, symSize: 0x40 }
  - { offsetInCU: 0x16C3A, offset: 0x5F504, size: 0x8, addend: 0x0, symName: __ZNSt3__19make_pairB7v160006INS_16reverse_iteratorIPPN6Fuzzer16SampleQueueEntryEEES6_EENS_4pairINS_18__unwrap_ref_decayIT_E4typeENS8_IT0_E4typeEEEOS9_OSC_, symObjAddr: 0x11D10, symBinAddr: 0x100022E10, symSize: 0x30 }
  - { offsetInCU: 0x16C89, offset: 0x5F553, size: 0x8, addend: 0x0, symName: __ZNSt3__114__rewrap_rangeB7v160006INS_16reverse_iteratorIPPN6Fuzzer16SampleQueueEntryEEES6_EET_S7_T0_, symObjAddr: 0x11D40, symBinAddr: 0x100022E40, symSize: 0x60 }
  - { offsetInCU: 0x16CD5, offset: 0x5F59F, size: 0x8, addend: 0x0, symName: __ZNSt3__113__rewrap_iterB7v160006INS_16reverse_iteratorIPPN6Fuzzer16SampleQueueEntryEEES6_NS_18__unwrap_iter_implIS6_Lb0EEEEET_S9_T0_, symObjAddr: 0x11DA0, symBinAddr: 0x100022EA0, symSize: 0x70 }
  - { offsetInCU: 0x16D2A, offset: 0x5F5F4, size: 0x8, addend: 0x0, symName: __ZNSt3__1neB7v160006IPPN6Fuzzer16SampleQueueEntryES4_EEbRKNS_16reverse_iteratorIT_EERKNS5_IT0_EE, symObjAddr: 0x11E10, symBinAddr: 0x100022F10, symSize: 0x40 }
  - { offsetInCU: 0x16DE2, offset: 0x5F6AC, size: 0x8, addend: 0x0, symName: __ZNSt3__19push_heapB7v160006INS_11__wrap_iterIPPN6Fuzzer16SampleQueueEntryEEENS2_12CmpEntryPtrsEEEvT_S8_T0_, symObjAddr: 0x12220, symBinAddr: 0x100023270, symSize: 0x40 }
  - { offsetInCU: 0x16E38, offset: 0x5F702, size: 0x8, addend: 0x0, symName: __ZNSt3__111__push_heapB7v160006INS_17_ClassicAlgPolicyENS_11__wrap_iterIPPN6Fuzzer16SampleQueueEntryEEENS3_12CmpEntryPtrsEEEvT0_S9_RT1_, symObjAddr: 0x12260, symBinAddr: 0x1000232B0, symSize: 0x50 }
  - { offsetInCU: 0x16EA5, offset: 0x5F76F, size: 0x8, addend: 0x0, symName: __ZNSt3__1miB7v160006IPPN6Fuzzer16SampleQueueEntryES4_EEDTmicldtfp_4baseEcldtfp0_4baseEERKNS_11__wrap_iterIT_EERKNS6_IT0_EE, symObjAddr: 0x122B0, symBinAddr: 0x100023300, symSize: 0x40 }
  - { offsetInCU: 0x16EF1, offset: 0x5F7BB, size: 0x8, addend: 0x0, symName: __ZNSt3__19__sift_upB7v160006INS_17_ClassicAlgPolicyERN6Fuzzer12CmpEntryPtrsENS_11__wrap_iterIPPNS2_16SampleQueueEntryEEEEEvT1_SA_OT0_NS_15iterator_traitsISA_E15difference_typeE, symObjAddr: 0x122F0, symBinAddr: 0x100023340, symSize: 0x160 }
  - { offsetInCU: 0x16FA1, offset: 0x5F86B, size: 0x8, addend: 0x0, symName: __ZNSt3__1neB7v160006ERKNS_21__list_const_iteratorI14ModuleCoveragePvEES5_, symObjAddr: 0x12760, symBinAddr: 0x1000237B0, symSize: 0x30 }
  - { offsetInCU: 0x16FDE, offset: 0x5F8A8, size: 0x8, addend: 0x0, symName: __ZNSt3__1eqB7v160006ERKNS_21__list_const_iteratorI14ModuleCoveragePvEES5_, symObjAddr: 0x12A50, symBinAddr: 0x100023AA0, symSize: 0x30 }
  - { offsetInCU: 0x17039, offset: 0x5F903, size: 0x8, addend: 0x0, symName: __ZNSt3__1neB7v160006ERKNS_21__tree_const_iteratorIyPNS_11__tree_nodeIyPvEElEES7_, symObjAddr: 0x13470, symBinAddr: 0x1000244C0, symSize: 0x30 }
  - { offsetInCU: 0x17076, offset: 0x5F940, size: 0x8, addend: 0x0, symName: __ZNSt3__1eqB7v160006ERKNS_21__tree_const_iteratorIyPNS_11__tree_nodeIyPvEElEES7_, symObjAddr: 0x13550, symBinAddr: 0x1000245A0, symSize: 0x30 }
  - { offsetInCU: 0x170B3, offset: 0x5F97D, size: 0x8, addend: 0x0, symName: __ZNSt3__14nextB7v160006INS_21__tree_const_iteratorIyPNS_11__tree_nodeIyPvEElEEEENS_9enable_ifIXsr25__is_cpp17_input_iteratorIT_EE5valueES8_E4typeES8_NS_15iterator_traitsIS8_E15difference_typeE, symObjAddr: 0x13EF0, symBinAddr: 0x100024F40, symSize: 0x50 }
  - { offsetInCU: 0x170F6, offset: 0x5F9C0, size: 0x8, addend: 0x0, symName: __ZNSt3__116__tree_prev_iterB7v160006IPNS_16__tree_node_baseIPvEEPNS_15__tree_end_nodeIS4_EEEET_T0_, symObjAddr: 0x14000, symBinAddr: 0x100025050, symSize: 0xA0 }
  - { offsetInCU: 0x17142, offset: 0x5FA0C, size: 0x8, addend: 0x0, symName: __ZNSt3__110__tree_maxB7v160006IPNS_16__tree_node_baseIPvEEEET_S5_, symObjAddr: 0x140A0, symBinAddr: 0x1000250F0, symSize: 0x30 }
  - { offsetInCU: 0x17177, offset: 0x5FA41, size: 0x8, addend: 0x0, symName: __ZNSt3__120__tree_is_left_childB7v160006IPNS_16__tree_node_baseIPvEEEEbT_, symObjAddr: 0x140D0, symBinAddr: 0x100025120, symSize: 0x30 }
  - { offsetInCU: 0x171AC, offset: 0x5FA76, size: 0x8, addend: 0x0, symName: __ZNSt3__121__convert_to_integralB7v160006El, symObjAddr: 0x14190, symBinAddr: 0x1000251E0, symSize: 0x10 }
  - { offsetInCU: 0x171D8, offset: 0x5FAA2, size: 0x8, addend: 0x0, symName: __ZNSt3__19__advanceB7v160006INS_21__tree_const_iteratorIyPNS_11__tree_nodeIyPvEElEEEEvRT_NS_15iterator_traitsIS7_E15difference_typeENS_26bidirectional_iterator_tagE, symObjAddr: 0x141A0, symBinAddr: 0x1000251F0, symSize: 0x80 }
  - { offsetInCU: 0x17240, offset: 0x5FB0A, size: 0x8, addend: 0x0, symName: __ZNSt3__127__tree_balance_after_insertB7v160006IPNS_16__tree_node_baseIPvEEEEvT_S5_, symObjAddr: 0x14570, symBinAddr: 0x1000255C0, symSize: 0x240 }
  - { offsetInCU: 0x172BC, offset: 0x5FB86, size: 0x8, addend: 0x0, symName: __ZNSt3__118__tree_left_rotateB7v160006IPNS_16__tree_node_baseIPvEEEEvT_, symObjAddr: 0x147D0, symBinAddr: 0x100025820, symSize: 0xD0 }
  - { offsetInCU: 0x172FE, offset: 0x5FBC8, size: 0x8, addend: 0x0, symName: __ZNSt3__119__tree_right_rotateB7v160006IPNS_16__tree_node_baseIPvEEEEvT_, symObjAddr: 0x148A0, symBinAddr: 0x1000258F0, symSize: 0xC0 }
  - { offsetInCU: 0x17340, offset: 0x5FC0A, size: 0x8, addend: 0x0, symName: __ZNSt3__116__tree_next_iterB7v160006IPNS_15__tree_end_nodeIPNS_16__tree_node_baseIPvEEEES5_EET_T0_, symObjAddr: 0x14B20, symBinAddr: 0x100025B70, symSize: 0x80 }
  - { offsetInCU: 0x1737E, offset: 0x5FC48, size: 0x8, addend: 0x0, symName: __ZNSt3__110__tree_minB7v160006IPNS_16__tree_node_baseIPvEEEET_S5_, symObjAddr: 0x14BA0, symBinAddr: 0x100025BF0, symSize: 0x30 }
  - { offsetInCU: 0x173B3, offset: 0x5FC7D, size: 0x8, addend: 0x0, symName: __ZNSt3__125__debug_db_invalidate_allB7v160006INS_4listI14ModuleCoverageNS_9allocatorIS2_EEEEEEvPT_, symObjAddr: 0x15480, symBinAddr: 0x1000264D0, symSize: 0x10 }
  - { offsetInCU: 0x173E4, offset: 0x5FCAE, size: 0x8, addend: 0x0, symName: __ZNSt3__111__tree_leafB7v160006IPNS_16__tree_node_baseIPvEEEET_S5_, symObjAddr: 0x15B30, symBinAddr: 0x100026B80, symSize: 0x60 }
  - { offsetInCU: 0x17419, offset: 0x5FCE3, size: 0x8, addend: 0x0, symName: __ZNSt3__18pop_heapB7v160006INS_11__wrap_iterIPPN6Fuzzer16SampleQueueEntryEEENS2_12CmpEntryPtrsEEEvT_S8_T0_, symObjAddr: 0x16290, symBinAddr: 0x100027240, symSize: 0x50 }
  - { offsetInCU: 0x1747D, offset: 0x5FD47, size: 0x8, addend: 0x0, symName: __ZNSt3__110__pop_heapB7v160006INS_17_ClassicAlgPolicyEN6Fuzzer12CmpEntryPtrsENS_11__wrap_iterIPPNS2_16SampleQueueEntryEEEEEvT1_S9_RT0_NS_15iterator_traitsIS9_E15difference_typeE, symObjAddr: 0x16310, symBinAddr: 0x1000272C0, symSize: 0x120 }
  - { offsetInCU: 0x1752D, offset: 0x5FDF7, size: 0x8, addend: 0x0, symName: __ZNSt3__142__uninitialized_allocator_move_if_noexceptB7v160006INS_9allocatorI5RangeEENS_16reverse_iteratorIPS2_EES6_S2_vEET1_RT_T0_SA_S7_, symObjAddr: 0x17240, symBinAddr: 0x100027DB0, symSize: 0x70 }
  - { offsetInCU: 0x175A9, offset: 0x5FE73, size: 0x8, addend: 0x0, symName: __ZNSt3__14swapB7v160006IP5RangeEENS_9enable_ifIXaasr21is_move_constructibleIT_EE5valuesr18is_move_assignableIS4_EE5valueEvE4typeERS4_S7_, symObjAddr: 0x172B0, symBinAddr: 0x100027E20, symSize: 0x40 }
  - { offsetInCU: 0x175FA, offset: 0x5FEC4, size: 0x8, addend: 0x0, symName: __ZNSt3__14moveB7v160006INS_16reverse_iteratorIP5RangeEES4_EET0_T_S6_S5_, symObjAddr: 0x172F0, symBinAddr: 0x100027E60, symSize: 0x80 }
  - { offsetInCU: 0x17654, offset: 0x5FF1E, size: 0x8, addend: 0x0, symName: __ZNSt3__16__moveB7v160006INS_17_ClassicAlgPolicyENS_16reverse_iteratorIP5RangeEES5_S5_EENS_4pairIT0_T2_EES7_T1_S8_, symObjAddr: 0x17370, symBinAddr: 0x100027EE0, symSize: 0x90 }
  - { offsetInCU: 0x176C0, offset: 0x5FF8A, size: 0x8, addend: 0x0, symName: __ZNSt3__123__dispatch_copy_or_moveB7v160006INS_17_ClassicAlgPolicyENS_11__move_loopIS1_EENS_14__move_trivialENS_16reverse_iteratorIP5RangeEES8_S8_EENS_4pairIT2_T4_EESA_T3_SB_, symObjAddr: 0x17400, symBinAddr: 0x100027F70, symSize: 0x90 }
  - { offsetInCU: 0x1773E, offset: 0x60008, size: 0x8, addend: 0x0, symName: __ZNSt3__121__unwrap_and_dispatchB7v160006INS_10__overloadINS_11__move_loopINS_17_ClassicAlgPolicyEEENS_14__move_trivialEEENS_16reverse_iteratorIP5RangeEESA_SA_Li0EEENS_4pairIT0_T2_EESC_T1_SD_, symObjAddr: 0x17490, symBinAddr: 0x100028000, symSize: 0x210 }
  - { offsetInCU: 0x177CD, offset: 0x60097, size: 0x8, addend: 0x0, symName: __ZNSt3__114__unwrap_rangeB7v160006INS_16reverse_iteratorIP5RangeEES4_EENS_4pairIT0_S6_EET_S8_, symObjAddr: 0x176A0, symBinAddr: 0x100028210, symSize: 0x90 }
  - { offsetInCU: 0x178ED, offset: 0x601B7, size: 0x8, addend: 0x0, symName: __ZNSt3__113__unwrap_iterB7v160006INS_16reverse_iteratorIP5RangeEENS_18__unwrap_iter_implIS4_Lb0EEELi0EEEDTclsrT0_8__unwrapclsr3stdE7declvalIT_EEEES8_, symObjAddr: 0x177D0, symBinAddr: 0x100028340, symSize: 0x40 }
  - { offsetInCU: 0x17931, offset: 0x601FB, size: 0x8, addend: 0x0, symName: __ZNSt3__19make_pairB7v160006INS_16reverse_iteratorIP5RangeEES4_EENS_4pairINS_18__unwrap_ref_decayIT_E4typeENS6_IT0_E4typeEEEOS7_OSA_, symObjAddr: 0x17810, symBinAddr: 0x100028380, symSize: 0x30 }
  - { offsetInCU: 0x17980, offset: 0x6024A, size: 0x8, addend: 0x0, symName: __ZNSt3__114__rewrap_rangeB7v160006INS_16reverse_iteratorIP5RangeEES4_EET_S5_T0_, symObjAddr: 0x17840, symBinAddr: 0x1000283B0, symSize: 0x60 }
  - { offsetInCU: 0x179CC, offset: 0x60296, size: 0x8, addend: 0x0, symName: __ZNSt3__113__rewrap_iterB7v160006INS_16reverse_iteratorIP5RangeEES4_NS_18__unwrap_iter_implIS4_Lb0EEEEET_S7_T0_, symObjAddr: 0x178A0, symBinAddr: 0x100028410, symSize: 0x70 }
  - { offsetInCU: 0x1AA8A, offset: 0x63354, size: 0x8, addend: 0x0, symName: __ZNSt3__16vectorIP6SampleNS_9allocatorIS2_EEE26__swap_out_circular_bufferERNS_14__split_bufferIS2_RS4_EE, symObjAddr: 0xFB90, symBinAddr: 0x100020E80, symSize: 0x130 }
  - { offsetInCU: 0x1AAE1, offset: 0x633AB, size: 0x8, addend: 0x0, symName: __ZNSt3__16vectorIPN6Fuzzer16SampleQueueEntryENS_9allocatorIS3_EEE26__swap_out_circular_bufferERNS_14__split_bufferIS3_RS5_EE, symObjAddr: 0x10FB0, symBinAddr: 0x100022240, symSize: 0x130 }
  - { offsetInCU: 0x1AB38, offset: 0x63402, size: 0x8, addend: 0x0, symName: __ZNSt3__16vectorI5RangeNS_9allocatorIS1_EEE26__swap_out_circular_bufferERNS_14__split_bufferIS1_RS3_EE, symObjAddr: 0x16DE0, symBinAddr: 0x100027950, symSize: 0x130 }
  - { offsetInCU: 0x1C884, offset: 0x6514E, size: 0x8, addend: 0x0, symName: __ZN6Fuzzer10PrintUsageEv, symObjAddr: 0x0, symBinAddr: 0x100013CD0, symSize: 0x30 }
  - { offsetInCU: 0x1C8AC, offset: 0x65176, size: 0x8, addend: 0x0, symName: __ZN6Fuzzer12ParseOptionsEiPPc, symObjAddr: 0x30, symBinAddr: 0x100013D00, symSize: 0x540 }
  - { offsetInCU: 0x1C936, offset: 0x65200, size: 0x8, addend: 0x0, symName: __ZNSt3__112basic_stringIcNS_11char_traitsIcEENS_9allocatorIcEEEaSB7v160006EPKc, symObjAddr: 0x570, symBinAddr: 0x100014240, symSize: 0x30 }
  - { offsetInCU: 0x1C96B, offset: 0x65235, size: 0x8, addend: 0x0, symName: __ZN14CoverageClientC1Ev, symObjAddr: 0x5A0, symBinAddr: 0x100014270, symSize: 0x20 }
  - { offsetInCU: 0x1C995, offset: 0x6525F, size: 0x8, addend: 0x0, symName: __ZN6Fuzzer16SetupDirectoriesEv, symObjAddr: 0x650, symBinAddr: 0x100014320, symSize: 0x2C0 }
  - { offsetInCU: 0x1C9C1, offset: 0x6528B, size: 0x8, addend: 0x0, symName: __Z15StartFuzzThreadPv, symObjAddr: 0x970, symBinAddr: 0x1000145E0, symSize: 0x30 }
  - { offsetInCU: 0x1C9FC, offset: 0x652C6, size: 0x8, addend: 0x0, symName: __ZN6Fuzzer15RunFuzzerThreadEPNS_13ThreadContextE, symObjAddr: 0x9A0, symBinAddr: 0x100014610, symSize: 0xF0 }
  - { offsetInCU: 0x1CA51, offset: 0x6531B, size: 0x8, addend: 0x0, symName: __ZN6Fuzzer13ThreadContextD2Ev, symObjAddr: 0xA90, symBinAddr: 0x100014700, symSize: 0x130 }
  - { offsetInCU: 0x1CA7D, offset: 0x65347, size: 0x8, addend: 0x0, symName: __ZN6Fuzzer13ThreadContextD1Ev, symObjAddr: 0xC10, symBinAddr: 0x100014830, symSize: 0x20 }
  - { offsetInCU: 0x1CAA9, offset: 0x65373, size: 0x8, addend: 0x0, symName: __ZN6Fuzzer3RunEiPPc, symObjAddr: 0xC30, symBinAddr: 0x100014850, symSize: 0x4D0 }
  - { offsetInCU: 0x1CB97, offset: 0x65461, size: 0x8, addend: 0x0, symName: __ZN14CoverageServerC1Ev, symObjAddr: 0x1100, symBinAddr: 0x100014D20, symSize: 0x20 }
  - { offsetInCU: 0x1CBC1, offset: 0x6548B, size: 0x8, addend: 0x0, symName: __ZN14CoverageServerD1Ev, symObjAddr: 0x1120, symBinAddr: 0x100014D40, symSize: 0x20 }
  - { offsetInCU: 0x1CBED, offset: 0x654B7, size: 0x8, addend: 0x0, symName: __ZN6Fuzzer19CreateThreadContextEiPPci, symObjAddr: 0x1160, symBinAddr: 0x100014D60, symSize: 0x1D0 }
  - { offsetInCU: 0x1CC6F, offset: 0x65539, size: 0x8, addend: 0x0, symName: __ZNSt3__14listI14ModuleCoverageNS_9allocatorIS1_EEE5beginB7v160006Ev, symObjAddr: 0x1330, symBinAddr: 0x100014F30, symSize: 0x30 }
  - { offsetInCU: 0x1CC95, offset: 0x6555F, size: 0x8, addend: 0x0, symName: __ZNSt3__14listI14ModuleCoverageNS_9allocatorIS1_EEE3endB7v160006Ev, symObjAddr: 0x1390, symBinAddr: 0x100014F90, symSize: 0x30 }
  - { offsetInCU: 0x1CCBB, offset: 0x65585, size: 0x8, addend: 0x0, symName: __ZNKSt3__115__list_iteratorI14ModuleCoveragePvEptB7v160006Ev, symObjAddr: 0x13C0, symBinAddr: 0x100014FC0, symSize: 0x30 }
  - { offsetInCU: 0x1CCE1, offset: 0x655AB, size: 0x8, addend: 0x0, symName: __ZNKSt3__13setIyNS_4lessIyEENS_9allocatorIyEEE4sizeB7v160006Ev, symObjAddr: 0x13F0, symBinAddr: 0x100014FF0, symSize: 0x20 }
  - { offsetInCU: 0x1CD07, offset: 0x655D1, size: 0x8, addend: 0x0, symName: __ZNSt3__115__list_iteratorI14ModuleCoveragePvEppB7v160006Ei, symObjAddr: 0x1410, symBinAddr: 0x100015010, symSize: 0x30 }
  - { offsetInCU: 0x1CD47, offset: 0x65611, size: 0x8, addend: 0x0, symName: __ZN6Fuzzer23RunSampleAndGetCoverageEPNS_13ThreadContextEP6SamplePNSt3__14listI14ModuleCoverageNS4_9allocatorIS6_EEEEjj, symObjAddr: 0x1440, symBinAddr: 0x100015040, symSize: 0xA20 }
  - { offsetInCU: 0x1CE90, offset: 0x6575A, size: 0x8, addend: 0x0, symName: __ZN6Fuzzer17TryReproduceCrashEPNS_13ThreadContextEP6Samplejj, symObjAddr: 0x1E60, symBinAddr: 0x100015A60, symSize: 0x170 }
  - { offsetInCU: 0x1CF21, offset: 0x657EB, size: 0x8, addend: 0x0, symName: __ZNSt3__113unordered_mapINS_12basic_stringIcNS_11char_traitsIcEENS_9allocatorIcEEEEiNS_4hashIS6_EENS_8equal_toIS6_EENS4_INS_4pairIKS6_iEEEEE4findB7v160006ERSC_, symObjAddr: 0x1FD0, symBinAddr: 0x100015BD0, symSize: 0x40 }
  - { offsetInCU: 0x1CF56, offset: 0x65820, size: 0x8, addend: 0x0, symName: __ZNSt3__113unordered_mapINS_12basic_stringIcNS_11char_traitsIcEENS_9allocatorIcEEEEiNS_4hashIS6_EENS_8equal_toIS6_EENS4_INS_4pairIKS6_iEEEEE3endB7v160006Ev, symObjAddr: 0x2040, symBinAddr: 0x100015C40, symSize: 0x30 }
  - { offsetInCU: 0x1CF7C, offset: 0x65846, size: 0x8, addend: 0x0, symName: __ZNSt3__113unordered_mapINS_12basic_stringIcNS_11char_traitsIcEENS_9allocatorIcEEEEiNS_4hashIS6_EENS_8equal_toIS6_EENS4_INS_4pairIKS6_iEEEEEixERSC_, symObjAddr: 0x2070, symBinAddr: 0x100015C70, symSize: 0x70 }
  - { offsetInCU: 0x1CFB3, offset: 0x6587D, size: 0x8, addend: 0x0, symName: __ZNKSt3__119__hash_map_iteratorINS_15__hash_iteratorIPNS_11__hash_nodeINS_17__hash_value_typeINS_12basic_stringIcNS_11char_traitsIcEENS_9allocatorIcEEEEiEEPvEEEEEptB7v160006Ev, symObjAddr: 0x20E0, symBinAddr: 0x100015CE0, symSize: 0x30 }
  - { offsetInCU: 0x1CFD9, offset: 0x658A3, size: 0x8, addend: 0x0, symName: __ZN6Fuzzer10SaveSampleEPNS_13ThreadContextEP6SamplejjS3_, symObjAddr: 0x2280, symBinAddr: 0x100015E60, symSize: 0x690 }
  - { offsetInCU: 0x1D117, offset: 0x659E1, size: 0x8, addend: 0x0, symName: __ZNSt3__16vectorI5RangeNS_9allocatorIS1_EEEC1B7v160006Ev, symObjAddr: 0x2910, symBinAddr: 0x1000164F0, symSize: 0x20 }
  - { offsetInCU: 0x1D141, offset: 0x65A0B, size: 0x8, addend: 0x0, symName: __ZN6Fuzzer16SampleQueueEntryC1Ev, symObjAddr: 0x29A0, symBinAddr: 0x100016510, symSize: 0x20 }
  - { offsetInCU: 0x1D16B, offset: 0x65A35, size: 0x8, addend: 0x0, symName: __ZNSt3__16vectorI5RangeNS_9allocatorIS1_EEEaSB7v160006ERKS4_, symObjAddr: 0x29C0, symBinAddr: 0x100016530, symSize: 0x60 }
  - { offsetInCU: 0x1D1A2, offset: 0x65A6C, size: 0x8, addend: 0x0, symName: __ZNSt3__16vectorIP6SampleNS_9allocatorIS2_EEE9push_backB7v160006ERKS2_, symObjAddr: 0x2A20, symBinAddr: 0x100016590, symSize: 0x60 }
  - { offsetInCU: 0x1D1D9, offset: 0x65AA3, size: 0x8, addend: 0x0, symName: __ZNSt3__16vectorIPN6Fuzzer16SampleQueueEntryENS_9allocatorIS3_EEE9push_backB7v160006ERKS3_, symObjAddr: 0x2A80, symBinAddr: 0x1000165F0, symSize: 0x60 }
  - { offsetInCU: 0x1D210, offset: 0x65ADA, size: 0x8, addend: 0x0, symName: __ZNSt3__114priority_queueIPN6Fuzzer16SampleQueueEntryENS_6vectorIS3_NS_9allocatorIS3_EEEENS1_12CmpEntryPtrsEE4pushERKS3_, symObjAddr: 0x2AE0, symBinAddr: 0x100016650, symSize: 0x50 }
  - { offsetInCU: 0x1D247, offset: 0x65B11, size: 0x8, addend: 0x0, symName: __ZNSt3__16vectorI5RangeNS_9allocatorIS1_EEED1B7v160006Ev, symObjAddr: 0x2B30, symBinAddr: 0x1000166A0, symSize: 0x20 }
  - { offsetInCU: 0x1D271, offset: 0x65B3B, size: 0x8, addend: 0x0, symName: __ZN6Fuzzer9RunSampleEPNS_13ThreadContextEP6SamplePibbjjS3_, symObjAddr: 0x2B50, symBinAddr: 0x1000166C0, symSize: 0x700 }
  - { offsetInCU: 0x1D3BC, offset: 0x65C86, size: 0x8, addend: 0x0, symName: __ZNKSt3__14listI14ModuleCoverageNS_9allocatorIS1_EEE5emptyB7v160006Ev, symObjAddr: 0x3250, symBinAddr: 0x100016DC0, symSize: 0x20 }
  - { offsetInCU: 0x1D3E2, offset: 0x65CAC, size: 0x8, addend: 0x0, symName: __ZNSt3__14listI14ModuleCoverageNS_9allocatorIS1_EEEC1ERKS4_, symObjAddr: 0x3270, symBinAddr: 0x100016DE0, symSize: 0x30 }
  - { offsetInCU: 0x1D41D, offset: 0x65CE7, size: 0x8, addend: 0x0, symName: __ZNSt3__14listI14ModuleCoverageNS_9allocatorIS1_EEEaSERKS4_, symObjAddr: 0x32A0, symBinAddr: 0x100016E10, symSize: 0x70 }
  - { offsetInCU: 0x1D454, offset: 0x65D1E, size: 0x8, addend: 0x0, symName: __ZN6Fuzzer17InterestingSampleEPNS_13ThreadContextEP6SamplePNSt3__14listI14ModuleCoverageNS4_9allocatorIS6_EEEESA_, symObjAddr: 0x3310, symBinAddr: 0x100016E80, symSize: 0x170 }
  - { offsetInCU: 0x1D4D9, offset: 0x65DA3, size: 0x8, addend: 0x0, symName: __ZN6Fuzzer14MinimizeSampleEPNS_13ThreadContextEP6SamplePNSt3__14listI14ModuleCoverageNS4_9allocatorIS6_EEEEjj, symObjAddr: 0x3480, symBinAddr: 0x100016FF0, symSize: 0x2A0 }
  - { offsetInCU: 0x1D5A1, offset: 0x65E6B, size: 0x8, addend: 0x0, symName: __ZN6Fuzzer20SynchronizeAndGetJobEPNS_13ThreadContextEPNS_9FuzzerJobE, symObjAddr: 0x3720, symBinAddr: 0x100017290, symSize: 0x8F0 }
  - { offsetInCU: 0x1D65D, offset: 0x65F27, size: 0x8, addend: 0x0, symName: __ZN6Fuzzer12RestoreStateEPNS_13ThreadContextE, symObjAddr: 0x4010, symBinAddr: 0x100017B80, symSize: 0x6B0 }
  - { offsetInCU: 0x1D728, offset: 0x65FF2, size: 0x8, addend: 0x0, symName: __ZN6Fuzzer9SaveStateEPNS_13ThreadContextE, symObjAddr: 0x46C0, symBinAddr: 0x100018230, symSize: 0x400 }
  - { offsetInCU: 0x1D7F5, offset: 0x660BF, size: 0x8, addend: 0x0, symName: __ZNSt3__16vectorIP6SampleNS_9allocatorIS2_EEE6resizeEm, symObjAddr: 0x4AE0, symBinAddr: 0x100018630, symSize: 0x80 }
  - { offsetInCU: 0x1D83B, offset: 0x66105, size: 0x8, addend: 0x0, symName: __ZNSt3__16vectorIP6SampleNS_9allocatorIS2_EEEixB7v160006Em, symObjAddr: 0x4B60, symBinAddr: 0x1000186B0, symSize: 0x20 }
  - { offsetInCU: 0x1D872, offset: 0x6613C, size: 0x8, addend: 0x0, symName: __ZNKSt3__14listINS_12basic_stringIcNS_11char_traitsIcEENS_9allocatorIcEEEENS4_IS6_EEE5emptyB7v160006Ev, symObjAddr: 0x4B80, symBinAddr: 0x1000186D0, symSize: 0x20 }
  - { offsetInCU: 0x1D898, offset: 0x66162, size: 0x8, addend: 0x0, symName: __ZNKSt3__14listIP6SampleNS_9allocatorIS2_EEE5emptyB7v160006Ev, symObjAddr: 0x4BA0, symBinAddr: 0x1000186F0, symSize: 0x20 }
  - { offsetInCU: 0x1D8BE, offset: 0x66188, size: 0x8, addend: 0x0, symName: __ZNKSt3__114priority_queueIPN6Fuzzer16SampleQueueEntryENS_6vectorIS3_NS_9allocatorIS3_EEEENS1_12CmpEntryPtrsEE4sizeB7v160006Ev, symObjAddr: 0x4BC0, symBinAddr: 0x100018710, symSize: 0x20 }
  - { offsetInCU: 0x1D8E4, offset: 0x661AE, size: 0x8, addend: 0x0, symName: __ZNKSt3__114priority_queueIPN6Fuzzer16SampleQueueEntryENS_6vectorIS3_NS_9allocatorIS3_EEEENS1_12CmpEntryPtrsEE5emptyB7v160006Ev, symObjAddr: 0x4BE0, symBinAddr: 0x100018730, symSize: 0x20 }
  - { offsetInCU: 0x1D90A, offset: 0x661D4, size: 0x8, addend: 0x0, symName: __ZNKSt3__114priority_queueIPN6Fuzzer16SampleQueueEntryENS_6vectorIS3_NS_9allocatorIS3_EEEENS1_12CmpEntryPtrsEE3topB7v160006Ev, symObjAddr: 0x4C00, symBinAddr: 0x100018750, symSize: 0x20 }
  - { offsetInCU: 0x1D930, offset: 0x661FA, size: 0x8, addend: 0x0, symName: __ZNSt3__114priority_queueIPN6Fuzzer16SampleQueueEntryENS_6vectorIS3_NS_9allocatorIS3_EEEENS1_12CmpEntryPtrsEE3popEv, symObjAddr: 0x4C20, symBinAddr: 0x100018770, symSize: 0x50 }
  - { offsetInCU: 0x1D958, offset: 0x66222, size: 0x8, addend: 0x0, symName: __ZNSt3__14listINS_12basic_stringIcNS_11char_traitsIcEENS_9allocatorIcEEEENS4_IS6_EEE5frontB7v160006Ev, symObjAddr: 0x4C70, symBinAddr: 0x1000187C0, symSize: 0x30 }
  - { offsetInCU: 0x1D97E, offset: 0x66248, size: 0x8, addend: 0x0, symName: __ZNSt3__14listINS_12basic_stringIcNS_11char_traitsIcEENS_9allocatorIcEEEENS4_IS6_EEE9pop_frontEv, symObjAddr: 0x4CA0, symBinAddr: 0x1000187F0, symSize: 0x90 }
  - { offsetInCU: 0x1D9D3, offset: 0x6629D, size: 0x8, addend: 0x0, symName: __ZNSt3__14listIP6SampleNS_9allocatorIS2_EEE5frontB7v160006Ev, symObjAddr: 0x4D30, symBinAddr: 0x100018880, symSize: 0x30 }
  - { offsetInCU: 0x1D9F9, offset: 0x662C3, size: 0x8, addend: 0x0, symName: __ZNSt3__14listIP6SampleNS_9allocatorIS2_EEE9pop_frontEv, symObjAddr: 0x4D60, symBinAddr: 0x1000188B0, symSize: 0x90 }
  - { offsetInCU: 0x1DA4E, offset: 0x66318, size: 0x8, addend: 0x0, symName: __ZN6Fuzzer7JobDoneEPNS_9FuzzerJobE, symObjAddr: 0x4DF0, symBinAddr: 0x100018940, symSize: 0xF0 }
  - { offsetInCU: 0x1DA86, offset: 0x66350, size: 0x8, addend: 0x0, symName: __ZN6Fuzzer7FuzzJobEPNS_13ThreadContextEPNS_9FuzzerJobE, symObjAddr: 0x4EE0, symBinAddr: 0x100018A30, symSize: 0x480 }
  - { offsetInCU: 0x1DB30, offset: 0x663FA, size: 0x8, addend: 0x0, symName: __ZN6Fuzzer13ProcessSampleEPNS_13ThreadContextEPNS_9FuzzerJobE, symObjAddr: 0x5360, symBinAddr: 0x100018EB0, symSize: 0x170 }
  - { offsetInCU: 0x1DB95, offset: 0x6645F, size: 0x8, addend: 0x0, symName: __ZN6Fuzzer12DumpCoverageEv, symObjAddr: 0x54D0, symBinAddr: 0x100019020, symSize: 0xF0 }
  - { offsetInCU: 0x1DBCD, offset: 0x66497, size: 0x8, addend: 0x0, symName: __ZNSt3__16vectorIPN6Fuzzer16SampleQueueEntryENS_9allocatorIS3_EEE5beginB7v160006Ev, symObjAddr: 0x55E0, symBinAddr: 0x100019110, symSize: 0x30 }
  - { offsetInCU: 0x1DBF5, offset: 0x664BF, size: 0x8, addend: 0x0, symName: __ZNSt3__16vectorIPN6Fuzzer16SampleQueueEntryENS_9allocatorIS3_EEE3endB7v160006Ev, symObjAddr: 0x5610, symBinAddr: 0x100019140, symSize: 0x30 }
  - { offsetInCU: 0x1DC1D, offset: 0x664E7, size: 0x8, addend: 0x0, symName: __ZNKSt3__111__wrap_iterIPPN6Fuzzer16SampleQueueEntryEEdeB7v160006Ev, symObjAddr: 0x5670, symBinAddr: 0x1000191A0, symSize: 0x20 }
  - { offsetInCU: 0x1DC43, offset: 0x6650D, size: 0x8, addend: 0x0, symName: __ZN6Fuzzer16SampleQueueEntry4SaveEP7__sFILE, symObjAddr: 0x5690, symBinAddr: 0x1000191C0, symSize: 0x170 }
  - { offsetInCU: 0x1DC99, offset: 0x66563, size: 0x8, addend: 0x0, symName: __ZNSt3__111__wrap_iterIPPN6Fuzzer16SampleQueueEntryEEppB7v160006Ev, symObjAddr: 0x5800, symBinAddr: 0x100019330, symSize: 0x20 }
  - { offsetInCU: 0x1DCBF, offset: 0x66589, size: 0x8, addend: 0x0, symName: __ZN6Fuzzer16SampleQueueEntry4LoadEP7__sFILE, symObjAddr: 0x5820, symBinAddr: 0x100019350, symSize: 0x190 }
  - { offsetInCU: 0x1DD24, offset: 0x665EE, size: 0x8, addend: 0x0, symName: __ZN6Fuzzer20AdjustSamplePriorityEPNS_13ThreadContextEPNS_16SampleQueueEntryEi, symObjAddr: 0x59B0, symBinAddr: 0x1000194E0, symSize: 0x50 }
  - { offsetInCU: 0x1DD7A, offset: 0x66644, size: 0x8, addend: 0x0, symName: __ZN6Fuzzer13ThreadContextC1Ev, symObjAddr: 0x5A00, symBinAddr: 0x100019530, symSize: 0x20 }
  - { offsetInCU: 0x1DDA6, offset: 0x66670, size: 0x8, addend: 0x0, symName: __ZN6Fuzzer17MagicOutputFilterEP6SampleS1_PKcm, symObjAddr: 0x5A20, symBinAddr: 0x100019550, symSize: 0xD0 }
  - { offsetInCU: 0x1DE28, offset: 0x666F2, size: 0x8, addend: 0x0, symName: __ZN6Fuzzer19ReplaceTargetCmdArgEPNS_13ThreadContextEPKcS3_, symObjAddr: 0x5AF0, symBinAddr: 0x100019620, symSize: 0xB0 }
  - { offsetInCU: 0x1DEB8, offset: 0x66782, size: 0x8, addend: 0x0, symName: __ZN6Fuzzer10CreatePRNGEiPPcPNS_13ThreadContextE, symObjAddr: 0x5BA0, symBinAddr: 0x1000196D0, symSize: 0x60 }
  - { offsetInCU: 0x1DF0E, offset: 0x667D8, size: 0x8, addend: 0x0, symName: __ZN6Fuzzer21CreateInstrumentationEiPPcPNS_13ThreadContextE, symObjAddr: 0x5C00, symBinAddr: 0x100019730, symSize: 0x80 }
  - { offsetInCU: 0x1E146, offset: 0x66A10, size: 0x8, addend: 0x0, symName: __ZN23TinyInstInstrumentationC1Ev, symObjAddr: 0x5C80, symBinAddr: 0x1000197B0, symSize: 0x20 }
  - { offsetInCU: 0x1E172, offset: 0x66A3C, size: 0x8, addend: 0x0, symName: __ZN6Fuzzer20CreateSampleDeliveryEiPPcPNS_13ThreadContextE, symObjAddr: 0x5CA0, symBinAddr: 0x1000197D0, symSize: 0x720 }
  - { offsetInCU: 0x1E2B0, offset: 0x66B7A, size: 0x8, addend: 0x0, symName: __ZN18FileSampleDeliveryC1Ev, symObjAddr: 0x6410, symBinAddr: 0x100019F40, symSize: 0x20 }
  - { offsetInCU: 0x1E2DC, offset: 0x66BA6, size: 0x8, addend: 0x0, symName: __ZN18FileSampleDelivery11SetFilenameENSt3__112basic_stringIcNS0_11char_traitsIcEENS0_9allocatorIcEEEE, symObjAddr: 0x6430, symBinAddr: 0x100019F60, symSize: 0x30 }
  - { offsetInCU: 0x1E311, offset: 0x66BDB, size: 0x8, addend: 0x0, symName: __ZN6Fuzzer18CreateRangeTrackerEiPPcPNS_13ThreadContextE, symObjAddr: 0x6460, symBinAddr: 0x100019F90, symSize: 0x2C0 }
  - { offsetInCU: 0x1E37D, offset: 0x66C47, size: 0x8, addend: 0x0, symName: __ZN12RangeTrackerC1Ev, symObjAddr: 0x6720, symBinAddr: 0x10001A250, symSize: 0x20 }
  - { offsetInCU: 0x1E3A7, offset: 0x66C71, size: 0x8, addend: 0x0, symName: __ZN6Fuzzer15CreateMinimizerEiPPcPNS_13ThreadContextE, symObjAddr: 0x6740, symBinAddr: 0x10001A270, symSize: 0x50 }
  - { offsetInCU: 0x1E4A1, offset: 0x66D6B, size: 0x8, addend: 0x0, symName: __ZN13SimpleTrimmerC1Ev, symObjAddr: 0x6790, symBinAddr: 0x10001A2C0, symSize: 0x20 }
  - { offsetInCU: 0x1E4CD, offset: 0x66D97, size: 0x8, addend: 0x0, symName: __ZN6Fuzzer12OutputFilterEP6SampleS1_PNS_13ThreadContextE, symObjAddr: 0x67B0, symBinAddr: 0x10001A2E0, symSize: 0x20 }
  - { offsetInCU: 0x1E523, offset: 0x66DED, size: 0x8, addend: 0x0, symName: __ZNKSt3__16vectorI5RangeNS_9allocatorIS1_EEE4sizeB7v160006Ev, symObjAddr: 0x6850, symBinAddr: 0x10001A300, symSize: 0x20 }
  - { offsetInCU: 0x1E549, offset: 0x66E13, size: 0x8, addend: 0x0, symName: __ZNSt3__16vectorI5RangeNS_9allocatorIS1_EEE4dataB7v160006Ev, symObjAddr: 0x6870, symBinAddr: 0x10001A320, symSize: 0x20 }
  - { offsetInCU: 0x1E56F, offset: 0x66E39, size: 0x8, addend: 0x0, symName: __ZNSt3__16vectorI5RangeNS_9allocatorIS1_EEE6resizeEm, symObjAddr: 0x6890, symBinAddr: 0x10001A340, symSize: 0x80 }
  - { offsetInCU: 0x1E5B5, offset: 0x66E7F, size: 0x8, addend: 0x0, symName: __ZN14CoverageClientC2Ev, symObjAddr: 0x6950, symBinAddr: 0x10001A3C0, symSize: 0x90 }
  - { offsetInCU: 0x1E5E5, offset: 0x66EAF, size: 0x8, addend: 0x0, symName: __ZN14CoverageServerC2Ev, symObjAddr: 0x73E0, symBinAddr: 0x10001A450, symSize: 0x180 }
  - { offsetInCU: 0x1E614, offset: 0x66EDE, size: 0x8, addend: 0x0, symName: __ZN14CoverageServer12ServerCorpusC1Ev, symObjAddr: 0x7560, symBinAddr: 0x10001A5D0, symSize: 0x20 }
  - { offsetInCU: 0x1E640, offset: 0x66F0A, size: 0x8, addend: 0x0, symName: __ZN14ReadWriteMutexC1Ev, symObjAddr: 0x7580, symBinAddr: 0x10001A5F0, symSize: 0x20 }
  - { offsetInCU: 0x1E66A, offset: 0x66F34, size: 0x8, addend: 0x0, symName: __ZN14ReadWriteMutexD1Ev, symObjAddr: 0x75C0, symBinAddr: 0x10001A610, symSize: 0x20 }
  - { offsetInCU: 0x1E694, offset: 0x66F5E, size: 0x8, addend: 0x0, symName: __ZN14CoverageServer12ServerCorpusD1Ev, symObjAddr: 0x7600, symBinAddr: 0x10001A630, symSize: 0x20 }
  - { offsetInCU: 0x1E6C0, offset: 0x66F8A, size: 0x8, addend: 0x0, symName: __ZN14CoverageServer12ServerCorpusC2Ev, symObjAddr: 0x7620, symBinAddr: 0x10001A650, symSize: 0x30 }
  - { offsetInCU: 0x1E6EC, offset: 0x66FB6, size: 0x8, addend: 0x0, symName: __ZNSt3__16vectorI6SampleNS_9allocatorIS1_EEEC1B7v160006Ev, symObjAddr: 0x7650, symBinAddr: 0x10001A680, symSize: 0x20 }
  - { offsetInCU: 0x1E716, offset: 0x66FE0, size: 0x8, addend: 0x0, symName: __ZNSt3__16vectorIN14CoverageServer14TimestampIndexENS_9allocatorIS2_EEEC1B7v160006Ev, symObjAddr: 0x7670, symBinAddr: 0x10001A6A0, symSize: 0x20 }
  - { offsetInCU: 0x1E740, offset: 0x6700A, size: 0x8, addend: 0x0, symName: __ZNSt3__16vectorI6SampleNS_9allocatorIS1_EEEC2B7v160006Ev, symObjAddr: 0x7690, symBinAddr: 0x10001A6C0, symSize: 0x60 }
  - { offsetInCU: 0x1E770, offset: 0x6703A, size: 0x8, addend: 0x0, symName: __ZNSt3__117__compressed_pairIP6SampleNS_9allocatorIS1_EEEC1B7v160006IDnNS_18__default_init_tagEEEOT_OT0_, symObjAddr: 0x76F0, symBinAddr: 0x10001A720, symSize: 0x30 }
  - { offsetInCU: 0x1E7C8, offset: 0x67092, size: 0x8, addend: 0x0, symName: __ZNSt3__117__compressed_pairIP6SampleNS_9allocatorIS1_EEEC2B7v160006IDnNS_18__default_init_tagEEEOT_OT0_, symObjAddr: 0x7730, symBinAddr: 0x10001A760, symSize: 0x40 }
  - { offsetInCU: 0x1E820, offset: 0x670EA, size: 0x8, addend: 0x0, symName: __ZNSt3__122__compressed_pair_elemIP6SampleLi0ELb0EEC2B7v160006IDnvEEOT_, symObjAddr: 0x7770, symBinAddr: 0x10001A7A0, symSize: 0x20 }
  - { offsetInCU: 0x1E862, offset: 0x6712C, size: 0x8, addend: 0x0, symName: __ZNSt3__122__compressed_pair_elemINS_9allocatorI6SampleEELi1ELb1EEC2B7v160006ENS_18__default_init_tagE, symObjAddr: 0x7790, symBinAddr: 0x10001A7C0, symSize: 0x20 }
  - { offsetInCU: 0x1E897, offset: 0x67161, size: 0x8, addend: 0x0, symName: __ZNSt3__19allocatorI6SampleEC2B7v160006Ev, symObjAddr: 0x77B0, symBinAddr: 0x10001A7E0, symSize: 0x20 }
  - { offsetInCU: 0x1E8C1, offset: 0x6718B, size: 0x8, addend: 0x0, symName: __ZNSt3__116__non_trivial_ifILb1ENS_9allocatorI6SampleEEEC2B7v160006Ev, symObjAddr: 0x77D0, symBinAddr: 0x10001A800, symSize: 0x10 }
  - { offsetInCU: 0x1E8EB, offset: 0x671B5, size: 0x8, addend: 0x0, symName: __ZNSt3__16vectorIN14CoverageServer14TimestampIndexENS_9allocatorIS2_EEEC2B7v160006Ev, symObjAddr: 0x77E0, symBinAddr: 0x10001A810, symSize: 0x60 }
  - { offsetInCU: 0x1E915, offset: 0x671DF, size: 0x8, addend: 0x0, symName: __ZNSt3__117__compressed_pairIPN14CoverageServer14TimestampIndexENS_9allocatorIS2_EEEC1B7v160006IDnNS_18__default_init_tagEEEOT_OT0_, symObjAddr: 0x7840, symBinAddr: 0x10001A870, symSize: 0x30 }
  - { offsetInCU: 0x1E96D, offset: 0x67237, size: 0x8, addend: 0x0, symName: __ZNSt3__117__compressed_pairIPN14CoverageServer14TimestampIndexENS_9allocatorIS2_EEEC2B7v160006IDnNS_18__default_init_tagEEEOT_OT0_, symObjAddr: 0x7880, symBinAddr: 0x10001A8B0, symSize: 0x40 }
  - { offsetInCU: 0x1E9C5, offset: 0x6728F, size: 0x8, addend: 0x0, symName: __ZNSt3__122__compressed_pair_elemIPN14CoverageServer14TimestampIndexELi0ELb0EEC2B7v160006IDnvEEOT_, symObjAddr: 0x78C0, symBinAddr: 0x10001A8F0, symSize: 0x20 }
  - { offsetInCU: 0x1EA07, offset: 0x672D1, size: 0x8, addend: 0x0, symName: __ZNSt3__122__compressed_pair_elemINS_9allocatorIN14CoverageServer14TimestampIndexEEELi1ELb1EEC2B7v160006ENS_18__default_init_tagE, symObjAddr: 0x78E0, symBinAddr: 0x10001A910, symSize: 0x20 }
  - { offsetInCU: 0x1EA3C, offset: 0x67306, size: 0x8, addend: 0x0, symName: __ZNSt3__19allocatorIN14CoverageServer14TimestampIndexEEC2B7v160006Ev, symObjAddr: 0x7900, symBinAddr: 0x10001A930, symSize: 0x20 }
  - { offsetInCU: 0x1EA66, offset: 0x67330, size: 0x8, addend: 0x0, symName: __ZNSt3__116__non_trivial_ifILb1ENS_9allocatorIN14CoverageServer14TimestampIndexEEEEC2B7v160006Ev, symObjAddr: 0x7920, symBinAddr: 0x10001A950, symSize: 0x10 }
  - { offsetInCU: 0x1EA90, offset: 0x6735A, size: 0x8, addend: 0x0, symName: __ZN14ReadWriteMutexC2Ev, symObjAddr: 0x7930, symBinAddr: 0x10001A960, symSize: 0x20 }
  - { offsetInCU: 0x1EABA, offset: 0x67384, size: 0x8, addend: 0x0, symName: __ZNSt3__112shared_mutexC1B7v160006Ev, symObjAddr: 0x7950, symBinAddr: 0x10001A980, symSize: 0x20 }
  - { offsetInCU: 0x1EAE4, offset: 0x673AE, size: 0x8, addend: 0x0, symName: __ZNSt3__112shared_mutexC2B7v160006Ev, symObjAddr: 0x7970, symBinAddr: 0x10001A9A0, symSize: 0x20 }
  - { offsetInCU: 0x1EB14, offset: 0x673DE, size: 0x8, addend: 0x0, symName: __ZN14ReadWriteMutexD2Ev, symObjAddr: 0x7F20, symBinAddr: 0x10001A9C0, symSize: 0x20 }
  - { offsetInCU: 0x1EB3E, offset: 0x67408, size: 0x8, addend: 0x0, symName: __ZNSt3__112shared_mutexD1B7v160006Ev, symObjAddr: 0x7F40, symBinAddr: 0x10001A9E0, symSize: 0x20 }
  - { offsetInCU: 0x1EB68, offset: 0x67432, size: 0x8, addend: 0x0, symName: __ZNSt3__112shared_mutexD2B7v160006Ev, symObjAddr: 0x7F60, symBinAddr: 0x10001AA00, symSize: 0x20 }
  - { offsetInCU: 0x1EB92, offset: 0x6745C, size: 0x8, addend: 0x0, symName: __ZNSt3__119__shared_mutex_baseD1B7v160006Ev, symObjAddr: 0x7F80, symBinAddr: 0x10001AA20, symSize: 0x20 }
  - { offsetInCU: 0x1EBBC, offset: 0x67486, size: 0x8, addend: 0x0, symName: __ZNSt3__119__shared_mutex_baseD2B7v160006Ev, symObjAddr: 0x7FA0, symBinAddr: 0x10001AA40, symSize: 0x40 }
  - { offsetInCU: 0x1EBE6, offset: 0x674B0, size: 0x8, addend: 0x0, symName: __ZN14CoverageServer12ServerCorpusD2Ev, symObjAddr: 0x8000, symBinAddr: 0x10001AA80, symSize: 0x30 }
  - { offsetInCU: 0x1EC12, offset: 0x674DC, size: 0x8, addend: 0x0, symName: __ZNSt3__16vectorIN14CoverageServer14TimestampIndexENS_9allocatorIS2_EEED1B7v160006Ev, symObjAddr: 0x8030, symBinAddr: 0x10001AAB0, symSize: 0x20 }
  - { offsetInCU: 0x1EC3C, offset: 0x67506, size: 0x8, addend: 0x0, symName: __ZNSt3__16vectorI6SampleNS_9allocatorIS1_EEED1B7v160006Ev, symObjAddr: 0x8050, symBinAddr: 0x10001AAD0, symSize: 0x20 }
  - { offsetInCU: 0x1EC66, offset: 0x67530, size: 0x8, addend: 0x0, symName: __ZNSt3__16vectorIN14CoverageServer14TimestampIndexENS_9allocatorIS2_EEED2B7v160006Ev, symObjAddr: 0x8070, symBinAddr: 0x10001AAF0, symSize: 0x40 }
  - { offsetInCU: 0x1EC90, offset: 0x6755A, size: 0x8, addend: 0x0, symName: __ZNSt3__16vectorIN14CoverageServer14TimestampIndexENS_9allocatorIS2_EEE16__destroy_vectorC1ERS5_, symObjAddr: 0x80B0, symBinAddr: 0x10001AB30, symSize: 0x30 }
  - { offsetInCU: 0x1ECC9, offset: 0x67593, size: 0x8, addend: 0x0, symName: __ZNSt3__16vectorIN14CoverageServer14TimestampIndexENS_9allocatorIS2_EEE16__destroy_vectorclB7v160006Ev, symObjAddr: 0x80E0, symBinAddr: 0x10001AB60, symSize: 0x90 }
  - { offsetInCU: 0x1ECEF, offset: 0x675B9, size: 0x8, addend: 0x0, symName: __ZNSt3__16vectorIN14CoverageServer14TimestampIndexENS_9allocatorIS2_EEE16__destroy_vectorC2ERS5_, symObjAddr: 0x8170, symBinAddr: 0x10001ABF0, symSize: 0x20 }
  - { offsetInCU: 0x1ED28, offset: 0x675F2, size: 0x8, addend: 0x0, symName: __ZNKSt3__16vectorIN14CoverageServer14TimestampIndexENS_9allocatorIS2_EEE17__annotate_deleteB7v160006Ev, symObjAddr: 0x8190, symBinAddr: 0x10001AC10, symSize: 0xB0 }
  - { offsetInCU: 0x1ED4E, offset: 0x67618, size: 0x8, addend: 0x0, symName: __ZNSt3__16vectorIN14CoverageServer14TimestampIndexENS_9allocatorIS2_EEE7__clearB7v160006Ev, symObjAddr: 0x8250, symBinAddr: 0x10001ACD0, symSize: 0x20 }
  - { offsetInCU: 0x1ED74, offset: 0x6763E, size: 0x8, addend: 0x0, symName: __ZNSt3__116allocator_traitsINS_9allocatorIN14CoverageServer14TimestampIndexEEEE10deallocateB7v160006ERS4_PS3_m, symObjAddr: 0x8270, symBinAddr: 0x10001ACF0, symSize: 0x30 }
  - { offsetInCU: 0x1EDB6, offset: 0x67680, size: 0x8, addend: 0x0, symName: __ZNSt3__16vectorIN14CoverageServer14TimestampIndexENS_9allocatorIS2_EEE7__allocB7v160006Ev, symObjAddr: 0x82A0, symBinAddr: 0x10001AD20, symSize: 0x20 }
  - { offsetInCU: 0x1EDDC, offset: 0x676A6, size: 0x8, addend: 0x0, symName: __ZNKSt3__16vectorIN14CoverageServer14TimestampIndexENS_9allocatorIS2_EEE8capacityB7v160006Ev, symObjAddr: 0x82C0, symBinAddr: 0x10001AD40, symSize: 0x30 }
  - { offsetInCU: 0x1EE02, offset: 0x676CC, size: 0x8, addend: 0x0, symName: __ZNKSt3__16vectorIN14CoverageServer14TimestampIndexENS_9allocatorIS2_EEE31__annotate_contiguous_containerB7v160006EPKvS7_S7_S7_, symObjAddr: 0x82F0, symBinAddr: 0x10001AD70, symSize: 0x20 }
  - { offsetInCU: 0x1EE54, offset: 0x6771E, size: 0x8, addend: 0x0, symName: __ZNKSt3__16vectorIN14CoverageServer14TimestampIndexENS_9allocatorIS2_EEE4dataB7v160006Ev, symObjAddr: 0x8310, symBinAddr: 0x10001AD90, symSize: 0x20 }
  - { offsetInCU: 0x1EE7A, offset: 0x67744, size: 0x8, addend: 0x0, symName: __ZNKSt3__16vectorIN14CoverageServer14TimestampIndexENS_9allocatorIS2_EEE4sizeB7v160006Ev, symObjAddr: 0x8330, symBinAddr: 0x10001ADB0, symSize: 0x20 }
  - { offsetInCU: 0x1EEA0, offset: 0x6776A, size: 0x8, addend: 0x0, symName: __ZNSt3__16vectorIN14CoverageServer14TimestampIndexENS_9allocatorIS2_EEE22__base_destruct_at_endB7v160006EPS2_, symObjAddr: 0x8360, symBinAddr: 0x10001ADE0, symSize: 0x80 }
  - { offsetInCU: 0x1EEE4, offset: 0x677AE, size: 0x8, addend: 0x0, symName: __ZNSt3__116allocator_traitsINS_9allocatorIN14CoverageServer14TimestampIndexEEEE7destroyB7v160006IS3_vEEvRS4_PT_, symObjAddr: 0x83E0, symBinAddr: 0x10001AE60, symSize: 0x30 }
  - { offsetInCU: 0x1EF21, offset: 0x677EB, size: 0x8, addend: 0x0, symName: __ZNSt3__19allocatorIN14CoverageServer14TimestampIndexEE7destroyB7v160006EPS2_, symObjAddr: 0x8410, symBinAddr: 0x10001AE90, symSize: 0x10 }
  - { offsetInCU: 0x1EF55, offset: 0x6781F, size: 0x8, addend: 0x0, symName: __ZNSt3__19allocatorIN14CoverageServer14TimestampIndexEE10deallocateB7v160006EPS2_m, symObjAddr: 0x8420, symBinAddr: 0x10001AEA0, symSize: 0x40 }
  - { offsetInCU: 0x1EF97, offset: 0x67861, size: 0x8, addend: 0x0, symName: __ZNSt3__117__compressed_pairIPN14CoverageServer14TimestampIndexENS_9allocatorIS2_EEE6secondB7v160006Ev, symObjAddr: 0x8460, symBinAddr: 0x10001AEE0, symSize: 0x20 }
  - { offsetInCU: 0x1EFBD, offset: 0x67887, size: 0x8, addend: 0x0, symName: __ZNSt3__122__compressed_pair_elemINS_9allocatorIN14CoverageServer14TimestampIndexEEELi1ELb1EE5__getB7v160006Ev, symObjAddr: 0x8480, symBinAddr: 0x10001AF00, symSize: 0x10 }
  - { offsetInCU: 0x1EFE3, offset: 0x678AD, size: 0x8, addend: 0x0, symName: __ZNKSt3__16vectorIN14CoverageServer14TimestampIndexENS_9allocatorIS2_EEE9__end_capB7v160006Ev, symObjAddr: 0x8490, symBinAddr: 0x10001AF10, symSize: 0x20 }
  - { offsetInCU: 0x1F009, offset: 0x678D3, size: 0x8, addend: 0x0, symName: __ZNKSt3__117__compressed_pairIPN14CoverageServer14TimestampIndexENS_9allocatorIS2_EEE5firstB7v160006Ev, symObjAddr: 0x84B0, symBinAddr: 0x10001AF30, symSize: 0x20 }
  - { offsetInCU: 0x1F02F, offset: 0x678F9, size: 0x8, addend: 0x0, symName: __ZNKSt3__122__compressed_pair_elemIPN14CoverageServer14TimestampIndexELi0ELb0EE5__getB7v160006Ev, symObjAddr: 0x84D0, symBinAddr: 0x10001AF50, symSize: 0x10 }
  - { offsetInCU: 0x1F055, offset: 0x6791F, size: 0x8, addend: 0x0, symName: __ZNSt3__16vectorI6SampleNS_9allocatorIS1_EEED2B7v160006Ev, symObjAddr: 0x84E0, symBinAddr: 0x10001AF60, symSize: 0x40 }
  - { offsetInCU: 0x1F07F, offset: 0x67949, size: 0x8, addend: 0x0, symName: __ZNSt3__16vectorI6SampleNS_9allocatorIS1_EEE16__destroy_vectorC1ERS4_, symObjAddr: 0x8520, symBinAddr: 0x10001AFA0, symSize: 0x30 }
  - { offsetInCU: 0x1F0B8, offset: 0x67982, size: 0x8, addend: 0x0, symName: __ZNSt3__16vectorI6SampleNS_9allocatorIS1_EEE16__destroy_vectorclB7v160006Ev, symObjAddr: 0x8550, symBinAddr: 0x10001AFD0, symSize: 0x90 }
  - { offsetInCU: 0x1F0DE, offset: 0x679A8, size: 0x8, addend: 0x0, symName: __ZNSt3__16vectorI6SampleNS_9allocatorIS1_EEE16__destroy_vectorC2ERS4_, symObjAddr: 0x85E0, symBinAddr: 0x10001B060, symSize: 0x20 }
  - { offsetInCU: 0x1F117, offset: 0x679E1, size: 0x8, addend: 0x0, symName: __ZNKSt3__16vectorI6SampleNS_9allocatorIS1_EEE17__annotate_deleteB7v160006Ev, symObjAddr: 0x8600, symBinAddr: 0x10001B080, symSize: 0xB0 }
  - { offsetInCU: 0x1F13D, offset: 0x67A07, size: 0x8, addend: 0x0, symName: __ZNSt3__16vectorI6SampleNS_9allocatorIS1_EEE7__clearB7v160006Ev, symObjAddr: 0x86C0, symBinAddr: 0x10001B140, symSize: 0x20 }
  - { offsetInCU: 0x1F163, offset: 0x67A2D, size: 0x8, addend: 0x0, symName: __ZNSt3__116allocator_traitsINS_9allocatorI6SampleEEE10deallocateB7v160006ERS3_PS2_m, symObjAddr: 0x86E0, symBinAddr: 0x10001B160, symSize: 0x30 }
  - { offsetInCU: 0x1F1A5, offset: 0x67A6F, size: 0x8, addend: 0x0, symName: __ZNSt3__16vectorI6SampleNS_9allocatorIS1_EEE7__allocB7v160006Ev, symObjAddr: 0x8710, symBinAddr: 0x10001B190, symSize: 0x20 }
  - { offsetInCU: 0x1F1CB, offset: 0x67A95, size: 0x8, addend: 0x0, symName: __ZNKSt3__16vectorI6SampleNS_9allocatorIS1_EEE8capacityB7v160006Ev, symObjAddr: 0x8730, symBinAddr: 0x10001B1B0, symSize: 0x40 }
  - { offsetInCU: 0x1F1F1, offset: 0x67ABB, size: 0x8, addend: 0x0, symName: __ZNKSt3__16vectorI6SampleNS_9allocatorIS1_EEE31__annotate_contiguous_containerB7v160006EPKvS6_S6_S6_, symObjAddr: 0x8770, symBinAddr: 0x10001B1F0, symSize: 0x20 }
  - { offsetInCU: 0x1F243, offset: 0x67B0D, size: 0x8, addend: 0x0, symName: __ZNKSt3__16vectorI6SampleNS_9allocatorIS1_EEE4dataB7v160006Ev, symObjAddr: 0x8790, symBinAddr: 0x10001B210, symSize: 0x20 }
  - { offsetInCU: 0x1F269, offset: 0x67B33, size: 0x8, addend: 0x0, symName: __ZNKSt3__16vectorI6SampleNS_9allocatorIS1_EEE4sizeB7v160006Ev, symObjAddr: 0x87B0, symBinAddr: 0x10001B230, symSize: 0x30 }
  - { offsetInCU: 0x1F28F, offset: 0x67B59, size: 0x8, addend: 0x0, symName: __ZNSt3__16vectorI6SampleNS_9allocatorIS1_EEE22__base_destruct_at_endB7v160006EPS1_, symObjAddr: 0x87F0, symBinAddr: 0x10001B270, symSize: 0x80 }
  - { offsetInCU: 0x1F2D3, offset: 0x67B9D, size: 0x8, addend: 0x0, symName: __ZNSt3__116allocator_traitsINS_9allocatorI6SampleEEE7destroyB7v160006IS2_vEEvRS3_PT_, symObjAddr: 0x8870, symBinAddr: 0x10001B2F0, symSize: 0x30 }
  - { offsetInCU: 0x1F310, offset: 0x67BDA, size: 0x8, addend: 0x0, symName: __ZNSt3__19allocatorI6SampleE7destroyB7v160006EPS1_, symObjAddr: 0x88A0, symBinAddr: 0x10001B320, symSize: 0x20 }
  - { offsetInCU: 0x1F344, offset: 0x67C0E, size: 0x8, addend: 0x0, symName: __ZNSt3__19allocatorI6SampleE10deallocateB7v160006EPS1_m, symObjAddr: 0x88C0, symBinAddr: 0x10001B340, symSize: 0x50 }
  - { offsetInCU: 0x1F386, offset: 0x67C50, size: 0x8, addend: 0x0, symName: __ZNSt3__117__compressed_pairIP6SampleNS_9allocatorIS1_EEE6secondB7v160006Ev, symObjAddr: 0x8910, symBinAddr: 0x10001B390, symSize: 0x20 }
  - { offsetInCU: 0x1F3AC, offset: 0x67C76, size: 0x8, addend: 0x0, symName: __ZNSt3__122__compressed_pair_elemINS_9allocatorI6SampleEELi1ELb1EE5__getB7v160006Ev, symObjAddr: 0x8930, symBinAddr: 0x10001B3B0, symSize: 0x10 }
  - { offsetInCU: 0x1F3D2, offset: 0x67C9C, size: 0x8, addend: 0x0, symName: __ZNKSt3__16vectorI6SampleNS_9allocatorIS1_EEE9__end_capB7v160006Ev, symObjAddr: 0x8940, symBinAddr: 0x10001B3C0, symSize: 0x20 }
  - { offsetInCU: 0x1F3F8, offset: 0x67CC2, size: 0x8, addend: 0x0, symName: __ZNKSt3__117__compressed_pairIP6SampleNS_9allocatorIS1_EEE5firstB7v160006Ev, symObjAddr: 0x8960, symBinAddr: 0x10001B3E0, symSize: 0x20 }
  - { offsetInCU: 0x1F41E, offset: 0x67CE8, size: 0x8, addend: 0x0, symName: __ZNKSt3__122__compressed_pair_elemIP6SampleLi0ELb0EE5__getB7v160006Ev, symObjAddr: 0x8980, symBinAddr: 0x10001B400, symSize: 0x10 }
  - { offsetInCU: 0x1F444, offset: 0x67D0E, size: 0x8, addend: 0x0, symName: __ZN14CoverageServerD2Ev, symObjAddr: 0x8990, symBinAddr: 0x10001B410, symSize: 0xB0 }
  - { offsetInCU: 0x1F470, offset: 0x67D3A, size: 0x8, addend: 0x0, symName: __ZN6Fuzzer16SampleQueueEntryC2Ev, symObjAddr: 0x8FF0, symBinAddr: 0x10001B4C0, symSize: 0x80 }
  - { offsetInCU: 0x1F49A, offset: 0x67D64, size: 0x8, addend: 0x0, symName: __ZNKSt3__111__wrap_iterIPPN6Fuzzer16SampleQueueEntryEE4baseB7v160006Ev, symObjAddr: 0x90B0, symBinAddr: 0x10001B580, symSize: 0x20 }
  - { offsetInCU: 0x1F4C0, offset: 0x67D8A, size: 0x8, addend: 0x0, symName: __ZN6Fuzzer13ThreadContextC2Ev, symObjAddr: 0x90D0, symBinAddr: 0x10001B5A0, symSize: 0x30 }
  - { offsetInCU: 0x1F4EC, offset: 0x67DB6, size: 0x8, addend: 0x0, symName: __ZN23TinyInstInstrumentationC2Ev, symObjAddr: 0x9270, symBinAddr: 0x10001B5D0, symSize: 0x40 }
  - { offsetInCU: 0x1F518, offset: 0x67DE2, size: 0x8, addend: 0x0, symName: __ZN15InstrumentationC2Ev, symObjAddr: 0x92B0, symBinAddr: 0x10001B610, symSize: 0x20 }
  - { offsetInCU: 0x1F544, offset: 0x67E0E, size: 0x8, addend: 0x0, symName: __ZN15InstrumentationD1Ev, symObjAddr: 0x92D0, symBinAddr: 0x10001B630, symSize: 0x10 }
  - { offsetInCU: 0x1F56E, offset: 0x67E38, size: 0x8, addend: 0x0, symName: __ZN15InstrumentationD0Ev, symObjAddr: 0x92E0, symBinAddr: 0x10001B640, symSize: 0x10 }
  - { offsetInCU: 0x1F598, offset: 0x67E62, size: 0x8, addend: 0x0, symName: __ZN15Instrumentation20RunWithCrashAnalysisEiPPcjj, symObjAddr: 0x92F0, symBinAddr: 0x10001B650, symSize: 0x40 }
  - { offsetInCU: 0x1F5F6, offset: 0x67EC0, size: 0x8, addend: 0x0, symName: __ZN15Instrumentation12GetCrashNameEv, symObjAddr: 0x9330, symBinAddr: 0x10001B690, symSize: 0x30 }
  - { offsetInCU: 0x1F61C, offset: 0x67EE6, size: 0x8, addend: 0x0, symName: __ZN15Instrumentation14GetReturnValueEv, symObjAddr: 0x9360, symBinAddr: 0x10001B6C0, symSize: 0x10 }
  - { offsetInCU: 0x1F642, offset: 0x67F0C, size: 0x8, addend: 0x0, symName: __ZN18FileSampleDeliveryC2Ev, symObjAddr: 0x9370, symBinAddr: 0x10001B6D0, symSize: 0x40 }
  - { offsetInCU: 0x1F66E, offset: 0x67F38, size: 0x8, addend: 0x0, symName: __ZN14SampleDeliveryC2Ev, symObjAddr: 0x93B0, symBinAddr: 0x10001B710, symSize: 0x20 }
  - { offsetInCU: 0x1F69A, offset: 0x67F64, size: 0x8, addend: 0x0, symName: __ZN14SampleDeliveryD1Ev, symObjAddr: 0x93D0, symBinAddr: 0x10001B730, symSize: 0x10 }
  - { offsetInCU: 0x1F6C4, offset: 0x67F8E, size: 0x8, addend: 0x0, symName: __ZN14SampleDeliveryD0Ev, symObjAddr: 0x93E0, symBinAddr: 0x10001B740, symSize: 0x10 }
  - { offsetInCU: 0x1F6EE, offset: 0x67FB8, size: 0x8, addend: 0x0, symName: __ZN14SampleDelivery4InitEiPPc, symObjAddr: 0x93F0, symBinAddr: 0x10001B750, symSize: 0x20 }
  - { offsetInCU: 0x1F730, offset: 0x67FFA, size: 0x8, addend: 0x0, symName: __ZN12RangeTrackerC2Ev, symObjAddr: 0x9410, symBinAddr: 0x10001B770, symSize: 0x20 }
  - { offsetInCU: 0x1F75A, offset: 0x68024, size: 0x8, addend: 0x0, symName: __ZN12RangeTrackerD1Ev, symObjAddr: 0x9430, symBinAddr: 0x10001B790, symSize: 0x20 }
  - { offsetInCU: 0x1F784, offset: 0x6804E, size: 0x8, addend: 0x0, symName: __ZN12RangeTrackerD0Ev, symObjAddr: 0x9450, symBinAddr: 0x10001B7B0, symSize: 0x30 }
  - { offsetInCU: 0x1F7AE, offset: 0x68078, size: 0x8, addend: 0x0, symName: __ZN12RangeTracker13ExtractRangesEPNSt3__16vectorI5RangeNS0_9allocatorIS2_EEEE, symObjAddr: 0x9480, symBinAddr: 0x10001B7E0, symSize: 0x10 }
  - { offsetInCU: 0x1F7E2, offset: 0x680AC, size: 0x8, addend: 0x0, symName: __ZN12RangeTrackerD2Ev, symObjAddr: 0x9490, symBinAddr: 0x10001B7F0, symSize: 0x10 }
  - { offsetInCU: 0x1F80C, offset: 0x680D6, size: 0x8, addend: 0x0, symName: __ZN13SimpleTrimmerC2Ev, symObjAddr: 0x94A0, symBinAddr: 0x10001B800, symSize: 0x40 }
  - { offsetInCU: 0x1F838, offset: 0x68102, size: 0x8, addend: 0x0, symName: __ZNSt3__16vectorI5RangeNS_9allocatorIS1_EEEC2B7v160006Ev, symObjAddr: 0x9620, symBinAddr: 0x10001B840, symSize: 0x60 }
  - { offsetInCU: 0x1F862, offset: 0x6812C, size: 0x8, addend: 0x0, symName: __ZNSt3__117__compressed_pairIP5RangeNS_9allocatorIS1_EEEC1B7v160006IDnNS_18__default_init_tagEEEOT_OT0_, symObjAddr: 0x9680, symBinAddr: 0x10001B8A0, symSize: 0x30 }
  - { offsetInCU: 0x1F8BA, offset: 0x68184, size: 0x8, addend: 0x0, symName: __ZNSt3__117__compressed_pairIP5RangeNS_9allocatorIS1_EEEC2B7v160006IDnNS_18__default_init_tagEEEOT_OT0_, symObjAddr: 0x96C0, symBinAddr: 0x10001B8E0, symSize: 0x40 }
  - { offsetInCU: 0x1F912, offset: 0x681DC, size: 0x8, addend: 0x0, symName: __ZNSt3__122__compressed_pair_elemIP5RangeLi0ELb0EEC2B7v160006IDnvEEOT_, symObjAddr: 0x9700, symBinAddr: 0x10001B920, symSize: 0x20 }
  - { offsetInCU: 0x1F954, offset: 0x6821E, size: 0x8, addend: 0x0, symName: __ZNSt3__122__compressed_pair_elemINS_9allocatorI5RangeEELi1ELb1EEC2B7v160006ENS_18__default_init_tagE, symObjAddr: 0x9720, symBinAddr: 0x10001B940, symSize: 0x20 }
  - { offsetInCU: 0x1F989, offset: 0x68253, size: 0x8, addend: 0x0, symName: __ZNSt3__19allocatorI5RangeEC2B7v160006Ev, symObjAddr: 0x9740, symBinAddr: 0x10001B960, symSize: 0x20 }
  - { offsetInCU: 0x1F9B3, offset: 0x6827D, size: 0x8, addend: 0x0, symName: __ZNSt3__116__non_trivial_ifILb1ENS_9allocatorI5RangeEEEC2B7v160006Ev, symObjAddr: 0x9760, symBinAddr: 0x10001B980, symSize: 0x10 }
  - { offsetInCU: 0x1F9DD, offset: 0x682A7, size: 0x8, addend: 0x0, symName: __ZNSt3__16vectorI5RangeNS_9allocatorIS1_EEED2B7v160006Ev, symObjAddr: 0x9770, symBinAddr: 0x10001B990, symSize: 0x40 }
  - { offsetInCU: 0x1FA07, offset: 0x682D1, size: 0x8, addend: 0x0, symName: __ZNSt3__16vectorI5RangeNS_9allocatorIS1_EEE16__destroy_vectorC1ERS4_, symObjAddr: 0x97B0, symBinAddr: 0x10001B9D0, symSize: 0x30 }
  - { offsetInCU: 0x1FA40, offset: 0x6830A, size: 0x8, addend: 0x0, symName: __ZNSt3__16vectorI5RangeNS_9allocatorIS1_EEE16__destroy_vectorclB7v160006Ev, symObjAddr: 0x97E0, symBinAddr: 0x10001BA00, symSize: 0x90 }
  - { offsetInCU: 0x1FA66, offset: 0x68330, size: 0x8, addend: 0x0, symName: __ZNSt3__16vectorI5RangeNS_9allocatorIS1_EEE16__destroy_vectorC2ERS4_, symObjAddr: 0x9870, symBinAddr: 0x10001BA90, symSize: 0x20 }
  - { offsetInCU: 0x1FA9F, offset: 0x68369, size: 0x8, addend: 0x0, symName: __ZNKSt3__16vectorI5RangeNS_9allocatorIS1_EEE17__annotate_deleteB7v160006Ev, symObjAddr: 0x9890, symBinAddr: 0x10001BAB0, symSize: 0xB0 }
  - { offsetInCU: 0x1FAC5, offset: 0x6838F, size: 0x8, addend: 0x0, symName: __ZNSt3__16vectorI5RangeNS_9allocatorIS1_EEE7__clearB7v160006Ev, symObjAddr: 0x9950, symBinAddr: 0x10001BB70, symSize: 0x20 }
  - { offsetInCU: 0x1FAEB, offset: 0x683B5, size: 0x8, addend: 0x0, symName: __ZNSt3__116allocator_traitsINS_9allocatorI5RangeEEE10deallocateB7v160006ERS3_PS2_m, symObjAddr: 0x9970, symBinAddr: 0x10001BB90, symSize: 0x30 }
  - { offsetInCU: 0x1FB2D, offset: 0x683F7, size: 0x8, addend: 0x0, symName: __ZNSt3__16vectorI5RangeNS_9allocatorIS1_EEE7__allocB7v160006Ev, symObjAddr: 0x99A0, symBinAddr: 0x10001BBC0, symSize: 0x20 }
  - { offsetInCU: 0x1FB53, offset: 0x6841D, size: 0x8, addend: 0x0, symName: __ZNKSt3__16vectorI5RangeNS_9allocatorIS1_EEE8capacityB7v160006Ev, symObjAddr: 0x99C0, symBinAddr: 0x10001BBE0, symSize: 0x30 }
  - { offsetInCU: 0x1FB79, offset: 0x68443, size: 0x8, addend: 0x0, symName: __ZNKSt3__16vectorI5RangeNS_9allocatorIS1_EEE31__annotate_contiguous_containerB7v160006EPKvS6_S6_S6_, symObjAddr: 0x99F0, symBinAddr: 0x10001BC10, symSize: 0x20 }
  - { offsetInCU: 0x1FBCB, offset: 0x68495, size: 0x8, addend: 0x0, symName: __ZNKSt3__16vectorI5RangeNS_9allocatorIS1_EEE4dataB7v160006Ev, symObjAddr: 0x9A10, symBinAddr: 0x10001BC30, symSize: 0x20 }
  - { offsetInCU: 0x1FBF1, offset: 0x684BB, size: 0x8, addend: 0x0, symName: __ZNSt3__16vectorI5RangeNS_9allocatorIS1_EEE22__base_destruct_at_endB7v160006EPS1_, symObjAddr: 0x9A40, symBinAddr: 0x10001BC60, symSize: 0x80 }
  - { offsetInCU: 0x1FC35, offset: 0x684FF, size: 0x8, addend: 0x0, symName: __ZNSt3__116allocator_traitsINS_9allocatorI5RangeEEE7destroyB7v160006IS2_vEEvRS3_PT_, symObjAddr: 0x9AC0, symBinAddr: 0x10001BCE0, symSize: 0x30 }
  - { offsetInCU: 0x1FC72, offset: 0x6853C, size: 0x8, addend: 0x0, symName: __ZNSt3__19allocatorI5RangeE7destroyB7v160006EPS1_, symObjAddr: 0x9AF0, symBinAddr: 0x10001BD10, symSize: 0x10 }
  - { offsetInCU: 0x1FCA6, offset: 0x68570, size: 0x8, addend: 0x0, symName: __ZNSt3__19allocatorI5RangeE10deallocateB7v160006EPS1_m, symObjAddr: 0x9B00, symBinAddr: 0x10001BD20, symSize: 0x40 }
  - { offsetInCU: 0x1FCE8, offset: 0x685B2, size: 0x8, addend: 0x0, symName: __ZNSt3__117__compressed_pairIP5RangeNS_9allocatorIS1_EEE6secondB7v160006Ev, symObjAddr: 0x9B40, symBinAddr: 0x10001BD60, symSize: 0x20 }
  - { offsetInCU: 0x1FD0E, offset: 0x685D8, size: 0x8, addend: 0x0, symName: __ZNSt3__122__compressed_pair_elemINS_9allocatorI5RangeEELi1ELb1EE5__getB7v160006Ev, symObjAddr: 0x9B60, symBinAddr: 0x10001BD80, symSize: 0x10 }
  - { offsetInCU: 0x1FD34, offset: 0x685FE, size: 0x8, addend: 0x0, symName: __ZNKSt3__16vectorI5RangeNS_9allocatorIS1_EEE9__end_capB7v160006Ev, symObjAddr: 0x9B70, symBinAddr: 0x10001BD90, symSize: 0x20 }
  - { offsetInCU: 0x1FD5A, offset: 0x68624, size: 0x8, addend: 0x0, symName: __ZNKSt3__117__compressed_pairIP5RangeNS_9allocatorIS1_EEE5firstB7v160006Ev, symObjAddr: 0x9B90, symBinAddr: 0x10001BDB0, symSize: 0x20 }
  - { offsetInCU: 0x1FD80, offset: 0x6864A, size: 0x8, addend: 0x0, symName: __ZNKSt3__122__compressed_pair_elemIP5RangeLi0ELb0EE5__getB7v160006Ev, symObjAddr: 0x9BB0, symBinAddr: 0x10001BDD0, symSize: 0x10 }
  - { offsetInCU: 0x1FDA6, offset: 0x68670, size: 0x8, addend: 0x0, symName: __ZNSt3__110__list_impI14ModuleCoverageNS_9allocatorIS1_EEE5beginB7v160006Ev, symObjAddr: 0xA570, symBinAddr: 0x10001BDE0, symSize: 0x30 }
  - { offsetInCU: 0x1FDCC, offset: 0x68696, size: 0x8, addend: 0x0, symName: __ZNSt3__115__list_iteratorI14ModuleCoveragePvEC1B7v160006EPNS_16__list_node_baseIS1_S2_EEPKv, symObjAddr: 0xA5A0, symBinAddr: 0x10001BE10, symSize: 0x30 }
  - { offsetInCU: 0x1FE14, offset: 0x686DE, size: 0x8, addend: 0x0, symName: __ZNSt3__115__list_iteratorI14ModuleCoveragePvEC2B7v160006EPNS_16__list_node_baseIS1_S2_EEPKv, symObjAddr: 0xA5D0, symBinAddr: 0x10001BE40, symSize: 0x20 }
  - { offsetInCU: 0x1FE5C, offset: 0x68726, size: 0x8, addend: 0x0, symName: __ZNSt3__110__list_impI14ModuleCoverageNS_9allocatorIS1_EEE3endB7v160006Ev, symObjAddr: 0xA5F0, symBinAddr: 0x10001BE60, symSize: 0x40 }
  - { offsetInCU: 0x1FE82, offset: 0x6874C, size: 0x8, addend: 0x0, symName: __ZNSt3__115__list_iteratorI14ModuleCoveragePvEppB7v160006Ev, symObjAddr: 0xA660, symBinAddr: 0x10001BED0, symSize: 0x20 }
  - { offsetInCU: 0x1FEA8, offset: 0x68772, size: 0x8, addend: 0x0, symName: __ZNSt3__114pointer_traitsIP14ModuleCoverageE10pointer_toB7v160006ERS1_, symObjAddr: 0xA680, symBinAddr: 0x10001BEF0, symSize: 0x10 }
  - { offsetInCU: 0x1FECB, offset: 0x68795, size: 0x8, addend: 0x0, symName: __ZNKSt3__16__treeIyNS_4lessIyEENS_9allocatorIyEEE4sizeB7v160006Ev, symObjAddr: 0xA690, symBinAddr: 0x10001BF00, symSize: 0x20 }
  - { offsetInCU: 0x1FEF1, offset: 0x687BB, size: 0x8, addend: 0x0, symName: __ZNKSt3__117__compressed_pairImNS_4lessIyEEE5firstB7v160006Ev, symObjAddr: 0xA6B0, symBinAddr: 0x10001BF20, symSize: 0x20 }
  - { offsetInCU: 0x1FF17, offset: 0x687E1, size: 0x8, addend: 0x0, symName: __ZNSt3__112__hash_tableINS_17__hash_value_typeINS_12basic_stringIcNS_11char_traitsIcEENS_9allocatorIcEEEEiEENS_22__unordered_map_hasherIS7_S8_NS_4hashIS7_EENS_8equal_toIS7_EELb1EEENS_21__unordered_map_equalIS7_S8_SD_SB_Lb1EEENS5_IS8_EEE4findIS7_EENS_15__hash_iteratorIPNS_11__hash_nodeIS8_PvEEEERKT_, symObjAddr: 0xA6D0, symBinAddr: 0x10001BF40, symSize: 0x180 }
  - { offsetInCU: 0x1FFA1, offset: 0x6886B, size: 0x8, addend: 0x0, symName: __ZNSt3__119__hash_map_iteratorINS_15__hash_iteratorIPNS_11__hash_nodeINS_17__hash_value_typeINS_12basic_stringIcNS_11char_traitsIcEENS_9allocatorIcEEEEiEEPvEEEEEC1B7v160006ESE_, symObjAddr: 0xA850, symBinAddr: 0x10001C0C0, symSize: 0x30 }
  - { offsetInCU: 0x1FFDA, offset: 0x688A4, size: 0x8, addend: 0x0, symName: __ZNSt3__112__hash_tableINS_17__hash_value_typeINS_12basic_stringIcNS_11char_traitsIcEENS_9allocatorIcEEEEiEENS_22__unordered_map_hasherIS7_S8_NS_4hashIS7_EENS_8equal_toIS7_EELb1EEENS_21__unordered_map_equalIS7_S8_SD_SB_Lb1EEENS5_IS8_EEE13hash_functionB7v160006Ev, symObjAddr: 0xA880, symBinAddr: 0x10001C0F0, symSize: 0x20 }
  - { offsetInCU: 0x20000, offset: 0x688CA, size: 0x8, addend: 0x0, symName: __ZNKSt3__122__unordered_map_hasherINS_12basic_stringIcNS_11char_traitsIcEENS_9allocatorIcEEEENS_17__hash_value_typeIS6_iEENS_4hashIS6_EENS_8equal_toIS6_EELb1EEclB7v160006ERKS6_, symObjAddr: 0xA8A0, symBinAddr: 0x10001C110, symSize: 0x30 }
  - { offsetInCU: 0x20035, offset: 0x688FF, size: 0x8, addend: 0x0, symName: __ZNKSt3__112__hash_tableINS_17__hash_value_typeINS_12basic_stringIcNS_11char_traitsIcEENS_9allocatorIcEEEEiEENS_22__unordered_map_hasherIS7_S8_NS_4hashIS7_EENS_8equal_toIS7_EELb1EEENS_21__unordered_map_equalIS7_S8_SD_SB_Lb1EEENS5_IS8_EEE12bucket_countB7v160006Ev, symObjAddr: 0xA8D0, symBinAddr: 0x10001C140, symSize: 0x30 }
  - { offsetInCU: 0x2005B, offset: 0x68925, size: 0x8, addend: 0x0, symName: __ZNKSt3__110unique_ptrIA_PNS_16__hash_node_baseIPNS_11__hash_nodeINS_17__hash_value_typeINS_12basic_stringIcNS_11char_traitsIcEENS_9allocatorIcEEEEiEEPvEEEENS_25__bucket_list_deallocatorINS7_ISF_EEEEEixB7v160006Em, symObjAddr: 0xA980, symBinAddr: 0x10001C1F0, symSize: 0x30 }
  - { offsetInCU: 0x20090, offset: 0x6895A, size: 0x8, addend: 0x0, symName: __ZNKSt3__116__hash_node_baseIPNS_11__hash_nodeINS_17__hash_value_typeINS_12basic_stringIcNS_11char_traitsIcEENS_9allocatorIcEEEEiEEPvEEE6__hashB7v160006Ev, symObjAddr: 0xA9B0, symBinAddr: 0x10001C220, symSize: 0x20 }
  - { offsetInCU: 0x200B6, offset: 0x68980, size: 0x8, addend: 0x0, symName: __ZNSt3__112__hash_tableINS_17__hash_value_typeINS_12basic_stringIcNS_11char_traitsIcEENS_9allocatorIcEEEEiEENS_22__unordered_map_hasherIS7_S8_NS_4hashIS7_EENS_8equal_toIS7_EELb1EEENS_21__unordered_map_equalIS7_S8_SD_SB_Lb1EEENS5_IS8_EEE6key_eqB7v160006Ev, symObjAddr: 0xA9D0, symBinAddr: 0x10001C240, symSize: 0x20 }
  - { offsetInCU: 0x200DC, offset: 0x689A6, size: 0x8, addend: 0x0, symName: __ZNKSt3__121__unordered_map_equalINS_12basic_stringIcNS_11char_traitsIcEENS_9allocatorIcEEEENS_17__hash_value_typeIS6_iEENS_8equal_toIS6_EENS_4hashIS6_EELb1EEclB7v160006ERKS8_RKS6_, symObjAddr: 0xA9F0, symBinAddr: 0x10001C260, symSize: 0x40 }
  - { offsetInCU: 0x20120, offset: 0x689EA, size: 0x8, addend: 0x0, symName: __ZNSt3__115__hash_iteratorIPNS_11__hash_nodeINS_17__hash_value_typeINS_12basic_stringIcNS_11char_traitsIcEENS_9allocatorIcEEEEiEEPvEEEC1B7v160006EPNS_16__hash_node_baseISC_EEPKv, symObjAddr: 0xAA30, symBinAddr: 0x10001C2A0, symSize: 0x30 }
  - { offsetInCU: 0x20168, offset: 0x68A32, size: 0x8, addend: 0x0, symName: __ZNSt3__112__hash_tableINS_17__hash_value_typeINS_12basic_stringIcNS_11char_traitsIcEENS_9allocatorIcEEEEiEENS_22__unordered_map_hasherIS7_S8_NS_4hashIS7_EENS_8equal_toIS7_EELb1EEENS_21__unordered_map_equalIS7_S8_SD_SB_Lb1EEENS5_IS8_EEE3endEv, symObjAddr: 0xAA60, symBinAddr: 0x10001C2D0, symSize: 0x30 }
  - { offsetInCU: 0x20190, offset: 0x68A5A, size: 0x8, addend: 0x0, symName: __ZNSt3__117__compressed_pairImNS_22__unordered_map_hasherINS_12basic_stringIcNS_11char_traitsIcEENS_9allocatorIcEEEENS_17__hash_value_typeIS7_iEENS_4hashIS7_EENS_8equal_toIS7_EELb1EEEE6secondB7v160006Ev, symObjAddr: 0xAA90, symBinAddr: 0x10001C300, symSize: 0x20 }
  - { offsetInCU: 0x201B6, offset: 0x68A80, size: 0x8, addend: 0x0, symName: __ZNSt3__122__compressed_pair_elemINS_22__unordered_map_hasherINS_12basic_stringIcNS_11char_traitsIcEENS_9allocatorIcEEEENS_17__hash_value_typeIS7_iEENS_4hashIS7_EENS_8equal_toIS7_EELb1EEELi1ELb1EE5__getB7v160006Ev, symObjAddr: 0xAAB0, symBinAddr: 0x10001C320, symSize: 0x10 }
  - { offsetInCU: 0x201DC, offset: 0x68AA6, size: 0x8, addend: 0x0, symName: __ZNKSt3__113__string_hashIcNS_9allocatorIcEEEclERKNS_12basic_stringIcNS_11char_traitsIcEES2_EE, symObjAddr: 0xAAC0, symBinAddr: 0x10001C330, symSize: 0x60 }
  - { offsetInCU: 0x20211, offset: 0x68ADB, size: 0x8, addend: 0x0, symName: __ZNSt3__121__murmur2_or_cityhashImLm64EEclEPKvm, symObjAddr: 0xAB90, symBinAddr: 0x10001C3D0, symSize: 0x3D0 }
  - { offsetInCU: 0x202AA, offset: 0x68B74, size: 0x8, addend: 0x0, symName: __ZNSt3__121__murmur2_or_cityhashImLm64EE18__hash_len_0_to_16EPKcm, symObjAddr: 0xAF60, symBinAddr: 0x10001C7A0, symSize: 0x180 }
  - { offsetInCU: 0x20383, offset: 0x68C4D, size: 0x8, addend: 0x0, symName: __ZNSt3__121__murmur2_or_cityhashImLm64EE19__hash_len_17_to_32EPKcm, symObjAddr: 0xB0E0, symBinAddr: 0x10001C920, symSize: 0x100 }
  - { offsetInCU: 0x203EC, offset: 0x68CB6, size: 0x8, addend: 0x0, symName: __ZNSt3__121__murmur2_or_cityhashImLm64EE19__hash_len_33_to_64EPKcm, symObjAddr: 0xB1E0, symBinAddr: 0x10001CA20, symSize: 0x260 }
  - { offsetInCU: 0x2049E, offset: 0x68D68, size: 0x8, addend: 0x0, symName: __ZNSt3__121__murmur2_or_cityhashImLm64EE13__hash_len_16Emm, symObjAddr: 0xB460, symBinAddr: 0x10001CCA0, symSize: 0x90 }
  - { offsetInCU: 0x204F9, offset: 0x68DC3, size: 0x8, addend: 0x0, symName: __ZNSt3__121__murmur2_or_cityhashImLm64EE29__weak_hash_len_32_with_seedsEPKcmm, symObjAddr: 0xB4F0, symBinAddr: 0x10001CD30, symSize: 0x90 }
  - { offsetInCU: 0x20538, offset: 0x68E02, size: 0x8, addend: 0x0, symName: __ZNSt3__121__murmur2_or_cityhashImLm64EE8__rotateEmi, symObjAddr: 0xB580, symBinAddr: 0x10001CDC0, symSize: 0x50 }
  - { offsetInCU: 0x20569, offset: 0x68E33, size: 0x8, addend: 0x0, symName: __ZNSt3__14pairImmEaSB7v160006EOS1_, symObjAddr: 0xB5D0, symBinAddr: 0x10001CE10, symSize: 0x30 }
  - { offsetInCU: 0x2059E, offset: 0x68E68, size: 0x8, addend: 0x0, symName: __ZNSt3__121__murmur2_or_cityhashImLm64EE11__shift_mixEm, symObjAddr: 0xB640, symBinAddr: 0x10001CE80, symSize: 0x20 }
  - { offsetInCU: 0x205C1, offset: 0x68E8B, size: 0x8, addend: 0x0, symName: __ZNSt3__121__murmur2_or_cityhashImLm64EE22__rotate_by_at_least_1Emi, symObjAddr: 0xB660, symBinAddr: 0x10001CEA0, symSize: 0x30 }
  - { offsetInCU: 0x205F2, offset: 0x68EBC, size: 0x8, addend: 0x0, symName: __ZNSt3__121__murmur2_or_cityhashImLm64EE29__weak_hash_len_32_with_seedsEmmmmmm, symObjAddr: 0xB6B0, symBinAddr: 0x10001CEF0, symSize: 0xD0 }
  - { offsetInCU: 0x20670, offset: 0x68F3A, size: 0x8, addend: 0x0, symName: __ZNSt3__14pairImmEC1B7v160006ImmLPv0EEEOT_OT0_, symObjAddr: 0xB780, symBinAddr: 0x10001CFC0, symSize: 0x30 }
  - { offsetInCU: 0x206CE, offset: 0x68F98, size: 0x8, addend: 0x0, symName: __ZNSt3__14pairImmEC2B7v160006ImmLPv0EEEOT_OT0_, symObjAddr: 0xB7B0, symBinAddr: 0x10001CFF0, symSize: 0x30 }
  - { offsetInCU: 0x2072C, offset: 0x68FF6, size: 0x8, addend: 0x0, symName: __ZNKSt3__110unique_ptrIA_PNS_16__hash_node_baseIPNS_11__hash_nodeINS_17__hash_value_typeINS_12basic_stringIcNS_11char_traitsIcEENS_9allocatorIcEEEEiEEPvEEEENS_25__bucket_list_deallocatorINS7_ISF_EEEEE11get_deleterB7v160006Ev, symObjAddr: 0xB8A0, symBinAddr: 0x10001D020, symSize: 0x20 }
  - { offsetInCU: 0x20752, offset: 0x6901C, size: 0x8, addend: 0x0, symName: __ZNKSt3__125__bucket_list_deallocatorINS_9allocatorIPNS_16__hash_node_baseIPNS_11__hash_nodeINS_17__hash_value_typeINS_12basic_stringIcNS_11char_traitsIcEENS1_IcEEEEiEEPvEEEEEEE4sizeB7v160006Ev, symObjAddr: 0xB8C0, symBinAddr: 0x10001D040, symSize: 0x20 }
  - { offsetInCU: 0x20778, offset: 0x69042, size: 0x8, addend: 0x0, symName: __ZNKSt3__117__compressed_pairIPPNS_16__hash_node_baseIPNS_11__hash_nodeINS_17__hash_value_typeINS_12basic_stringIcNS_11char_traitsIcEENS_9allocatorIcEEEEiEEPvEEEENS_25__bucket_list_deallocatorINS7_ISF_EEEEE6secondB7v160006Ev, symObjAddr: 0xB8E0, symBinAddr: 0x10001D060, symSize: 0x20 }
  - { offsetInCU: 0x2079E, offset: 0x69068, size: 0x8, addend: 0x0, symName: __ZNKSt3__122__compressed_pair_elemINS_25__bucket_list_deallocatorINS_9allocatorIPNS_16__hash_node_baseIPNS_11__hash_nodeINS_17__hash_value_typeINS_12basic_stringIcNS_11char_traitsIcEENS2_IcEEEEiEEPvEEEEEEEELi1ELb0EE5__getB7v160006Ev, symObjAddr: 0xB900, symBinAddr: 0x10001D080, symSize: 0x10 }
  - { offsetInCU: 0x207C4, offset: 0x6908E, size: 0x8, addend: 0x0, symName: __ZNKSt3__117__compressed_pairImNS_9allocatorIPNS_16__hash_node_baseIPNS_11__hash_nodeINS_17__hash_value_typeINS_12basic_stringIcNS_11char_traitsIcEENS1_IcEEEEiEEPvEEEEEEE5firstB7v160006Ev, symObjAddr: 0xB910, symBinAddr: 0x10001D090, symSize: 0x20 }
  - { offsetInCU: 0x207EA, offset: 0x690B4, size: 0x8, addend: 0x0, symName: __ZNKSt3__117__compressed_pairIPPNS_16__hash_node_baseIPNS_11__hash_nodeINS_17__hash_value_typeINS_12basic_stringIcNS_11char_traitsIcEENS_9allocatorIcEEEEiEEPvEEEENS_25__bucket_list_deallocatorINS7_ISF_EEEEE5firstB7v160006Ev, symObjAddr: 0xB930, symBinAddr: 0x10001D0B0, symSize: 0x20 }
  - { offsetInCU: 0x20810, offset: 0x690DA, size: 0x8, addend: 0x0, symName: __ZNKSt3__122__compressed_pair_elemIPPNS_16__hash_node_baseIPNS_11__hash_nodeINS_17__hash_value_typeINS_12basic_stringIcNS_11char_traitsIcEENS_9allocatorIcEEEEiEEPvEEEELi0ELb0EE5__getB7v160006Ev, symObjAddr: 0xB950, symBinAddr: 0x10001D0D0, symSize: 0x10 }
  - { offsetInCU: 0x20836, offset: 0x69100, size: 0x8, addend: 0x0, symName: __ZNSt3__117__compressed_pairIfNS_21__unordered_map_equalINS_12basic_stringIcNS_11char_traitsIcEENS_9allocatorIcEEEENS_17__hash_value_typeIS7_iEENS_8equal_toIS7_EENS_4hashIS7_EELb1EEEE6secondB7v160006Ev, symObjAddr: 0xB960, symBinAddr: 0x10001D0E0, symSize: 0x20 }
  - { offsetInCU: 0x2085C, offset: 0x69126, size: 0x8, addend: 0x0, symName: __ZNSt3__122__compressed_pair_elemINS_21__unordered_map_equalINS_12basic_stringIcNS_11char_traitsIcEENS_9allocatorIcEEEENS_17__hash_value_typeIS7_iEENS_8equal_toIS7_EENS_4hashIS7_EELb1EEELi1ELb1EE5__getB7v160006Ev, symObjAddr: 0xB980, symBinAddr: 0x10001D100, symSize: 0x10 }
  - { offsetInCU: 0x20882, offset: 0x6914C, size: 0x8, addend: 0x0, symName: __ZNKSt3__18equal_toINS_12basic_stringIcNS_11char_traitsIcEENS_9allocatorIcEEEEEclB7v160006ERKS6_S9_, symObjAddr: 0xB990, symBinAddr: 0x10001D110, symSize: 0x30 }
  - { offsetInCU: 0x208C6, offset: 0x69190, size: 0x8, addend: 0x0, symName: __ZNKSt3__117__hash_value_typeINS_12basic_stringIcNS_11char_traitsIcEENS_9allocatorIcEEEEiE11__get_valueB7v160006Ev, symObjAddr: 0xB9C0, symBinAddr: 0x10001D140, symSize: 0x20 }
  - { offsetInCU: 0x208EC, offset: 0x691B6, size: 0x8, addend: 0x0, symName: __ZNSt3__111char_traitsIcE7compareEPKcS3_m, symObjAddr: 0xBAF0, symBinAddr: 0x10001D270, symSize: 0x60 }
  - { offsetInCU: 0x2092B, offset: 0x691F5, size: 0x8, addend: 0x0, symName: __ZNSt3__115__hash_iteratorIPNS_11__hash_nodeINS_17__hash_value_typeINS_12basic_stringIcNS_11char_traitsIcEENS_9allocatorIcEEEEiEEPvEEEC2B7v160006EPNS_16__hash_node_baseISC_EEPKv, symObjAddr: 0xBBB0, symBinAddr: 0x10001D330, symSize: 0x20 }
  - { offsetInCU: 0x20973, offset: 0x6923D, size: 0x8, addend: 0x0, symName: __ZNSt3__119__hash_map_iteratorINS_15__hash_iteratorIPNS_11__hash_nodeINS_17__hash_value_typeINS_12basic_stringIcNS_11char_traitsIcEENS_9allocatorIcEEEEiEEPvEEEEEC2B7v160006ESE_, symObjAddr: 0xBBD0, symBinAddr: 0x10001D350, symSize: 0x20 }
  - { offsetInCU: 0x209C1, offset: 0x6928B, size: 0x8, addend: 0x0, symName: __ZNSt3__112__hash_tableINS_17__hash_value_typeINS_12basic_stringIcNS_11char_traitsIcEENS_9allocatorIcEEEEiEENS_22__unordered_map_hasherIS7_S8_NS_4hashIS7_EENS_8equal_toIS7_EELb1EEENS_21__unordered_map_equalIS7_S8_SD_SB_Lb1EEENS5_IS8_EEE25__emplace_unique_key_argsIS7_JRKNS_21piecewise_construct_tENS_5tupleIJRKS7_EEENSN_IJEEEEEENS_4pairINS_15__hash_iteratorIPNS_11__hash_nodeIS8_PvEEEEbEERKT_DpOT0_, symObjAddr: 0xBC20, symBinAddr: 0x10001D3A0, symSize: 0x5D0 }
  - { offsetInCU: 0x20AC9, offset: 0x69393, size: 0x8, addend: 0x0, symName: __ZNKSt3__115__hash_iteratorIPNS_11__hash_nodeINS_17__hash_value_typeINS_12basic_stringIcNS_11char_traitsIcEENS_9allocatorIcEEEEiEEPvEEEptB7v160006Ev, symObjAddr: 0xC230, symBinAddr: 0x10001D9B0, symSize: 0x30 }
  - { offsetInCU: 0x20AEF, offset: 0x693B9, size: 0x8, addend: 0x0, symName: __ZNSt3__112__hash_tableINS_17__hash_value_typeINS_12basic_stringIcNS_11char_traitsIcEENS_9allocatorIcEEEEiEENS_22__unordered_map_hasherIS7_S8_NS_4hashIS7_EENS_8equal_toIS7_EELb1EEENS_21__unordered_map_equalIS7_S8_SD_SB_Lb1EEENS5_IS8_EEE21__construct_node_hashIRKNS_21piecewise_construct_tEJNS_5tupleIJRKS7_EEENSN_IJEEEEEENS_10unique_ptrINS_11__hash_nodeIS8_PvEENS_22__hash_node_destructorINS5_ISV_EEEEEEmOT_DpOT0_, symObjAddr: 0xC260, symBinAddr: 0x10001D9E0, symSize: 0x150 }
  - { offsetInCU: 0x20B8B, offset: 0x69455, size: 0x8, addend: 0x0, symName: __ZNSt3__112__hash_tableINS_17__hash_value_typeINS_12basic_stringIcNS_11char_traitsIcEENS_9allocatorIcEEEEiEENS_22__unordered_map_hasherIS7_S8_NS_4hashIS7_EENS_8equal_toIS7_EELb1EEENS_21__unordered_map_equalIS7_S8_SD_SB_Lb1EEENS5_IS8_EEE4sizeB7v160006Ev, symObjAddr: 0xC3B0, symBinAddr: 0x10001DB30, symSize: 0x20 }
  - { offsetInCU: 0x20BB1, offset: 0x6947B, size: 0x8, addend: 0x0, symName: __ZNSt3__112__hash_tableINS_17__hash_value_typeINS_12basic_stringIcNS_11char_traitsIcEENS_9allocatorIcEEEEiEENS_22__unordered_map_hasherIS7_S8_NS_4hashIS7_EENS_8equal_toIS7_EELb1EEENS_21__unordered_map_equalIS7_S8_SD_SB_Lb1EEENS5_IS8_EEE15max_load_factorB7v160006Ev, symObjAddr: 0xC3D0, symBinAddr: 0x10001DB50, symSize: 0x20 }
  - { offsetInCU: 0x20BD7, offset: 0x694A1, size: 0x8, addend: 0x0, symName: __ZNSt3__112__hash_tableINS_17__hash_value_typeINS_12basic_stringIcNS_11char_traitsIcEENS_9allocatorIcEEEEiEENS_22__unordered_map_hasherIS7_S8_NS_4hashIS7_EENS_8equal_toIS7_EELb1EEENS_21__unordered_map_equalIS7_S8_SD_SB_Lb1EEENS5_IS8_EEE15__rehash_uniqueB7v160006Em, symObjAddr: 0xC3F0, symBinAddr: 0x10001DB70, symSize: 0x30 }
  - { offsetInCU: 0x20C0B, offset: 0x694D5, size: 0x8, addend: 0x0, symName: __Z4ceilB7v160006f, symObjAddr: 0xC490, symBinAddr: 0x10001DBE0, symSize: 0x20 }
  - { offsetInCU: 0x20C3A, offset: 0x69504, size: 0x8, addend: 0x0, symName: __ZNSt3__116__hash_node_baseIPNS_11__hash_nodeINS_17__hash_value_typeINS_12basic_stringIcNS_11char_traitsIcEENS_9allocatorIcEEEEiEEPvEEE5__ptrB7v160006Ev, symObjAddr: 0xC4B0, symBinAddr: 0x10001DC00, symSize: 0x20 }
  - { offsetInCU: 0x20C60, offset: 0x6952A, size: 0x8, addend: 0x0, symName: __ZNKSt3__110unique_ptrINS_11__hash_nodeINS_17__hash_value_typeINS_12basic_stringIcNS_11char_traitsIcEENS_9allocatorIcEEEEiEEPvEENS_22__hash_node_destructorINS6_ISB_EEEEEptB7v160006Ev, symObjAddr: 0xC4D0, symBinAddr: 0x10001DC20, symSize: 0x20 }
  - { offsetInCU: 0x20C86, offset: 0x69550, size: 0x8, addend: 0x0, symName: __ZNKSt3__110unique_ptrINS_11__hash_nodeINS_17__hash_value_typeINS_12basic_stringIcNS_11char_traitsIcEENS_9allocatorIcEEEEiEEPvEENS_22__hash_node_destructorINS6_ISB_EEEEE3getB7v160006Ev, symObjAddr: 0xC4F0, symBinAddr: 0x10001DC40, symSize: 0x20 }
  - { offsetInCU: 0x20CAC, offset: 0x69576, size: 0x8, addend: 0x0, symName: __ZNSt3__110unique_ptrINS_11__hash_nodeINS_17__hash_value_typeINS_12basic_stringIcNS_11char_traitsIcEENS_9allocatorIcEEEEiEEPvEENS_22__hash_node_destructorINS6_ISB_EEEEE7releaseB7v160006Ev, symObjAddr: 0xC510, symBinAddr: 0x10001DC60, symSize: 0x40 }
  - { offsetInCU: 0x20CE1, offset: 0x695AB, size: 0x8, addend: 0x0, symName: __ZNSt3__110unique_ptrINS_11__hash_nodeINS_17__hash_value_typeINS_12basic_stringIcNS_11char_traitsIcEENS_9allocatorIcEEEEiEEPvEENS_22__hash_node_destructorINS6_ISB_EEEEED1B7v160006Ev, symObjAddr: 0xC550, symBinAddr: 0x10001DCA0, symSize: 0x20 }
  - { offsetInCU: 0x20D16, offset: 0x695E0, size: 0x8, addend: 0x0, symName: __ZNSt3__14pairINS_15__hash_iteratorIPNS_11__hash_nodeINS_17__hash_value_typeINS_12basic_stringIcNS_11char_traitsIcEENS_9allocatorIcEEEEiEEPvEEEEbEC1B7v160006ISE_RbLSB_0EEEOT_OT0_, symObjAddr: 0xC570, symBinAddr: 0x10001DCC0, symSize: 0x30 }
  - { offsetInCU: 0x20D74, offset: 0x6963E, size: 0x8, addend: 0x0, symName: __ZNSt3__116allocator_traitsINS_9allocatorINS_11__hash_nodeINS_17__hash_value_typeINS_12basic_stringIcNS_11char_traitsIcEENS1_IcEEEEiEEPvEEEEE8allocateB7v160006ERSC_m, symObjAddr: 0xC5A0, symBinAddr: 0x10001DCF0, symSize: 0x30 }
  - { offsetInCU: 0x20DA7, offset: 0x69671, size: 0x8, addend: 0x0, symName: __ZNSt3__122__hash_node_destructorINS_9allocatorINS_11__hash_nodeINS_17__hash_value_typeINS_12basic_stringIcNS_11char_traitsIcEENS1_IcEEEEiEEPvEEEEEC1B7v160006ERSC_b, symObjAddr: 0xC5D0, symBinAddr: 0x10001DD20, symSize: 0x40 }
  - { offsetInCU: 0x20DF5, offset: 0x696BF, size: 0x8, addend: 0x0, symName: __ZNSt3__110unique_ptrINS_11__hash_nodeINS_17__hash_value_typeINS_12basic_stringIcNS_11char_traitsIcEENS_9allocatorIcEEEEiEEPvEENS_22__hash_node_destructorINS6_ISB_EEEEEC1B7v160006ILb1EvEEPSB_NS_16__dependent_typeINS_27__unique_ptr_deleter_sfinaeISE_EEXT_EE20__good_rval_ref_typeE, symObjAddr: 0xC610, symBinAddr: 0x10001DD60, symSize: 0x30 }
  - { offsetInCU: 0x20E46, offset: 0x69710, size: 0x8, addend: 0x0, symName: __ZNSt3__116allocator_traitsINS_9allocatorINS_11__hash_nodeINS_17__hash_value_typeINS_12basic_stringIcNS_11char_traitsIcEENS1_IcEEEEiEEPvEEEEE9constructB7v160006INS_4pairIKS8_iEEJRKNS_21piecewise_construct_tENS_5tupleIJRSG_EEENSL_IJEEEEvEEvRSC_PT_DpOT0_, symObjAddr: 0xC640, symBinAddr: 0x10001DD90, symSize: 0x40 }
  - { offsetInCU: 0x20EC5, offset: 0x6978F, size: 0x8, addend: 0x0, symName: __ZNSt3__110unique_ptrINS_11__hash_nodeINS_17__hash_value_typeINS_12basic_stringIcNS_11char_traitsIcEENS_9allocatorIcEEEEiEEPvEENS_22__hash_node_destructorINS6_ISB_EEEEE11get_deleterB7v160006Ev, symObjAddr: 0xC680, symBinAddr: 0x10001DDD0, symSize: 0x20 }
  - { offsetInCU: 0x20EEB, offset: 0x697B5, size: 0x8, addend: 0x0, symName: __ZNSt3__19allocatorINS_11__hash_nodeINS_17__hash_value_typeINS_12basic_stringIcNS_11char_traitsIcEENS0_IcEEEEiEEPvEEE8allocateB7v160006Em, symObjAddr: 0xC6A0, symBinAddr: 0x10001DDF0, symSize: 0x50 }
  - { offsetInCU: 0x20F29, offset: 0x697F3, size: 0x8, addend: 0x0, symName: __ZNSt3__116allocator_traitsINS_9allocatorINS_11__hash_nodeINS_17__hash_value_typeINS_12basic_stringIcNS_11char_traitsIcEENS1_IcEEEEiEEPvEEEEE8max_sizeB7v160006ISC_vEEmRKSC_, symObjAddr: 0xC6F0, symBinAddr: 0x10001DE40, symSize: 0x20 }
  - { offsetInCU: 0x20F57, offset: 0x69821, size: 0x8, addend: 0x0, symName: __ZNKSt3__19allocatorINS_11__hash_nodeINS_17__hash_value_typeINS_12basic_stringIcNS_11char_traitsIcEENS0_IcEEEEiEEPvEEE8max_sizeB7v160006Ev, symObjAddr: 0xC7B0, symBinAddr: 0x10001DE60, symSize: 0x20 }
  - { offsetInCU: 0x20F7D, offset: 0x69847, size: 0x8, addend: 0x0, symName: __ZNSt3__122__hash_node_destructorINS_9allocatorINS_11__hash_nodeINS_17__hash_value_typeINS_12basic_stringIcNS_11char_traitsIcEENS1_IcEEEEiEEPvEEEEEC2B7v160006ERSC_b, symObjAddr: 0xC820, symBinAddr: 0x10001DE80, symSize: 0x30 }
  - { offsetInCU: 0x20FC5, offset: 0x6988F, size: 0x8, addend: 0x0, symName: __ZNSt3__110unique_ptrINS_11__hash_nodeINS_17__hash_value_typeINS_12basic_stringIcNS_11char_traitsIcEENS_9allocatorIcEEEEiEEPvEENS_22__hash_node_destructorINS6_ISB_EEEEEC2B7v160006ILb1EvEEPSB_NS_16__dependent_typeINS_27__unique_ptr_deleter_sfinaeISE_EEXT_EE20__good_rval_ref_typeE, symObjAddr: 0xC850, symBinAddr: 0x10001DEB0, symSize: 0x40 }
  - { offsetInCU: 0x21016, offset: 0x698E0, size: 0x8, addend: 0x0, symName: __ZNSt3__117__compressed_pairIPNS_11__hash_nodeINS_17__hash_value_typeINS_12basic_stringIcNS_11char_traitsIcEENS_9allocatorIcEEEEiEEPvEENS_22__hash_node_destructorINS6_ISB_EEEEEC1B7v160006IRSC_SF_EEOT_OT0_, symObjAddr: 0xC890, symBinAddr: 0x10001DEF0, symSize: 0x30 }
  - { offsetInCU: 0x2106E, offset: 0x69938, size: 0x8, addend: 0x0, symName: __ZNSt3__117__compressed_pairIPNS_11__hash_nodeINS_17__hash_value_typeINS_12basic_stringIcNS_11char_traitsIcEENS_9allocatorIcEEEEiEEPvEENS_22__hash_node_destructorINS6_ISB_EEEEEC2B7v160006IRSC_SF_EEOT_OT0_, symObjAddr: 0xC8C0, symBinAddr: 0x10001DF20, symSize: 0x40 }
  - { offsetInCU: 0x210C6, offset: 0x69990, size: 0x8, addend: 0x0, symName: __ZNSt3__122__compressed_pair_elemIPNS_11__hash_nodeINS_17__hash_value_typeINS_12basic_stringIcNS_11char_traitsIcEENS_9allocatorIcEEEEiEEPvEELi0ELb0EEC2B7v160006IRSC_vEEOT_, symObjAddr: 0xC900, symBinAddr: 0x10001DF60, symSize: 0x20 }
  - { offsetInCU: 0x21108, offset: 0x699D2, size: 0x8, addend: 0x0, symName: __ZNSt3__122__compressed_pair_elemINS_22__hash_node_destructorINS_9allocatorINS_11__hash_nodeINS_17__hash_value_typeINS_12basic_stringIcNS_11char_traitsIcEENS2_IcEEEEiEEPvEEEEEELi1ELb0EEC2B7v160006ISE_vEEOT_, symObjAddr: 0xC920, symBinAddr: 0x10001DF80, symSize: 0x30 }
  - { offsetInCU: 0x2114A, offset: 0x69A14, size: 0x8, addend: 0x0, symName: __ZNSt3__19allocatorINS_11__hash_nodeINS_17__hash_value_typeINS_12basic_stringIcNS_11char_traitsIcEENS0_IcEEEEiEEPvEEE9constructB7v160006INS_4pairIKS7_iEEJRKNS_21piecewise_construct_tENS_5tupleIJRSE_EEENSJ_IJEEEEEEvPT_DpOT0_, symObjAddr: 0xC950, symBinAddr: 0x10001DFB0, symSize: 0x40 }
  - { offsetInCU: 0x211C6, offset: 0x69A90, size: 0x8, addend: 0x0, symName: __ZNSt3__14pairIKNS_12basic_stringIcNS_11char_traitsIcEENS_9allocatorIcEEEEiEC1B7v160006IJRS7_EJEEENS_21piecewise_construct_tENS_5tupleIJDpT_EEENSC_IJDpT0_EEE, symObjAddr: 0xC990, symBinAddr: 0x10001DFF0, symSize: 0x30 }
  - { offsetInCU: 0x2122D, offset: 0x69AF7, size: 0x8, addend: 0x0, symName: __ZNSt3__14pairIKNS_12basic_stringIcNS_11char_traitsIcEENS_9allocatorIcEEEEiEC1B7v160006IJRS7_EJEJLm0EEJEEENS_21piecewise_construct_tERNS_5tupleIJDpT_EEERNSC_IJDpT0_EEENS_15__tuple_indicesIJXspT1_EEEENSL_IJXspT2_EEEE, symObjAddr: 0xC9C0, symBinAddr: 0x10001E020, symSize: 0x30 }
  - { offsetInCU: 0x212BA, offset: 0x69B84, size: 0x8, addend: 0x0, symName: __ZNSt3__14pairIKNS_12basic_stringIcNS_11char_traitsIcEENS_9allocatorIcEEEEiEC2B7v160006IJRS7_EJEJLm0EEJEEENS_21piecewise_construct_tERNS_5tupleIJDpT_EEERNSC_IJDpT0_EEENS_15__tuple_indicesIJXspT1_EEEENSL_IJXspT2_EEEE, symObjAddr: 0xC9F0, symBinAddr: 0x10001E050, symSize: 0x50 }
  - { offsetInCU: 0x21347, offset: 0x69C11, size: 0x8, addend: 0x0, symName: __ZNSt3__112__tuple_leafILm0ERKNS_12basic_stringIcNS_11char_traitsIcEENS_9allocatorIcEEEELb0EE3getB7v160006Ev, symObjAddr: 0xCA60, symBinAddr: 0x10001E0C0, symSize: 0x20 }
  - { offsetInCU: 0x2136D, offset: 0x69C37, size: 0x8, addend: 0x0, symName: __ZNSt3__117__compressed_pairIPNS_11__hash_nodeINS_17__hash_value_typeINS_12basic_stringIcNS_11char_traitsIcEENS_9allocatorIcEEEEiEEPvEENS_22__hash_node_destructorINS6_ISB_EEEEE6secondB7v160006Ev, symObjAddr: 0xCA80, symBinAddr: 0x10001E0E0, symSize: 0x20 }
  - { offsetInCU: 0x21393, offset: 0x69C5D, size: 0x8, addend: 0x0, symName: __ZNSt3__122__compressed_pair_elemINS_22__hash_node_destructorINS_9allocatorINS_11__hash_nodeINS_17__hash_value_typeINS_12basic_stringIcNS_11char_traitsIcEENS2_IcEEEEiEEPvEEEEEELi1ELb0EE5__getB7v160006Ev, symObjAddr: 0xCAA0, symBinAddr: 0x10001E100, symSize: 0x10 }
  - { offsetInCU: 0x213B9, offset: 0x69C83, size: 0x8, addend: 0x0, symName: __ZNSt3__117__compressed_pairImNS_22__unordered_map_hasherINS_12basic_stringIcNS_11char_traitsIcEENS_9allocatorIcEEEENS_17__hash_value_typeIS7_iEENS_4hashIS7_EENS_8equal_toIS7_EELb1EEEE5firstB7v160006Ev, symObjAddr: 0xCAB0, symBinAddr: 0x10001E110, symSize: 0x20 }
  - { offsetInCU: 0x213DF, offset: 0x69CA9, size: 0x8, addend: 0x0, symName: __ZNSt3__117__compressed_pairIfNS_21__unordered_map_equalINS_12basic_stringIcNS_11char_traitsIcEENS_9allocatorIcEEEENS_17__hash_value_typeIS7_iEENS_8equal_toIS7_EENS_4hashIS7_EELb1EEEE5firstB7v160006Ev, symObjAddr: 0xCAD0, symBinAddr: 0x10001E130, symSize: 0x20 }
  - { offsetInCU: 0x21405, offset: 0x69CCF, size: 0x8, addend: 0x0, symName: __ZNSt3__122__compressed_pair_elemIfLi0ELb0EE5__getB7v160006Ev, symObjAddr: 0xCAF0, symBinAddr: 0x10001E150, symSize: 0x10 }
  - { offsetInCU: 0x2142B, offset: 0x69CF5, size: 0x8, addend: 0x0, symName: __ZNSt3__112__hash_tableINS_17__hash_value_typeINS_12basic_stringIcNS_11char_traitsIcEENS_9allocatorIcEEEEiEENS_22__unordered_map_hasherIS7_S8_NS_4hashIS7_EENS_8equal_toIS7_EELb1EEENS_21__unordered_map_equalIS7_S8_SD_SB_Lb1EEENS5_IS8_EEE8__rehashILb1EEEvm, symObjAddr: 0xCB00, symBinAddr: 0x10001E160, symSize: 0x230 }
  - { offsetInCU: 0x2147B, offset: 0x69D45, size: 0x8, addend: 0x0, symName: __ZNSt3__112__hash_tableINS_17__hash_value_typeINS_12basic_stringIcNS_11char_traitsIcEENS_9allocatorIcEEEEiEENS_22__unordered_map_hasherIS7_S8_NS_4hashIS7_EENS_8equal_toIS7_EELb1EEENS_21__unordered_map_equalIS7_S8_SD_SB_Lb1EEENS5_IS8_EEE11__do_rehashILb1EEEvm, symObjAddr: 0xCD30, symBinAddr: 0x10001E390, symSize: 0x260 }
  - { offsetInCU: 0x2155E, offset: 0x69E28, size: 0x8, addend: 0x0, symName: __ZNSt3__110unique_ptrIA_PNS_16__hash_node_baseIPNS_11__hash_nodeINS_17__hash_value_typeINS_12basic_stringIcNS_11char_traitsIcEENS_9allocatorIcEEEEiEEPvEEEENS_25__bucket_list_deallocatorINS7_ISF_EEEEE11get_deleterB7v160006Ev, symObjAddr: 0xD000, symBinAddr: 0x10001E660, symSize: 0x20 }
  - { offsetInCU: 0x21584, offset: 0x69E4E, size: 0x8, addend: 0x0, symName: __ZNSt3__110unique_ptrIA_PNS_16__hash_node_baseIPNS_11__hash_nodeINS_17__hash_value_typeINS_12basic_stringIcNS_11char_traitsIcEENS_9allocatorIcEEEEiEEPvEEEENS_25__bucket_list_deallocatorINS7_ISF_EEEEE5resetB7v160006IPSF_EENS_9enable_ifIXsr28_CheckArrayPointerConversionIT_EE5valueEvE4typeESO_, symObjAddr: 0xD020, symBinAddr: 0x10001E680, symSize: 0x70 }
  - { offsetInCU: 0x215D1, offset: 0x69E9B, size: 0x8, addend: 0x0, symName: __ZNSt3__116allocator_traitsINS_9allocatorIPNS_16__hash_node_baseIPNS_11__hash_nodeINS_17__hash_value_typeINS_12basic_stringIcNS_11char_traitsIcEENS1_IcEEEEiEEPvEEEEEEE8allocateB7v160006ERSG_m, symObjAddr: 0xD090, symBinAddr: 0x10001E6F0, symSize: 0x30 }
  - { offsetInCU: 0x21604, offset: 0x69ECE, size: 0x8, addend: 0x0, symName: __ZNSt3__19allocatorIPNS_16__hash_node_baseIPNS_11__hash_nodeINS_17__hash_value_typeINS_12basic_stringIcNS_11char_traitsIcEENS0_IcEEEEiEEPvEEEEE8allocateB7v160006Em, symObjAddr: 0xD0C0, symBinAddr: 0x10001E720, symSize: 0x50 }
  - { offsetInCU: 0x21642, offset: 0x69F0C, size: 0x8, addend: 0x0, symName: __ZNSt3__116allocator_traitsINS_9allocatorIPNS_16__hash_node_baseIPNS_11__hash_nodeINS_17__hash_value_typeINS_12basic_stringIcNS_11char_traitsIcEENS1_IcEEEEiEEPvEEEEEEE8max_sizeB7v160006ISG_vEEmRKSG_, symObjAddr: 0xD110, symBinAddr: 0x10001E770, symSize: 0x20 }
  - { offsetInCU: 0x21670, offset: 0x69F3A, size: 0x8, addend: 0x0, symName: __ZNKSt3__19allocatorIPNS_16__hash_node_baseIPNS_11__hash_nodeINS_17__hash_value_typeINS_12basic_stringIcNS_11char_traitsIcEENS0_IcEEEEiEEPvEEEEE8max_sizeB7v160006Ev, symObjAddr: 0xD130, symBinAddr: 0x10001E790, symSize: 0x20 }
  - { offsetInCU: 0x21696, offset: 0x69F60, size: 0x8, addend: 0x0, symName: __ZNKSt3__117__compressed_pairIPNS_11__hash_nodeINS_17__hash_value_typeINS_12basic_stringIcNS_11char_traitsIcEENS_9allocatorIcEEEEiEEPvEENS_22__hash_node_destructorINS6_ISB_EEEEE5firstB7v160006Ev, symObjAddr: 0xD1F0, symBinAddr: 0x10001E7D0, symSize: 0x20 }
  - { offsetInCU: 0x216BC, offset: 0x69F86, size: 0x8, addend: 0x0, symName: __ZNKSt3__122__compressed_pair_elemIPNS_11__hash_nodeINS_17__hash_value_typeINS_12basic_stringIcNS_11char_traitsIcEENS_9allocatorIcEEEEiEEPvEELi0ELb0EE5__getB7v160006Ev, symObjAddr: 0xD210, symBinAddr: 0x10001E7F0, symSize: 0x10 }
  - { offsetInCU: 0x216E2, offset: 0x69FAC, size: 0x8, addend: 0x0, symName: __ZNSt3__117__compressed_pairIPNS_11__hash_nodeINS_17__hash_value_typeINS_12basic_stringIcNS_11char_traitsIcEENS_9allocatorIcEEEEiEEPvEENS_22__hash_node_destructorINS6_ISB_EEEEE5firstB7v160006Ev, symObjAddr: 0xD220, symBinAddr: 0x10001E800, symSize: 0x20 }
  - { offsetInCU: 0x21708, offset: 0x69FD2, size: 0x8, addend: 0x0, symName: __ZNSt3__122__compressed_pair_elemIPNS_11__hash_nodeINS_17__hash_value_typeINS_12basic_stringIcNS_11char_traitsIcEENS_9allocatorIcEEEEiEEPvEELi0ELb0EE5__getB7v160006Ev, symObjAddr: 0xD240, symBinAddr: 0x10001E820, symSize: 0x10 }
  - { offsetInCU: 0x2172E, offset: 0x69FF8, size: 0x8, addend: 0x0, symName: __ZNSt3__110unique_ptrINS_11__hash_nodeINS_17__hash_value_typeINS_12basic_stringIcNS_11char_traitsIcEENS_9allocatorIcEEEEiEEPvEENS_22__hash_node_destructorINS6_ISB_EEEEED2B7v160006Ev, symObjAddr: 0xD250, symBinAddr: 0x10001E830, symSize: 0x20 }
  - { offsetInCU: 0x21758, offset: 0x6A022, size: 0x8, addend: 0x0, symName: __ZNSt3__110unique_ptrINS_11__hash_nodeINS_17__hash_value_typeINS_12basic_stringIcNS_11char_traitsIcEENS_9allocatorIcEEEEiEEPvEENS_22__hash_node_destructorINS6_ISB_EEEEE5resetB7v160006EPSB_, symObjAddr: 0xD270, symBinAddr: 0x10001E850, symSize: 0x70 }
  - { offsetInCU: 0x2179C, offset: 0x6A066, size: 0x8, addend: 0x0, symName: __ZNSt3__122__hash_node_destructorINS_9allocatorINS_11__hash_nodeINS_17__hash_value_typeINS_12basic_stringIcNS_11char_traitsIcEENS1_IcEEEEiEEPvEEEEEclB7v160006EPSB_, symObjAddr: 0xD2E0, symBinAddr: 0x10001E8C0, symSize: 0x80 }
  - { offsetInCU: 0x217D1, offset: 0x6A09B, size: 0x8, addend: 0x0, symName: __ZNSt3__14pairINS_15__hash_iteratorIPNS_11__hash_nodeINS_17__hash_value_typeINS_12basic_stringIcNS_11char_traitsIcEENS_9allocatorIcEEEEiEEPvEEEEbEC2B7v160006ISE_RbLSB_0EEEOT_OT0_, symObjAddr: 0xD360, symBinAddr: 0x10001E940, symSize: 0x30 }
  - { offsetInCU: 0x2182F, offset: 0x6A0F9, size: 0x8, addend: 0x0, symName: __ZNSt3__15tupleIJRKNS_12basic_stringIcNS_11char_traitsIcEENS_9allocatorIcEEEEEEC1B7v160006INS_4_AndELi0EEES8_, symObjAddr: 0xD390, symBinAddr: 0x10001E970, symSize: 0x30 }
  - { offsetInCU: 0x21878, offset: 0x6A142, size: 0x8, addend: 0x0, symName: __ZNSt3__15tupleIJRKNS_12basic_stringIcNS_11char_traitsIcEENS_9allocatorIcEEEEEEC2B7v160006INS_4_AndELi0EEES8_, symObjAddr: 0xD3C0, symBinAddr: 0x10001E9A0, symSize: 0x30 }
  - { offsetInCU: 0x218C1, offset: 0x6A18B, size: 0x8, addend: 0x0, symName: __ZNSt3__112__tuple_implINS_15__tuple_indicesIJLm0EEEEJRKNS_12basic_stringIcNS_11char_traitsIcEENS_9allocatorIcEEEEEEC1B7v160006IJLm0EEJSA_EJEJEJSA_EEENS1_IJXspT_EEEENS_13__tuple_typesIJDpT0_EEENS1_IJXspT1_EEEENSE_IJDpT2_EEEDpOT3_, symObjAddr: 0xD3F0, symBinAddr: 0x10001E9D0, symSize: 0x30 }
  - { offsetInCU: 0x21952, offset: 0x6A21C, size: 0x8, addend: 0x0, symName: __ZNSt3__112__tuple_implINS_15__tuple_indicesIJLm0EEEEJRKNS_12basic_stringIcNS_11char_traitsIcEENS_9allocatorIcEEEEEEC2B7v160006IJLm0EEJSA_EJEJEJSA_EEENS1_IJXspT_EEEENS_13__tuple_typesIJDpT0_EEENS1_IJXspT1_EEEENSE_IJDpT2_EEEDpOT3_, symObjAddr: 0xD420, symBinAddr: 0x10001EA00, symSize: 0x30 }
  - { offsetInCU: 0x219E3, offset: 0x6A2AD, size: 0x8, addend: 0x0, symName: __ZNSt3__112__tuple_leafILm0ERKNS_12basic_stringIcNS_11char_traitsIcEENS_9allocatorIcEEEELb0EEC2B7v160006IS8_vEEOT_, symObjAddr: 0xD450, symBinAddr: 0x10001EA30, symSize: 0x20 }
  - { offsetInCU: 0x21A26, offset: 0x6A2F0, size: 0x8, addend: 0x0, symName: __ZNSt3__114pointer_traitsIPNS_17__hash_value_typeINS_12basic_stringIcNS_11char_traitsIcEENS_9allocatorIcEEEEiEEE10pointer_toB7v160006ERS8_, symObjAddr: 0xD470, symBinAddr: 0x10001EA50, symSize: 0x10 }
  - { offsetInCU: 0x21A49, offset: 0x6A313, size: 0x8, addend: 0x0, symName: __ZNSt3__114pointer_traitsIPNS_4pairIKNS_12basic_stringIcNS_11char_traitsIcEENS_9allocatorIcEEEEiEEE10pointer_toB7v160006ERS9_, symObjAddr: 0xD480, symBinAddr: 0x10001EA60, symSize: 0x10 }
  - { offsetInCU: 0x21A76, offset: 0x6A340, size: 0x8, addend: 0x0, symName: __ZNSt3__116allocator_traitsINS_9allocatorIcEEE37select_on_container_copy_constructionB7v160006IS2_vvEES2_RKS2_, symObjAddr: 0xD490, symBinAddr: 0x10001EA70, symSize: 0x10 }
  - { offsetInCU: 0x21AA5, offset: 0x6A36F, size: 0x8, addend: 0x0, symName: __ZNKSt3__112basic_stringIcNS_11char_traitsIcEENS_9allocatorIcEEE13get_allocatorB7v160006Ev, symObjAddr: 0xD4A0, symBinAddr: 0x10001EA80, symSize: 0x20 }
  - { offsetInCU: 0x21ACB, offset: 0x6A395, size: 0x8, addend: 0x0, symName: __ZNSt3__112basic_stringIcNS_11char_traitsIcEENS_9allocatorIcEEEC1B7v160006ENS_24__uninitialized_size_tagEmRKS4_, symObjAddr: 0xD4C0, symBinAddr: 0x10001EAA0, symSize: 0x30 }
  - { offsetInCU: 0x21B1E, offset: 0x6A3E8, size: 0x8, addend: 0x0, symName: __ZNSt3__111char_traitsIcE4copyEPcPKcm, symObjAddr: 0xD550, symBinAddr: 0x10001EAD0, symSize: 0x70 }
  - { offsetInCU: 0x21B5D, offset: 0x6A427, size: 0x8, addend: 0x0, symName: __ZNSt3__111char_traitsIcE6assignEPcmc, symObjAddr: 0xD5C0, symBinAddr: 0x10001EB40, symSize: 0x40 }
  - { offsetInCU: 0x21B9C, offset: 0x6A466, size: 0x8, addend: 0x0, symName: __ZNKSt3__112basic_stringIcNS_11char_traitsIcEENS_9allocatorIcEEE7__allocB7v160006Ev, symObjAddr: 0xD600, symBinAddr: 0x10001EB80, symSize: 0x20 }
  - { offsetInCU: 0x21BC2, offset: 0x6A48C, size: 0x8, addend: 0x0, symName: __ZNKSt3__117__compressed_pairINS_12basic_stringIcNS_11char_traitsIcEENS_9allocatorIcEEE5__repES5_E6secondB7v160006Ev, symObjAddr: 0xD620, symBinAddr: 0x10001EBA0, symSize: 0x20 }
  - { offsetInCU: 0x21BE8, offset: 0x6A4B2, size: 0x8, addend: 0x0, symName: __ZNKSt3__122__compressed_pair_elemINS_9allocatorIcEELi1ELb1EE5__getB7v160006Ev, symObjAddr: 0xD640, symBinAddr: 0x10001EBC0, symSize: 0x10 }
  - { offsetInCU: 0x21C0E, offset: 0x6A4D8, size: 0x8, addend: 0x0, symName: __ZNSt3__112basic_stringIcNS_11char_traitsIcEENS_9allocatorIcEEEC2B7v160006ENS_24__uninitialized_size_tagEmRKS4_, symObjAddr: 0xD650, symBinAddr: 0x10001EBD0, symSize: 0x120 }
  - { offsetInCU: 0x21C8F, offset: 0x6A559, size: 0x8, addend: 0x0, symName: __ZNSt3__117__compressed_pairINS_12basic_stringIcNS_11char_traitsIcEENS_9allocatorIcEEE5__repES5_EC1B7v160006INS_18__default_init_tagERKS5_EEOT_OT0_, symObjAddr: 0xD770, symBinAddr: 0x10001ECF0, symSize: 0x30 }
  - { offsetInCU: 0x21CE7, offset: 0x6A5B1, size: 0x8, addend: 0x0, symName: __ZNKSt3__112basic_stringIcNS_11char_traitsIcEENS_9allocatorIcEEE8max_sizeB7v160006Ev, symObjAddr: 0xD7A0, symBinAddr: 0x10001ED20, symSize: 0xA0 }
  - { offsetInCU: 0x21D39, offset: 0x6A603, size: 0x8, addend: 0x0, symName: __ZNKSt3__112basic_stringIcNS_11char_traitsIcEENS_9allocatorIcEEE20__throw_length_errorB7v160006Ev, symObjAddr: 0xD840, symBinAddr: 0x10001EDC0, symSize: 0x20 }
  - { offsetInCU: 0x21D5F, offset: 0x6A629, size: 0x8, addend: 0x0, symName: __ZNSt3__112basic_stringIcNS_11char_traitsIcEENS_9allocatorIcEEE13__fits_in_ssoB7v160006Em, symObjAddr: 0xD860, symBinAddr: 0x10001EDE0, symSize: 0x20 }
  - { offsetInCU: 0x21D83, offset: 0x6A64D, size: 0x8, addend: 0x0, symName: __ZNSt3__112basic_stringIcNS_11char_traitsIcEENS_9allocatorIcEEE11__recommendB7v160006Em, symObjAddr: 0xD880, symBinAddr: 0x10001EE00, symSize: 0x70 }
  - { offsetInCU: 0x21DB6, offset: 0x6A680, size: 0x8, addend: 0x0, symName: __ZNSt3__116allocator_traitsINS_9allocatorIcEEE8allocateB7v160006ERS2_m, symObjAddr: 0xD8F0, symBinAddr: 0x10001EE70, symSize: 0x30 }
  - { offsetInCU: 0x21DE9, offset: 0x6A6B3, size: 0x8, addend: 0x0, symName: __ZNSt3__112basic_stringIcNS_11char_traitsIcEENS_9allocatorIcEEE16__begin_lifetimeB7v160006EPcm, symObjAddr: 0xD920, symBinAddr: 0x10001EEA0, symSize: 0x10 }
  - { offsetInCU: 0x21E1C, offset: 0x6A6E6, size: 0x8, addend: 0x0, symName: __ZNSt3__112basic_stringIcNS_11char_traitsIcEENS_9allocatorIcEEE14__set_long_capB7v160006Em, symObjAddr: 0xD930, symBinAddr: 0x10001EEB0, symSize: 0x70 }
  - { offsetInCU: 0x21E51, offset: 0x6A71B, size: 0x8, addend: 0x0, symName: __ZNSt3__112basic_stringIcNS_11char_traitsIcEENS_9allocatorIcEEE18__set_long_pointerB7v160006EPc, symObjAddr: 0xD9A0, symBinAddr: 0x10001EF20, symSize: 0x30 }
  - { offsetInCU: 0x21E86, offset: 0x6A750, size: 0x8, addend: 0x0, symName: __ZNSt3__112basic_stringIcNS_11char_traitsIcEENS_9allocatorIcEEE15__set_long_sizeB7v160006Em, symObjAddr: 0xD9D0, symBinAddr: 0x10001EF50, symSize: 0x30 }
  - { offsetInCU: 0x21EBB, offset: 0x6A785, size: 0x8, addend: 0x0, symName: __ZNSt3__117__compressed_pairINS_12basic_stringIcNS_11char_traitsIcEENS_9allocatorIcEEE5__repES5_EC2B7v160006INS_18__default_init_tagERKS5_EEOT_OT0_, symObjAddr: 0xDA00, symBinAddr: 0x10001EF80, symSize: 0x40 }
  - { offsetInCU: 0x21F13, offset: 0x6A7DD, size: 0x8, addend: 0x0, symName: __ZNSt3__122__compressed_pair_elemINS_9allocatorIcEELi1ELb1EEC2B7v160006IRKS2_vEEOT_, symObjAddr: 0xDA40, symBinAddr: 0x10001EFC0, symSize: 0x10 }
  - { offsetInCU: 0x21F55, offset: 0x6A81F, size: 0x8, addend: 0x0, symName: __ZNSt3__116allocator_traitsINS_9allocatorIcEEE8max_sizeB7v160006IS2_vEEmRKS2_, symObjAddr: 0xDA50, symBinAddr: 0x10001EFD0, symSize: 0x20 }
  - { offsetInCU: 0x21F83, offset: 0x6A84D, size: 0x8, addend: 0x0, symName: __ZNSt3__114numeric_limitsImE3maxB7v160006Ev, symObjAddr: 0xDA70, symBinAddr: 0x10001EFF0, symSize: 0x10 }
  - { offsetInCU: 0x21F97, offset: 0x6A861, size: 0x8, addend: 0x0, symName: __ZNKSt3__19allocatorIcE8max_sizeB7v160006Ev, symObjAddr: 0xDA80, symBinAddr: 0x10001F000, symSize: 0x20 }
  - { offsetInCU: 0x21FBD, offset: 0x6A887, size: 0x8, addend: 0x0, symName: __ZNSt3__123__libcpp_numeric_limitsImLb1EE3maxB7v160006Ev, symObjAddr: 0xDAA0, symBinAddr: 0x10001F020, symSize: 0x10 }
  - { offsetInCU: 0x21FD1, offset: 0x6A89B, size: 0x8, addend: 0x0, symName: __ZNSt3__112basic_stringIcNS_11char_traitsIcEENS_9allocatorIcEEE10__align_itB7v160006ILm16EEEmm, symObjAddr: 0xDB90, symBinAddr: 0x10001F030, symSize: 0x20 }
  - { offsetInCU: 0x21FFF, offset: 0x6A8C9, size: 0x8, addend: 0x0, symName: __ZNSt3__19allocatorIcE8allocateB7v160006Em, symObjAddr: 0xDBB0, symBinAddr: 0x10001F050, symSize: 0x50 }
  - { offsetInCU: 0x22057, offset: 0x6A921, size: 0x8, addend: 0x0, symName: __ZNKSt3__114__copy_trivialclB7v160006IKccLi0EEENS_4pairIPT_PT0_EES5_S5_S7_, symObjAddr: 0xDE00, symBinAddr: 0x10001F2A0, symSize: 0x40 }
  - { offsetInCU: 0x220DF, offset: 0x6A9A9, size: 0x8, addend: 0x0, symName: __ZNSt3__14pairIPKcS2_EC1B7v160006IS2_S2_LPv0EEEOT_OT0_, symObjAddr: 0xDF50, symBinAddr: 0x10001F3F0, symSize: 0x30 }
  - { offsetInCU: 0x2213D, offset: 0x6AA07, size: 0x8, addend: 0x0, symName: __ZNSt3__14pairIPKcS2_EC2B7v160006IS2_S2_LPv0EEEOT_OT0_, symObjAddr: 0xDF80, symBinAddr: 0x10001F420, symSize: 0x30 }
  - { offsetInCU: 0x2219B, offset: 0x6AA65, size: 0x8, addend: 0x0, symName: __ZNSt3__118__unwrap_iter_implIPKcLb1EE8__unwrapB7v160006ES2_, symObjAddr: 0xDFB0, symBinAddr: 0x10001F450, symSize: 0x20 }
  - { offsetInCU: 0x221C9, offset: 0x6AA93, size: 0x8, addend: 0x0, symName: __ZNSt3__14pairIPKcPcEC1B7v160006IRS2_S3_LPv0EEEOT_OT0_, symObjAddr: 0xE070, symBinAddr: 0x10001F510, symSize: 0x30 }
  - { offsetInCU: 0x22227, offset: 0x6AAF1, size: 0x8, addend: 0x0, symName: __ZNSt3__14pairIPKcPcEC2B7v160006IRS2_S3_LPv0EEEOT_OT0_, symObjAddr: 0xE0A0, symBinAddr: 0x10001F540, symSize: 0x30 }
  - { offsetInCU: 0x22285, offset: 0x6AB4F, size: 0x8, addend: 0x0, symName: __ZNSt3__118__unwrap_iter_implIPcLb1EE8__unwrapB7v160006ES1_, symObjAddr: 0xE0D0, symBinAddr: 0x10001F570, symSize: 0x20 }
  - { offsetInCU: 0x222A8, offset: 0x6AB72, size: 0x8, addend: 0x0, symName: __ZNSt3__14pairIPKcPcEC1B7v160006IS2_S3_LPv0EEEOT_OT0_, symObjAddr: 0xE0F0, symBinAddr: 0x10001F590, symSize: 0x30 }
  - { offsetInCU: 0x22306, offset: 0x6ABD0, size: 0x8, addend: 0x0, symName: __ZNSt3__14pairIPKcPcEC2B7v160006IS2_S3_LPv0EEEOT_OT0_, symObjAddr: 0xE120, symBinAddr: 0x10001F5C0, symSize: 0x30 }
  - { offsetInCU: 0x22364, offset: 0x6AC2E, size: 0x8, addend: 0x0, symName: __ZNSt3__118__unwrap_iter_implIPKcLb1EE8__rewrapB7v160006ES2_S2_, symObjAddr: 0xE190, symBinAddr: 0x10001F630, symSize: 0x40 }
  - { offsetInCU: 0x22395, offset: 0x6AC5F, size: 0x8, addend: 0x0, symName: __ZNSt3__118__unwrap_iter_implIPcLb1EE8__rewrapB7v160006ES1_S1_, symObjAddr: 0xE1D0, symBinAddr: 0x10001F670, symSize: 0x40 }
  - { offsetInCU: 0x223C6, offset: 0x6AC90, size: 0x8, addend: 0x0, symName: __ZNSt3__16vectorI5RangeNS_9allocatorIS1_EEE19__copy_assign_allocB7v160006ERKS4_, symObjAddr: 0xE3C0, symBinAddr: 0x10001F750, symSize: 0x30 }
  - { offsetInCU: 0x223FB, offset: 0x6ACC5, size: 0x8, addend: 0x0, symName: __ZNSt3__16vectorI5RangeNS_9allocatorIS1_EEE6assignIPS1_Li0EEEvT_S7_, symObjAddr: 0xE3F0, symBinAddr: 0x10001F780, symSize: 0x160 }
  - { offsetInCU: 0x2249A, offset: 0x6AD64, size: 0x8, addend: 0x0, symName: __ZNSt3__16vectorI5RangeNS_9allocatorIS1_EEE19__copy_assign_allocB7v160006ERKS4_NS_17integral_constantIbLb0EEE, symObjAddr: 0xE550, symBinAddr: 0x10001F8E0, symSize: 0x10 }
  - { offsetInCU: 0x224D6, offset: 0x6ADA0, size: 0x8, addend: 0x0, symName: __ZNSt3__16vectorI5RangeNS_9allocatorIS1_EEE18__construct_at_endIPS1_Li0EEEvT_S7_m, symObjAddr: 0xE620, symBinAddr: 0x10001F9B0, symSize: 0x90 }
  - { offsetInCU: 0x22549, offset: 0x6AE13, size: 0x8, addend: 0x0, symName: __ZNSt3__16vectorI5RangeNS_9allocatorIS1_EEE17__destruct_at_endB7v160006EPS1_, symObjAddr: 0xE6B0, symBinAddr: 0x10001FA40, symSize: 0x60 }
  - { offsetInCU: 0x2258D, offset: 0x6AE57, size: 0x8, addend: 0x0, symName: __ZNSt3__16vectorI5RangeNS_9allocatorIS1_EEE13__vdeallocateEv, symObjAddr: 0xE710, symBinAddr: 0x10001FAA0, symSize: 0x80 }
  - { offsetInCU: 0x225B5, offset: 0x6AE7F, size: 0x8, addend: 0x0, symName: __ZNSt3__16vectorI5RangeNS_9allocatorIS1_EEE11__vallocateB7v160006Em, symObjAddr: 0xE790, symBinAddr: 0x10001FB20, symSize: 0xA0 }
  - { offsetInCU: 0x225F9, offset: 0x6AEC3, size: 0x8, addend: 0x0, symName: __ZNKSt3__16vectorI5RangeNS_9allocatorIS1_EEE11__recommendB7v160006Em, symObjAddr: 0xE830, symBinAddr: 0x10001FBC0, symSize: 0xA0 }
  - { offsetInCU: 0x22668, offset: 0x6AF32, size: 0x8, addend: 0x0, symName: __ZNKSt3__114__copy_trivialclB7v160006I5RangeS2_Li0EEENS_4pairIPT_PT0_EES5_S5_S7_, symObjAddr: 0xEAA0, symBinAddr: 0x10001FE30, symSize: 0x40 }
  - { offsetInCU: 0x226D6, offset: 0x6AFA0, size: 0x8, addend: 0x0, symName: __ZNSt3__14pairIP5RangeS2_EC1B7v160006IRS2_S2_LPv0EEEOT_OT0_, symObjAddr: 0xEC50, symBinAddr: 0x10001FFE0, symSize: 0x30 }
  - { offsetInCU: 0x22734, offset: 0x6AFFE, size: 0x8, addend: 0x0, symName: __ZNSt3__14pairIP5RangeS2_EC2B7v160006IRS2_S2_LPv0EEEOT_OT0_, symObjAddr: 0xEC80, symBinAddr: 0x100020010, symSize: 0x30 }
  - { offsetInCU: 0x22792, offset: 0x6B05C, size: 0x8, addend: 0x0, symName: __ZNSt3__118__unwrap_iter_implIP5RangeLb1EE8__unwrapB7v160006ES2_, symObjAddr: 0xECB0, symBinAddr: 0x100020040, symSize: 0x20 }
  - { offsetInCU: 0x227B5, offset: 0x6B07F, size: 0x8, addend: 0x0, symName: __ZNSt3__14pairIP5RangeS2_EC1B7v160006IS2_S2_LPv0EEEOT_OT0_, symObjAddr: 0xECD0, symBinAddr: 0x100020060, symSize: 0x30 }
  - { offsetInCU: 0x22813, offset: 0x6B0DD, size: 0x8, addend: 0x0, symName: __ZNSt3__14pairIP5RangeS2_EC2B7v160006IS2_S2_LPv0EEEOT_OT0_, symObjAddr: 0xED00, symBinAddr: 0x100020090, symSize: 0x30 }
  - { offsetInCU: 0x22871, offset: 0x6B13B, size: 0x8, addend: 0x0, symName: __ZNSt3__118__unwrap_iter_implIP5RangeLb1EE8__rewrapB7v160006ES2_S2_, symObjAddr: 0xED30, symBinAddr: 0x1000200C0, symSize: 0x50 }
  - { offsetInCU: 0x228BB, offset: 0x6B185, size: 0x8, addend: 0x0, symName: __ZNSt3__16vectorI5RangeNS_9allocatorIS1_EEE21_ConstructTransactionC1B7v160006ERS4_m, symObjAddr: 0xED80, symBinAddr: 0x100020110, symSize: 0x30 }
  - { offsetInCU: 0x22903, offset: 0x6B1CD, size: 0x8, addend: 0x0, symName: __ZNSt3__16vectorI5RangeNS_9allocatorIS1_EEE21_ConstructTransactionD1B7v160006Ev, symObjAddr: 0xEEB0, symBinAddr: 0x100020240, symSize: 0x20 }
  - { offsetInCU: 0x2292D, offset: 0x6B1F7, size: 0x8, addend: 0x0, symName: __ZNSt3__16vectorI5RangeNS_9allocatorIS1_EEE21_ConstructTransactionC2B7v160006ERS4_m, symObjAddr: 0xEED0, symBinAddr: 0x100020260, symSize: 0x40 }
  - { offsetInCU: 0x22975, offset: 0x6B23F, size: 0x8, addend: 0x0, symName: __ZNSt3__129_AllocatorDestroyRangeReverseINS_9allocatorI5RangeEEPS2_EC1B7v160006ERS3_RS4_S7_, symObjAddr: 0xEF70, symBinAddr: 0x100020300, symSize: 0x40 }
  - { offsetInCU: 0x229CC, offset: 0x6B296, size: 0x8, addend: 0x0, symName: __ZNSt3__116allocator_traitsINS_9allocatorI5RangeEEE9constructB7v160006IS2_JRS2_EvEEvRS3_PT_DpOT0_, symObjAddr: 0xEFB0, symBinAddr: 0x100020340, symSize: 0x30 }
  - { offsetInCU: 0x22A23, offset: 0x6B2ED, size: 0x8, addend: 0x0, symName: __ZNSt3__128__exception_guard_exceptionsINS_29_AllocatorDestroyRangeReverseINS_9allocatorI5RangeEEPS3_EEE10__completeB7v160006Ev, symObjAddr: 0xEFE0, symBinAddr: 0x100020370, symSize: 0x20 }
  - { offsetInCU: 0x22A49, offset: 0x6B313, size: 0x8, addend: 0x0, symName: __ZNSt3__128__exception_guard_exceptionsINS_29_AllocatorDestroyRangeReverseINS_9allocatorI5RangeEEPS3_EEED1B7v160006Ev, symObjAddr: 0xF000, symBinAddr: 0x100020390, symSize: 0x20 }
  - { offsetInCU: 0x22A73, offset: 0x6B33D, size: 0x8, addend: 0x0, symName: __ZNSt3__128__exception_guard_exceptionsINS_29_AllocatorDestroyRangeReverseINS_9allocatorI5RangeEEPS3_EEEC1B7v160006ES6_, symObjAddr: 0xF020, symBinAddr: 0x1000203B0, symSize: 0x40 }
  - { offsetInCU: 0x22AAB, offset: 0x6B375, size: 0x8, addend: 0x0, symName: __ZNSt3__128__exception_guard_exceptionsINS_29_AllocatorDestroyRangeReverseINS_9allocatorI5RangeEEPS3_EEEC2B7v160006ES6_, symObjAddr: 0xF060, symBinAddr: 0x1000203F0, symSize: 0x30 }
  - { offsetInCU: 0x22AE3, offset: 0x6B3AD, size: 0x8, addend: 0x0, symName: __ZNSt3__129_AllocatorDestroyRangeReverseINS_9allocatorI5RangeEEPS2_EC2B7v160006ERS3_RS4_S7_, symObjAddr: 0xF090, symBinAddr: 0x100020420, symSize: 0x40 }
  - { offsetInCU: 0x22B3A, offset: 0x6B404, size: 0x8, addend: 0x0, symName: __ZNSt3__19allocatorI5RangeE9constructB7v160006IS1_JRS1_EEEvPT_DpOT0_, symObjAddr: 0xF0D0, symBinAddr: 0x100020460, symSize: 0x30 }
  - { offsetInCU: 0x22B90, offset: 0x6B45A, size: 0x8, addend: 0x0, symName: __ZNSt3__128__exception_guard_exceptionsINS_29_AllocatorDestroyRangeReverseINS_9allocatorI5RangeEEPS3_EEED2B7v160006Ev, symObjAddr: 0xF100, symBinAddr: 0x100020490, symSize: 0x40 }
  - { offsetInCU: 0x22BBA, offset: 0x6B484, size: 0x8, addend: 0x0, symName: __ZNKSt3__129_AllocatorDestroyRangeReverseINS_9allocatorI5RangeEEPS2_EclB7v160006Ev, symObjAddr: 0xF140, symBinAddr: 0x1000204D0, symSize: 0x60 }
  - { offsetInCU: 0x22BE0, offset: 0x6B4AA, size: 0x8, addend: 0x0, symName: __ZNSt3__116reverse_iteratorIP5RangeEC1B7v160006ES2_, symObjAddr: 0xF210, symBinAddr: 0x1000205A0, symSize: 0x30 }
  - { offsetInCU: 0x22C18, offset: 0x6B4E2, size: 0x8, addend: 0x0, symName: __ZNSt3__116reverse_iteratorIP5RangeEppB7v160006Ev, symObjAddr: 0xF2A0, symBinAddr: 0x100020630, symSize: 0x20 }
  - { offsetInCU: 0x22C3E, offset: 0x6B508, size: 0x8, addend: 0x0, symName: __ZNKSt3__116reverse_iteratorIP5RangeE4baseB7v160006Ev, symObjAddr: 0xF2C0, symBinAddr: 0x100020650, symSize: 0x20 }
  - { offsetInCU: 0x22C69, offset: 0x6B533, size: 0x8, addend: 0x0, symName: __ZNSt3__119__to_address_helperINS_16reverse_iteratorIP5RangeEEvE6__callB7v160006ERKS4_, symObjAddr: 0xF2E0, symBinAddr: 0x100020670, symSize: 0x40 }
  - { offsetInCU: 0x22C8C, offset: 0x6B556, size: 0x8, addend: 0x0, symName: __ZNKSt3__116reverse_iteratorIP5RangeEptB7v160006Ev, symObjAddr: 0xF320, symBinAddr: 0x1000206B0, symSize: 0x20 }
  - { offsetInCU: 0x22CB2, offset: 0x6B57C, size: 0x8, addend: 0x0, symName: __ZNKSt3__116reverse_iteratorIP5RangeEdeB7v160006Ev, symObjAddr: 0xF340, symBinAddr: 0x1000206D0, symSize: 0x30 }
  - { offsetInCU: 0x22CE6, offset: 0x6B5B0, size: 0x8, addend: 0x0, symName: __ZNSt3__116reverse_iteratorIP5RangeEC2B7v160006ES2_, symObjAddr: 0xF370, symBinAddr: 0x100020700, symSize: 0x30 }
  - { offsetInCU: 0x22D1E, offset: 0x6B5E8, size: 0x8, addend: 0x0, symName: __ZNSt3__16vectorI5RangeNS_9allocatorIS1_EEE21_ConstructTransactionD2B7v160006Ev, symObjAddr: 0xF3A0, symBinAddr: 0x100020730, symSize: 0x20 }
  - { offsetInCU: 0x22D48, offset: 0x6B612, size: 0x8, addend: 0x0, symName: __ZNSt3__16vectorI5RangeNS_9allocatorIS1_EEE27__invalidate_iterators_pastB7v160006EPS1_, symObjAddr: 0xF3C0, symBinAddr: 0x100020750, symSize: 0x10 }
  - { offsetInCU: 0x22D7F, offset: 0x6B649, size: 0x8, addend: 0x0, symName: __ZNKSt3__16vectorI5RangeNS_9allocatorIS1_EEE17__annotate_shrinkB7v160006Em, symObjAddr: 0xF3D0, symBinAddr: 0x100020760, symSize: 0xA0 }
  - { offsetInCU: 0x22DB4, offset: 0x6B67E, size: 0x8, addend: 0x0, symName: __ZNSt3__16vectorI5RangeNS_9allocatorIS1_EEE5clearB7v160006Ev, symObjAddr: 0xF470, symBinAddr: 0x100020800, symSize: 0x50 }
  - { offsetInCU: 0x22DE9, offset: 0x6B6B3, size: 0x8, addend: 0x0, symName: __ZNSt3__16vectorI5RangeNS_9allocatorIS1_EEE9__end_capB7v160006Ev, symObjAddr: 0xF4C0, symBinAddr: 0x100020850, symSize: 0x20 }
  - { offsetInCU: 0x22E0F, offset: 0x6B6D9, size: 0x8, addend: 0x0, symName: __ZNSt3__117__compressed_pairIP5RangeNS_9allocatorIS1_EEE5firstB7v160006Ev, symObjAddr: 0xF4E0, symBinAddr: 0x100020870, symSize: 0x20 }
  - { offsetInCU: 0x22E35, offset: 0x6B6FF, size: 0x8, addend: 0x0, symName: __ZNSt3__122__compressed_pair_elemIP5RangeLi0ELb0EE5__getB7v160006Ev, symObjAddr: 0xF500, symBinAddr: 0x100020890, symSize: 0x10 }
  - { offsetInCU: 0x22E5B, offset: 0x6B725, size: 0x8, addend: 0x0, symName: __ZNKSt3__16vectorI5RangeNS_9allocatorIS1_EEE8max_sizeEv, symObjAddr: 0xF510, symBinAddr: 0x1000208A0, symSize: 0x60 }
  - { offsetInCU: 0x22E83, offset: 0x6B74D, size: 0x8, addend: 0x0, symName: __ZNKSt3__16vectorI5RangeNS_9allocatorIS1_EEE20__throw_length_errorB7v160006Ev, symObjAddr: 0xF570, symBinAddr: 0x100020900, symSize: 0x20 }
  - { offsetInCU: 0x22EA9, offset: 0x6B773, size: 0x8, addend: 0x0, symName: __ZNKSt3__16vectorI5RangeNS_9allocatorIS1_EEE14__annotate_newB7v160006Em, symObjAddr: 0xF5D0, symBinAddr: 0x100020960, symSize: 0xB0 }
  - { offsetInCU: 0x22EE8, offset: 0x6B7B2, size: 0x8, addend: 0x0, symName: __ZNSt3__116allocator_traitsINS_9allocatorI5RangeEEE8max_sizeB7v160006IS3_vEEmRKS3_, symObjAddr: 0xF6B0, symBinAddr: 0x100020A10, symSize: 0x20 }
  - { offsetInCU: 0x22F16, offset: 0x6B7E0, size: 0x8, addend: 0x0, symName: __ZNKSt3__16vectorI5RangeNS_9allocatorIS1_EEE7__allocB7v160006Ev, symObjAddr: 0xF6D0, symBinAddr: 0x100020A30, symSize: 0x20 }
  - { offsetInCU: 0x22F3C, offset: 0x6B806, size: 0x8, addend: 0x0, symName: __ZNKSt3__19allocatorI5RangeE8max_sizeB7v160006Ev, symObjAddr: 0xF750, symBinAddr: 0x100020A50, symSize: 0x20 }
  - { offsetInCU: 0x22F62, offset: 0x6B82C, size: 0x8, addend: 0x0, symName: __ZNKSt3__117__compressed_pairIP5RangeNS_9allocatorIS1_EEE6secondB7v160006Ev, symObjAddr: 0xF770, symBinAddr: 0x100020A70, symSize: 0x20 }
  - { offsetInCU: 0x22F88, offset: 0x6B852, size: 0x8, addend: 0x0, symName: __ZNKSt3__122__compressed_pair_elemINS_9allocatorI5RangeEELi1ELb1EE5__getB7v160006Ev, symObjAddr: 0xF790, symBinAddr: 0x100020A90, symSize: 0x10 }
  - { offsetInCU: 0x22FAE, offset: 0x6B878, size: 0x8, addend: 0x0, symName: __ZNSt3__19allocatorI5RangeE8allocateB7v160006Em, symObjAddr: 0xF7B0, symBinAddr: 0x100020AA0, symSize: 0x50 }
  - { offsetInCU: 0x22FE2, offset: 0x6B8AC, size: 0x8, addend: 0x0, symName: __ZNSt3__16vectorIP6SampleNS_9allocatorIS2_EEE9__end_capB7v160006Ev, symObjAddr: 0xF800, symBinAddr: 0x100020AF0, symSize: 0x20 }
  - { offsetInCU: 0x23008, offset: 0x6B8D2, size: 0x8, addend: 0x0, symName: __ZNSt3__16vectorIP6SampleNS_9allocatorIS2_EEE22__construct_one_at_endB7v160006IJRKS2_EEEvDpOT_, symObjAddr: 0xF820, symBinAddr: 0x100020B10, symSize: 0x90 }
  - { offsetInCU: 0x23057, offset: 0x6B921, size: 0x8, addend: 0x0, symName: __ZNSt3__16vectorIP6SampleNS_9allocatorIS2_EEE21__push_back_slow_pathIRKS2_EEvOT_, symObjAddr: 0xF8B0, symBinAddr: 0x100020BA0, symSize: 0xD0 }
  - { offsetInCU: 0x230B5, offset: 0x6B97F, size: 0x8, addend: 0x0, symName: __ZNSt3__117__compressed_pairIPP6SampleNS_9allocatorIS2_EEE5firstB7v160006Ev, symObjAddr: 0xF980, symBinAddr: 0x100020C70, symSize: 0x20 }
  - { offsetInCU: 0x230DB, offset: 0x6B9A5, size: 0x8, addend: 0x0, symName: __ZNSt3__122__compressed_pair_elemIPP6SampleLi0ELb0EE5__getB7v160006Ev, symObjAddr: 0xF9A0, symBinAddr: 0x100020C90, symSize: 0x10 }
  - { offsetInCU: 0x2311A, offset: 0x6B9E4, size: 0x8, addend: 0x0, symName: __ZNSt3__16vectorIP6SampleNS_9allocatorIS2_EEE21_ConstructTransactionC1B7v160006ERS5_m, symObjAddr: 0xF9B0, symBinAddr: 0x100020CA0, symSize: 0x30 }
  - { offsetInCU: 0x23162, offset: 0x6BA2C, size: 0x8, addend: 0x0, symName: __ZNSt3__116allocator_traitsINS_9allocatorIP6SampleEEE9constructB7v160006IS3_JRKS3_EvEEvRS4_PT_DpOT0_, symObjAddr: 0xF9E0, symBinAddr: 0x100020CD0, symSize: 0x30 }
  - { offsetInCU: 0x231B9, offset: 0x6BA83, size: 0x8, addend: 0x0, symName: __ZNSt3__16vectorIP6SampleNS_9allocatorIS2_EEE21_ConstructTransactionD1B7v160006Ev, symObjAddr: 0xFA10, symBinAddr: 0x100020D00, symSize: 0x20 }
  - { offsetInCU: 0x231E3, offset: 0x6BAAD, size: 0x8, addend: 0x0, symName: __ZNSt3__16vectorIP6SampleNS_9allocatorIS2_EEE21_ConstructTransactionC2B7v160006ERS5_m, symObjAddr: 0xFA30, symBinAddr: 0x100020D20, symSize: 0x40 }
  - { offsetInCU: 0x2322B, offset: 0x6BAF5, size: 0x8, addend: 0x0, symName: __ZNSt3__19allocatorIP6SampleE9constructB7v160006IS2_JRKS2_EEEvPT_DpOT0_, symObjAddr: 0xFA70, symBinAddr: 0x100020D60, symSize: 0x20 }
  - { offsetInCU: 0x23281, offset: 0x6BB4B, size: 0x8, addend: 0x0, symName: __ZNSt3__16vectorIP6SampleNS_9allocatorIS2_EEE21_ConstructTransactionD2B7v160006Ev, symObjAddr: 0xFA90, symBinAddr: 0x100020D80, symSize: 0x20 }
  - { offsetInCU: 0x232AB, offset: 0x6BB75, size: 0x8, addend: 0x0, symName: __ZNKSt3__16vectorIP6SampleNS_9allocatorIS2_EEE11__recommendB7v160006Em, symObjAddr: 0xFAB0, symBinAddr: 0x100020DA0, symSize: 0xA0 }
  - { offsetInCU: 0x23300, offset: 0x6BBCA, size: 0x8, addend: 0x0, symName: __ZNSt3__114__split_bufferIP6SampleRNS_9allocatorIS2_EEEC1EmmS5_, symObjAddr: 0xFB50, symBinAddr: 0x100020E40, symSize: 0x40 }
  - { offsetInCU: 0x23356, offset: 0x6BC20, size: 0x8, addend: 0x0, symName: __ZNSt3__114__split_bufferIP6SampleRNS_9allocatorIS2_EEED1Ev, symObjAddr: 0xFCC0, symBinAddr: 0x100020FB0, symSize: 0x20 }
  - { offsetInCU: 0x23382, offset: 0x6BC4C, size: 0x8, addend: 0x0, symName: __ZNKSt3__16vectorIP6SampleNS_9allocatorIS2_EEE8max_sizeEv, symObjAddr: 0xFCE0, symBinAddr: 0x100020FD0, symSize: 0x60 }
  - { offsetInCU: 0x233AA, offset: 0x6BC74, size: 0x8, addend: 0x0, symName: __ZNKSt3__16vectorIP6SampleNS_9allocatorIS2_EEE20__throw_length_errorB7v160006Ev, symObjAddr: 0xFD40, symBinAddr: 0x100021030, symSize: 0x20 }
  - { offsetInCU: 0x233DA, offset: 0x6BCA4, size: 0x8, addend: 0x0, symName: __ZNSt3__116allocator_traitsINS_9allocatorIP6SampleEEE8max_sizeB7v160006IS4_vEEmRKS4_, symObjAddr: 0xFD60, symBinAddr: 0x100021050, symSize: 0x20 }
  - { offsetInCU: 0x23408, offset: 0x6BCD2, size: 0x8, addend: 0x0, symName: __ZNKSt3__16vectorIP6SampleNS_9allocatorIS2_EEE7__allocB7v160006Ev, symObjAddr: 0xFD80, symBinAddr: 0x100021070, symSize: 0x20 }
  - { offsetInCU: 0x2342E, offset: 0x6BCF8, size: 0x8, addend: 0x0, symName: __ZNKSt3__19allocatorIP6SampleE8max_sizeB7v160006Ev, symObjAddr: 0xFDA0, symBinAddr: 0x100021090, symSize: 0x20 }
  - { offsetInCU: 0x23454, offset: 0x6BD1E, size: 0x8, addend: 0x0, symName: __ZNKSt3__117__compressed_pairIPP6SampleNS_9allocatorIS2_EEE6secondB7v160006Ev, symObjAddr: 0xFDC0, symBinAddr: 0x1000210B0, symSize: 0x20 }
  - { offsetInCU: 0x2347A, offset: 0x6BD44, size: 0x8, addend: 0x0, symName: __ZNKSt3__122__compressed_pair_elemINS_9allocatorIP6SampleEELi1ELb1EE5__getB7v160006Ev, symObjAddr: 0xFDE0, symBinAddr: 0x1000210D0, symSize: 0x10 }
  - { offsetInCU: 0x234A0, offset: 0x6BD6A, size: 0x8, addend: 0x0, symName: __ZNSt3__114__split_bufferIP6SampleRNS_9allocatorIS2_EEEC2EmmS5_, symObjAddr: 0xFDF0, symBinAddr: 0x1000210E0, symSize: 0xD0 }
  - { offsetInCU: 0x23513, offset: 0x6BDDD, size: 0x8, addend: 0x0, symName: __ZNSt3__117__compressed_pairIPP6SampleRNS_9allocatorIS2_EEEC1B7v160006IDnS6_EEOT_OT0_, symObjAddr: 0xFEC0, symBinAddr: 0x1000211B0, symSize: 0x30 }
  - { offsetInCU: 0x2356B, offset: 0x6BE35, size: 0x8, addend: 0x0, symName: __ZNSt3__114__split_bufferIP6SampleRNS_9allocatorIS2_EEE7__allocB7v160006Ev, symObjAddr: 0xFF30, symBinAddr: 0x100021220, symSize: 0x20 }
  - { offsetInCU: 0x23591, offset: 0x6BE5B, size: 0x8, addend: 0x0, symName: __ZNSt3__114__split_bufferIP6SampleRNS_9allocatorIS2_EEE9__end_capB7v160006Ev, symObjAddr: 0xFF50, symBinAddr: 0x100021240, symSize: 0x20 }
  - { offsetInCU: 0x235B7, offset: 0x6BE81, size: 0x8, addend: 0x0, symName: __ZNSt3__117__compressed_pairIPP6SampleRNS_9allocatorIS2_EEEC2B7v160006IDnS6_EEOT_OT0_, symObjAddr: 0xFF70, symBinAddr: 0x100021260, symSize: 0x40 }
  - { offsetInCU: 0x2360F, offset: 0x6BED9, size: 0x8, addend: 0x0, symName: __ZNSt3__122__compressed_pair_elemIRNS_9allocatorIP6SampleEELi1ELb0EEC2B7v160006IS5_vEEOT_, symObjAddr: 0xFFB0, symBinAddr: 0x1000212A0, symSize: 0x20 }
  - { offsetInCU: 0x23651, offset: 0x6BF1B, size: 0x8, addend: 0x0, symName: __ZNSt3__19allocatorIP6SampleE8allocateB7v160006Em, symObjAddr: 0xFFD0, symBinAddr: 0x1000212C0, symSize: 0x50 }
  - { offsetInCU: 0x23685, offset: 0x6BF4F, size: 0x8, addend: 0x0, symName: __ZNSt3__117__compressed_pairIPP6SampleRNS_9allocatorIS2_EEE6secondB7v160006Ev, symObjAddr: 0x10020, symBinAddr: 0x100021310, symSize: 0x20 }
  - { offsetInCU: 0x236AB, offset: 0x6BF75, size: 0x8, addend: 0x0, symName: __ZNSt3__122__compressed_pair_elemIRNS_9allocatorIP6SampleEELi1ELb0EE5__getB7v160006Ev, symObjAddr: 0x10040, symBinAddr: 0x100021330, symSize: 0x20 }
  - { offsetInCU: 0x236D1, offset: 0x6BF9B, size: 0x8, addend: 0x0, symName: __ZNSt3__117__compressed_pairIPP6SampleRNS_9allocatorIS2_EEE5firstB7v160006Ev, symObjAddr: 0x10060, symBinAddr: 0x100021350, symSize: 0x20 }
  - { offsetInCU: 0x236F7, offset: 0x6BFC1, size: 0x8, addend: 0x0, symName: __ZNSt3__116reverse_iteratorIPP6SampleEC1B7v160006ES3_, symObjAddr: 0x100F0, symBinAddr: 0x1000213E0, symSize: 0x30 }
  - { offsetInCU: 0x2372F, offset: 0x6BFF9, size: 0x8, addend: 0x0, symName: __ZNKSt3__116reverse_iteratorIPP6SampleE4baseB7v160006Ev, symObjAddr: 0x10120, symBinAddr: 0x100021410, symSize: 0x20 }
  - { offsetInCU: 0x23755, offset: 0x6C01F, size: 0x8, addend: 0x0, symName: __ZNKSt3__16vectorIP6SampleNS_9allocatorIS2_EEE14__annotate_newB7v160006Em, symObjAddr: 0x10180, symBinAddr: 0x100021470, symSize: 0xB0 }
  - { offsetInCU: 0x237AE, offset: 0x6C078, size: 0x8, addend: 0x0, symName: __ZNKSt3__111__move_loopINS_17_ClassicAlgPolicyEEclB7v160006INS_16reverse_iteratorIPP6SampleEES8_S8_EENS_4pairIT_T1_EESA_T0_SB_, symObjAddr: 0x10680, symBinAddr: 0x100021970, symSize: 0xA0 }
  - { offsetInCU: 0x2381F, offset: 0x6C0E9, size: 0x8, addend: 0x0, symName: __ZNSt3__18_IterOpsINS_17_ClassicAlgPolicyEE11__iter_moveB7v160006IRNS_16reverse_iteratorIPP6SampleEEEENS_9enable_ifIXsr12is_referenceIDTdeclsr3stdE7declvalIRT_EEEEE5valueEDTclsr3stdE4movedeclsr3stdE7declvalISC_EEEEE4typeEOSB_, symObjAddr: 0x108A0, symBinAddr: 0x100021B90, symSize: 0x20 }
  - { offsetInCU: 0x2384B, offset: 0x6C115, size: 0x8, addend: 0x0, symName: __ZNKSt3__116reverse_iteratorIPP6SampleEdeB7v160006Ev, symObjAddr: 0x108C0, symBinAddr: 0x100021BB0, symSize: 0x30 }
  - { offsetInCU: 0x2387F, offset: 0x6C149, size: 0x8, addend: 0x0, symName: __ZNSt3__116reverse_iteratorIPP6SampleEppB7v160006Ev, symObjAddr: 0x108F0, symBinAddr: 0x100021BE0, symSize: 0x20 }
  - { offsetInCU: 0x238A5, offset: 0x6C16F, size: 0x8, addend: 0x0, symName: __ZNSt3__18_IterOpsINS_17_ClassicAlgPolicyEE25__validate_iter_referenceB7v160006IRNS_16reverse_iteratorIPP6SampleEEEEvv, symObjAddr: 0x10910, symBinAddr: 0x100021C00, symSize: 0x10 }
  - { offsetInCU: 0x238C3, offset: 0x6C18D, size: 0x8, addend: 0x0, symName: __ZNSt3__118__unwrap_iter_implINS_16reverse_iteratorIPP6SampleEELb0EE8__unwrapB7v160006ES5_, symObjAddr: 0x10920, symBinAddr: 0x100021C10, symSize: 0x20 }
  - { offsetInCU: 0x238EC, offset: 0x6C1B6, size: 0x8, addend: 0x0, symName: __ZNSt3__14pairINS_16reverse_iteratorIPP6SampleEES5_EC1B7v160006IS5_S5_LPv0EEEOT_OT0_, symObjAddr: 0x10940, symBinAddr: 0x100021C30, symSize: 0x30 }
  - { offsetInCU: 0x2394A, offset: 0x6C214, size: 0x8, addend: 0x0, symName: __ZNSt3__14pairINS_16reverse_iteratorIPP6SampleEES5_EC2B7v160006IS5_S5_LPv0EEEOT_OT0_, symObjAddr: 0x10970, symBinAddr: 0x100021C60, symSize: 0x40 }
  - { offsetInCU: 0x239A8, offset: 0x6C272, size: 0x8, addend: 0x0, symName: __ZNSt3__118__unwrap_iter_implINS_16reverse_iteratorIPP6SampleEELb0EE8__rewrapB7v160006ES5_S5_, symObjAddr: 0x109B0, symBinAddr: 0x100021CA0, symSize: 0x30 }
  - { offsetInCU: 0x239D6, offset: 0x6C2A0, size: 0x8, addend: 0x0, symName: __ZNSt3__116reverse_iteratorIPP6SampleEC2B7v160006ES3_, symObjAddr: 0x109E0, symBinAddr: 0x100021CD0, symSize: 0x30 }
  - { offsetInCU: 0x23A0E, offset: 0x6C2D8, size: 0x8, addend: 0x0, symName: __ZNSt3__114__split_bufferIP6SampleRNS_9allocatorIS2_EEED2Ev, symObjAddr: 0x10A10, symBinAddr: 0x100021D00, symSize: 0x70 }
  - { offsetInCU: 0x23A3A, offset: 0x6C304, size: 0x8, addend: 0x0, symName: __ZNSt3__114__split_bufferIP6SampleRNS_9allocatorIS2_EEE5clearB7v160006Ev, symObjAddr: 0x10A80, symBinAddr: 0x100021D70, symSize: 0x20 }
  - { offsetInCU: 0x23A60, offset: 0x6C32A, size: 0x8, addend: 0x0, symName: __ZNKSt3__114__split_bufferIP6SampleRNS_9allocatorIS2_EEE8capacityB7v160006Ev, symObjAddr: 0x10AA0, symBinAddr: 0x100021D90, symSize: 0x30 }
  - { offsetInCU: 0x23A86, offset: 0x6C350, size: 0x8, addend: 0x0, symName: __ZNSt3__114__split_bufferIP6SampleRNS_9allocatorIS2_EEE17__destruct_at_endB7v160006EPS2_, symObjAddr: 0x10AD0, symBinAddr: 0x100021DC0, symSize: 0x30 }
  - { offsetInCU: 0x23ABA, offset: 0x6C384, size: 0x8, addend: 0x0, symName: __ZNSt3__114__split_bufferIP6SampleRNS_9allocatorIS2_EEE17__destruct_at_endB7v160006EPS2_NS_17integral_constantIbLb0EEE, symObjAddr: 0x10B00, symBinAddr: 0x100021DF0, symSize: 0x80 }
  - { offsetInCU: 0x23AFB, offset: 0x6C3C5, size: 0x8, addend: 0x0, symName: __ZNKSt3__114__split_bufferIP6SampleRNS_9allocatorIS2_EEE9__end_capB7v160006Ev, symObjAddr: 0x10B80, symBinAddr: 0x100021E70, symSize: 0x20 }
  - { offsetInCU: 0x23B21, offset: 0x6C3EB, size: 0x8, addend: 0x0, symName: __ZNKSt3__117__compressed_pairIPP6SampleRNS_9allocatorIS2_EEE5firstB7v160006Ev, symObjAddr: 0x10BA0, symBinAddr: 0x100021E90, symSize: 0x20 }
  - { offsetInCU: 0x23B47, offset: 0x6C411, size: 0x8, addend: 0x0, symName: __ZNSt3__16vectorIPN6Fuzzer16SampleQueueEntryENS_9allocatorIS3_EEE9__end_capB7v160006Ev, symObjAddr: 0x10BC0, symBinAddr: 0x100021EB0, symSize: 0x20 }
  - { offsetInCU: 0x23B6D, offset: 0x6C437, size: 0x8, addend: 0x0, symName: __ZNSt3__16vectorIPN6Fuzzer16SampleQueueEntryENS_9allocatorIS3_EEE22__construct_one_at_endB7v160006IJRKS3_EEEvDpOT_, symObjAddr: 0x10BE0, symBinAddr: 0x100021ED0, symSize: 0x90 }
  - { offsetInCU: 0x23BBC, offset: 0x6C486, size: 0x8, addend: 0x0, symName: __ZNSt3__16vectorIPN6Fuzzer16SampleQueueEntryENS_9allocatorIS3_EEE21__push_back_slow_pathIRKS3_EEvOT_, symObjAddr: 0x10C70, symBinAddr: 0x100021F60, symSize: 0xD0 }
  - { offsetInCU: 0x23C1A, offset: 0x6C4E4, size: 0x8, addend: 0x0, symName: __ZNSt3__117__compressed_pairIPPN6Fuzzer16SampleQueueEntryENS_9allocatorIS3_EEE5firstB7v160006Ev, symObjAddr: 0x10D40, symBinAddr: 0x100022030, symSize: 0x20 }
  - { offsetInCU: 0x23C40, offset: 0x6C50A, size: 0x8, addend: 0x0, symName: __ZNSt3__122__compressed_pair_elemIPPN6Fuzzer16SampleQueueEntryELi0ELb0EE5__getB7v160006Ev, symObjAddr: 0x10D60, symBinAddr: 0x100022050, symSize: 0x10 }
  - { offsetInCU: 0x23C7F, offset: 0x6C549, size: 0x8, addend: 0x0, symName: __ZNSt3__16vectorIPN6Fuzzer16SampleQueueEntryENS_9allocatorIS3_EEE21_ConstructTransactionC1B7v160006ERS6_m, symObjAddr: 0x10D70, symBinAddr: 0x100022060, symSize: 0x30 }
  - { offsetInCU: 0x23CC7, offset: 0x6C591, size: 0x8, addend: 0x0, symName: __ZNSt3__116allocator_traitsINS_9allocatorIPN6Fuzzer16SampleQueueEntryEEEE9constructB7v160006IS4_JRKS4_EvEEvRS5_PT_DpOT0_, symObjAddr: 0x10DA0, symBinAddr: 0x100022090, symSize: 0x30 }
  - { offsetInCU: 0x23D1E, offset: 0x6C5E8, size: 0x8, addend: 0x0, symName: __ZNSt3__16vectorIPN6Fuzzer16SampleQueueEntryENS_9allocatorIS3_EEE21_ConstructTransactionD1B7v160006Ev, symObjAddr: 0x10E00, symBinAddr: 0x1000220C0, symSize: 0x20 }
  - { offsetInCU: 0x23D48, offset: 0x6C612, size: 0x8, addend: 0x0, symName: __ZNSt3__16vectorIPN6Fuzzer16SampleQueueEntryENS_9allocatorIS3_EEE21_ConstructTransactionC2B7v160006ERS6_m, symObjAddr: 0x10E20, symBinAddr: 0x1000220E0, symSize: 0x40 }
  - { offsetInCU: 0x23D90, offset: 0x6C65A, size: 0x8, addend: 0x0, symName: __ZNSt3__19allocatorIPN6Fuzzer16SampleQueueEntryEE9constructB7v160006IS3_JRKS3_EEEvPT_DpOT0_, symObjAddr: 0x10E60, symBinAddr: 0x100022120, symSize: 0x20 }
  - { offsetInCU: 0x23DE6, offset: 0x6C6B0, size: 0x8, addend: 0x0, symName: __ZNSt3__16vectorIPN6Fuzzer16SampleQueueEntryENS_9allocatorIS3_EEE21_ConstructTransactionD2B7v160006Ev, symObjAddr: 0x10EB0, symBinAddr: 0x100022140, symSize: 0x20 }
  - { offsetInCU: 0x23E10, offset: 0x6C6DA, size: 0x8, addend: 0x0, symName: __ZNKSt3__16vectorIPN6Fuzzer16SampleQueueEntryENS_9allocatorIS3_EEE11__recommendB7v160006Em, symObjAddr: 0x10ED0, symBinAddr: 0x100022160, symSize: 0xA0 }
  - { offsetInCU: 0x23E65, offset: 0x6C72F, size: 0x8, addend: 0x0, symName: __ZNSt3__114__split_bufferIPN6Fuzzer16SampleQueueEntryERNS_9allocatorIS3_EEEC1EmmS6_, symObjAddr: 0x10F70, symBinAddr: 0x100022200, symSize: 0x40 }
  - { offsetInCU: 0x23EBB, offset: 0x6C785, size: 0x8, addend: 0x0, symName: __ZNSt3__114__split_bufferIPN6Fuzzer16SampleQueueEntryERNS_9allocatorIS3_EEED1Ev, symObjAddr: 0x110E0, symBinAddr: 0x100022370, symSize: 0x20 }
  - { offsetInCU: 0x23EE7, offset: 0x6C7B1, size: 0x8, addend: 0x0, symName: __ZNKSt3__16vectorIPN6Fuzzer16SampleQueueEntryENS_9allocatorIS3_EEE8max_sizeEv, symObjAddr: 0x11100, symBinAddr: 0x100022390, symSize: 0x60 }
  - { offsetInCU: 0x23F0F, offset: 0x6C7D9, size: 0x8, addend: 0x0, symName: __ZNKSt3__16vectorIPN6Fuzzer16SampleQueueEntryENS_9allocatorIS3_EEE20__throw_length_errorB7v160006Ev, symObjAddr: 0x11160, symBinAddr: 0x1000223F0, symSize: 0x20 }
  - { offsetInCU: 0x23F3F, offset: 0x6C809, size: 0x8, addend: 0x0, symName: __ZNSt3__116allocator_traitsINS_9allocatorIPN6Fuzzer16SampleQueueEntryEEEE8max_sizeB7v160006IS5_vEEmRKS5_, symObjAddr: 0x111B0, symBinAddr: 0x100022410, symSize: 0x20 }
  - { offsetInCU: 0x23F6D, offset: 0x6C837, size: 0x8, addend: 0x0, symName: __ZNKSt3__16vectorIPN6Fuzzer16SampleQueueEntryENS_9allocatorIS3_EEE7__allocB7v160006Ev, symObjAddr: 0x111D0, symBinAddr: 0x100022430, symSize: 0x20 }
  - { offsetInCU: 0x23F93, offset: 0x6C85D, size: 0x8, addend: 0x0, symName: __ZNKSt3__19allocatorIPN6Fuzzer16SampleQueueEntryEE8max_sizeB7v160006Ev, symObjAddr: 0x111F0, symBinAddr: 0x100022450, symSize: 0x20 }
  - { offsetInCU: 0x23FB9, offset: 0x6C883, size: 0x8, addend: 0x0, symName: __ZNKSt3__117__compressed_pairIPPN6Fuzzer16SampleQueueEntryENS_9allocatorIS3_EEE6secondB7v160006Ev, symObjAddr: 0x11210, symBinAddr: 0x100022470, symSize: 0x20 }
  - { offsetInCU: 0x23FDF, offset: 0x6C8A9, size: 0x8, addend: 0x0, symName: __ZNKSt3__122__compressed_pair_elemINS_9allocatorIPN6Fuzzer16SampleQueueEntryEEELi1ELb1EE5__getB7v160006Ev, symObjAddr: 0x11230, symBinAddr: 0x100022490, symSize: 0x10 }
  - { offsetInCU: 0x24005, offset: 0x6C8CF, size: 0x8, addend: 0x0, symName: __ZNSt3__114__split_bufferIPN6Fuzzer16SampleQueueEntryERNS_9allocatorIS3_EEEC2EmmS6_, symObjAddr: 0x11290, symBinAddr: 0x1000224A0, symSize: 0xD0 }
  - { offsetInCU: 0x24078, offset: 0x6C942, size: 0x8, addend: 0x0, symName: __ZNSt3__117__compressed_pairIPPN6Fuzzer16SampleQueueEntryERNS_9allocatorIS3_EEEC1B7v160006IDnS7_EEOT_OT0_, symObjAddr: 0x11360, symBinAddr: 0x100022570, symSize: 0x30 }
  - { offsetInCU: 0x240D0, offset: 0x6C99A, size: 0x8, addend: 0x0, symName: __ZNSt3__114__split_bufferIPN6Fuzzer16SampleQueueEntryERNS_9allocatorIS3_EEE7__allocB7v160006Ev, symObjAddr: 0x113D0, symBinAddr: 0x1000225E0, symSize: 0x20 }
  - { offsetInCU: 0x240F6, offset: 0x6C9C0, size: 0x8, addend: 0x0, symName: __ZNSt3__114__split_bufferIPN6Fuzzer16SampleQueueEntryERNS_9allocatorIS3_EEE9__end_capB7v160006Ev, symObjAddr: 0x113F0, symBinAddr: 0x100022600, symSize: 0x20 }
  - { offsetInCU: 0x2411C, offset: 0x6C9E6, size: 0x8, addend: 0x0, symName: __ZNSt3__117__compressed_pairIPPN6Fuzzer16SampleQueueEntryERNS_9allocatorIS3_EEEC2B7v160006IDnS7_EEOT_OT0_, symObjAddr: 0x11410, symBinAddr: 0x100022620, symSize: 0x40 }
  - { offsetInCU: 0x24174, offset: 0x6CA3E, size: 0x8, addend: 0x0, symName: __ZNSt3__122__compressed_pair_elemIRNS_9allocatorIPN6Fuzzer16SampleQueueEntryEEELi1ELb0EEC2B7v160006IS6_vEEOT_, symObjAddr: 0x11470, symBinAddr: 0x100022660, symSize: 0x20 }
  - { offsetInCU: 0x241B6, offset: 0x6CA80, size: 0x8, addend: 0x0, symName: __ZNSt3__19allocatorIPN6Fuzzer16SampleQueueEntryEE8allocateB7v160006Em, symObjAddr: 0x11490, symBinAddr: 0x100022680, symSize: 0x50 }
  - { offsetInCU: 0x241EA, offset: 0x6CAB4, size: 0x8, addend: 0x0, symName: __ZNSt3__117__compressed_pairIPPN6Fuzzer16SampleQueueEntryERNS_9allocatorIS3_EEE6secondB7v160006Ev, symObjAddr: 0x114E0, symBinAddr: 0x1000226D0, symSize: 0x20 }
  - { offsetInCU: 0x24210, offset: 0x6CADA, size: 0x8, addend: 0x0, symName: __ZNSt3__122__compressed_pair_elemIRNS_9allocatorIPN6Fuzzer16SampleQueueEntryEEELi1ELb0EE5__getB7v160006Ev, symObjAddr: 0x11500, symBinAddr: 0x1000226F0, symSize: 0x20 }
  - { offsetInCU: 0x24236, offset: 0x6CB00, size: 0x8, addend: 0x0, symName: __ZNSt3__117__compressed_pairIPPN6Fuzzer16SampleQueueEntryERNS_9allocatorIS3_EEE5firstB7v160006Ev, symObjAddr: 0x11520, symBinAddr: 0x100022710, symSize: 0x20 }
  - { offsetInCU: 0x2425C, offset: 0x6CB26, size: 0x8, addend: 0x0, symName: __ZNSt3__116reverse_iteratorIPPN6Fuzzer16SampleQueueEntryEEC1B7v160006ES4_, symObjAddr: 0x11660, symBinAddr: 0x1000227A0, symSize: 0x30 }
  - { offsetInCU: 0x24294, offset: 0x6CB5E, size: 0x8, addend: 0x0, symName: __ZNKSt3__116reverse_iteratorIPPN6Fuzzer16SampleQueueEntryEE4baseB7v160006Ev, symObjAddr: 0x11690, symBinAddr: 0x1000227D0, symSize: 0x20 }
  - { offsetInCU: 0x242BA, offset: 0x6CB84, size: 0x8, addend: 0x0, symName: __ZNKSt3__16vectorIPN6Fuzzer16SampleQueueEntryENS_9allocatorIS3_EEE14__annotate_newB7v160006Em, symObjAddr: 0x116F0, symBinAddr: 0x100022830, symSize: 0xB0 }
  - { offsetInCU: 0x24309, offset: 0x6CBD3, size: 0x8, addend: 0x0, symName: __ZNKSt3__111__move_loopINS_17_ClassicAlgPolicyEEclB7v160006INS_16reverse_iteratorIPPN6Fuzzer16SampleQueueEntryEEES9_S9_EENS_4pairIT_T1_EESB_T0_SC_, symObjAddr: 0x11C30, symBinAddr: 0x100022D30, symSize: 0xA0 }
  - { offsetInCU: 0x2437A, offset: 0x6CC44, size: 0x8, addend: 0x0, symName: __ZNSt3__18_IterOpsINS_17_ClassicAlgPolicyEE11__iter_moveB7v160006IRNS_16reverse_iteratorIPPN6Fuzzer16SampleQueueEntryEEEEENS_9enable_ifIXsr12is_referenceIDTdeclsr3stdE7declvalIRT_EEEEE5valueEDTclsr3stdE4movedeclsr3stdE7declvalISD_EEEEE4typeEOSC_, symObjAddr: 0x11E50, symBinAddr: 0x100022F50, symSize: 0x20 }
  - { offsetInCU: 0x243A6, offset: 0x6CC70, size: 0x8, addend: 0x0, symName: __ZNKSt3__116reverse_iteratorIPPN6Fuzzer16SampleQueueEntryEEdeB7v160006Ev, symObjAddr: 0x11E70, symBinAddr: 0x100022F70, symSize: 0x30 }
  - { offsetInCU: 0x243DA, offset: 0x6CCA4, size: 0x8, addend: 0x0, symName: __ZNSt3__116reverse_iteratorIPPN6Fuzzer16SampleQueueEntryEEppB7v160006Ev, symObjAddr: 0x11EA0, symBinAddr: 0x100022FA0, symSize: 0x20 }
  - { offsetInCU: 0x24400, offset: 0x6CCCA, size: 0x8, addend: 0x0, symName: __ZNSt3__18_IterOpsINS_17_ClassicAlgPolicyEE25__validate_iter_referenceB7v160006IRNS_16reverse_iteratorIPPN6Fuzzer16SampleQueueEntryEEEEEvv, symObjAddr: 0x11EC0, symBinAddr: 0x100022FC0, symSize: 0x10 }
  - { offsetInCU: 0x2441E, offset: 0x6CCE8, size: 0x8, addend: 0x0, symName: __ZNSt3__118__unwrap_iter_implINS_16reverse_iteratorIPPN6Fuzzer16SampleQueueEntryEEELb0EE8__unwrapB7v160006ES6_, symObjAddr: 0x11ED0, symBinAddr: 0x100022FD0, symSize: 0x20 }
  - { offsetInCU: 0x24447, offset: 0x6CD11, size: 0x8, addend: 0x0, symName: __ZNSt3__14pairINS_16reverse_iteratorIPPN6Fuzzer16SampleQueueEntryEEES6_EC1B7v160006IS6_S6_LPv0EEEOT_OT0_, symObjAddr: 0x11EF0, symBinAddr: 0x100022FF0, symSize: 0x30 }
  - { offsetInCU: 0x244A5, offset: 0x6CD6F, size: 0x8, addend: 0x0, symName: __ZNSt3__14pairINS_16reverse_iteratorIPPN6Fuzzer16SampleQueueEntryEEES6_EC2B7v160006IS6_S6_LPv0EEEOT_OT0_, symObjAddr: 0x11F20, symBinAddr: 0x100023020, symSize: 0x40 }
  - { offsetInCU: 0x24503, offset: 0x6CDCD, size: 0x8, addend: 0x0, symName: __ZNSt3__118__unwrap_iter_implINS_16reverse_iteratorIPPN6Fuzzer16SampleQueueEntryEEELb0EE8__rewrapB7v160006ES6_S6_, symObjAddr: 0x11F60, symBinAddr: 0x100023060, symSize: 0x30 }
  - { offsetInCU: 0x24531, offset: 0x6CDFB, size: 0x8, addend: 0x0, symName: __ZNSt3__116reverse_iteratorIPPN6Fuzzer16SampleQueueEntryEEC2B7v160006ES4_, symObjAddr: 0x11F90, symBinAddr: 0x100023090, symSize: 0x30 }
  - { offsetInCU: 0x24569, offset: 0x6CE33, size: 0x8, addend: 0x0, symName: __ZNSt3__114__split_bufferIPN6Fuzzer16SampleQueueEntryERNS_9allocatorIS3_EEED2Ev, symObjAddr: 0x11FC0, symBinAddr: 0x1000230C0, symSize: 0x70 }
  - { offsetInCU: 0x24595, offset: 0x6CE5F, size: 0x8, addend: 0x0, symName: __ZNSt3__114__split_bufferIPN6Fuzzer16SampleQueueEntryERNS_9allocatorIS3_EEE5clearB7v160006Ev, symObjAddr: 0x12030, symBinAddr: 0x100023130, symSize: 0x20 }
  - { offsetInCU: 0x245BB, offset: 0x6CE85, size: 0x8, addend: 0x0, symName: __ZNKSt3__114__split_bufferIPN6Fuzzer16SampleQueueEntryERNS_9allocatorIS3_EEE8capacityB7v160006Ev, symObjAddr: 0x12080, symBinAddr: 0x100023150, symSize: 0x30 }
  - { offsetInCU: 0x245E1, offset: 0x6CEAB, size: 0x8, addend: 0x0, symName: __ZNSt3__114__split_bufferIPN6Fuzzer16SampleQueueEntryERNS_9allocatorIS3_EEE17__destruct_at_endB7v160006EPS3_, symObjAddr: 0x120B0, symBinAddr: 0x100023180, symSize: 0x30 }
  - { offsetInCU: 0x24615, offset: 0x6CEDF, size: 0x8, addend: 0x0, symName: __ZNSt3__114__split_bufferIPN6Fuzzer16SampleQueueEntryERNS_9allocatorIS3_EEE17__destruct_at_endB7v160006EPS3_NS_17integral_constantIbLb0EEE, symObjAddr: 0x120E0, symBinAddr: 0x1000231B0, symSize: 0x80 }
  - { offsetInCU: 0x24656, offset: 0x6CF20, size: 0x8, addend: 0x0, symName: __ZNKSt3__114__split_bufferIPN6Fuzzer16SampleQueueEntryERNS_9allocatorIS3_EEE9__end_capB7v160006Ev, symObjAddr: 0x121E0, symBinAddr: 0x100023230, symSize: 0x20 }
  - { offsetInCU: 0x2467C, offset: 0x6CF46, size: 0x8, addend: 0x0, symName: __ZNKSt3__117__compressed_pairIPPN6Fuzzer16SampleQueueEntryERNS_9allocatorIS3_EEE5firstB7v160006Ev, symObjAddr: 0x12200, symBinAddr: 0x100023250, symSize: 0x20 }
  - { offsetInCU: 0x246A2, offset: 0x6CF6C, size: 0x8, addend: 0x0, symName: __ZNKSt3__111__wrap_iterIPPN6Fuzzer16SampleQueueEntryEEplB7v160006El, symObjAddr: 0x12450, symBinAddr: 0x1000234A0, symSize: 0x40 }
  - { offsetInCU: 0x246E4, offset: 0x6CFAE, size: 0x8, addend: 0x0, symName: __ZNK6Fuzzer12CmpEntryPtrsclEPKNS_16SampleQueueEntryES3_, symObjAddr: 0x12490, symBinAddr: 0x1000234E0, symSize: 0x80 }
  - { offsetInCU: 0x24726, offset: 0x6CFF0, size: 0x8, addend: 0x0, symName: __ZNSt3__111__wrap_iterIPPN6Fuzzer16SampleQueueEntryEEmmB7v160006Ev, symObjAddr: 0x12510, symBinAddr: 0x100023560, symSize: 0x20 }
  - { offsetInCU: 0x2474C, offset: 0x6D016, size: 0x8, addend: 0x0, symName: __ZNSt3__18_IterOpsINS_17_ClassicAlgPolicyEE11__iter_moveB7v160006IRNS_11__wrap_iterIPPN6Fuzzer16SampleQueueEntryEEEEENS_9enable_ifIXsr12is_referenceIDTdeclsr3stdE7declvalIRT_EEEEE5valueEDTclsr3stdE4movedeclsr3stdE7declvalISD_EEEEE4typeEOSC_, symObjAddr: 0x12530, symBinAddr: 0x100023580, symSize: 0x20 }
  - { offsetInCU: 0x24778, offset: 0x6D042, size: 0x8, addend: 0x0, symName: __ZNSt3__111__wrap_iterIPPN6Fuzzer16SampleQueueEntryEEpLB7v160006El, symObjAddr: 0x12550, symBinAddr: 0x1000235A0, symSize: 0x20 }
  - { offsetInCU: 0x247AC, offset: 0x6D076, size: 0x8, addend: 0x0, symName: __ZNSt3__18_IterOpsINS_17_ClassicAlgPolicyEE25__validate_iter_referenceB7v160006IRNS_11__wrap_iterIPPN6Fuzzer16SampleQueueEntryEEEEEvv, symObjAddr: 0x12570, symBinAddr: 0x1000235C0, symSize: 0x10 }
  - { offsetInCU: 0x247CA, offset: 0x6D094, size: 0x8, addend: 0x0, symName: __ZNSt3__14listI14ModuleCoverageNS_9allocatorIS1_EEEC2ERKS4_, symObjAddr: 0x12580, symBinAddr: 0x1000235D0, symSize: 0xF0 }
  - { offsetInCU: 0x2483B, offset: 0x6D105, size: 0x8, addend: 0x0, symName: __ZNSt3__116allocator_traitsINS_9allocatorINS_11__list_nodeI14ModuleCoveragePvEEEEE37select_on_container_copy_constructionB7v160006IS6_vvEES6_RKS6_, symObjAddr: 0x12670, symBinAddr: 0x1000236C0, symSize: 0x10 }
  - { offsetInCU: 0x2486A, offset: 0x6D134, size: 0x8, addend: 0x0, symName: __ZNKSt3__110__list_impI14ModuleCoverageNS_9allocatorIS1_EEE12__node_allocB7v160006Ev, symObjAddr: 0x12680, symBinAddr: 0x1000236D0, symSize: 0x20 }
  - { offsetInCU: 0x24890, offset: 0x6D15A, size: 0x8, addend: 0x0, symName: __ZNSt3__110__list_impI14ModuleCoverageNS_9allocatorIS1_EEEC2EONS2_INS_11__list_nodeIS1_PvEEEE, symObjAddr: 0x126A0, symBinAddr: 0x1000236F0, symSize: 0x60 }
  - { offsetInCU: 0x248CB, offset: 0x6D195, size: 0x8, addend: 0x0, symName: __ZNKSt3__14listI14ModuleCoverageNS_9allocatorIS1_EEE5beginB7v160006Ev, symObjAddr: 0x12700, symBinAddr: 0x100023750, symSize: 0x30 }
  - { offsetInCU: 0x248F1, offset: 0x6D1BB, size: 0x8, addend: 0x0, symName: __ZNKSt3__14listI14ModuleCoverageNS_9allocatorIS1_EEE3endB7v160006Ev, symObjAddr: 0x12730, symBinAddr: 0x100023780, symSize: 0x30 }
  - { offsetInCU: 0x24917, offset: 0x6D1E1, size: 0x8, addend: 0x0, symName: __ZNSt3__14listI14ModuleCoverageNS_9allocatorIS1_EEE9push_backERKS1_, symObjAddr: 0x12790, symBinAddr: 0x1000237E0, symSize: 0x100 }
  - { offsetInCU: 0x2496C, offset: 0x6D236, size: 0x8, addend: 0x0, symName: __ZNKSt3__121__list_const_iteratorI14ModuleCoveragePvEdeB7v160006Ev, symObjAddr: 0x12890, symBinAddr: 0x1000238E0, symSize: 0x30 }
  - { offsetInCU: 0x24992, offset: 0x6D25C, size: 0x8, addend: 0x0, symName: __ZNSt3__121__list_const_iteratorI14ModuleCoveragePvEppB7v160006Ev, symObjAddr: 0x128C0, symBinAddr: 0x100023910, symSize: 0x20 }
  - { offsetInCU: 0x249B8, offset: 0x6D282, size: 0x8, addend: 0x0, symName: __ZNKSt3__117__compressed_pairImNS_9allocatorINS_11__list_nodeI14ModuleCoveragePvEEEEE6secondB7v160006Ev, symObjAddr: 0x128E0, symBinAddr: 0x100023930, symSize: 0x20 }
  - { offsetInCU: 0x249DE, offset: 0x6D2A8, size: 0x8, addend: 0x0, symName: __ZNKSt3__122__compressed_pair_elemINS_9allocatorINS_11__list_nodeI14ModuleCoveragePvEEEELi1ELb1EE5__getB7v160006Ev, symObjAddr: 0x12900, symBinAddr: 0x100023950, symSize: 0x10 }
  - { offsetInCU: 0x24A0A, offset: 0x6D2D4, size: 0x8, addend: 0x0, symName: __ZNSt3__117__compressed_pairImNS_9allocatorINS_11__list_nodeI14ModuleCoveragePvEEEEEC1B7v160006IiS6_EEOT_OT0_, symObjAddr: 0x12910, symBinAddr: 0x100023960, symSize: 0x30 }
  - { offsetInCU: 0x24A62, offset: 0x6D32C, size: 0x8, addend: 0x0, symName: __ZNSt3__117__compressed_pairImNS_9allocatorINS_11__list_nodeI14ModuleCoveragePvEEEEEC2B7v160006IiS6_EEOT_OT0_, symObjAddr: 0x12940, symBinAddr: 0x100023990, symSize: 0x40 }
  - { offsetInCU: 0x24ABA, offset: 0x6D384, size: 0x8, addend: 0x0, symName: __ZNSt3__122__compressed_pair_elemINS_9allocatorINS_11__list_nodeI14ModuleCoveragePvEEEELi1ELb1EEC2B7v160006IS6_vEEOT_, symObjAddr: 0x12980, symBinAddr: 0x1000239D0, symSize: 0x10 }
  - { offsetInCU: 0x24AFC, offset: 0x6D3C6, size: 0x8, addend: 0x0, symName: __ZNKSt3__110__list_impI14ModuleCoverageNS_9allocatorIS1_EEE5beginB7v160006Ev, symObjAddr: 0x12990, symBinAddr: 0x1000239E0, symSize: 0x30 }
  - { offsetInCU: 0x24B22, offset: 0x6D3EC, size: 0x8, addend: 0x0, symName: __ZNSt3__121__list_const_iteratorI14ModuleCoveragePvEC1B7v160006EPNS_16__list_node_baseIS1_S2_EEPKv, symObjAddr: 0x129C0, symBinAddr: 0x100023A10, symSize: 0x30 }
  - { offsetInCU: 0x24B6A, offset: 0x6D434, size: 0x8, addend: 0x0, symName: __ZNSt3__121__list_const_iteratorI14ModuleCoveragePvEC2B7v160006EPNS_16__list_node_baseIS1_S2_EEPKv, symObjAddr: 0x129F0, symBinAddr: 0x100023A40, symSize: 0x20 }
  - { offsetInCU: 0x24BB2, offset: 0x6D47C, size: 0x8, addend: 0x0, symName: __ZNKSt3__110__list_impI14ModuleCoverageNS_9allocatorIS1_EEE3endB7v160006Ev, symObjAddr: 0x12A10, symBinAddr: 0x100023A60, symSize: 0x40 }
  - { offsetInCU: 0x24BD8, offset: 0x6D4A2, size: 0x8, addend: 0x0, symName: __ZNSt3__14listI14ModuleCoverageNS_9allocatorIS1_EEE15__allocate_nodeB7v160006ERNS2_INS_11__list_nodeIS1_PvEEEE, symObjAddr: 0x12A80, symBinAddr: 0x100023AD0, symSize: 0x80 }
  - { offsetInCU: 0x24C1C, offset: 0x6D4E6, size: 0x8, addend: 0x0, symName: __ZNSt3__116allocator_traitsINS_9allocatorINS_11__list_nodeI14ModuleCoveragePvEEEEE9constructB7v160006IS3_JRKS3_EvEEvRS6_PT_DpOT0_, symObjAddr: 0x12B00, symBinAddr: 0x100023B50, symSize: 0x30 }
  - { offsetInCU: 0x24C73, offset: 0x6D53D, size: 0x8, addend: 0x0, symName: __ZNKSt3__110unique_ptrINS_11__list_nodeI14ModuleCoveragePvEENS_22__allocator_destructorINS_9allocatorIS4_EEEEEptB7v160006Ev, symObjAddr: 0x12B30, symBinAddr: 0x100023B80, symSize: 0x20 }
  - { offsetInCU: 0x24C99, offset: 0x6D563, size: 0x8, addend: 0x0, symName: __ZNSt3__14listI14ModuleCoverageNS_9allocatorIS1_EEE20__link_nodes_at_backEPNS_16__list_node_baseIS1_PvEES8_, symObjAddr: 0x12B50, symBinAddr: 0x100023BA0, symSize: 0x60 }
  - { offsetInCU: 0x24CDF, offset: 0x6D5A9, size: 0x8, addend: 0x0, symName: __ZNKSt3__110unique_ptrINS_11__list_nodeI14ModuleCoveragePvEENS_22__allocator_destructorINS_9allocatorIS4_EEEEE3getB7v160006Ev, symObjAddr: 0x12BB0, symBinAddr: 0x100023C00, symSize: 0x20 }
  - { offsetInCU: 0x24D05, offset: 0x6D5CF, size: 0x8, addend: 0x0, symName: __ZNSt3__111__list_nodeI14ModuleCoveragePvE9__as_linkB7v160006Ev, symObjAddr: 0x12BD0, symBinAddr: 0x100023C20, symSize: 0x20 }
  - { offsetInCU: 0x24D2B, offset: 0x6D5F5, size: 0x8, addend: 0x0, symName: __ZNSt3__110unique_ptrINS_11__list_nodeI14ModuleCoveragePvEENS_22__allocator_destructorINS_9allocatorIS4_EEEEE7releaseB7v160006Ev, symObjAddr: 0x12BF0, symBinAddr: 0x100023C40, symSize: 0x40 }
  - { offsetInCU: 0x24D60, offset: 0x6D62A, size: 0x8, addend: 0x0, symName: __ZNSt3__110unique_ptrINS_11__list_nodeI14ModuleCoveragePvEENS_22__allocator_destructorINS_9allocatorIS4_EEEEED1B7v160006Ev, symObjAddr: 0x12C30, symBinAddr: 0x100023C80, symSize: 0x20 }
  - { offsetInCU: 0x24D8A, offset: 0x6D654, size: 0x8, addend: 0x0, symName: __ZNSt3__116allocator_traitsINS_9allocatorINS_11__list_nodeI14ModuleCoveragePvEEEEE8allocateB7v160006ERS6_m, symObjAddr: 0x12C50, symBinAddr: 0x100023CA0, symSize: 0x30 }
  - { offsetInCU: 0x24DBD, offset: 0x6D687, size: 0x8, addend: 0x0, symName: __ZNSt3__122__allocator_destructorINS_9allocatorINS_11__list_nodeI14ModuleCoveragePvEEEEEC1B7v160006ERS6_m, symObjAddr: 0x12C80, symBinAddr: 0x100023CD0, symSize: 0x30 }
  - { offsetInCU: 0x24E09, offset: 0x6D6D3, size: 0x8, addend: 0x0, symName: __ZNSt3__110unique_ptrINS_11__list_nodeI14ModuleCoveragePvEENS_22__allocator_destructorINS_9allocatorIS4_EEEEEC1B7v160006ILb1EvEEPS4_NS_16__dependent_typeINS_27__unique_ptr_deleter_sfinaeIS8_EEXT_EE20__good_rval_ref_typeE, symObjAddr: 0x12CB0, symBinAddr: 0x100023D00, symSize: 0x30 }
  - { offsetInCU: 0x24E5A, offset: 0x6D724, size: 0x8, addend: 0x0, symName: __ZNSt3__19allocatorINS_11__list_nodeI14ModuleCoveragePvEEE8allocateB7v160006Em, symObjAddr: 0x12CE0, symBinAddr: 0x100023D30, symSize: 0x50 }
  - { offsetInCU: 0x24E8E, offset: 0x6D758, size: 0x8, addend: 0x0, symName: __ZNSt3__116allocator_traitsINS_9allocatorINS_11__list_nodeI14ModuleCoveragePvEEEEE8max_sizeB7v160006IS6_vEEmRKS6_, symObjAddr: 0x12D30, symBinAddr: 0x100023D80, symSize: 0x20 }
  - { offsetInCU: 0x24EBC, offset: 0x6D786, size: 0x8, addend: 0x0, symName: __ZNKSt3__19allocatorINS_11__list_nodeI14ModuleCoveragePvEEE8max_sizeB7v160006Ev, symObjAddr: 0x12D50, symBinAddr: 0x100023DA0, symSize: 0x20 }
  - { offsetInCU: 0x24EE2, offset: 0x6D7AC, size: 0x8, addend: 0x0, symName: __ZNSt3__122__allocator_destructorINS_9allocatorINS_11__list_nodeI14ModuleCoveragePvEEEEEC2B7v160006ERS6_m, symObjAddr: 0x12D70, symBinAddr: 0x100023DC0, symSize: 0x30 }
  - { offsetInCU: 0x24F28, offset: 0x6D7F2, size: 0x8, addend: 0x0, symName: __ZNSt3__110unique_ptrINS_11__list_nodeI14ModuleCoveragePvEENS_22__allocator_destructorINS_9allocatorIS4_EEEEEC2B7v160006ILb1EvEEPS4_NS_16__dependent_typeINS_27__unique_ptr_deleter_sfinaeIS8_EEXT_EE20__good_rval_ref_typeE, symObjAddr: 0x12DA0, symBinAddr: 0x100023DF0, symSize: 0x40 }
  - { offsetInCU: 0x24F79, offset: 0x6D843, size: 0x8, addend: 0x0, symName: __ZNSt3__117__compressed_pairIPNS_11__list_nodeI14ModuleCoveragePvEENS_22__allocator_destructorINS_9allocatorIS4_EEEEEC1B7v160006IRS5_S9_EEOT_OT0_, symObjAddr: 0x12DE0, symBinAddr: 0x100023E30, symSize: 0x30 }
  - { offsetInCU: 0x24FD1, offset: 0x6D89B, size: 0x8, addend: 0x0, symName: __ZNSt3__117__compressed_pairIPNS_11__list_nodeI14ModuleCoveragePvEENS_22__allocator_destructorINS_9allocatorIS4_EEEEEC2B7v160006IRS5_S9_EEOT_OT0_, symObjAddr: 0x12E10, symBinAddr: 0x100023E60, symSize: 0x40 }
  - { offsetInCU: 0x25029, offset: 0x6D8F3, size: 0x8, addend: 0x0, symName: __ZNSt3__122__compressed_pair_elemIPNS_11__list_nodeI14ModuleCoveragePvEELi0ELb0EEC2B7v160006IRS5_vEEOT_, symObjAddr: 0x12E50, symBinAddr: 0x100023EA0, symSize: 0x20 }
  - { offsetInCU: 0x2506B, offset: 0x6D935, size: 0x8, addend: 0x0, symName: __ZNSt3__122__compressed_pair_elemINS_22__allocator_destructorINS_9allocatorINS_11__list_nodeI14ModuleCoveragePvEEEEEELi1ELb0EEC2B7v160006IS8_vEEOT_, symObjAddr: 0x12E70, symBinAddr: 0x100023EC0, symSize: 0x30 }
  - { offsetInCU: 0x250AD, offset: 0x6D977, size: 0x8, addend: 0x0, symName: __ZNSt3__19allocatorINS_11__list_nodeI14ModuleCoveragePvEEE9constructB7v160006IS2_JRKS2_EEEvPT_DpOT0_, symObjAddr: 0x12EA0, symBinAddr: 0x100023EF0, symSize: 0x30 }
  - { offsetInCU: 0x25103, offset: 0x6D9CD, size: 0x8, addend: 0x0, symName: __ZN14ModuleCoverageC1ERKS_, symObjAddr: 0x12ED0, symBinAddr: 0x100023F20, symSize: 0x30 }
  - { offsetInCU: 0x25138, offset: 0x6DA02, size: 0x8, addend: 0x0, symName: __ZN14ModuleCoverageC2ERKS_, symObjAddr: 0x12F00, symBinAddr: 0x100023F50, symSize: 0x60 }
  - { offsetInCU: 0x2516D, offset: 0x6DA37, size: 0x8, addend: 0x0, symName: __ZNSt3__13setIyNS_4lessIyEENS_9allocatorIyEEEC1B7v160006ERKS5_, symObjAddr: 0x12F60, symBinAddr: 0x100023FB0, symSize: 0x30 }
  - { offsetInCU: 0x251A6, offset: 0x6DA70, size: 0x8, addend: 0x0, symName: __ZNSt3__13setIyNS_4lessIyEENS_9allocatorIyEEEC2B7v160006ERKS5_, symObjAddr: 0x12F90, symBinAddr: 0x100023FE0, symSize: 0x80 }
  - { offsetInCU: 0x251DF, offset: 0x6DAA9, size: 0x8, addend: 0x0, symName: __ZNSt3__16__treeIyNS_4lessIyEENS_9allocatorIyEEEC1ERKS5_, symObjAddr: 0x13010, symBinAddr: 0x100024060, symSize: 0x30 }
  - { offsetInCU: 0x2521A, offset: 0x6DAE4, size: 0x8, addend: 0x0, symName: __ZNSt3__13setIyNS_4lessIyEENS_9allocatorIyEEE6insertB7v160006INS_21__tree_const_iteratorIyPNS_11__tree_nodeIyPvEElEEEEvT_SD_, symObjAddr: 0x13040, symBinAddr: 0x100024090, symSize: 0x80 }
  - { offsetInCU: 0x25284, offset: 0x6DB4E, size: 0x8, addend: 0x0, symName: __ZNKSt3__13setIyNS_4lessIyEENS_9allocatorIyEEE5beginB7v160006Ev, symObjAddr: 0x130C0, symBinAddr: 0x100024110, symSize: 0x30 }
  - { offsetInCU: 0x252AA, offset: 0x6DB74, size: 0x8, addend: 0x0, symName: __ZNKSt3__13setIyNS_4lessIyEENS_9allocatorIyEEE3endB7v160006Ev, symObjAddr: 0x130F0, symBinAddr: 0x100024140, symSize: 0x30 }
  - { offsetInCU: 0x252D0, offset: 0x6DB9A, size: 0x8, addend: 0x0, symName: __ZNSt3__16__treeIyNS_4lessIyEENS_9allocatorIyEEEC2ERKS5_, symObjAddr: 0x13120, symBinAddr: 0x100024170, symSize: 0xA0 }
  - { offsetInCU: 0x25315, offset: 0x6DBDF, size: 0x8, addend: 0x0, symName: __ZNSt3__116allocator_traitsINS_9allocatorINS_11__tree_nodeIyPvEEEEE37select_on_container_copy_constructionB7v160006IS5_vvEES5_RKS5_, symObjAddr: 0x131C0, symBinAddr: 0x100024210, symSize: 0x10 }
  - { offsetInCU: 0x25344, offset: 0x6DC0E, size: 0x8, addend: 0x0, symName: __ZNKSt3__16__treeIyNS_4lessIyEENS_9allocatorIyEEE12__node_allocB7v160006Ev, symObjAddr: 0x131D0, symBinAddr: 0x100024220, symSize: 0x20 }
  - { offsetInCU: 0x25370, offset: 0x6DC3A, size: 0x8, addend: 0x0, symName: __ZNSt3__117__compressed_pairINS_15__tree_end_nodeIPNS_16__tree_node_baseIPvEEEENS_9allocatorINS_11__tree_nodeIyS3_EEEEEC1B7v160006INS_18__default_init_tagESA_EEOT_OT0_, symObjAddr: 0x131F0, symBinAddr: 0x100024240, symSize: 0x30 }
  - { offsetInCU: 0x253C8, offset: 0x6DC92, size: 0x8, addend: 0x0, symName: __ZNKSt3__16__treeIyNS_4lessIyEENS_9allocatorIyEEE10value_compB7v160006Ev, symObjAddr: 0x13220, symBinAddr: 0x100024270, symSize: 0x20 }
  - { offsetInCU: 0x253EE, offset: 0x6DCB8, size: 0x8, addend: 0x0, symName: __ZNSt3__117__compressed_pairImNS_4lessIyEEEC1B7v160006IiRKS2_EEOT_OT0_, symObjAddr: 0x13240, symBinAddr: 0x100024290, symSize: 0x30 }
  - { offsetInCU: 0x25446, offset: 0x6DD10, size: 0x8, addend: 0x0, symName: __ZNSt3__16__treeIyNS_4lessIyEENS_9allocatorIyEEE10__end_nodeB7v160006Ev, symObjAddr: 0x13270, symBinAddr: 0x1000242C0, symSize: 0x30 }
  - { offsetInCU: 0x2546C, offset: 0x6DD36, size: 0x8, addend: 0x0, symName: __ZNSt3__16__treeIyNS_4lessIyEENS_9allocatorIyEEE12__begin_nodeB7v160006Ev, symObjAddr: 0x132A0, symBinAddr: 0x1000242F0, symSize: 0x10 }
  - { offsetInCU: 0x25492, offset: 0x6DD5C, size: 0x8, addend: 0x0, symName: __ZNKSt3__117__compressed_pairINS_15__tree_end_nodeIPNS_16__tree_node_baseIPvEEEENS_9allocatorINS_11__tree_nodeIyS3_EEEEE6secondB7v160006Ev, symObjAddr: 0x132B0, symBinAddr: 0x100024300, symSize: 0x20 }
  - { offsetInCU: 0x254B8, offset: 0x6DD82, size: 0x8, addend: 0x0, symName: __ZNKSt3__122__compressed_pair_elemINS_9allocatorINS_11__tree_nodeIyPvEEEELi1ELb1EE5__getB7v160006Ev, symObjAddr: 0x132D0, symBinAddr: 0x100024320, symSize: 0x10 }
  - { offsetInCU: 0x254DE, offset: 0x6DDA8, size: 0x8, addend: 0x0, symName: __ZNSt3__117__compressed_pairINS_15__tree_end_nodeIPNS_16__tree_node_baseIPvEEEENS_9allocatorINS_11__tree_nodeIyS3_EEEEEC2B7v160006INS_18__default_init_tagESA_EEOT_OT0_, symObjAddr: 0x132E0, symBinAddr: 0x100024330, symSize: 0x40 }
  - { offsetInCU: 0x25536, offset: 0x6DE00, size: 0x8, addend: 0x0, symName: __ZNSt3__122__compressed_pair_elemINS_15__tree_end_nodeIPNS_16__tree_node_baseIPvEEEELi0ELb0EEC2B7v160006ENS_18__default_init_tagE, symObjAddr: 0x13320, symBinAddr: 0x100024370, symSize: 0x20 }
  - { offsetInCU: 0x2556B, offset: 0x6DE35, size: 0x8, addend: 0x0, symName: __ZNSt3__122__compressed_pair_elemINS_9allocatorINS_11__tree_nodeIyPvEEEELi1ELb1EEC2B7v160006IS5_vEEOT_, symObjAddr: 0x13340, symBinAddr: 0x100024390, symSize: 0x10 }
  - { offsetInCU: 0x255AD, offset: 0x6DE77, size: 0x8, addend: 0x0, symName: __ZNSt3__115__tree_end_nodeIPNS_16__tree_node_baseIPvEEEC1B7v160006Ev, symObjAddr: 0x13350, symBinAddr: 0x1000243A0, symSize: 0x20 }
  - { offsetInCU: 0x255D7, offset: 0x6DEA1, size: 0x8, addend: 0x0, symName: __ZNSt3__115__tree_end_nodeIPNS_16__tree_node_baseIPvEEEC2B7v160006Ev, symObjAddr: 0x13370, symBinAddr: 0x1000243C0, symSize: 0x20 }
  - { offsetInCU: 0x25601, offset: 0x6DECB, size: 0x8, addend: 0x0, symName: __ZNKSt3__117__compressed_pairImNS_4lessIyEEE6secondB7v160006Ev, symObjAddr: 0x13390, symBinAddr: 0x1000243E0, symSize: 0x20 }
  - { offsetInCU: 0x25627, offset: 0x6DEF1, size: 0x8, addend: 0x0, symName: __ZNKSt3__122__compressed_pair_elemINS_4lessIyEELi1ELb1EE5__getB7v160006Ev, symObjAddr: 0x133B0, symBinAddr: 0x100024400, symSize: 0x10 }
  - { offsetInCU: 0x2564D, offset: 0x6DF17, size: 0x8, addend: 0x0, symName: __ZNSt3__117__compressed_pairImNS_4lessIyEEEC2B7v160006IiRKS2_EEOT_OT0_, symObjAddr: 0x133C0, symBinAddr: 0x100024410, symSize: 0x40 }
  - { offsetInCU: 0x256A5, offset: 0x6DF6F, size: 0x8, addend: 0x0, symName: __ZNSt3__122__compressed_pair_elemINS_4lessIyEELi1ELb1EEC2B7v160006IRKS2_vEEOT_, symObjAddr: 0x13400, symBinAddr: 0x100024450, symSize: 0x10 }
  - { offsetInCU: 0x256E7, offset: 0x6DFB1, size: 0x8, addend: 0x0, symName: __ZNSt3__117__compressed_pairINS_15__tree_end_nodeIPNS_16__tree_node_baseIPvEEEENS_9allocatorINS_11__tree_nodeIyS3_EEEEE5firstB7v160006Ev, symObjAddr: 0x13410, symBinAddr: 0x100024460, symSize: 0x20 }
  - { offsetInCU: 0x2570D, offset: 0x6DFD7, size: 0x8, addend: 0x0, symName: __ZNSt3__122__compressed_pair_elemINS_15__tree_end_nodeIPNS_16__tree_node_baseIPvEEEELi0ELb0EE5__getB7v160006Ev, symObjAddr: 0x13430, symBinAddr: 0x100024480, symSize: 0x10 }
  - { offsetInCU: 0x25733, offset: 0x6DFFD, size: 0x8, addend: 0x0, symName: __ZNKSt3__13setIyNS_4lessIyEENS_9allocatorIyEEE4cendB7v160006Ev, symObjAddr: 0x13440, symBinAddr: 0x100024490, symSize: 0x30 }
  - { offsetInCU: 0x25759, offset: 0x6E023, size: 0x8, addend: 0x0, symName: __ZNSt3__16__treeIyNS_4lessIyEENS_9allocatorIyEEE15__insert_uniqueB7v160006ENS_21__tree_const_iteratorIyPNS_11__tree_nodeIyPvEElEERKy, symObjAddr: 0x134A0, symBinAddr: 0x1000244F0, symSize: 0x60 }
  - { offsetInCU: 0x2579D, offset: 0x6E067, size: 0x8, addend: 0x0, symName: __ZNKSt3__121__tree_const_iteratorIyPNS_11__tree_nodeIyPvEElEdeB7v160006Ev, symObjAddr: 0x13500, symBinAddr: 0x100024550, symSize: 0x20 }
  - { offsetInCU: 0x257C3, offset: 0x6E08D, size: 0x8, addend: 0x0, symName: __ZNSt3__121__tree_const_iteratorIyPNS_11__tree_nodeIyPvEElEppB7v160006Ev, symObjAddr: 0x13520, symBinAddr: 0x100024570, symSize: 0x30 }
  - { offsetInCU: 0x257E9, offset: 0x6E0B3, size: 0x8, addend: 0x0, symName: __ZNSt3__16__treeIyNS_4lessIyEENS_9allocatorIyEEE30__emplace_hint_unique_key_argsIyJRKyEEENS_4pairINS_15__tree_iteratorIyPNS_11__tree_nodeIyPvEElEEbEENS_21__tree_const_iteratorIySE_lEERKT_DpOT0_, symObjAddr: 0x13580, symBinAddr: 0x1000245D0, symSize: 0x110 }
  - { offsetInCU: 0x258BE, offset: 0x6E188, size: 0x8, addend: 0x0, symName: __ZNSt3__122__tree_key_value_typesIyE9__get_keyB7v160006ERKy, symObjAddr: 0x13690, symBinAddr: 0x1000246E0, symSize: 0x10 }
  - { offsetInCU: 0x258E2, offset: 0x6E1AC, size: 0x8, addend: 0x0, symName: __ZNSt3__16__treeIyNS_4lessIyEENS_9allocatorIyEEE12__find_equalIyEERPNS_16__tree_node_baseIPvEENS_21__tree_const_iteratorIyPNS_11__tree_nodeIyS8_EElEERPNS_15__tree_end_nodeISA_EESB_RKT_, symObjAddr: 0x136A0, symBinAddr: 0x1000246F0, symSize: 0x330 }
  - { offsetInCU: 0x2598B, offset: 0x6E255, size: 0x8, addend: 0x0, symName: __ZNSt3__16__treeIyNS_4lessIyEENS_9allocatorIyEEE16__construct_nodeIJRKyEEENS_10unique_ptrINS_11__tree_nodeIyPvEENS_22__tree_node_destructorINS3_ISC_EEEEEEDpOT_, symObjAddr: 0x139D0, symBinAddr: 0x100024A20, symSize: 0xF0 }
  - { offsetInCU: 0x259EC, offset: 0x6E2B6, size: 0x8, addend: 0x0, symName: __ZNSt3__16__treeIyNS_4lessIyEENS_9allocatorIyEEE16__insert_node_atEPNS_15__tree_end_nodeIPNS_16__tree_node_baseIPvEEEERSA_SA_, symObjAddr: 0x13AC0, symBinAddr: 0x100024B10, symSize: 0xC0 }
  - { offsetInCU: 0x25A41, offset: 0x6E30B, size: 0x8, addend: 0x0, symName: __ZNKSt3__110unique_ptrINS_11__tree_nodeIyPvEENS_22__tree_node_destructorINS_9allocatorIS3_EEEEE3getB7v160006Ev, symObjAddr: 0x13B80, symBinAddr: 0x100024BD0, symSize: 0x20 }
  - { offsetInCU: 0x25A67, offset: 0x6E331, size: 0x8, addend: 0x0, symName: __ZNSt3__110unique_ptrINS_11__tree_nodeIyPvEENS_22__tree_node_destructorINS_9allocatorIS3_EEEEE7releaseB7v160006Ev, symObjAddr: 0x13BA0, symBinAddr: 0x100024BF0, symSize: 0x40 }
  - { offsetInCU: 0x25A9C, offset: 0x6E366, size: 0x8, addend: 0x0, symName: __ZNSt3__110unique_ptrINS_11__tree_nodeIyPvEENS_22__tree_node_destructorINS_9allocatorIS3_EEEEED1B7v160006Ev, symObjAddr: 0x13BE0, symBinAddr: 0x100024C30, symSize: 0x20 }
  - { offsetInCU: 0x25AC6, offset: 0x6E390, size: 0x8, addend: 0x0, symName: __ZNSt3__115__tree_iteratorIyPNS_11__tree_nodeIyPvEElEC1B7v160006ES4_, symObjAddr: 0x13C00, symBinAddr: 0x100024C50, symSize: 0x30 }
  - { offsetInCU: 0x25B05, offset: 0x6E3CF, size: 0x8, addend: 0x0, symName: __ZNSt3__14pairINS_15__tree_iteratorIyPNS_11__tree_nodeIyPvEElEEbEC1B7v160006IS6_RbLS3_0EEEOT_OT0_, symObjAddr: 0x13C30, symBinAddr: 0x100024C80, symSize: 0x30 }
  - { offsetInCU: 0x25B63, offset: 0x6E42D, size: 0x8, addend: 0x0, symName: __ZNSt3__16__treeIyNS_4lessIyEENS_9allocatorIyEEE3endB7v160006Ev, symObjAddr: 0x13C60, symBinAddr: 0x100024CB0, symSize: 0x30 }
  - { offsetInCU: 0x25B89, offset: 0x6E453, size: 0x8, addend: 0x0, symName: __ZNSt3__121__tree_const_iteratorIyPNS_11__tree_nodeIyPvEElEC1B7v160006ENS_15__tree_iteratorIyS4_lEE, symObjAddr: 0x13C90, symBinAddr: 0x100024CE0, symSize: 0x30 }
  - { offsetInCU: 0x25BC2, offset: 0x6E48C, size: 0x8, addend: 0x0, symName: __ZNSt3__16__treeIyNS_4lessIyEENS_9allocatorIyEEE10value_compB7v160006Ev, symObjAddr: 0x13CC0, symBinAddr: 0x100024D10, symSize: 0x20 }
  - { offsetInCU: 0x25BE8, offset: 0x6E4B2, size: 0x8, addend: 0x0, symName: __ZNKSt3__14lessIyEclB7v160006ERKyS3_, symObjAddr: 0x13CE0, symBinAddr: 0x100024D30, symSize: 0x30 }
  - { offsetInCU: 0x25C2C, offset: 0x6E4F6, size: 0x8, addend: 0x0, symName: __ZNSt3__16__treeIyNS_4lessIyEENS_9allocatorIyEEE5beginB7v160006Ev, symObjAddr: 0x13D10, symBinAddr: 0x100024D60, symSize: 0x30 }
  - { offsetInCU: 0x25C52, offset: 0x6E51C, size: 0x8, addend: 0x0, symName: __ZNSt3__121__tree_const_iteratorIyPNS_11__tree_nodeIyPvEElEmmB7v160006Ev, symObjAddr: 0x13D40, symBinAddr: 0x100024D90, symSize: 0x30 }
  - { offsetInCU: 0x25C78, offset: 0x6E542, size: 0x8, addend: 0x0, symName: __ZNSt3__16__treeIyNS_4lessIyEENS_9allocatorIyEEE12__find_equalIyEERPNS_16__tree_node_baseIPvEERPNS_15__tree_end_nodeISA_EERKT_, symObjAddr: 0x13D70, symBinAddr: 0x100024DC0, symSize: 0x180 }
  - { offsetInCU: 0x25CE5, offset: 0x6E5AF, size: 0x8, addend: 0x0, symName: __ZNKSt3__121__tree_const_iteratorIyPNS_11__tree_nodeIyPvEElE8__get_npB7v160006Ev, symObjAddr: 0x13F40, symBinAddr: 0x100024F90, symSize: 0x20 }
  - { offsetInCU: 0x25D0B, offset: 0x6E5D5, size: 0x8, addend: 0x0, symName: __ZNSt3__115__tree_iteratorIyPNS_11__tree_nodeIyPvEElEC1B7v160006EPNS_15__tree_end_nodeIPNS_16__tree_node_baseIS2_EEEE, symObjAddr: 0x13F60, symBinAddr: 0x100024FB0, symSize: 0x30 }
  - { offsetInCU: 0x25D44, offset: 0x6E60E, size: 0x8, addend: 0x0, symName: __ZNSt3__115__tree_iteratorIyPNS_11__tree_nodeIyPvEElEC2B7v160006EPNS_15__tree_end_nodeIPNS_16__tree_node_baseIS2_EEEE, symObjAddr: 0x13F90, symBinAddr: 0x100024FE0, symSize: 0x20 }
  - { offsetInCU: 0x25D7D, offset: 0x6E647, size: 0x8, addend: 0x0, symName: __ZNSt3__121__tree_const_iteratorIyPNS_11__tree_nodeIyPvEElEC2B7v160006ENS_15__tree_iteratorIyS4_lEE, symObjAddr: 0x13FB0, symBinAddr: 0x100025000, symSize: 0x20 }
  - { offsetInCU: 0x25DB6, offset: 0x6E680, size: 0x8, addend: 0x0, symName: __ZNSt3__117__compressed_pairImNS_4lessIyEEE6secondB7v160006Ev, symObjAddr: 0x13FD0, symBinAddr: 0x100025020, symSize: 0x20 }
  - { offsetInCU: 0x25DDC, offset: 0x6E6A6, size: 0x8, addend: 0x0, symName: __ZNSt3__122__compressed_pair_elemINS_4lessIyEELi1ELb1EE5__getB7v160006Ev, symObjAddr: 0x13FF0, symBinAddr: 0x100025040, symSize: 0x10 }
  - { offsetInCU: 0x25E02, offset: 0x6E6CC, size: 0x8, addend: 0x0, symName: __ZNKSt3__116__tree_node_baseIPvE15__parent_unsafeB7v160006Ev, symObjAddr: 0x14100, symBinAddr: 0x100025150, symSize: 0x20 }
  - { offsetInCU: 0x25E28, offset: 0x6E6F2, size: 0x8, addend: 0x0, symName: __ZNKSt3__16__treeIyNS_4lessIyEENS_9allocatorIyEEE10__root_ptrEv, symObjAddr: 0x14120, symBinAddr: 0x100025170, symSize: 0x20 }
  - { offsetInCU: 0x25E4E, offset: 0x6E718, size: 0x8, addend: 0x0, symName: __ZNSt3__116allocator_traitsINS_9allocatorINS_11__tree_nodeIyPvEEEEE8allocateB7v160006ERS5_m, symObjAddr: 0x14220, symBinAddr: 0x100025270, symSize: 0x30 }
  - { offsetInCU: 0x25E81, offset: 0x6E74B, size: 0x8, addend: 0x0, symName: __ZNSt3__122__tree_node_destructorINS_9allocatorINS_11__tree_nodeIyPvEEEEEC1B7v160006ERS5_b, symObjAddr: 0x14250, symBinAddr: 0x1000252A0, symSize: 0x40 }
  - { offsetInCU: 0x25ECF, offset: 0x6E799, size: 0x8, addend: 0x0, symName: __ZNSt3__110unique_ptrINS_11__tree_nodeIyPvEENS_22__tree_node_destructorINS_9allocatorIS3_EEEEEC1B7v160006ILb1EvEEPS3_NS_16__dependent_typeINS_27__unique_ptr_deleter_sfinaeIS7_EEXT_EE20__good_rval_ref_typeE, symObjAddr: 0x14290, symBinAddr: 0x1000252E0, symSize: 0x30 }
  - { offsetInCU: 0x25F20, offset: 0x6E7EA, size: 0x8, addend: 0x0, symName: __ZNSt3__116allocator_traitsINS_9allocatorINS_11__tree_nodeIyPvEEEEE9constructB7v160006IyJRKyEvEEvRS5_PT_DpOT0_, symObjAddr: 0x142C0, symBinAddr: 0x100025310, symSize: 0x30 }
  - { offsetInCU: 0x25F77, offset: 0x6E841, size: 0x8, addend: 0x0, symName: __ZNKSt3__110unique_ptrINS_11__tree_nodeIyPvEENS_22__tree_node_destructorINS_9allocatorIS3_EEEEEptB7v160006Ev, symObjAddr: 0x142F0, symBinAddr: 0x100025340, symSize: 0x20 }
  - { offsetInCU: 0x25F9D, offset: 0x6E867, size: 0x8, addend: 0x0, symName: __ZNSt3__110unique_ptrINS_11__tree_nodeIyPvEENS_22__tree_node_destructorINS_9allocatorIS3_EEEEE11get_deleterB7v160006Ev, symObjAddr: 0x14310, symBinAddr: 0x100025360, symSize: 0x20 }
  - { offsetInCU: 0x25FC3, offset: 0x6E88D, size: 0x8, addend: 0x0, symName: __ZNSt3__19allocatorINS_11__tree_nodeIyPvEEE8allocateB7v160006Em, symObjAddr: 0x14330, symBinAddr: 0x100025380, symSize: 0x50 }
  - { offsetInCU: 0x25FF7, offset: 0x6E8C1, size: 0x8, addend: 0x0, symName: __ZNSt3__116allocator_traitsINS_9allocatorINS_11__tree_nodeIyPvEEEEE8max_sizeB7v160006IS5_vEEmRKS5_, symObjAddr: 0x14380, symBinAddr: 0x1000253D0, symSize: 0x20 }
  - { offsetInCU: 0x26025, offset: 0x6E8EF, size: 0x8, addend: 0x0, symName: __ZNKSt3__19allocatorINS_11__tree_nodeIyPvEEE8max_sizeB7v160006Ev, symObjAddr: 0x143A0, symBinAddr: 0x1000253F0, symSize: 0x20 }
  - { offsetInCU: 0x2604B, offset: 0x6E915, size: 0x8, addend: 0x0, symName: __ZNSt3__122__tree_node_destructorINS_9allocatorINS_11__tree_nodeIyPvEEEEEC2B7v160006ERS5_b, symObjAddr: 0x143C0, symBinAddr: 0x100025410, symSize: 0x30 }
  - { offsetInCU: 0x26093, offset: 0x6E95D, size: 0x8, addend: 0x0, symName: __ZNSt3__110unique_ptrINS_11__tree_nodeIyPvEENS_22__tree_node_destructorINS_9allocatorIS3_EEEEEC2B7v160006ILb1EvEEPS3_NS_16__dependent_typeINS_27__unique_ptr_deleter_sfinaeIS7_EEXT_EE20__good_rval_ref_typeE, symObjAddr: 0x143F0, symBinAddr: 0x100025440, symSize: 0x40 }
  - { offsetInCU: 0x260E4, offset: 0x6E9AE, size: 0x8, addend: 0x0, symName: __ZNSt3__117__compressed_pairIPNS_11__tree_nodeIyPvEENS_22__tree_node_destructorINS_9allocatorIS3_EEEEEC1B7v160006IRS4_S8_EEOT_OT0_, symObjAddr: 0x14430, symBinAddr: 0x100025480, symSize: 0x30 }
  - { offsetInCU: 0x2613C, offset: 0x6EA06, size: 0x8, addend: 0x0, symName: __ZNSt3__117__compressed_pairIPNS_11__tree_nodeIyPvEENS_22__tree_node_destructorINS_9allocatorIS3_EEEEEC2B7v160006IRS4_S8_EEOT_OT0_, symObjAddr: 0x14460, symBinAddr: 0x1000254B0, symSize: 0x40 }
  - { offsetInCU: 0x26194, offset: 0x6EA5E, size: 0x8, addend: 0x0, symName: __ZNSt3__122__compressed_pair_elemIPNS_11__tree_nodeIyPvEELi0ELb0EEC2B7v160006IRS4_vEEOT_, symObjAddr: 0x144A0, symBinAddr: 0x1000254F0, symSize: 0x20 }
  - { offsetInCU: 0x261D6, offset: 0x6EAA0, size: 0x8, addend: 0x0, symName: __ZNSt3__122__compressed_pair_elemINS_22__tree_node_destructorINS_9allocatorINS_11__tree_nodeIyPvEEEEEELi1ELb0EEC2B7v160006IS7_vEEOT_, symObjAddr: 0x144C0, symBinAddr: 0x100025510, symSize: 0x30 }
  - { offsetInCU: 0x26218, offset: 0x6EAE2, size: 0x8, addend: 0x0, symName: __ZNSt3__19allocatorINS_11__tree_nodeIyPvEEE9constructB7v160006IyJRKyEEEvPT_DpOT0_, symObjAddr: 0x144F0, symBinAddr: 0x100025540, symSize: 0x20 }
  - { offsetInCU: 0x2626E, offset: 0x6EB38, size: 0x8, addend: 0x0, symName: __ZNKSt3__117__compressed_pairIPNS_11__tree_nodeIyPvEENS_22__tree_node_destructorINS_9allocatorIS3_EEEEE5firstB7v160006Ev, symObjAddr: 0x14510, symBinAddr: 0x100025560, symSize: 0x20 }
  - { offsetInCU: 0x26294, offset: 0x6EB5E, size: 0x8, addend: 0x0, symName: __ZNKSt3__122__compressed_pair_elemIPNS_11__tree_nodeIyPvEELi0ELb0EE5__getB7v160006Ev, symObjAddr: 0x14530, symBinAddr: 0x100025580, symSize: 0x10 }
  - { offsetInCU: 0x262BA, offset: 0x6EB84, size: 0x8, addend: 0x0, symName: __ZNSt3__117__compressed_pairIPNS_11__tree_nodeIyPvEENS_22__tree_node_destructorINS_9allocatorIS3_EEEEE6secondB7v160006Ev, symObjAddr: 0x14540, symBinAddr: 0x100025590, symSize: 0x20 }
  - { offsetInCU: 0x262E0, offset: 0x6EBAA, size: 0x8, addend: 0x0, symName: __ZNSt3__122__compressed_pair_elemINS_22__tree_node_destructorINS_9allocatorINS_11__tree_nodeIyPvEEEEEELi1ELb0EE5__getB7v160006Ev, symObjAddr: 0x14560, symBinAddr: 0x1000255B0, symSize: 0x10 }
  - { offsetInCU: 0x26306, offset: 0x6EBD0, size: 0x8, addend: 0x0, symName: __ZNSt3__16__treeIyNS_4lessIyEENS_9allocatorIyEEE4sizeB7v160006Ev, symObjAddr: 0x147B0, symBinAddr: 0x100025800, symSize: 0x20 }
  - { offsetInCU: 0x2632C, offset: 0x6EBF6, size: 0x8, addend: 0x0, symName: __ZNSt3__116__tree_node_baseIPvE12__set_parentB7v160006EPS2_, symObjAddr: 0x14960, symBinAddr: 0x1000259B0, symSize: 0x20 }
  - { offsetInCU: 0x26361, offset: 0x6EC2B, size: 0x8, addend: 0x0, symName: __ZNSt3__117__compressed_pairImNS_4lessIyEEE5firstB7v160006Ev, symObjAddr: 0x14980, symBinAddr: 0x1000259D0, symSize: 0x20 }
  - { offsetInCU: 0x26387, offset: 0x6EC51, size: 0x8, addend: 0x0, symName: __ZNSt3__117__compressed_pairIPNS_11__tree_nodeIyPvEENS_22__tree_node_destructorINS_9allocatorIS3_EEEEE5firstB7v160006Ev, symObjAddr: 0x149A0, symBinAddr: 0x1000259F0, symSize: 0x20 }
  - { offsetInCU: 0x263AD, offset: 0x6EC77, size: 0x8, addend: 0x0, symName: __ZNSt3__122__compressed_pair_elemIPNS_11__tree_nodeIyPvEELi0ELb0EE5__getB7v160006Ev, symObjAddr: 0x149C0, symBinAddr: 0x100025A10, symSize: 0x10 }
  - { offsetInCU: 0x263D3, offset: 0x6EC9D, size: 0x8, addend: 0x0, symName: __ZNSt3__110unique_ptrINS_11__tree_nodeIyPvEENS_22__tree_node_destructorINS_9allocatorIS3_EEEEED2B7v160006Ev, symObjAddr: 0x149D0, symBinAddr: 0x100025A20, symSize: 0x20 }
  - { offsetInCU: 0x263FD, offset: 0x6ECC7, size: 0x8, addend: 0x0, symName: __ZNSt3__110unique_ptrINS_11__tree_nodeIyPvEENS_22__tree_node_destructorINS_9allocatorIS3_EEEEE5resetB7v160006EPS3_, symObjAddr: 0x149F0, symBinAddr: 0x100025A40, symSize: 0x70 }
  - { offsetInCU: 0x26441, offset: 0x6ED0B, size: 0x8, addend: 0x0, symName: __ZNSt3__122__tree_node_destructorINS_9allocatorINS_11__tree_nodeIyPvEEEEEclB7v160006EPS4_, symObjAddr: 0x14A60, symBinAddr: 0x100025AB0, symSize: 0x70 }
  - { offsetInCU: 0x26476, offset: 0x6ED40, size: 0x8, addend: 0x0, symName: __ZNSt3__115__tree_iteratorIyPNS_11__tree_nodeIyPvEElEC2B7v160006ES4_, symObjAddr: 0x14AD0, symBinAddr: 0x100025B20, symSize: 0x20 }
  - { offsetInCU: 0x264AF, offset: 0x6ED79, size: 0x8, addend: 0x0, symName: __ZNSt3__14pairINS_15__tree_iteratorIyPNS_11__tree_nodeIyPvEElEEbEC2B7v160006IS6_RbLS3_0EEEOT_OT0_, symObjAddr: 0x14AF0, symBinAddr: 0x100025B40, symSize: 0x30 }
  - { offsetInCU: 0x2650D, offset: 0x6EDD7, size: 0x8, addend: 0x0, symName: __ZNKSt3__16__treeIyNS_4lessIyEENS_9allocatorIyEEE5beginB7v160006Ev, symObjAddr: 0x14BD0, symBinAddr: 0x100025C20, symSize: 0x30 }
  - { offsetInCU: 0x26533, offset: 0x6EDFD, size: 0x8, addend: 0x0, symName: __ZNKSt3__16__treeIyNS_4lessIyEENS_9allocatorIyEEE12__begin_nodeB7v160006Ev, symObjAddr: 0x14C00, symBinAddr: 0x100025C50, symSize: 0x10 }
  - { offsetInCU: 0x26559, offset: 0x6EE23, size: 0x8, addend: 0x0, symName: __ZNSt3__121__tree_const_iteratorIyPNS_11__tree_nodeIyPvEElEC1B7v160006EPNS_15__tree_end_nodeIPNS_16__tree_node_baseIS2_EEEE, symObjAddr: 0x14C10, symBinAddr: 0x100025C60, symSize: 0x30 }
  - { offsetInCU: 0x26592, offset: 0x6EE5C, size: 0x8, addend: 0x0, symName: __ZNSt3__121__tree_const_iteratorIyPNS_11__tree_nodeIyPvEElEC2B7v160006EPNS_15__tree_end_nodeIPNS_16__tree_node_baseIS2_EEEE, symObjAddr: 0x14C40, symBinAddr: 0x100025C90, symSize: 0x20 }
  - { offsetInCU: 0x265CB, offset: 0x6EE95, size: 0x8, addend: 0x0, symName: __ZNKSt3__16__treeIyNS_4lessIyEENS_9allocatorIyEEE3endB7v160006Ev, symObjAddr: 0x14C60, symBinAddr: 0x100025CB0, symSize: 0x30 }
  - { offsetInCU: 0x265F1, offset: 0x6EEBB, size: 0x8, addend: 0x0, symName: __ZNKSt3__117__compressed_pairIPNS_11__list_nodeI14ModuleCoveragePvEENS_22__allocator_destructorINS_9allocatorIS4_EEEEE5firstB7v160006Ev, symObjAddr: 0x14C90, symBinAddr: 0x100025CE0, symSize: 0x20 }
  - { offsetInCU: 0x26617, offset: 0x6EEE1, size: 0x8, addend: 0x0, symName: __ZNKSt3__122__compressed_pair_elemIPNS_11__list_nodeI14ModuleCoveragePvEELi0ELb0EE5__getB7v160006Ev, symObjAddr: 0x14CB0, symBinAddr: 0x100025D00, symSize: 0x10 }
  - { offsetInCU: 0x2663D, offset: 0x6EF07, size: 0x8, addend: 0x0, symName: __ZNSt3__117__compressed_pairIPNS_11__list_nodeI14ModuleCoveragePvEENS_22__allocator_destructorINS_9allocatorIS4_EEEEE5firstB7v160006Ev, symObjAddr: 0x14CC0, symBinAddr: 0x100025D10, symSize: 0x20 }
  - { offsetInCU: 0x26663, offset: 0x6EF2D, size: 0x8, addend: 0x0, symName: __ZNSt3__122__compressed_pair_elemIPNS_11__list_nodeI14ModuleCoveragePvEELi0ELb0EE5__getB7v160006Ev, symObjAddr: 0x14CE0, symBinAddr: 0x100025D30, symSize: 0x10 }
  - { offsetInCU: 0x26689, offset: 0x6EF53, size: 0x8, addend: 0x0, symName: __ZNSt3__110unique_ptrINS_11__list_nodeI14ModuleCoveragePvEENS_22__allocator_destructorINS_9allocatorIS4_EEEEED2B7v160006Ev, symObjAddr: 0x14CF0, symBinAddr: 0x100025D40, symSize: 0x20 }
  - { offsetInCU: 0x266B3, offset: 0x6EF7D, size: 0x8, addend: 0x0, symName: __ZNSt3__110unique_ptrINS_11__list_nodeI14ModuleCoveragePvEENS_22__allocator_destructorINS_9allocatorIS4_EEEEE5resetB7v160006EPS4_, symObjAddr: 0x14D10, symBinAddr: 0x100025D60, symSize: 0x70 }
  - { offsetInCU: 0x266F7, offset: 0x6EFC1, size: 0x8, addend: 0x0, symName: __ZNSt3__117__compressed_pairIPNS_11__list_nodeI14ModuleCoveragePvEENS_22__allocator_destructorINS_9allocatorIS4_EEEEE6secondB7v160006Ev, symObjAddr: 0x14D80, symBinAddr: 0x100025DD0, symSize: 0x20 }
  - { offsetInCU: 0x2671D, offset: 0x6EFE7, size: 0x8, addend: 0x0, symName: __ZNSt3__122__allocator_destructorINS_9allocatorINS_11__list_nodeI14ModuleCoveragePvEEEEEclB7v160006EPS5_, symObjAddr: 0x14DA0, symBinAddr: 0x100025DF0, symSize: 0x30 }
  - { offsetInCU: 0x26751, offset: 0x6F01B, size: 0x8, addend: 0x0, symName: __ZNSt3__122__compressed_pair_elemINS_22__allocator_destructorINS_9allocatorINS_11__list_nodeI14ModuleCoveragePvEEEEEELi1ELb0EE5__getB7v160006Ev, symObjAddr: 0x14DD0, symBinAddr: 0x100025E20, symSize: 0x10 }
  - { offsetInCU: 0x26777, offset: 0x6F041, size: 0x8, addend: 0x0, symName: __ZNSt3__110__list_impI14ModuleCoverageNS_9allocatorIS1_EEE19__copy_assign_allocB7v160006ERKS4_, symObjAddr: 0x14DE0, symBinAddr: 0x100025E30, symSize: 0x30 }
  - { offsetInCU: 0x267B1, offset: 0x6F07B, size: 0x8, addend: 0x0, symName: __ZNSt3__14listI14ModuleCoverageNS_9allocatorIS1_EEE6assignINS_21__list_const_iteratorIS1_PvEEEEvT_S9_PNS_9enable_ifIXsr25__is_cpp17_input_iteratorIS9_EE5valueEvE4typeE, symObjAddr: 0x14E10, symBinAddr: 0x100025E60, symSize: 0x150 }
  - { offsetInCU: 0x26829, offset: 0x6F0F3, size: 0x8, addend: 0x0, symName: __ZNSt3__110__list_impI14ModuleCoverageNS_9allocatorIS1_EEE19__copy_assign_allocB7v160006ERKS4_NS_17integral_constantIbLb0EEE, symObjAddr: 0x14F60, symBinAddr: 0x100025FB0, symSize: 0x10 }
  - { offsetInCU: 0x26865, offset: 0x6F12F, size: 0x8, addend: 0x0, symName: __ZNKSt3__115__list_iteratorI14ModuleCoveragePvEdeB7v160006Ev, symObjAddr: 0x14F70, symBinAddr: 0x100025FC0, symSize: 0x30 }
  - { offsetInCU: 0x2688B, offset: 0x6F155, size: 0x8, addend: 0x0, symName: __ZN14ModuleCoverageaSERKS_, symObjAddr: 0x14FA0, symBinAddr: 0x100025FF0, symSize: 0x40 }
  - { offsetInCU: 0x268BC, offset: 0x6F186, size: 0x8, addend: 0x0, symName: __ZNSt3__14listI14ModuleCoverageNS_9allocatorIS1_EEE6insertINS_21__list_const_iteratorIS1_PvEEEENS_15__list_iteratorIS1_S7_EES8_T_SB_PNS_9enable_ifIXsr25__is_cpp17_input_iteratorISB_EE5valueEvE4typeE, symObjAddr: 0x14FE0, symBinAddr: 0x100026030, symSize: 0x380 }
  - { offsetInCU: 0x2698E, offset: 0x6F258, size: 0x8, addend: 0x0, symName: __ZNSt3__121__list_const_iteratorI14ModuleCoveragePvEC1B7v160006ERKNS_15__list_iteratorIS1_S2_EE, symObjAddr: 0x15360, symBinAddr: 0x1000263B0, symSize: 0x30 }
  - { offsetInCU: 0x269C7, offset: 0x6F291, size: 0x8, addend: 0x0, symName: __ZNSt3__14listI14ModuleCoverageNS_9allocatorIS1_EEE5eraseENS_21__list_const_iteratorIS1_PvEES7_, symObjAddr: 0x15390, symBinAddr: 0x1000263E0, symSize: 0xF0 }
  - { offsetInCU: 0x26A56, offset: 0x6F320, size: 0x8, addend: 0x0, symName: __ZNSt3__13setIyNS_4lessIyEENS_9allocatorIyEEEaSB7v160006ERKS5_, symObjAddr: 0x15490, symBinAddr: 0x1000264E0, symSize: 0x30 }
  - { offsetInCU: 0x26A8B, offset: 0x6F355, size: 0x8, addend: 0x0, symName: __ZNSt3__16__treeIyNS_4lessIyEENS_9allocatorIyEEEaSERKS5_, symObjAddr: 0x154C0, symBinAddr: 0x100026510, symSize: 0x80 }
  - { offsetInCU: 0x26AC2, offset: 0x6F38C, size: 0x8, addend: 0x0, symName: __ZNSt3__16__treeIyNS_4lessIyEENS_9allocatorIyEEE19__copy_assign_allocB7v160006ERKS5_, symObjAddr: 0x15540, symBinAddr: 0x100026590, symSize: 0x30 }
  - { offsetInCU: 0x26AF7, offset: 0x6F3C1, size: 0x8, addend: 0x0, symName: __ZNSt3__16__treeIyNS_4lessIyEENS_9allocatorIyEEE14__assign_multiINS_21__tree_const_iteratorIyPNS_11__tree_nodeIyPvEElEEEEvT_SD_, symObjAddr: 0x15570, symBinAddr: 0x1000265C0, symSize: 0x170 }
  - { offsetInCU: 0x26B63, offset: 0x6F42D, size: 0x8, addend: 0x0, symName: __ZNSt3__16__treeIyNS_4lessIyEENS_9allocatorIyEEE19__copy_assign_allocB7v160006ERKS5_NS_17integral_constantIbLb0EEE, symObjAddr: 0x156E0, symBinAddr: 0x100026730, symSize: 0x10 }
  - { offsetInCU: 0x26BBD, offset: 0x6F487, size: 0x8, addend: 0x0, symName: __ZNSt3__16__treeIyNS_4lessIyEENS_9allocatorIyEEE18_DetachedTreeCacheC1B7v160006EPS5_, symObjAddr: 0x156F0, symBinAddr: 0x100026740, symSize: 0x30 }
  - { offsetInCU: 0x26BF6, offset: 0x6F4C0, size: 0x8, addend: 0x0, symName: __ZNKSt3__16__treeIyNS_4lessIyEENS_9allocatorIyEEE18_DetachedTreeCache5__getB7v160006Ev, symObjAddr: 0x15720, symBinAddr: 0x100026770, symSize: 0x20 }
  - { offsetInCU: 0x26C1C, offset: 0x6F4E6, size: 0x8, addend: 0x0, symName: __ZNSt3__16__treeIyNS_4lessIyEENS_9allocatorIyEEE19__node_insert_multiEPNS_11__tree_nodeIyPvEE, symObjAddr: 0x15740, symBinAddr: 0x100026790, symSize: 0x70 }
  - { offsetInCU: 0x26C71, offset: 0x6F53B, size: 0x8, addend: 0x0, symName: __ZNSt3__16__treeIyNS_4lessIyEENS_9allocatorIyEEE18_DetachedTreeCache9__advanceB7v160006Ev, symObjAddr: 0x157B0, symBinAddr: 0x100026800, symSize: 0x50 }
  - { offsetInCU: 0x26C97, offset: 0x6F561, size: 0x8, addend: 0x0, symName: __ZNSt3__16__treeIyNS_4lessIyEENS_9allocatorIyEEE18_DetachedTreeCacheD1B7v160006Ev, symObjAddr: 0x15800, symBinAddr: 0x100026850, symSize: 0x20 }
  - { offsetInCU: 0x26CC1, offset: 0x6F58B, size: 0x8, addend: 0x0, symName: __ZNSt3__16__treeIyNS_4lessIyEENS_9allocatorIyEEE14__insert_multiB7v160006IRKyEENS_15__tree_iteratorIyPNS_11__tree_nodeIyPvEElEEOT_, symObjAddr: 0x15820, symBinAddr: 0x100026870, symSize: 0x30 }
  - { offsetInCU: 0x26CFF, offset: 0x6F5C9, size: 0x8, addend: 0x0, symName: __ZNSt3__122__tree_key_value_typesIyE11__get_valueB7v160006ERKy, symObjAddr: 0x15850, symBinAddr: 0x1000268A0, symSize: 0x10 }
  - { offsetInCU: 0x26D23, offset: 0x6F5ED, size: 0x8, addend: 0x0, symName: __ZNSt3__16__treeIyNS_4lessIyEENS_9allocatorIyEEE18_DetachedTreeCacheC2B7v160006EPS5_, symObjAddr: 0x15860, symBinAddr: 0x1000268B0, symSize: 0x40 }
  - { offsetInCU: 0x26D5C, offset: 0x6F626, size: 0x8, addend: 0x0, symName: __ZNSt3__16__treeIyNS_4lessIyEENS_9allocatorIyEEE18_DetachedTreeCache18__detach_from_treeEPS5_, symObjAddr: 0x158A0, symBinAddr: 0x1000268F0, symSize: 0xA0 }
  - { offsetInCU: 0x26D91, offset: 0x6F65B, size: 0x8, addend: 0x0, symName: __ZNSt3__16__treeIyNS_4lessIyEENS_9allocatorIyEEE16__find_leaf_highERPNS_15__tree_end_nodeIPNS_16__tree_node_baseIPvEEEERKy, symObjAddr: 0x15940, symBinAddr: 0x100026990, symSize: 0x110 }
  - { offsetInCU: 0x26DE6, offset: 0x6F6B0, size: 0x8, addend: 0x0, symName: __ZNSt3__16__treeIyNS_4lessIyEENS_9allocatorIyEEE18_DetachedTreeCache13__detach_nextEPNS_11__tree_nodeIyPvEE, symObjAddr: 0x15A50, symBinAddr: 0x100026AA0, symSize: 0xE0 }
  - { offsetInCU: 0x26E0C, offset: 0x6F6D6, size: 0x8, addend: 0x0, symName: __ZNSt3__16__treeIyNS_4lessIyEENS_9allocatorIyEEE18_DetachedTreeCacheD2B7v160006Ev, symObjAddr: 0x15B90, symBinAddr: 0x100026BE0, symSize: 0x80 }
  - { offsetInCU: 0x26E36, offset: 0x6F700, size: 0x8, addend: 0x0, symName: __ZNSt3__16__treeIyNS_4lessIyEENS_9allocatorIyEEE15__emplace_multiIJRKyEEENS_15__tree_iteratorIyPNS_11__tree_nodeIyPvEElEEDpOT_, symObjAddr: 0x15C10, symBinAddr: 0x100026C60, symSize: 0xB0 }
  - { offsetInCU: 0x26EA5, offset: 0x6F76F, size: 0x8, addend: 0x0, symName: __ZNSt3__14listI14ModuleCoverageNS_9allocatorIS1_EEE12__link_nodesEPNS_16__list_node_baseIS1_PvEES8_S8_, symObjAddr: 0x15CC0, symBinAddr: 0x100026D10, symSize: 0x50 }
  - { offsetInCU: 0x26EE9, offset: 0x6F7B3, size: 0x8, addend: 0x0, symName: __ZNSt3__121__list_const_iteratorI14ModuleCoveragePvEC2B7v160006ERKNS_15__list_iteratorIS1_S2_EE, symObjAddr: 0x15D10, symBinAddr: 0x100026D60, symSize: 0x20 }
  - { offsetInCU: 0x26F22, offset: 0x6F7EC, size: 0x8, addend: 0x0, symName: __ZNSt3__16vectorIP6SampleNS_9allocatorIS2_EEE8__appendEm, symObjAddr: 0x15D30, symBinAddr: 0x100026D80, symSize: 0x100 }
  - { offsetInCU: 0x26F7D, offset: 0x6F847, size: 0x8, addend: 0x0, symName: __ZNSt3__16vectorIP6SampleNS_9allocatorIS2_EEE17__destruct_at_endB7v160006EPS2_, symObjAddr: 0x15E30, symBinAddr: 0x100026E80, symSize: 0x60 }
  - { offsetInCU: 0x26FC1, offset: 0x6F88B, size: 0x8, addend: 0x0, symName: __ZNSt3__16vectorIP6SampleNS_9allocatorIS2_EEE18__construct_at_endEm, symObjAddr: 0x15E90, symBinAddr: 0x100026EE0, symSize: 0xC0 }
  - { offsetInCU: 0x27033, offset: 0x6F8FD, size: 0x8, addend: 0x0, symName: __ZNSt3__114__split_bufferIP6SampleRNS_9allocatorIS2_EEE18__construct_at_endEm, symObjAddr: 0x15F50, symBinAddr: 0x100026FA0, symSize: 0xB0 }
  - { offsetInCU: 0x27076, offset: 0x6F940, size: 0x8, addend: 0x0, symName: __ZNSt3__116allocator_traitsINS_9allocatorIP6SampleEEE9constructB7v160006IS3_JEvEEvRS4_PT_DpOT0_, symObjAddr: 0x16000, symBinAddr: 0x100027050, symSize: 0x30 }
  - { offsetInCU: 0x270B8, offset: 0x6F982, size: 0x8, addend: 0x0, symName: __ZNSt3__19allocatorIP6SampleE9constructB7v160006IS2_JEEEvPT_DpOT0_, symObjAddr: 0x16030, symBinAddr: 0x100027080, symSize: 0x20 }
  - { offsetInCU: 0x27104, offset: 0x6F9CE, size: 0x8, addend: 0x0, symName: __ZNSt3__114__split_bufferIP6SampleRNS_9allocatorIS2_EEE21_ConstructTransactionC1B7v160006EPPS2_m, symObjAddr: 0x16050, symBinAddr: 0x1000270A0, symSize: 0x30 }
  - { offsetInCU: 0x2714A, offset: 0x6FA14, size: 0x8, addend: 0x0, symName: __ZNSt3__114__split_bufferIP6SampleRNS_9allocatorIS2_EEE21_ConstructTransactionD1B7v160006Ev, symObjAddr: 0x16080, symBinAddr: 0x1000270D0, symSize: 0x20 }
  - { offsetInCU: 0x27174, offset: 0x6FA3E, size: 0x8, addend: 0x0, symName: __ZNSt3__114__split_bufferIP6SampleRNS_9allocatorIS2_EEE21_ConstructTransactionC2B7v160006EPPS2_m, symObjAddr: 0x160A0, symBinAddr: 0x1000270F0, symSize: 0x40 }
  - { offsetInCU: 0x271BA, offset: 0x6FA84, size: 0x8, addend: 0x0, symName: __ZNSt3__114__split_bufferIP6SampleRNS_9allocatorIS2_EEE21_ConstructTransactionD2B7v160006Ev, symObjAddr: 0x160E0, symBinAddr: 0x100027130, symSize: 0x20 }
  - { offsetInCU: 0x271E4, offset: 0x6FAAE, size: 0x8, addend: 0x0, symName: __ZNSt3__16vectorIP6SampleNS_9allocatorIS2_EEE27__invalidate_iterators_pastB7v160006EPS2_, symObjAddr: 0x16100, symBinAddr: 0x100027150, symSize: 0x10 }
  - { offsetInCU: 0x2721B, offset: 0x6FAE5, size: 0x8, addend: 0x0, symName: __ZNKSt3__16vectorIP6SampleNS_9allocatorIS2_EEE17__annotate_shrinkB7v160006Em, symObjAddr: 0x16110, symBinAddr: 0x100027160, symSize: 0xA0 }
  - { offsetInCU: 0x27250, offset: 0x6FB1A, size: 0x8, addend: 0x0, symName: __ZNKSt3__16vectorIPN6Fuzzer16SampleQueueEntryENS_9allocatorIS3_EEE5emptyB7v160006Ev, symObjAddr: 0x16250, symBinAddr: 0x100027200, symSize: 0x20 }
  - { offsetInCU: 0x27276, offset: 0x6FB40, size: 0x8, addend: 0x0, symName: __ZNKSt3__16vectorIPN6Fuzzer16SampleQueueEntryENS_9allocatorIS3_EEE5frontB7v160006Ev, symObjAddr: 0x16270, symBinAddr: 0x100027220, symSize: 0x20 }
  - { offsetInCU: 0x2729C, offset: 0x6FB66, size: 0x8, addend: 0x0, symName: __ZNSt3__16vectorIPN6Fuzzer16SampleQueueEntryENS_9allocatorIS3_EEE8pop_backEv, symObjAddr: 0x162E0, symBinAddr: 0x100027290, symSize: 0x30 }
  - { offsetInCU: 0x272C4, offset: 0x6FB8E, size: 0x8, addend: 0x0, symName: __ZNSt3__16vectorIPN6Fuzzer16SampleQueueEntryENS_9allocatorIS3_EEE17__destruct_at_endB7v160006EPS3_, symObjAddr: 0x16560, symBinAddr: 0x100027510, symSize: 0x60 }
  - { offsetInCU: 0x27308, offset: 0x6FBD2, size: 0x8, addend: 0x0, symName: __ZNSt3__16vectorIPN6Fuzzer16SampleQueueEntryENS_9allocatorIS3_EEE27__invalidate_iterators_pastB7v160006EPS3_, symObjAddr: 0x165C0, symBinAddr: 0x100027570, symSize: 0x10 }
  - { offsetInCU: 0x2733F, offset: 0x6FC09, size: 0x8, addend: 0x0, symName: __ZNKSt3__16vectorIPN6Fuzzer16SampleQueueEntryENS_9allocatorIS3_EEE17__annotate_shrinkB7v160006Em, symObjAddr: 0x16650, symBinAddr: 0x100027580, symSize: 0xA0 }
  - { offsetInCU: 0x27374, offset: 0x6FC3E, size: 0x8, addend: 0x0, symName: __ZNSt3__16vectorIPN6Fuzzer16SampleQueueEntryENS_9allocatorIS3_EEE11__make_iterB7v160006EPS3_, symObjAddr: 0x16A60, symBinAddr: 0x100027620, symSize: 0x30 }
  - { offsetInCU: 0x273A9, offset: 0x6FC73, size: 0x8, addend: 0x0, symName: __ZNSt3__111__wrap_iterIPPN6Fuzzer16SampleQueueEntryEEC1B7v160006EPKvS4_, symObjAddr: 0x16A90, symBinAddr: 0x100027650, symSize: 0x30 }
  - { offsetInCU: 0x273EF, offset: 0x6FCB9, size: 0x8, addend: 0x0, symName: __ZNSt3__111__wrap_iterIPPN6Fuzzer16SampleQueueEntryEEC2B7v160006EPKvS4_, symObjAddr: 0x16AC0, symBinAddr: 0x100027680, symSize: 0x20 }
  - { offsetInCU: 0x27435, offset: 0x6FCFF, size: 0x8, addend: 0x0, symName: __ZNSt3__16vectorI5RangeNS_9allocatorIS1_EEE8__appendEm, symObjAddr: 0x16B30, symBinAddr: 0x1000276A0, symSize: 0x100 }
  - { offsetInCU: 0x27490, offset: 0x6FD5A, size: 0x8, addend: 0x0, symName: __ZNSt3__16vectorI5RangeNS_9allocatorIS1_EEE18__construct_at_endEm, symObjAddr: 0x16C30, symBinAddr: 0x1000277A0, symSize: 0xC0 }
  - { offsetInCU: 0x27502, offset: 0x6FDCC, size: 0x8, addend: 0x0, symName: __ZNSt3__114__split_bufferI5RangeRNS_9allocatorIS1_EEEC1EmmS4_, symObjAddr: 0x16CF0, symBinAddr: 0x100027860, symSize: 0x40 }
  - { offsetInCU: 0x27558, offset: 0x6FE22, size: 0x8, addend: 0x0, symName: __ZNSt3__114__split_bufferI5RangeRNS_9allocatorIS1_EEE18__construct_at_endEm, symObjAddr: 0x16D30, symBinAddr: 0x1000278A0, symSize: 0xB0 }
  - { offsetInCU: 0x2759B, offset: 0x6FE65, size: 0x8, addend: 0x0, symName: __ZNSt3__114__split_bufferI5RangeRNS_9allocatorIS1_EEED1Ev, symObjAddr: 0x16F10, symBinAddr: 0x100027A80, symSize: 0x20 }
  - { offsetInCU: 0x275C7, offset: 0x6FE91, size: 0x8, addend: 0x0, symName: __ZNSt3__116allocator_traitsINS_9allocatorI5RangeEEE9constructB7v160006IS2_JEvEEvRS3_PT_DpOT0_, symObjAddr: 0x16F30, symBinAddr: 0x100027AA0, symSize: 0x30 }
  - { offsetInCU: 0x27609, offset: 0x6FED3, size: 0x8, addend: 0x0, symName: __ZNSt3__19allocatorI5RangeE9constructB7v160006IS1_JEEEvPT_DpOT0_, symObjAddr: 0x16F60, symBinAddr: 0x100027AD0, symSize: 0x30 }
  - { offsetInCU: 0x2764B, offset: 0x6FF15, size: 0x8, addend: 0x0, symName: __ZNSt3__114__split_bufferI5RangeRNS_9allocatorIS1_EEEC2EmmS4_, symObjAddr: 0x16F90, symBinAddr: 0x100027B00, symSize: 0xD0 }
  - { offsetInCU: 0x276BE, offset: 0x6FF88, size: 0x8, addend: 0x0, symName: __ZNSt3__117__compressed_pairIP5RangeRNS_9allocatorIS1_EEEC1B7v160006IDnS5_EEOT_OT0_, symObjAddr: 0x17060, symBinAddr: 0x100027BD0, symSize: 0x30 }
  - { offsetInCU: 0x27716, offset: 0x6FFE0, size: 0x8, addend: 0x0, symName: __ZNSt3__114__split_bufferI5RangeRNS_9allocatorIS1_EEE7__allocB7v160006Ev, symObjAddr: 0x17090, symBinAddr: 0x100027C00, symSize: 0x20 }
  - { offsetInCU: 0x2773C, offset: 0x70006, size: 0x8, addend: 0x0, symName: __ZNSt3__114__split_bufferI5RangeRNS_9allocatorIS1_EEE9__end_capB7v160006Ev, symObjAddr: 0x170B0, symBinAddr: 0x100027C20, symSize: 0x20 }
  - { offsetInCU: 0x27762, offset: 0x7002C, size: 0x8, addend: 0x0, symName: __ZNSt3__117__compressed_pairIP5RangeRNS_9allocatorIS1_EEEC2B7v160006IDnS5_EEOT_OT0_, symObjAddr: 0x170D0, symBinAddr: 0x100027C40, symSize: 0x40 }
  - { offsetInCU: 0x277BA, offset: 0x70084, size: 0x8, addend: 0x0, symName: __ZNSt3__122__compressed_pair_elemIRNS_9allocatorI5RangeEELi1ELb0EEC2B7v160006IS4_vEEOT_, symObjAddr: 0x17110, symBinAddr: 0x100027C80, symSize: 0x20 }
  - { offsetInCU: 0x277FC, offset: 0x700C6, size: 0x8, addend: 0x0, symName: __ZNSt3__117__compressed_pairIP5RangeRNS_9allocatorIS1_EEE6secondB7v160006Ev, symObjAddr: 0x17130, symBinAddr: 0x100027CA0, symSize: 0x20 }
  - { offsetInCU: 0x27822, offset: 0x700EC, size: 0x8, addend: 0x0, symName: __ZNSt3__122__compressed_pair_elemIRNS_9allocatorI5RangeEELi1ELb0EE5__getB7v160006Ev, symObjAddr: 0x17150, symBinAddr: 0x100027CC0, symSize: 0x20 }
  - { offsetInCU: 0x27848, offset: 0x70112, size: 0x8, addend: 0x0, symName: __ZNSt3__117__compressed_pairIP5RangeRNS_9allocatorIS1_EEE5firstB7v160006Ev, symObjAddr: 0x17170, symBinAddr: 0x100027CE0, symSize: 0x20 }
  - { offsetInCU: 0x27878, offset: 0x70142, size: 0x8, addend: 0x0, symName: __ZNSt3__114__split_bufferI5RangeRNS_9allocatorIS1_EEE21_ConstructTransactionC1B7v160006EPPS1_m, symObjAddr: 0x17190, symBinAddr: 0x100027D00, symSize: 0x30 }
  - { offsetInCU: 0x278BE, offset: 0x70188, size: 0x8, addend: 0x0, symName: __ZNSt3__114__split_bufferI5RangeRNS_9allocatorIS1_EEE21_ConstructTransactionD1B7v160006Ev, symObjAddr: 0x171C0, symBinAddr: 0x100027D30, symSize: 0x20 }
  - { offsetInCU: 0x278E8, offset: 0x701B2, size: 0x8, addend: 0x0, symName: __ZNSt3__114__split_bufferI5RangeRNS_9allocatorIS1_EEE21_ConstructTransactionC2B7v160006EPPS1_m, symObjAddr: 0x171E0, symBinAddr: 0x100027D50, symSize: 0x40 }
  - { offsetInCU: 0x2792E, offset: 0x701F8, size: 0x8, addend: 0x0, symName: __ZNSt3__114__split_bufferI5RangeRNS_9allocatorIS1_EEE21_ConstructTransactionD2B7v160006Ev, symObjAddr: 0x17220, symBinAddr: 0x100027D90, symSize: 0x20 }
  - { offsetInCU: 0x27972, offset: 0x7023C, size: 0x8, addend: 0x0, symName: __ZNKSt3__111__move_loopINS_17_ClassicAlgPolicyEEclB7v160006INS_16reverse_iteratorIP5RangeEES7_S7_EENS_4pairIT_T1_EES9_T0_SA_, symObjAddr: 0x17730, symBinAddr: 0x1000282A0, symSize: 0xA0 }
  - { offsetInCU: 0x279E3, offset: 0x702AD, size: 0x8, addend: 0x0, symName: __ZNSt3__18_IterOpsINS_17_ClassicAlgPolicyEE11__iter_moveB7v160006IRNS_16reverse_iteratorIP5RangeEEEENS_9enable_ifIXsr12is_referenceIDTdeclsr3stdE7declvalIRT_EEEEE5valueEDTclsr3stdE4movedeclsr3stdE7declvalISB_EEEEE4typeEOSA_, symObjAddr: 0x17910, symBinAddr: 0x100028480, symSize: 0x20 }
  - { offsetInCU: 0x27A0F, offset: 0x702D9, size: 0x8, addend: 0x0, symName: __ZNSt3__18_IterOpsINS_17_ClassicAlgPolicyEE25__validate_iter_referenceB7v160006IRNS_16reverse_iteratorIP5RangeEEEEvv, symObjAddr: 0x17930, symBinAddr: 0x1000284A0, symSize: 0x10 }
  - { offsetInCU: 0x27A2D, offset: 0x702F7, size: 0x8, addend: 0x0, symName: __ZNSt3__118__unwrap_iter_implINS_16reverse_iteratorIP5RangeEELb0EE8__unwrapB7v160006ES4_, symObjAddr: 0x17940, symBinAddr: 0x1000284B0, symSize: 0x20 }
  - { offsetInCU: 0x27A56, offset: 0x70320, size: 0x8, addend: 0x0, symName: __ZNSt3__14pairINS_16reverse_iteratorIP5RangeEES4_EC1B7v160006IS4_S4_LPv0EEEOT_OT0_, symObjAddr: 0x17960, symBinAddr: 0x1000284D0, symSize: 0x30 }
  - { offsetInCU: 0x27AB4, offset: 0x7037E, size: 0x8, addend: 0x0, symName: __ZNSt3__14pairINS_16reverse_iteratorIP5RangeEES4_EC2B7v160006IS4_S4_LPv0EEEOT_OT0_, symObjAddr: 0x17990, symBinAddr: 0x100028500, symSize: 0x40 }
  - { offsetInCU: 0x27B12, offset: 0x703DC, size: 0x8, addend: 0x0, symName: __ZNSt3__118__unwrap_iter_implINS_16reverse_iteratorIP5RangeEELb0EE8__rewrapB7v160006ES4_S4_, symObjAddr: 0x179D0, symBinAddr: 0x100028540, symSize: 0x30 }
  - { offsetInCU: 0x27B40, offset: 0x7040A, size: 0x8, addend: 0x0, symName: __ZNSt3__114__split_bufferI5RangeRNS_9allocatorIS1_EEED2Ev, symObjAddr: 0x17A00, symBinAddr: 0x100028570, symSize: 0x70 }
  - { offsetInCU: 0x27B6C, offset: 0x70436, size: 0x8, addend: 0x0, symName: __ZNSt3__114__split_bufferI5RangeRNS_9allocatorIS1_EEE5clearB7v160006Ev, symObjAddr: 0x17A70, symBinAddr: 0x1000285E0, symSize: 0x20 }
  - { offsetInCU: 0x27B92, offset: 0x7045C, size: 0x8, addend: 0x0, symName: __ZNKSt3__114__split_bufferI5RangeRNS_9allocatorIS1_EEE8capacityB7v160006Ev, symObjAddr: 0x17A90, symBinAddr: 0x100028600, symSize: 0x30 }
  - { offsetInCU: 0x27BB8, offset: 0x70482, size: 0x8, addend: 0x0, symName: __ZNSt3__114__split_bufferI5RangeRNS_9allocatorIS1_EEE17__destruct_at_endB7v160006EPS1_, symObjAddr: 0x17AC0, symBinAddr: 0x100028630, symSize: 0x30 }
  - { offsetInCU: 0x27BEC, offset: 0x704B6, size: 0x8, addend: 0x0, symName: __ZNSt3__114__split_bufferI5RangeRNS_9allocatorIS1_EEE17__destruct_at_endB7v160006EPS1_NS_17integral_constantIbLb0EEE, symObjAddr: 0x17AF0, symBinAddr: 0x100028660, symSize: 0x80 }
  - { offsetInCU: 0x27C2D, offset: 0x704F7, size: 0x8, addend: 0x0, symName: __ZNKSt3__114__split_bufferI5RangeRNS_9allocatorIS1_EEE9__end_capB7v160006Ev, symObjAddr: 0x17B70, symBinAddr: 0x1000286E0, symSize: 0x20 }
  - { offsetInCU: 0x27C53, offset: 0x7051D, size: 0x8, addend: 0x0, symName: __ZNKSt3__117__compressed_pairIP5RangeRNS_9allocatorIS1_EEE5firstB7v160006Ev, symObjAddr: 0x17B90, symBinAddr: 0x100028700, symSize: 0x1B }
  - { offsetInCU: 0x39, offset: 0x70A4A, size: 0x8, addend: 0x0, symName: __ZN15Instrumentation9debugModeE, symObjAddr: 0x1258, symBinAddr: 0x100590001, symSize: 0x0 }
  - { offsetInCU: 0x3E66, offset: 0x74877, size: 0x8, addend: 0x0, symName: __ZNSt3__14endlB7v160006IcNS_11char_traitsIcEEEERNS_13basic_ostreamIT_T0_EES7_, symObjAddr: 0x370, symBinAddr: 0x100028A50, symSize: 0x50 }
  - { offsetInCU: 0x5FC4, offset: 0x769D5, size: 0x8, addend: 0x0, symName: __ZN15Instrumentation16AnonymizeAddressEPv, symObjAddr: 0x0, symBinAddr: 0x100028720, symSize: 0x310 }
  - { offsetInCU: 0x607C, offset: 0x76A8D, size: 0x8, addend: 0x0, symName: __ZNSt3__113basic_ostreamIcNS_11char_traitsIcEEElsB7v160006EPFRS3_S4_E, symObjAddr: 0x350, symBinAddr: 0x100028A30, symSize: 0x20 }
  - { offsetInCU: 0x60B6, offset: 0x76AC7, size: 0x8, addend: 0x0, symName: __ZN15Instrumentation15DebugBreakpointERKNSt3__112basic_stringIcNS0_11char_traitsIcEENS0_9allocatorIcEEEE, symObjAddr: 0x440, symBinAddr: 0x100028AA0, symSize: 0x70 }
  - { offsetInCU: 0x60DB, offset: 0x76AEC, size: 0x8, addend: 0x0, symName: __ZN15Instrumentation13SignalHandlerEi, symObjAddr: 0x4B0, symBinAddr: 0x100028B10, symSize: 0x50 }
  - { offsetInCU: 0x6100, offset: 0x76B11, size: 0x8, addend: 0x0, symName: __ZN15Instrumentation14SetupDebugModeEv, symObjAddr: 0x500, symBinAddr: 0x100028B60, symSize: 0x20 }
  - { offsetInCU: 0x26, offset: 0x76B81, size: 0x8, addend: 0x0, symName: __ZN13SimpleTrimmer13CreateContextEP6Sample, symObjAddr: 0x0, symBinAddr: 0x100028B80, symSize: 0x60 }
  - { offsetInCU: 0x4AED, offset: 0x7B648, size: 0x8, addend: 0x0, symName: __ZN13SimpleTrimmer13CreateContextEP6Sample, symObjAddr: 0x0, symBinAddr: 0x100028B80, symSize: 0x60 }
  - { offsetInCU: 0x4B23, offset: 0x7B67E, size: 0x8, addend: 0x0, symName: __ZN20SimpleTrimmerContextC1Ev, symObjAddr: 0x60, symBinAddr: 0x100028BE0, symSize: 0x20 }
  - { offsetInCU: 0x4B4D, offset: 0x7B6A8, size: 0x8, addend: 0x0, symName: __ZN13SimpleTrimmer12MinimizeStepEP6SampleP16MinimizerContext, symObjAddr: 0x80, symBinAddr: 0x100028C00, symSize: 0xC0 }
  - { offsetInCU: 0x4B9F, offset: 0x7B6FA, size: 0x8, addend: 0x0, symName: __ZN13SimpleTrimmer10ReportFailEP6SampleP16MinimizerContext, symObjAddr: 0x140, symBinAddr: 0x100028CC0, symSize: 0x40 }
  - { offsetInCU: 0x4BF1, offset: 0x7B74C, size: 0x8, addend: 0x0, symName: __ZN20SimpleTrimmerContextC2Ev, symObjAddr: 0x1A0, symBinAddr: 0x100028D00, symSize: 0x40 }
  - { offsetInCU: 0x4C1B, offset: 0x7B776, size: 0x8, addend: 0x0, symName: __ZN16MinimizerContextC2Ev, symObjAddr: 0x1E0, symBinAddr: 0x100028D40, symSize: 0x20 }
  - { offsetInCU: 0x4C47, offset: 0x7B7A2, size: 0x8, addend: 0x0, symName: __ZN20SimpleTrimmerContextD1Ev, symObjAddr: 0x200, symBinAddr: 0x100028D60, symSize: 0x20 }
  - { offsetInCU: 0x4C73, offset: 0x7B7CE, size: 0x8, addend: 0x0, symName: __ZN20SimpleTrimmerContextD0Ev, symObjAddr: 0x220, symBinAddr: 0x100028D80, symSize: 0x30 }
  - { offsetInCU: 0x4C9F, offset: 0x7B7FA, size: 0x8, addend: 0x0, symName: __ZN16MinimizerContextD1Ev, symObjAddr: 0x250, symBinAddr: 0x100028DB0, symSize: 0x20 }
  - { offsetInCU: 0x4CC9, offset: 0x7B824, size: 0x8, addend: 0x0, symName: __ZN16MinimizerContextD0Ev, symObjAddr: 0x270, symBinAddr: 0x100028DD0, symSize: 0x30 }
  - { offsetInCU: 0x4CF3, offset: 0x7B84E, size: 0x8, addend: 0x0, symName: __ZN16MinimizerContextD2Ev, symObjAddr: 0x2A0, symBinAddr: 0x100028E00, symSize: 0x10 }
  - { offsetInCU: 0x4D1D, offset: 0x7B878, size: 0x8, addend: 0x0, symName: __ZN20SimpleTrimmerContextD2Ev, symObjAddr: 0x2B0, symBinAddr: 0x100028E10, symSize: 0x1B }
  - { offsetInCU: 0x39, offset: 0x7B8E2, size: 0x8, addend: 0x0, symName: __ZN13RepeatMutator11stats_mutexE, symObjAddr: 0xA87F0, symBinAddr: 0x1005ABDD0, symSize: 0x0 }
  - { offsetInCU: 0x11C21, offset: 0x8D4CA, size: 0x8, addend: 0x0, symName: __ZNSt3__17advanceB7v160006IPymmvEEvRT_T0_, symObjAddr: 0xED40, symBinAddr: 0x100032220, symSize: 0x50 }
  - { offsetInCU: 0x13CF4, offset: 0x8F59D, size: 0x8, addend: 0x0, symName: __ZNSt3__17getlineB7v160006IcNS_11char_traitsIcEENS_9allocatorIcEEEERNS_13basic_istreamIT_T0_EES9_RNS_12basic_stringIS6_S7_T1_EE, symObjAddr: 0x1C50, symBinAddr: 0x10002A8C0, symSize: 0x50 }
  - { offsetInCU: 0x13D57, offset: 0x8F600, size: 0x8, addend: 0x0, symName: __ZNSt3__1neB7v160006IPN24BaseDeterministicContext12MutateRegionEEEbRKNS_11__wrap_iterIT_EES8_, symObjAddr: 0x2770, symBinAddr: 0x10002B330, symSize: 0x30 }
  - { offsetInCU: 0x13D9A, offset: 0x8F643, size: 0x8, addend: 0x0, symName: __ZNSt3__14sortB7v160006INS_11__wrap_iterIPmEEEEvT_S4_, symObjAddr: 0x3550, symBinAddr: 0x10002C090, symSize: 0x40 }
  - { offsetInCU: 0x13DDC, offset: 0x8F685, size: 0x8, addend: 0x0, symName: __ZNSt3__1eqB7v160006IPN24BaseDeterministicContext12MutateRegionEEEbRKNS_11__wrap_iterIT_EES8_, symObjAddr: 0x4FA0, symBinAddr: 0x10002CBB0, symSize: 0x40 }
  - { offsetInCU: 0x13E1F, offset: 0x8F6C8, size: 0x8, addend: 0x0, symName: __ZNSt3__112__to_addressB7v160006IN24BaseDeterministicContext12MutateRegionEEEPT_S4_, symObjAddr: 0x5000, symBinAddr: 0x10002CC10, symSize: 0x10 }
  - { offsetInCU: 0x13E54, offset: 0x8F6FD, size: 0x8, addend: 0x0, symName: __ZNSt3__119__debug_db_insert_cB7v160006INS_6vectorIN24BaseDeterministicContext12MutateRegionENS_9allocatorIS3_EEEEEEvPT_, symObjAddr: 0x54C0, symBinAddr: 0x10002CE30, symSize: 0x10 }
  - { offsetInCU: 0x13E85, offset: 0x8F72E, size: 0x8, addend: 0x0, symName: __ZNSt3__118__debug_db_erase_cB7v160006INS_6vectorIN24BaseDeterministicContext12MutateRegionENS_9allocatorIS3_EEEEEEvPT_, symObjAddr: 0x5750, symBinAddr: 0x10002D0C0, symSize: 0x10 }
  - { offsetInCU: 0x14032, offset: 0x8F8DB, size: 0x8, addend: 0x0, symName: __ZNSt3__119__allocate_at_leastB7v160006INS_9allocatorIN24BaseDeterministicContext12MutateRegionEEEEENS_19__allocation_resultINS_16allocator_traitsIT_E7pointerEEERS7_m, symObjAddr: 0x9A10, symBinAddr: 0x10002DDD0, symSize: 0x40 }
  - { offsetInCU: 0x14075, offset: 0x8F91E, size: 0x8, addend: 0x0, symName: __ZNSt3__142__uninitialized_allocator_move_if_noexceptB7v160006INS_9allocatorIN24BaseDeterministicContext12MutateRegionEEENS_16reverse_iteratorIPS3_EES7_S3_vEET1_RT_T0_SB_S8_, symObjAddr: 0x9C50, symBinAddr: 0x10002E010, symSize: 0x70 }
  - { offsetInCU: 0x140F1, offset: 0x8F99A, size: 0x8, addend: 0x0, symName: __ZNSt3__14swapB7v160006IPN24BaseDeterministicContext12MutateRegionEEENS_9enable_ifIXaasr21is_move_constructibleIT_EE5valuesr18is_move_assignableIS5_EE5valueEvE4typeERS5_S8_, symObjAddr: 0x9D10, symBinAddr: 0x10002E0D0, symSize: 0x40 }
  - { offsetInCU: 0x14142, offset: 0x8F9EB, size: 0x8, addend: 0x0, symName: __ZNSt3__125__debug_db_invalidate_allB7v160006INS_6vectorIN24BaseDeterministicContext12MutateRegionENS_9allocatorIS3_EEEEEEvPT_, symObjAddr: 0x9E00, symBinAddr: 0x10002E1C0, symSize: 0x10 }
  - { offsetInCU: 0x14173, offset: 0x8FA1C, size: 0x8, addend: 0x0, symName: __ZNSt3__14moveB7v160006INS_16reverse_iteratorIPN24BaseDeterministicContext12MutateRegionEEES5_EET0_T_S7_S6_, symObjAddr: 0x9E10, symBinAddr: 0x10002E1D0, symSize: 0x80 }
  - { offsetInCU: 0x141CD, offset: 0x8FA76, size: 0x8, addend: 0x0, symName: __ZNSt3__16__moveB7v160006INS_17_ClassicAlgPolicyENS_16reverse_iteratorIPN24BaseDeterministicContext12MutateRegionEEES6_S6_EENS_4pairIT0_T2_EES8_T1_S9_, symObjAddr: 0x9E90, symBinAddr: 0x10002E250, symSize: 0x90 }
  - { offsetInCU: 0x14239, offset: 0x8FAE2, size: 0x8, addend: 0x0, symName: __ZNSt3__123__dispatch_copy_or_moveB7v160006INS_17_ClassicAlgPolicyENS_11__move_loopIS1_EENS_14__move_trivialENS_16reverse_iteratorIPN24BaseDeterministicContext12MutateRegionEEES9_S9_EENS_4pairIT2_T4_EESB_T3_SC_, symObjAddr: 0x9F20, symBinAddr: 0x10002E2E0, symSize: 0x90 }
  - { offsetInCU: 0x142B7, offset: 0x8FB60, size: 0x8, addend: 0x0, symName: __ZNSt3__121__unwrap_and_dispatchB7v160006INS_10__overloadINS_11__move_loopINS_17_ClassicAlgPolicyEEENS_14__move_trivialEEENS_16reverse_iteratorIPN24BaseDeterministicContext12MutateRegionEEESB_SB_Li0EEENS_4pairIT0_T2_EESD_T1_SE_, symObjAddr: 0x9FB0, symBinAddr: 0x10002E370, symSize: 0x210 }
  - { offsetInCU: 0x14346, offset: 0x8FBEF, size: 0x8, addend: 0x0, symName: __ZNSt3__114__unwrap_rangeB7v160006INS_16reverse_iteratorIPN24BaseDeterministicContext12MutateRegionEEES5_EENS_4pairIT0_S7_EET_S9_, symObjAddr: 0xA1C0, symBinAddr: 0x10002E580, symSize: 0x90 }
  - { offsetInCU: 0x14466, offset: 0x8FD0F, size: 0x8, addend: 0x0, symName: __ZNSt3__113__unwrap_iterB7v160006INS_16reverse_iteratorIPN24BaseDeterministicContext12MutateRegionEEENS_18__unwrap_iter_implIS5_Lb0EEELi0EEEDTclsrT0_8__unwrapclsr3stdE7declvalIT_EEEES9_, symObjAddr: 0xA300, symBinAddr: 0x10002E6C0, symSize: 0x40 }
  - { offsetInCU: 0x144AA, offset: 0x8FD53, size: 0x8, addend: 0x0, symName: __ZNSt3__19make_pairB7v160006INS_16reverse_iteratorIPN24BaseDeterministicContext12MutateRegionEEES5_EENS_4pairINS_18__unwrap_ref_decayIT_E4typeENS7_IT0_E4typeEEEOS8_OSB_, symObjAddr: 0xA340, symBinAddr: 0x10002E700, symSize: 0x30 }
  - { offsetInCU: 0x144F9, offset: 0x8FDA2, size: 0x8, addend: 0x0, symName: __ZNSt3__114__rewrap_rangeB7v160006INS_16reverse_iteratorIPN24BaseDeterministicContext12MutateRegionEEES5_EET_S6_T0_, symObjAddr: 0xA370, symBinAddr: 0x10002E730, symSize: 0x60 }
  - { offsetInCU: 0x14545, offset: 0x8FDEE, size: 0x8, addend: 0x0, symName: __ZNSt3__113__rewrap_iterB7v160006INS_16reverse_iteratorIPN24BaseDeterministicContext12MutateRegionEEES5_NS_18__unwrap_iter_implIS5_Lb0EEEEET_S8_T0_, symObjAddr: 0xA3D0, symBinAddr: 0x10002E790, symSize: 0x70 }
  - { offsetInCU: 0x1459A, offset: 0x8FE43, size: 0x8, addend: 0x0, symName: __ZNSt3__1neB7v160006IPN24BaseDeterministicContext12MutateRegionES3_EEbRKNS_16reverse_iteratorIT_EERKNS4_IT0_EE, symObjAddr: 0xA440, symBinAddr: 0x10002E800, symSize: 0x40 }
  - { offsetInCU: 0x14652, offset: 0x8FEFB, size: 0x8, addend: 0x0, symName: __ZNSt3__119__allocate_at_leastB7v160006INS_9allocatorI6SampleEEEENS_19__allocation_resultINS_16allocator_traitsIT_E7pointerEEERS6_m, symObjAddr: 0xB490, symBinAddr: 0x10002F4A0, symSize: 0x40 }
  - { offsetInCU: 0x14695, offset: 0x8FF3E, size: 0x8, addend: 0x0, symName: __ZNSt3__142__uninitialized_allocator_move_if_noexceptB7v160006INS_9allocatorI6SampleEENS_16reverse_iteratorIPS2_EES6_S6_EET2_RT_T0_T1_S7_, symObjAddr: 0xB6F0, symBinAddr: 0x10002F630, symSize: 0x180 }
  - { offsetInCU: 0x14734, offset: 0x8FFDD, size: 0x8, addend: 0x0, symName: __ZNSt3__14swapB7v160006IP6SampleEENS_9enable_ifIXaasr21is_move_constructibleIT_EE5valuesr18is_move_assignableIS4_EE5valueEvE4typeERS4_S7_, symObjAddr: 0xB8C0, symBinAddr: 0x10002F800, symSize: 0x40 }
  - { offsetInCU: 0x14785, offset: 0x9002E, size: 0x8, addend: 0x0, symName: __ZNSt3__125__debug_db_invalidate_allB7v160006INS_6vectorI6SampleNS_9allocatorIS2_EEEEEEvPT_, symObjAddr: 0xB9A0, symBinAddr: 0x10002F8E0, symSize: 0x10 }
  - { offsetInCU: 0x147B6, offset: 0x9005F, size: 0x8, addend: 0x0, symName: __ZNSt3__122__make_exception_guardB7v160006INS_29_AllocatorDestroyRangeReverseINS_9allocatorI6SampleEENS_16reverse_iteratorIPS3_EEEEEENS_28__exception_guard_exceptionsIT_EESA_, symObjAddr: 0xB9F0, symBinAddr: 0x10002F8F0, symSize: 0x60 }
  - { offsetInCU: 0x147EB, offset: 0x90094, size: 0x8, addend: 0x0, symName: __ZNSt3__1neB7v160006IP6SampleS2_EEbRKNS_16reverse_iteratorIT_EERKNS3_IT0_EE, symObjAddr: 0xBA90, symBinAddr: 0x10002F990, symSize: 0x40 }
  - { offsetInCU: 0x14837, offset: 0x900E0, size: 0x8, addend: 0x0, symName: __ZNSt3__112__to_addressB7v160006INS_16reverse_iteratorIP6SampleEEvEENS_5decayIDTclsr19__to_address_helperIT_EE6__callclsr3stdE7declvalIRKS6_EEEEE4typeES8_, symObjAddr: 0xBAD0, symBinAddr: 0x10002F9D0, symSize: 0x20 }
  - { offsetInCU: 0x14897, offset: 0x90140, size: 0x8, addend: 0x0, symName: __ZNSt3__119__allocator_destroyB7v160006INS_9allocatorI6SampleEENS_16reverse_iteratorINS4_IPS2_EEEES7_EEvRT_T0_T1_, symObjAddr: 0xBDC0, symBinAddr: 0x10002FCC0, symSize: 0x70 }
  - { offsetInCU: 0x148FA, offset: 0x901A3, size: 0x8, addend: 0x0, symName: __ZNSt3__1neB7v160006INS_16reverse_iteratorIP6SampleEES4_EEbRKNS1_IT_EERKNS1_IT0_EE, symObjAddr: 0xBE60, symBinAddr: 0x10002FD60, symSize: 0x50 }
  - { offsetInCU: 0x14946, offset: 0x901EF, size: 0x8, addend: 0x0, symName: __ZNSt3__112__to_addressB7v160006INS_16reverse_iteratorINS1_IP6SampleEEEEvEENS_5decayIDTclsr19__to_address_helperIT_EE6__callclsr3stdE7declvalIRKS7_EEEEE4typeES9_, symObjAddr: 0xBEE0, symBinAddr: 0x10002FDB0, symSize: 0x20 }
  - { offsetInCU: 0x149A6, offset: 0x9024F, size: 0x8, addend: 0x0, symName: __ZNSt3__17getlineB7v160006IcNS_11char_traitsIcEENS_9allocatorIcEEEERNS_13basic_istreamIT_T0_EES9_RNS_12basic_stringIS6_S7_T1_EES6_, symObjAddr: 0xC970, symBinAddr: 0x100030330, symSize: 0x220 }
  - { offsetInCU: 0x14A64, offset: 0x9030D, size: 0x8, addend: 0x0, symName: __ZNSt3__125__debug_db_invalidate_allB7v160006INS_12basic_stringIcNS_11char_traitsIcEENS_9allocatorIcEEEEEEvPT_, symObjAddr: 0xCEC0, symBinAddr: 0x1000306F0, symSize: 0x10 }
  - { offsetInCU: 0x14A95, offset: 0x9033E, size: 0x8, addend: 0x0, symName: __ZNSt3__110__str_findB7v160006IcmNS_11char_traitsIcEELm18446744073709551615EEET0_PKT_S3_S6_S3_S3_, symObjAddr: 0xD110, symBinAddr: 0x100030770, symSize: 0xB0 }
  - { offsetInCU: 0x14B3C, offset: 0x903E5, size: 0x8, addend: 0x0, symName: __ZNSt3__118__search_substringB7v160006IcNS_11char_traitsIcEEEEPKT_S5_S5_S5_S5_, symObjAddr: 0xD1F0, symBinAddr: 0x100030820, symSize: 0x120 }
  - { offsetInCU: 0x14BD6, offset: 0x9047F, size: 0x8, addend: 0x0, symName: __ZNSt3__123__constexpr_char_memchrB7v160006EPKcim, symObjAddr: 0xD3E0, symBinAddr: 0x1000309B0, symSize: 0x30 }
  - { offsetInCU: 0x14C1E, offset: 0x904C7, size: 0x8, addend: 0x0, symName: __ZNSt3__1miB7v160006IPKN24BaseDeterministicContext12MutateRegionEPS2_EEDTmicldtfp_4baseEcldtfp0_4baseEERKNS_11__wrap_iterIT_EERKNS7_IT0_EE, symObjAddr: 0xD580, symBinAddr: 0x100030A60, symSize: 0x40 }
  - { offsetInCU: 0x14C9D, offset: 0x90546, size: 0x8, addend: 0x0, symName: __ZNSt3__113move_backwardB7v160006IPN24BaseDeterministicContext12MutateRegionES3_EET0_T_S5_S4_, symObjAddr: 0xDC50, symBinAddr: 0x100031130, symSize: 0x40 }
  - { offsetInCU: 0x14CF7, offset: 0x905A0, size: 0x8, addend: 0x0, symName: __ZNSt3__115__move_backwardB7v160006INS_17_ClassicAlgPolicyEPN24BaseDeterministicContext12MutateRegionES4_S4_EENS_4pairIT0_T2_EES6_T1_S7_, symObjAddr: 0xDCD0, symBinAddr: 0x1000311B0, symSize: 0x40 }
  - { offsetInCU: 0x14D63, offset: 0x9060C, size: 0x8, addend: 0x0, symName: __ZNSt3__123__dispatch_copy_or_moveB7v160006INS_17_ClassicAlgPolicyENS_20__move_backward_loopIS1_EENS_23__move_backward_trivialEPN24BaseDeterministicContext12MutateRegionES7_S7_EENS_4pairIT2_T4_EES9_T3_SA_, symObjAddr: 0xDD10, symBinAddr: 0x1000311F0, symSize: 0x40 }
  - { offsetInCU: 0x14DE1, offset: 0x9068A, size: 0x8, addend: 0x0, symName: __ZNSt3__121__unwrap_and_dispatchB7v160006INS_10__overloadINS_20__move_backward_loopINS_17_ClassicAlgPolicyEEENS_23__move_backward_trivialEEEPN24BaseDeterministicContext12MutateRegionES9_S9_Li0EEENS_4pairIT0_T2_EESB_T1_SC_, symObjAddr: 0xDD50, symBinAddr: 0x100031230, symSize: 0xB0 }
  - { offsetInCU: 0x14E70, offset: 0x90719, size: 0x8, addend: 0x0, symName: __ZNSt3__114__unwrap_rangeB7v160006IPN24BaseDeterministicContext12MutateRegionES3_EENS_4pairIT0_S5_EET_S7_, symObjAddr: 0xDE00, symBinAddr: 0x1000312E0, symSize: 0x50 }
  - { offsetInCU: 0x15034, offset: 0x908DD, size: 0x8, addend: 0x0, symName: __ZNSt3__113__unwrap_iterB7v160006IPN24BaseDeterministicContext12MutateRegionENS_18__unwrap_iter_implIS3_Lb1EEELi0EEEDTclsrT0_8__unwrapclsr3stdE7declvalIT_EEEES7_, symObjAddr: 0xDE90, symBinAddr: 0x100031370, symSize: 0x20 }
  - { offsetInCU: 0x15078, offset: 0x90921, size: 0x8, addend: 0x0, symName: __ZNSt3__19make_pairB7v160006IPN24BaseDeterministicContext12MutateRegionES3_EENS_4pairINS_18__unwrap_ref_decayIT_E4typeENS5_IT0_E4typeEEEOS6_OS9_, symObjAddr: 0xDEB0, symBinAddr: 0x100031390, symSize: 0x30 }
  - { offsetInCU: 0x150C7, offset: 0x90970, size: 0x8, addend: 0x0, symName: __ZNSt3__114__rewrap_rangeB7v160006IPN24BaseDeterministicContext12MutateRegionES3_EET_S4_T0_, symObjAddr: 0xDEE0, symBinAddr: 0x1000313C0, symSize: 0x30 }
  - { offsetInCU: 0x15113, offset: 0x909BC, size: 0x8, addend: 0x0, symName: __ZNSt3__113__rewrap_iterB7v160006IPN24BaseDeterministicContext12MutateRegionES3_NS_18__unwrap_iter_implIS3_Lb1EEEEET_S6_T0_, symObjAddr: 0xDF10, symBinAddr: 0x1000313F0, symSize: 0x40 }
  - { offsetInCU: 0x15168, offset: 0x90A11, size: 0x8, addend: 0x0, symName: __ZNSt3__128__copy_backward_trivial_implB7v160006IN24BaseDeterministicContext12MutateRegionES2_EENS_4pairIPT_PT0_EES5_S5_S7_, symObjAddr: 0xDF50, symBinAddr: 0x100031430, symSize: 0x80 }
  - { offsetInCU: 0x151D0, offset: 0x90A79, size: 0x8, addend: 0x0, symName: __ZNSt3__19make_pairB7v160006IRPN24BaseDeterministicContext12MutateRegionES4_EENS_4pairINS_18__unwrap_ref_decayIT_E4typeENS6_IT0_E4typeEEEOS7_OSA_, symObjAddr: 0xDFD0, symBinAddr: 0x1000314B0, symSize: 0x30 }
  - { offsetInCU: 0x15272, offset: 0x90B1B, size: 0x8, addend: 0x0, symName: __ZNSt3__14moveB7v160006IPN24BaseDeterministicContext12MutateRegionES3_EET0_T_S5_S4_, symObjAddr: 0xE130, symBinAddr: 0x100031610, symSize: 0x40 }
  - { offsetInCU: 0x152CC, offset: 0x90B75, size: 0x8, addend: 0x0, symName: __ZNSt3__16__moveB7v160006INS_17_ClassicAlgPolicyEPN24BaseDeterministicContext12MutateRegionES4_S4_EENS_4pairIT0_T2_EES6_T1_S7_, symObjAddr: 0xE2A0, symBinAddr: 0x100031780, symSize: 0x40 }
  - { offsetInCU: 0x15338, offset: 0x90BE1, size: 0x8, addend: 0x0, symName: __ZNSt3__123__dispatch_copy_or_moveB7v160006INS_17_ClassicAlgPolicyENS_11__move_loopIS1_EENS_14__move_trivialEPN24BaseDeterministicContext12MutateRegionES7_S7_EENS_4pairIT2_T4_EES9_T3_SA_, symObjAddr: 0xE2E0, symBinAddr: 0x1000317C0, symSize: 0x40 }
  - { offsetInCU: 0x153B6, offset: 0x90C5F, size: 0x8, addend: 0x0, symName: __ZNSt3__121__unwrap_and_dispatchB7v160006INS_10__overloadINS_11__move_loopINS_17_ClassicAlgPolicyEEENS_14__move_trivialEEEPN24BaseDeterministicContext12MutateRegionES9_S9_Li0EEENS_4pairIT0_T2_EESB_T1_SC_, symObjAddr: 0xE320, symBinAddr: 0x100031800, symSize: 0xB0 }
  - { offsetInCU: 0x1548B, offset: 0x90D34, size: 0x8, addend: 0x0, symName: __ZNSt3__119__copy_trivial_implB7v160006IN24BaseDeterministicContext12MutateRegionES2_EENS_4pairIPT_PT0_EES5_S5_S7_, symObjAddr: 0xE410, symBinAddr: 0x1000318F0, symSize: 0x80 }
  - { offsetInCU: 0x154F3, offset: 0x90D9C, size: 0x8, addend: 0x0, symName: __ZNSt3__19make_pairB7v160006IRPN24BaseDeterministicContext12MutateRegionES3_EENS_4pairINS_18__unwrap_ref_decayIT_E4typeENS6_IT0_E4typeEEEOS7_OSA_, symObjAddr: 0xE490, symBinAddr: 0x100031970, symSize: 0x30 }
  - { offsetInCU: 0x15542, offset: 0x90DEB, size: 0x8, addend: 0x0, symName: __ZNSt3__18distanceB7v160006INS_13move_iteratorIPN24BaseDeterministicContext12MutateRegionEEEEENS_15iterator_traitsIT_E15difference_typeES7_S7_, symObjAddr: 0xE520, symBinAddr: 0x100031A00, symSize: 0x40 }
  - { offsetInCU: 0x15585, offset: 0x90E2E, size: 0x8, addend: 0x0, symName: __ZNSt3__110__distanceB7v160006INS_13move_iteratorIPN24BaseDeterministicContext12MutateRegionEEEEENS_15iterator_traitsIT_E15difference_typeES7_S7_NS_26random_access_iterator_tagE, symObjAddr: 0xE5A0, symBinAddr: 0x100031A80, symSize: 0x30 }
  - { offsetInCU: 0x155D3, offset: 0x90E7C, size: 0x8, addend: 0x0, symName: __ZNSt3__1miB7v160006IPN24BaseDeterministicContext12MutateRegionES3_EEDTmicldtfp_4baseEcldtfp0_4baseEERKNS_13move_iteratorIT_EERKNS5_IT0_EE, symObjAddr: 0xE5D0, symBinAddr: 0x100031AB0, symSize: 0x40 }
  - { offsetInCU: 0x15622, offset: 0x90ECB, size: 0x8, addend: 0x0, symName: __ZNSt3__142__uninitialized_allocator_move_if_noexceptB7v160006INS_9allocatorIN24BaseDeterministicContext12MutateRegionEEEPS3_S5_S3_vEET1_RT_T0_S9_S6_, symObjAddr: 0xE650, symBinAddr: 0x100031B30, symSize: 0x30 }
  - { offsetInCU: 0x1569E, offset: 0x90F47, size: 0x8, addend: 0x0, symName: __ZNSt3__119__debug_db_insert_cB7v160006INS_6vectorImNS_9allocatorImEEEEEEvPT_, symObjAddr: 0xE7E0, symBinAddr: 0x100031CC0, symSize: 0x10 }
  - { offsetInCU: 0x156CF, offset: 0x90F78, size: 0x8, addend: 0x0, symName: __ZNSt3__118__debug_db_erase_cB7v160006INS_6vectorImNS_9allocatorImEEEEEEvPT_, symObjAddr: 0xEA70, symBinAddr: 0x100031F50, symSize: 0x10 }
  - { offsetInCU: 0x15700, offset: 0x90FA9, size: 0x8, addend: 0x0, symName: __ZNSt3__112__to_addressB7v160006ImEEPT_S2_, symObjAddr: 0xEB80, symBinAddr: 0x100032060, symSize: 0x10 }
  - { offsetInCU: 0x15735, offset: 0x90FDE, size: 0x8, addend: 0x0, symName: __ZNSt3__18distanceB7v160006IPyEENS_15iterator_traitsIT_E15difference_typeES3_S3_, symObjAddr: 0xED10, symBinAddr: 0x1000321F0, symSize: 0x30 }
  - { offsetInCU: 0x15778, offset: 0x91021, size: 0x8, addend: 0x0, symName: __ZNSt3__14copyB7v160006IPyPmEET0_T_S4_S3_, symObjAddr: 0xED90, symBinAddr: 0x100032270, symSize: 0x40 }
  - { offsetInCU: 0x157D2, offset: 0x9107B, size: 0x8, addend: 0x0, symName: __ZNSt3__125__debug_db_invalidate_allB7v160006INS_6vectorImNS_9allocatorImEEEEEEvPT_, symObjAddr: 0xF080, symBinAddr: 0x100032560, symSize: 0x10 }
  - { offsetInCU: 0x15803, offset: 0x910AC, size: 0x8, addend: 0x0, symName: __ZNSt3__110__distanceB7v160006IPyEENS_15iterator_traitsIT_E15difference_typeES3_S3_NS_26random_access_iterator_tagE, symObjAddr: 0xF090, symBinAddr: 0x100032570, symSize: 0x20 }
  - { offsetInCU: 0x15851, offset: 0x910FA, size: 0x8, addend: 0x0, symName: __ZNSt3__19__advanceB7v160006IPyEEvRT_NS_15iterator_traitsIS2_E15difference_typeENS_26random_access_iterator_tagE, symObjAddr: 0xF0C0, symBinAddr: 0x100032590, symSize: 0x20 }
  - { offsetInCU: 0x1589B, offset: 0x91144, size: 0x8, addend: 0x0, symName: __ZNSt3__16__copyB7v160006INS_17_ClassicAlgPolicyEPyS2_PmEENS_4pairIT0_T2_EES5_T1_S6_, symObjAddr: 0xF0E0, symBinAddr: 0x1000325B0, symSize: 0x40 }
  - { offsetInCU: 0x15907, offset: 0x911B0, size: 0x8, addend: 0x0, symName: __ZNSt3__123__dispatch_copy_or_moveB7v160006INS_17_ClassicAlgPolicyENS_11__copy_loopIS1_EENS_14__copy_trivialEPyS5_PmEENS_4pairIT2_T4_EES8_T3_S9_, symObjAddr: 0xF120, symBinAddr: 0x1000325F0, symSize: 0x40 }
  - { offsetInCU: 0x15985, offset: 0x9122E, size: 0x8, addend: 0x0, symName: __ZNSt3__121__unwrap_and_dispatchB7v160006INS_10__overloadINS_11__copy_loopINS_17_ClassicAlgPolicyEEENS_14__copy_trivialEEEPyS7_PmLi0EEENS_4pairIT0_T2_EESA_T1_SB_, symObjAddr: 0xF160, symBinAddr: 0x100032630, symSize: 0xB0 }
  - { offsetInCU: 0x15A14, offset: 0x912BD, size: 0x8, addend: 0x0, symName: __ZNSt3__114__unwrap_rangeB7v160006IPyS1_EENS_4pairIT0_S3_EET_S5_, symObjAddr: 0xF210, symBinAddr: 0x1000326E0, symSize: 0x50 }
  - { offsetInCU: 0x15BA9, offset: 0x91452, size: 0x8, addend: 0x0, symName: __ZNSt3__113__unwrap_iterB7v160006IPmNS_18__unwrap_iter_implIS1_Lb1EEELi0EEEDTclsrT0_8__unwrapclsr3stdE7declvalIT_EEEES5_, symObjAddr: 0xF2A0, symBinAddr: 0x100032770, symSize: 0x20 }
  - { offsetInCU: 0x15BED, offset: 0x91496, size: 0x8, addend: 0x0, symName: __ZNSt3__19make_pairB7v160006IPyPmEENS_4pairINS_18__unwrap_ref_decayIT_E4typeENS4_IT0_E4typeEEEOS5_OS8_, symObjAddr: 0xF2C0, symBinAddr: 0x100032790, symSize: 0x30 }
  - { offsetInCU: 0x15C3C, offset: 0x914E5, size: 0x8, addend: 0x0, symName: __ZNSt3__114__rewrap_rangeB7v160006IPyS1_EET_S2_T0_, symObjAddr: 0xF2F0, symBinAddr: 0x1000327C0, symSize: 0x30 }
  - { offsetInCU: 0x15C88, offset: 0x91531, size: 0x8, addend: 0x0, symName: __ZNSt3__113__rewrap_iterB7v160006IPmS1_NS_18__unwrap_iter_implIS1_Lb1EEEEET_S4_T0_, symObjAddr: 0xF320, symBinAddr: 0x1000327F0, symSize: 0x40 }
  - { offsetInCU: 0x15CDD, offset: 0x91586, size: 0x8, addend: 0x0, symName: __ZNSt3__19make_pairB7v160006IPyS1_EENS_4pairINS_18__unwrap_ref_decayIT_E4typeENS3_IT0_E4typeEEEOS4_OS7_, symObjAddr: 0xF360, symBinAddr: 0x100032830, symSize: 0x30 }
  - { offsetInCU: 0x15D2C, offset: 0x915D5, size: 0x8, addend: 0x0, symName: __ZNSt3__113__unwrap_iterB7v160006IPyNS_18__unwrap_iter_implIS1_Lb1EEELi0EEEDTclsrT0_8__unwrapclsr3stdE7declvalIT_EEEES5_, symObjAddr: 0xF390, symBinAddr: 0x100032860, symSize: 0x20 }
  - { offsetInCU: 0x15E97, offset: 0x91740, size: 0x8, addend: 0x0, symName: __ZNSt3__112__to_addressB7v160006IyEEPT_S2_, symObjAddr: 0xF430, symBinAddr: 0x100032900, symSize: 0x10 }
  - { offsetInCU: 0x15ECC, offset: 0x91775, size: 0x8, addend: 0x0, symName: __ZNSt3__119__copy_trivial_implB7v160006IymEENS_4pairIPT_PT0_EES3_S3_S5_, symObjAddr: 0xF440, symBinAddr: 0x100032910, symSize: 0x70 }
  - { offsetInCU: 0x15F34, offset: 0x917DD, size: 0x8, addend: 0x0, symName: __ZNSt3__19make_pairB7v160006IRPyPmEENS_4pairINS_18__unwrap_ref_decayIT_E4typeENS5_IT0_E4typeEEEOS6_OS9_, symObjAddr: 0xF4B0, symBinAddr: 0x100032980, symSize: 0x30 }
  - { offsetInCU: 0x15FD6, offset: 0x9187F, size: 0x8, addend: 0x0, symName: __ZNSt3__113__rewrap_iterB7v160006IPyS1_NS_18__unwrap_iter_implIS1_Lb1EEEEET_S4_T0_, symObjAddr: 0xF5C0, symBinAddr: 0x100032A90, symSize: 0x40 }
  - { offsetInCU: 0x1602B, offset: 0x918D4, size: 0x8, addend: 0x0, symName: __ZNSt3__130__uninitialized_allocator_copyB7v160006INS_9allocatorImEEPyS3_PmEET2_RT_T0_T1_S5_, symObjAddr: 0xF6D0, symBinAddr: 0x100032BA0, symSize: 0x100 }
  - { offsetInCU: 0x160C9, offset: 0x91972, size: 0x8, addend: 0x0, symName: __ZNSt3__122__make_exception_guardB7v160006INS_29_AllocatorDestroyRangeReverseINS_9allocatorImEEPmEEEENS_28__exception_guard_exceptionsIT_EES7_, symObjAddr: 0xF830, symBinAddr: 0x100032D00, symSize: 0x60 }
  - { offsetInCU: 0x160FE, offset: 0x919A7, size: 0x8, addend: 0x0, symName: __ZNSt3__119__allocator_destroyB7v160006INS_9allocatorImEENS_16reverse_iteratorIPmEES5_EEvRT_T0_T1_, symObjAddr: 0xFAB0, symBinAddr: 0x100032F80, symSize: 0x70 }
  - { offsetInCU: 0x16161, offset: 0x91A0A, size: 0x8, addend: 0x0, symName: __ZNSt3__1neB7v160006IPmS1_EEbRKNS_16reverse_iteratorIT_EERKNS2_IT0_EE, symObjAddr: 0xFB50, symBinAddr: 0x100033020, symSize: 0x40 }
  - { offsetInCU: 0x161AD, offset: 0x91A56, size: 0x8, addend: 0x0, symName: __ZNSt3__112__to_addressB7v160006INS_16reverse_iteratorIPmEEvEENS_5decayIDTclsr19__to_address_helperIT_EE6__callclsr3stdE7declvalIRKS5_EEEEE4typeES7_, symObjAddr: 0xFB90, symBinAddr: 0x100033060, symSize: 0x20 }
  - { offsetInCU: 0x1620D, offset: 0x91AB6, size: 0x8, addend: 0x0, symName: __ZNSt3__119__allocate_at_leastB7v160006INS_9allocatorImEEEENS_19__allocation_resultINS_16allocator_traitsIT_E7pointerEEERS5_m, symObjAddr: 0xFEA0, symBinAddr: 0x100033370, symSize: 0x40 }
  - { offsetInCU: 0x16250, offset: 0x91AF9, size: 0x8, addend: 0x0, symName: __ZNSt3__14sortB7v160006INS_11__wrap_iterIPmEENS_6__lessImmEEEEvT_S6_T0_, symObjAddr: 0x100F0, symBinAddr: 0x1000335C0, symSize: 0x40 }
  - { offsetInCU: 0x162AA, offset: 0x91B53, size: 0x8, addend: 0x0, symName: __ZNSt3__111__sort_implB7v160006INS_17_ClassicAlgPolicyENS_11__wrap_iterIPmEENS_6__lessImmEEEEvT0_S7_RT1_, symObjAddr: 0x10130, symBinAddr: 0x100033600, symSize: 0x80 }
  - { offsetInCU: 0x16351, offset: 0x91BFA, size: 0x8, addend: 0x0, symName: __ZNSt3__123__debug_randomize_rangeB7v160006INS_17_ClassicAlgPolicyENS_11__wrap_iterIPmEES4_EEvT0_T1_, symObjAddr: 0x101B0, symBinAddr: 0x100033680, symSize: 0x10 }
  - { offsetInCU: 0x163A2, offset: 0x91C4B, size: 0x8, addend: 0x0, symName: __ZNSt3__113__unwrap_iterB7v160006INS_11__wrap_iterIPmEENS_18__unwrap_iter_implIS3_Lb1EEELi0EEEDTclsrT0_8__unwrapclsr3stdE7declvalIT_EEEES7_, symObjAddr: 0x101C0, symBinAddr: 0x100033690, symSize: 0x30 }
  - { offsetInCU: 0x16439, offset: 0x91CE2, size: 0x8, addend: 0x0, symName: __ZNSt3__112__to_addressB7v160006INS_11__wrap_iterIPmEEvEENS_5decayIDTclsr19__to_address_helperIT_EE6__callclsr3stdE7declvalIRKS5_EEEEE4typeES7_, symObjAddr: 0x10210, symBinAddr: 0x1000336E0, symSize: 0x20 }
  - { offsetInCU: 0x171C3, offset: 0x92A6C, size: 0x8, addend: 0x0, symName: __ZN13RepeatMutator5statsE, symObjAddr: 0xA8830, symBinAddr: 0x1005ABE10, symSize: 0x0 }
  - { offsetInCU: 0x171D7, offset: 0x92A80, size: 0x8, addend: 0x0, symName: __ZN13RepeatMutator6nstatsE, symObjAddr: 0xA8888, symBinAddr: 0x1005ABE68, symSize: 0x0 }
  - { offsetInCU: 0x171EB, offset: 0x92A94, size: 0x8, addend: 0x0, symName: __ZN13RepeatMutator9next_statE, symObjAddr: 0xA8890, symBinAddr: 0x1005ABE70, symSize: 0x0 }
  - { offsetInCU: 0x171FF, offset: 0x92AA8, size: 0x8, addend: 0x0, symName: __ZN13RepeatMutator18median_num_repeatsE, symObjAddr: 0x108D0, symBinAddr: 0x100590008, symSize: 0x0 }
  - { offsetInCU: 0x17213, offset: 0x92ABC, size: 0x8, addend: 0x0, symName: __ZN13RepeatMutator16adapted_repeat_pE, symObjAddr: 0x108D8, symBinAddr: 0x100590010, symSize: 0x0 }
  - { offsetInCU: 0x179C1, offset: 0x9326A, size: 0x8, addend: 0x0, symName: __ZNSt3__16vectorIN24BaseDeterministicContext12MutateRegionENS_9allocatorIS2_EEE26__swap_out_circular_bufferERNS_14__split_bufferIS2_RS4_EE, symObjAddr: 0x9570, symBinAddr: 0x10002D930, symSize: 0x130 }
  - { offsetInCU: 0x17A1D, offset: 0x932C6, size: 0x8, addend: 0x0, symName: __ZNSt3__16vectorI6SampleNS_9allocatorIS1_EEE26__swap_out_circular_bufferERNS_14__split_bufferIS1_RS3_EE, symObjAddr: 0xB0B0, symBinAddr: 0x10002F150, symSize: 0x130 }
  - { offsetInCU: 0x17B02, offset: 0x933AB, size: 0x8, addend: 0x0, symName: __ZNSt3__16vectorIN24BaseDeterministicContext12MutateRegionENS_9allocatorIS2_EEE26__swap_out_circular_bufferERNS_14__split_bufferIS2_RS4_EEPS2_, symObjAddr: 0xDA20, symBinAddr: 0x100030F00, symSize: 0x170 }
  - { offsetInCU: 0x19204, offset: 0x94AAD, size: 0x8, addend: 0x0, symName: __Z8isxdigiti, symObjAddr: 0x16B0, symBinAddr: 0x10002A370, symSize: 0x20 }
  - { offsetInCU: 0x199C6, offset: 0x9526F, size: 0x8, addend: 0x0, symName: __ZN7Mutator12GetRandBlockEmmmPmS0_P4PRNG, symObjAddr: 0x20, symBinAddr: 0x100028E30, symSize: 0xC0 }
  - { offsetInCU: 0x19A42, offset: 0x952EB, size: 0x8, addend: 0x0, symName: __ZN4PRNG4RandEii, symObjAddr: 0xE0, symBinAddr: 0x100028EF0, symSize: 0x60 }
  - { offsetInCU: 0x19AE2, offset: 0x9538B, size: 0x8, addend: 0x0, symName: __ZN15ByteFlipMutator6MutateEP6SampleP4PRNGRNSt3__16vectorIS1_NS4_9allocatorIS1_EEEE, symObjAddr: 0x140, symBinAddr: 0x100028F50, symSize: 0x90 }
  - { offsetInCU: 0x19C38, offset: 0x954E1, size: 0x8, addend: 0x0, symName: __ZN17ArithmeticMutator6MutateEP6SampleP4PRNGRNSt3__16vectorIS1_NS4_9allocatorIS1_EEEE, symObjAddr: 0x1D0, symBinAddr: 0x100028FE0, symSize: 0xF0 }
  - { offsetInCU: 0x19CA6, offset: 0x9554F, size: 0x8, addend: 0x0, symName: __ZN17ArithmeticMutator21MutateArithmeticValueItEEbP6SampleP4PRNGi, symObjAddr: 0x2C0, symBinAddr: 0x1000290D0, symSize: 0xF0 }
  - { offsetInCU: 0x19D3C, offset: 0x955E5, size: 0x8, addend: 0x0, symName: __ZN17ArithmeticMutator21MutateArithmeticValueIjEEbP6SampleP4PRNGi, symObjAddr: 0x3B0, symBinAddr: 0x1000291C0, symSize: 0xE0 }
  - { offsetInCU: 0x19DD2, offset: 0x9567B, size: 0x8, addend: 0x0, symName: __ZN17ArithmeticMutator21MutateArithmeticValueIyEEbP6SampleP4PRNGi, symObjAddr: 0x490, symBinAddr: 0x1000292A0, symSize: 0xF0 }
  - { offsetInCU: 0x19F0F, offset: 0x957B8, size: 0x8, addend: 0x0, symName: __ZN16BlockFlipMutator6MutateEP6SampleP4PRNGRNSt3__16vectorIS1_NS4_9allocatorIS1_EEEE, symObjAddr: 0x580, symBinAddr: 0x100029390, symSize: 0x120 }
  - { offsetInCU: 0x1A066, offset: 0x9590F, size: 0x8, addend: 0x0, symName: __ZN13AppendMutator6MutateEP6SampleP4PRNGRNSt3__16vectorIS1_NS4_9allocatorIS1_EEEE, symObjAddr: 0x6A0, symBinAddr: 0x1000294B0, symSize: 0x130 }
  - { offsetInCU: 0x1A192, offset: 0x95A3B, size: 0x8, addend: 0x0, symName: __ZN18BlockInsertMutator6MutateEP6SampleP4PRNGRNSt3__16vectorIS1_NS4_9allocatorIS1_EEEE, symObjAddr: 0x7D0, symBinAddr: 0x1000295E0, symSize: 0x1A0 }
  - { offsetInCU: 0x1A311, offset: 0x95BBA, size: 0x8, addend: 0x0, symName: __ZN21BlockDuplicateMutator6MutateEP6SampleP4PRNGRNSt3__16vectorIS1_NS4_9allocatorIS1_EEEE, symObjAddr: 0x970, symBinAddr: 0x100029780, symSize: 0x210 }
  - { offsetInCU: 0x1A3B9, offset: 0x95C62, size: 0x8, addend: 0x0, symName: __ZN7Mutator19AddInterestingValueEPcmRNSt3__16vectorI6SampleNS1_9allocatorIS3_EEEE, symObjAddr: 0xB80, symBinAddr: 0x100029990, symSize: 0x80 }
  - { offsetInCU: 0x1A41A, offset: 0x95CC3, size: 0x8, addend: 0x0, symName: __ZNSt3__16vectorI6SampleNS_9allocatorIS1_EEE9push_backB7v160006ERKS1_, symObjAddr: 0xC00, symBinAddr: 0x100029A10, symSize: 0x60 }
  - { offsetInCU: 0x1A528, offset: 0x95DD1, size: 0x8, addend: 0x0, symName: __ZN23InterestingValueMutator6MutateEP6SampleP4PRNGRNSt3__16vectorIS1_NS4_9allocatorIS1_EEEE, symObjAddr: 0xC60, symBinAddr: 0x100029A70, symSize: 0x100 }
  - { offsetInCU: 0x1A5A4, offset: 0x95E4D, size: 0x8, addend: 0x0, symName: __ZNKSt3__16vectorI6SampleNS_9allocatorIS1_EEE5emptyB7v160006Ev, symObjAddr: 0xD60, symBinAddr: 0x100029B70, symSize: 0x20 }
  - { offsetInCU: 0x1A5CA, offset: 0x95E73, size: 0x8, addend: 0x0, symName: __ZNSt3__16vectorI6SampleNS_9allocatorIS1_EEEixB7v160006Em, symObjAddr: 0xD80, symBinAddr: 0x100029B90, symSize: 0x20 }
  - { offsetInCU: 0x1A601, offset: 0x95EAA, size: 0x8, addend: 0x0, symName: __ZN23InterestingValueMutatorC2Eb, symObjAddr: 0xDD0, symBinAddr: 0x100029BB0, symSize: 0xB0 }
  - { offsetInCU: 0x1A63B, offset: 0x95EE4, size: 0x8, addend: 0x0, symName: __ZN7Mutator27AddDefaultInterestingValuesItEEvRNSt3__16vectorI6SampleNS1_9allocatorIS3_EEEE, symObjAddr: 0xED0, symBinAddr: 0x100029C60, symSize: 0x280 }
  - { offsetInCU: 0x1A73A, offset: 0x95FE3, size: 0x8, addend: 0x0, symName: __ZN7Mutator27AddDefaultInterestingValuesIjEEvRNSt3__16vectorI6SampleNS1_9allocatorIS3_EEEE, symObjAddr: 0x1150, symBinAddr: 0x100029EE0, symSize: 0x270 }
  - { offsetInCU: 0x1A839, offset: 0x960E2, size: 0x8, addend: 0x0, symName: __ZN23InterestingValueMutatorC1Eb, symObjAddr: 0x1410, symBinAddr: 0x10002A150, symSize: 0x30 }
  - { offsetInCU: 0x1A873, offset: 0x9611C, size: 0x8, addend: 0x0, symName: __ZN23InterestingValueMutator12DictUnescapeERNSt3__112basic_stringIcNS0_11char_traitsIcEENS0_9allocatorIcEEEES7_, symObjAddr: 0x1440, symBinAddr: 0x10002A180, symSize: 0x1F0 }
  - { offsetInCU: 0x1A90C, offset: 0x961B5, size: 0x8, addend: 0x0, symName: __ZN23InterestingValueMutator13AddDictionaryEPc, symObjAddr: 0x16D0, symBinAddr: 0x10002A390, symSize: 0x3A0 }
  - { offsetInCU: 0x1AB34, offset: 0x963DD, size: 0x8, addend: 0x0, symName: __ZNSt3__113basic_fstreamIcNS_11char_traitsIcEEEC1Ev, symObjAddr: 0x1A70, symBinAddr: 0x10002A730, symSize: 0xF0 }
  - { offsetInCU: 0x1AB60, offset: 0x96409, size: 0x8, addend: 0x0, symName: __ZNSt3__113basic_fstreamIcNS_11char_traitsIcEEE4openEPKcj, symObjAddr: 0x1B60, symBinAddr: 0x10002A820, symSize: 0x70 }
  - { offsetInCU: 0x1ABA6, offset: 0x9644F, size: 0x8, addend: 0x0, symName: __ZNKSt3__113basic_fstreamIcNS_11char_traitsIcEEE7is_openEv, symObjAddr: 0x1BD0, symBinAddr: 0x10002A890, symSize: 0x30 }
  - { offsetInCU: 0x1ABD3, offset: 0x9647C, size: 0x8, addend: 0x0, symName: __ZNKSt3__19basic_iosIcNS_11char_traitsIcEEEcvbB7v160006Ev, symObjAddr: 0x1CA0, symBinAddr: 0x10002A910, symSize: 0x30 }
  - { offsetInCU: 0x1ABF9, offset: 0x964A2, size: 0x8, addend: 0x0, symName: __ZNKSt3__112basic_stringIcNS_11char_traitsIcEENS_9allocatorIcEEE4findB7v160006ERKS5_m, symObjAddr: 0x1D00, symBinAddr: 0x10002A940, symSize: 0x70 }
  - { offsetInCU: 0x1AC3F, offset: 0x964E8, size: 0x8, addend: 0x0, symName: __ZN23InterestingValueMutator8AddValueEPcm, symObjAddr: 0x1D70, symBinAddr: 0x10002A9B0, symSize: 0x40 }
  - { offsetInCU: 0x1AC83, offset: 0x9652C, size: 0x8, addend: 0x0, symName: __ZNSt3__113basic_fstreamIcNS_11char_traitsIcEEE5closeEv, symObjAddr: 0x1DB0, symBinAddr: 0x10002A9F0, symSize: 0x50 }
  - { offsetInCU: 0x1ACB0, offset: 0x96559, size: 0x8, addend: 0x0, symName: __ZNSt3__113basic_fstreamIcNS_11char_traitsIcEEED1Ev, symObjAddr: 0x1E00, symBinAddr: 0x10002AA40, symSize: 0x40 }
  - { offsetInCU: 0x1AD6F, offset: 0x96618, size: 0x8, addend: 0x0, symName: __ZN13SpliceMutator6MutateEP6SampleP4PRNGRNSt3__16vectorIS1_NS4_9allocatorIS1_EEEE, symObjAddr: 0x1E40, symBinAddr: 0x10002AA80, symSize: 0x620 }
  - { offsetInCU: 0x1AF2A, offset: 0x967D3, size: 0x8, addend: 0x0, symName: __ZNKSt3__16vectorIP6SampleNS_9allocatorIS2_EEE5emptyB7v160006Ev, symObjAddr: 0x2460, symBinAddr: 0x10002B0A0, symSize: 0x20 }
  - { offsetInCU: 0x1AF50, offset: 0x967F9, size: 0x8, addend: 0x0, symName: __ZN24BaseDeterministicContext12AddHotOffsetEm, symObjAddr: 0x2500, symBinAddr: 0x10002B0C0, symSize: 0x240 }
  - { offsetInCU: 0x1AFD3, offset: 0x9687C, size: 0x8, addend: 0x0, symName: __ZNSt3__16vectorIN24BaseDeterministicContext12MutateRegionENS_9allocatorIS2_EEE5beginB7v160006Ev, symObjAddr: 0x2740, symBinAddr: 0x10002B300, symSize: 0x30 }
  - { offsetInCU: 0x1AFFB, offset: 0x968A4, size: 0x8, addend: 0x0, symName: __ZNSt3__16vectorIN24BaseDeterministicContext12MutateRegionENS_9allocatorIS2_EEE3endB7v160006Ev, symObjAddr: 0x27A0, symBinAddr: 0x10002B360, symSize: 0x30 }
  - { offsetInCU: 0x1B023, offset: 0x968CC, size: 0x8, addend: 0x0, symName: __ZNKSt3__111__wrap_iterIPN24BaseDeterministicContext12MutateRegionEEptB7v160006Ev, symObjAddr: 0x27D0, symBinAddr: 0x10002B390, symSize: 0x20 }
  - { offsetInCU: 0x1B049, offset: 0x968F2, size: 0x8, addend: 0x0, symName: __ZNSt3__16vectorIN24BaseDeterministicContext12MutateRegionENS_9allocatorIS2_EEE6insertENS_11__wrap_iterIPKS2_EERS7_, symObjAddr: 0x27F0, symBinAddr: 0x10002B3B0, symSize: 0x220 }
  - { offsetInCU: 0x1B0EA, offset: 0x96993, size: 0x8, addend: 0x0, symName: __ZNSt3__111__wrap_iterIPKN24BaseDeterministicContext12MutateRegionEEC1B7v160006IPS2_EERKNS0_IT_EEPNS_9enable_ifIXsr14is_convertibleIS8_S4_EE5valueEvE4typeE, symObjAddr: 0x2A10, symBinAddr: 0x10002B5D0, symSize: 0x30 }
  - { offsetInCU: 0x1B136, offset: 0x969DF, size: 0x8, addend: 0x0, symName: __ZNSt3__111__wrap_iterIPN24BaseDeterministicContext12MutateRegionEEppB7v160006Ei, symObjAddr: 0x2A40, symBinAddr: 0x10002B600, symSize: 0x30 }
  - { offsetInCU: 0x1B175, offset: 0x96A1E, size: 0x8, addend: 0x0, symName: __ZNSt3__16vectorIN24BaseDeterministicContext12MutateRegionENS_9allocatorIS2_EEE9push_backB7v160006ERKS2_, symObjAddr: 0x2A70, symBinAddr: 0x10002B630, symSize: 0x60 }
  - { offsetInCU: 0x1B1AC, offset: 0x96A55, size: 0x8, addend: 0x0, symName: __ZN24BaseDeterministicContext19GetNextByteToMutateEPmS0_m, symObjAddr: 0x2AD0, symBinAddr: 0x10002B690, symSize: 0x110 }
  - { offsetInCU: 0x1B211, offset: 0x96ABA, size: 0x8, addend: 0x0, symName: __ZNKSt3__16vectorIN24BaseDeterministicContext12MutateRegionENS_9allocatorIS2_EEE4sizeB7v160006Ev, symObjAddr: 0x2BE0, symBinAddr: 0x10002B7A0, symSize: 0x20 }
  - { offsetInCU: 0x1B237, offset: 0x96AE0, size: 0x8, addend: 0x0, symName: __ZNSt3__16vectorIN24BaseDeterministicContext12MutateRegionENS_9allocatorIS2_EEEixB7v160006Em, symObjAddr: 0x2C00, symBinAddr: 0x10002B7C0, symSize: 0x20 }
  - { offsetInCU: 0x1B370, offset: 0x96C19, size: 0x8, addend: 0x0, symName: __ZN24BaseDeterministicMutator19CreateSampleContextEP6Sample, symObjAddr: 0x2C20, symBinAddr: 0x10002B7E0, symSize: 0x60 }
  - { offsetInCU: 0x1B3B7, offset: 0x96C60, size: 0x8, addend: 0x0, symName: __ZN24BaseDeterministicContextC1Ev, symObjAddr: 0x2C80, symBinAddr: 0x10002B840, symSize: 0x20 }
  - { offsetInCU: 0x1B43F, offset: 0x96CE8, size: 0x8, addend: 0x0, symName: __ZN28DeterministicByteFlipMutator6MutateEP6SampleP4PRNGRNSt3__16vectorIS1_NS4_9allocatorIS1_EEEE, symObjAddr: 0x2CA0, symBinAddr: 0x10002B860, symSize: 0x90 }
  - { offsetInCU: 0x1B533, offset: 0x96DDC, size: 0x8, addend: 0x0, symName: __ZN36DeterministicInterestingValueMutatorC2Eb, symObjAddr: 0x2D30, symBinAddr: 0x10002B8F0, symSize: 0xB0 }
  - { offsetInCU: 0x1B56F, offset: 0x96E18, size: 0x8, addend: 0x0, symName: __ZN24BaseDeterministicMutatorD2Ev, symObjAddr: 0x2E20, symBinAddr: 0x10002B9A0, symSize: 0x20 }
  - { offsetInCU: 0x1B59C, offset: 0x96E45, size: 0x8, addend: 0x0, symName: __ZN36DeterministicInterestingValueMutatorC1Eb, symObjAddr: 0x2E40, symBinAddr: 0x10002B9C0, symSize: 0x30 }
  - { offsetInCU: 0x1B5D8, offset: 0x96E81, size: 0x8, addend: 0x0, symName: __ZN36DeterministicInterestingValueMutator6MutateEP6SampleP4PRNGRNSt3__16vectorIS1_NS4_9allocatorIS1_EEEE, symObjAddr: 0x2E70, symBinAddr: 0x10002B9F0, symSize: 0xD0 }
  - { offsetInCU: 0x1B6FB, offset: 0x96FA4, size: 0x8, addend: 0x0, symName: __ZN12RangeMutator6MutateEP6SampleP4PRNGRNSt3__16vectorIS1_NS4_9allocatorIS1_EEEE, symObjAddr: 0x2F40, symBinAddr: 0x10002BAC0, symSize: 0x200 }
  - { offsetInCU: 0x1B77F, offset: 0x97028, size: 0x8, addend: 0x0, symName: __ZNKSt3__16vectorI5RangeNS_9allocatorIS1_EEE5emptyB7v160006Ev, symObjAddr: 0x3160, symBinAddr: 0x10002BCC0, symSize: 0x20 }
  - { offsetInCU: 0x1B7A5, offset: 0x9704E, size: 0x8, addend: 0x0, symName: __ZNSt3__16vectorI5RangeNS_9allocatorIS1_EEEixB7v160006Em, symObjAddr: 0x3180, symBinAddr: 0x10002BCE0, symSize: 0x20 }
  - { offsetInCU: 0x1B7DC, offset: 0x97085, size: 0x8, addend: 0x0, symName: __ZN13RepeatMutator11UpdateStatsEv, symObjAddr: 0x31C0, symBinAddr: 0x10002BD00, symSize: 0x210 }
  - { offsetInCU: 0x1B82A, offset: 0x970D3, size: 0x8, addend: 0x0, symName: __ZNSt3__16vectorImNS_9allocatorImEEEC1B7v160006Ev, symObjAddr: 0x33D0, symBinAddr: 0x10002BF10, symSize: 0x20 }
  - { offsetInCU: 0x1B854, offset: 0x970FD, size: 0x8, addend: 0x0, symName: __ZNSt3__16vectorImNS_9allocatorImEEE6assignIPyLi0EEEvT_S6_, symObjAddr: 0x33F0, symBinAddr: 0x10002BF30, symSize: 0x160 }
  - { offsetInCU: 0x1B8F3, offset: 0x9719C, size: 0x8, addend: 0x0, symName: __ZNSt3__16vectorImNS_9allocatorImEEE5beginB7v160006Ev, symObjAddr: 0x3590, symBinAddr: 0x10002C0D0, symSize: 0x30 }
  - { offsetInCU: 0x1B91B, offset: 0x971C4, size: 0x8, addend: 0x0, symName: __ZNSt3__16vectorImNS_9allocatorImEEE3endB7v160006Ev, symObjAddr: 0x35C0, symBinAddr: 0x10002C100, symSize: 0x30 }
  - { offsetInCU: 0x1B943, offset: 0x971EC, size: 0x8, addend: 0x0, symName: __ZNSt3__16vectorImNS_9allocatorImEEEixB7v160006Em, symObjAddr: 0x35F0, symBinAddr: 0x10002C130, symSize: 0x20 }
  - { offsetInCU: 0x1B97A, offset: 0x97223, size: 0x8, addend: 0x0, symName: __ZNSt3__16vectorImNS_9allocatorImEEED1B7v160006Ev, symObjAddr: 0x3610, symBinAddr: 0x10002C150, symSize: 0x20 }
  - { offsetInCU: 0x1B9A4, offset: 0x9724D, size: 0x8, addend: 0x0, symName: __ZN13RepeatMutator15SaveGlobalStateEP7__sFILE, symObjAddr: 0x3630, symBinAddr: 0x10002C170, symSize: 0xD0 }
  - { offsetInCU: 0x1B9DC, offset: 0x97285, size: 0x8, addend: 0x0, symName: __ZN13RepeatMutator15LoadGlobalStateEP7__sFILE, symObjAddr: 0x3780, symBinAddr: 0x10002C240, symSize: 0xD0 }
  - { offsetInCU: 0x1BA14, offset: 0x972BD, size: 0x8, addend: 0x0, symName: __ZN13RepeatMutatorD1Ev, symObjAddr: 0x38D0, symBinAddr: 0x10002C310, symSize: 0x20 }
  - { offsetInCU: 0x1BA41, offset: 0x972EA, size: 0x8, addend: 0x0, symName: __ZN13RepeatMutatorD0Ev, symObjAddr: 0x38F0, symBinAddr: 0x10002C330, symSize: 0x30 }
  - { offsetInCU: 0x1BA6E, offset: 0x97317, size: 0x8, addend: 0x0, symName: __ZN13RepeatMutator6MutateEP6SampleP4PRNGRNSt3__16vectorIS1_NS4_9allocatorIS1_EEEE, symObjAddr: 0x3C10, symBinAddr: 0x10002C360, symSize: 0x100 }
  - { offsetInCU: 0x1BAD0, offset: 0x97379, size: 0x8, addend: 0x0, symName: __ZN13RepeatMutator12NotifyResultE9RunResultb, symObjAddr: 0x3D10, symBinAddr: 0x10002C460, symSize: 0x60 }
  - { offsetInCU: 0x1BB14, offset: 0x973BD, size: 0x8, addend: 0x0, symName: __ZN16BlockFlipMutatorD1Ev, symObjAddr: 0x3F90, symBinAddr: 0x10002C4C0, symSize: 0x20 }
  - { offsetInCU: 0x1BB41, offset: 0x973EA, size: 0x8, addend: 0x0, symName: __ZN16BlockFlipMutatorD0Ev, symObjAddr: 0x3FB0, symBinAddr: 0x10002C4E0, symSize: 0x30 }
  - { offsetInCU: 0x1BB6E, offset: 0x97417, size: 0x8, addend: 0x0, symName: __ZN13AppendMutatorD1Ev, symObjAddr: 0x4100, symBinAddr: 0x10002C510, symSize: 0x20 }
  - { offsetInCU: 0x1BB9B, offset: 0x97444, size: 0x8, addend: 0x0, symName: __ZN13AppendMutatorD0Ev, symObjAddr: 0x4120, symBinAddr: 0x10002C530, symSize: 0x30 }
  - { offsetInCU: 0x1BBC8, offset: 0x97471, size: 0x8, addend: 0x0, symName: __ZN18BlockInsertMutatorD1Ev, symObjAddr: 0x4150, symBinAddr: 0x10002C560, symSize: 0x20 }
  - { offsetInCU: 0x1BBF5, offset: 0x9749E, size: 0x8, addend: 0x0, symName: __ZN18BlockInsertMutatorD0Ev, symObjAddr: 0x4170, symBinAddr: 0x10002C580, symSize: 0x30 }
  - { offsetInCU: 0x1BC22, offset: 0x974CB, size: 0x8, addend: 0x0, symName: __ZN21BlockDuplicateMutatorD1Ev, symObjAddr: 0x41A0, symBinAddr: 0x10002C5B0, symSize: 0x20 }
  - { offsetInCU: 0x1BC4F, offset: 0x974F8, size: 0x8, addend: 0x0, symName: __ZN21BlockDuplicateMutatorD0Ev, symObjAddr: 0x41C0, symBinAddr: 0x10002C5D0, symSize: 0x30 }
  - { offsetInCU: 0x1BC7C, offset: 0x97525, size: 0x8, addend: 0x0, symName: __ZN13SpliceMutatorD1Ev, symObjAddr: 0x41F0, symBinAddr: 0x10002C600, symSize: 0x20 }
  - { offsetInCU: 0x1BCA9, offset: 0x97552, size: 0x8, addend: 0x0, symName: __ZN13SpliceMutatorD0Ev, symObjAddr: 0x4210, symBinAddr: 0x10002C620, symSize: 0x30 }
  - { offsetInCU: 0x1BCD6, offset: 0x9757F, size: 0x8, addend: 0x0, symName: __ZN12RangeMutatorD1Ev, symObjAddr: 0x4240, symBinAddr: 0x10002C650, symSize: 0x20 }
  - { offsetInCU: 0x1BD03, offset: 0x975AC, size: 0x8, addend: 0x0, symName: __ZN12RangeMutatorD0Ev, symObjAddr: 0x4260, symBinAddr: 0x10002C670, symSize: 0x30 }
  - { offsetInCU: 0x1BD30, offset: 0x975D9, size: 0x8, addend: 0x0, symName: __ZN12RangeMutator9SetRangesEPNSt3__16vectorI5RangeNS0_9allocatorIS2_EEEE, symObjAddr: 0x4320, symBinAddr: 0x10002C6A0, symSize: 0x40 }
  - { offsetInCU: 0x1BD65, offset: 0x9760E, size: 0x8, addend: 0x0, symName: __ZN15ByteFlipMutatorD1Ev, symObjAddr: 0x4360, symBinAddr: 0x10002C6E0, symSize: 0x20 }
  - { offsetInCU: 0x1BD92, offset: 0x9763B, size: 0x8, addend: 0x0, symName: __ZN15ByteFlipMutatorD0Ev, symObjAddr: 0x4380, symBinAddr: 0x10002C700, symSize: 0x30 }
  - { offsetInCU: 0x1BDBF, offset: 0x97668, size: 0x8, addend: 0x0, symName: __ZN17ArithmeticMutatorD1Ev, symObjAddr: 0x43B0, symBinAddr: 0x10002C730, symSize: 0x20 }
  - { offsetInCU: 0x1BDEC, offset: 0x97695, size: 0x8, addend: 0x0, symName: __ZN17ArithmeticMutatorD0Ev, symObjAddr: 0x43D0, symBinAddr: 0x10002C750, symSize: 0x30 }
  - { offsetInCU: 0x1BE19, offset: 0x976C2, size: 0x8, addend: 0x0, symName: __ZN23InterestingValueMutatorD1Ev, symObjAddr: 0x4400, symBinAddr: 0x10002C780, symSize: 0x20 }
  - { offsetInCU: 0x1BE46, offset: 0x976EF, size: 0x8, addend: 0x0, symName: __ZN23InterestingValueMutatorD0Ev, symObjAddr: 0x4420, symBinAddr: 0x10002C7A0, symSize: 0x30 }
  - { offsetInCU: 0x1BE73, offset: 0x9771C, size: 0x8, addend: 0x0, symName: __ZN24BaseDeterministicMutatorD1Ev, symObjAddr: 0x4450, symBinAddr: 0x10002C7D0, symSize: 0x10 }
  - { offsetInCU: 0x1BEA0, offset: 0x97749, size: 0x8, addend: 0x0, symName: __ZN24BaseDeterministicMutatorD0Ev, symObjAddr: 0x4460, symBinAddr: 0x10002C7E0, symSize: 0x10 }
  - { offsetInCU: 0x1BECD, offset: 0x97776, size: 0x8, addend: 0x0, symName: __ZN24BaseDeterministicMutator9InitRoundEP6SampleP20MutatorSampleContext, symObjAddr: 0x4470, symBinAddr: 0x10002C7F0, symSize: 0x20 }
  - { offsetInCU: 0x1BF11, offset: 0x977BA, size: 0x8, addend: 0x0, symName: __ZN24BaseDeterministicMutator12AddHotOffsetEP20MutatorSampleContextm, symObjAddr: 0x4490, symBinAddr: 0x10002C810, symSize: 0x30 }
  - { offsetInCU: 0x1BF55, offset: 0x977FE, size: 0x8, addend: 0x0, symName: __ZN24BaseDeterministicMutator11SaveContextEP20MutatorSampleContextP7__sFILE, symObjAddr: 0x44C0, symBinAddr: 0x10002C840, symSize: 0xB0 }
  - { offsetInCU: 0x1BFB7, offset: 0x97860, size: 0x8, addend: 0x0, symName: __ZN24BaseDeterministicMutator11LoadContextEP20MutatorSampleContextP7__sFILE, symObjAddr: 0x4570, symBinAddr: 0x10002C8F0, symSize: 0xB0 }
  - { offsetInCU: 0x1C019, offset: 0x978C2, size: 0x8, addend: 0x0, symName: __ZN28DeterministicByteFlipMutatorD1Ev, symObjAddr: 0x4620, symBinAddr: 0x10002C9A0, symSize: 0x20 }
  - { offsetInCU: 0x1C046, offset: 0x978EF, size: 0x8, addend: 0x0, symName: __ZN28DeterministicByteFlipMutatorD0Ev, symObjAddr: 0x4640, symBinAddr: 0x10002C9C0, symSize: 0x30 }
  - { offsetInCU: 0x1C073, offset: 0x9791C, size: 0x8, addend: 0x0, symName: __ZN36DeterministicInterestingValueMutatorD1Ev, symObjAddr: 0x4670, symBinAddr: 0x10002C9F0, symSize: 0x20 }
  - { offsetInCU: 0x1C0A0, offset: 0x97949, size: 0x8, addend: 0x0, symName: __ZN36DeterministicInterestingValueMutatorD0Ev, symObjAddr: 0x4690, symBinAddr: 0x10002CA10, symSize: 0x30 }
  - { offsetInCU: 0x1C0D8, offset: 0x97981, size: 0x8, addend: 0x0, symName: __Z9__isctypeim, symObjAddr: 0x4E30, symBinAddr: 0x10002CA40, symSize: 0x60 }
  - { offsetInCU: 0x1C113, offset: 0x979BC, size: 0x8, addend: 0x0, symName: __ZNSt3__113basic_fstreamIcNS_11char_traitsIcEEED2Ev, symObjAddr: 0x4E90, symBinAddr: 0x10002CAA0, symSize: 0x60 }
  - { offsetInCU: 0x1C14C, offset: 0x979F5, size: 0x8, addend: 0x0, symName: __ZThn16_NSt3__113basic_fstreamIcNS_11char_traitsIcEEED1Ev, symObjAddr: 0x4EF0, symBinAddr: 0x10002CB00, symSize: 0x20 }
  - { offsetInCU: 0x1C162, offset: 0x97A0B, size: 0x8, addend: 0x0, symName: __ZTv0_n24_NSt3__113basic_fstreamIcNS_11char_traitsIcEEED1Ev, symObjAddr: 0x4F10, symBinAddr: 0x10002CB20, symSize: 0x20 }
  - { offsetInCU: 0x1C178, offset: 0x97A21, size: 0x8, addend: 0x0, symName: __ZNSt3__113basic_fstreamIcNS_11char_traitsIcEEED0Ev, symObjAddr: 0x4F30, symBinAddr: 0x10002CB40, symSize: 0x30 }
  - { offsetInCU: 0x1C1A4, offset: 0x97A4D, size: 0x8, addend: 0x0, symName: __ZThn16_NSt3__113basic_fstreamIcNS_11char_traitsIcEEED0Ev, symObjAddr: 0x4F60, symBinAddr: 0x10002CB70, symSize: 0x20 }
  - { offsetInCU: 0x1C1BA, offset: 0x97A63, size: 0x8, addend: 0x0, symName: __ZTv0_n24_NSt3__113basic_fstreamIcNS_11char_traitsIcEEED0Ev, symObjAddr: 0x4F80, symBinAddr: 0x10002CB90, symSize: 0x20 }
  - { offsetInCU: 0x1C1D0, offset: 0x97A79, size: 0x8, addend: 0x0, symName: __ZNKSt3__111__wrap_iterIPN24BaseDeterministicContext12MutateRegionEE4baseB7v160006Ev, symObjAddr: 0x4FE0, symBinAddr: 0x10002CBF0, symSize: 0x20 }
  - { offsetInCU: 0x1C1F6, offset: 0x97A9F, size: 0x8, addend: 0x0, symName: __ZNSt3__111__wrap_iterIPKN24BaseDeterministicContext12MutateRegionEEC2B7v160006IPS2_EERKNS0_IT_EEPNS_9enable_ifIXsr14is_convertibleIS8_S4_EE5valueEvE4typeE, symObjAddr: 0x5010, symBinAddr: 0x10002CC20, symSize: 0x40 }
  - { offsetInCU: 0x1C242, offset: 0x97AEB, size: 0x8, addend: 0x0, symName: __ZNSt3__111__wrap_iterIPN24BaseDeterministicContext12MutateRegionEEppB7v160006Ev, symObjAddr: 0x5050, symBinAddr: 0x10002CC60, symSize: 0x20 }
  - { offsetInCU: 0x1C268, offset: 0x97B11, size: 0x8, addend: 0x0, symName: __ZN24BaseDeterministicContextC2Ev, symObjAddr: 0x5070, symBinAddr: 0x10002CC80, symSize: 0x90 }
  - { offsetInCU: 0x1C292, offset: 0x97B3B, size: 0x8, addend: 0x0, symName: __ZNSt3__16vectorIN24BaseDeterministicContext12MutateRegionENS_9allocatorIS2_EEEC1B7v160006Ev, symObjAddr: 0x5130, symBinAddr: 0x10002CD10, symSize: 0x20 }
  - { offsetInCU: 0x1C2BC, offset: 0x97B65, size: 0x8, addend: 0x0, symName: __ZNSt3__16vectorIN24BaseDeterministicContext12MutateRegionENS_9allocatorIS2_EEED1B7v160006Ev, symObjAddr: 0x5150, symBinAddr: 0x10002CD30, symSize: 0x20 }
  - { offsetInCU: 0x1C2E6, offset: 0x97B8F, size: 0x8, addend: 0x0, symName: __ZN24BaseDeterministicContextD1Ev, symObjAddr: 0x5220, symBinAddr: 0x10002CD50, symSize: 0x20 }
  - { offsetInCU: 0x1C313, offset: 0x97BBC, size: 0x8, addend: 0x0, symName: __ZN24BaseDeterministicContextD0Ev, symObjAddr: 0x5240, symBinAddr: 0x10002CD70, symSize: 0x30 }
  - { offsetInCU: 0x1C340, offset: 0x97BE9, size: 0x8, addend: 0x0, symName: __ZNSt3__16vectorIN24BaseDeterministicContext12MutateRegionENS_9allocatorIS2_EEEC2B7v160006Ev, symObjAddr: 0x5430, symBinAddr: 0x10002CDA0, symSize: 0x60 }
  - { offsetInCU: 0x1C36A, offset: 0x97C13, size: 0x8, addend: 0x0, symName: __ZNSt3__117__compressed_pairIPN24BaseDeterministicContext12MutateRegionENS_9allocatorIS2_EEEC1B7v160006IDnNS_18__default_init_tagEEEOT_OT0_, symObjAddr: 0x5490, symBinAddr: 0x10002CE00, symSize: 0x30 }
  - { offsetInCU: 0x1C3C2, offset: 0x97C6B, size: 0x8, addend: 0x0, symName: __ZNSt3__117__compressed_pairIPN24BaseDeterministicContext12MutateRegionENS_9allocatorIS2_EEEC2B7v160006IDnNS_18__default_init_tagEEEOT_OT0_, symObjAddr: 0x54D0, symBinAddr: 0x10002CE40, symSize: 0x40 }
  - { offsetInCU: 0x1C41A, offset: 0x97CC3, size: 0x8, addend: 0x0, symName: __ZNSt3__122__compressed_pair_elemIPN24BaseDeterministicContext12MutateRegionELi0ELb0EEC2B7v160006IDnvEEOT_, symObjAddr: 0x5510, symBinAddr: 0x10002CE80, symSize: 0x20 }
  - { offsetInCU: 0x1C45C, offset: 0x97D05, size: 0x8, addend: 0x0, symName: __ZNSt3__122__compressed_pair_elemINS_9allocatorIN24BaseDeterministicContext12MutateRegionEEELi1ELb1EEC2B7v160006ENS_18__default_init_tagE, symObjAddr: 0x5530, symBinAddr: 0x10002CEA0, symSize: 0x20 }
  - { offsetInCU: 0x1C491, offset: 0x97D3A, size: 0x8, addend: 0x0, symName: __ZNSt3__19allocatorIN24BaseDeterministicContext12MutateRegionEEC2B7v160006Ev, symObjAddr: 0x5550, symBinAddr: 0x10002CEC0, symSize: 0x20 }
  - { offsetInCU: 0x1C4BB, offset: 0x97D64, size: 0x8, addend: 0x0, symName: __ZNSt3__116__non_trivial_ifILb1ENS_9allocatorIN24BaseDeterministicContext12MutateRegionEEEEC2B7v160006Ev, symObjAddr: 0x5570, symBinAddr: 0x10002CEE0, symSize: 0x10 }
  - { offsetInCU: 0x1C4E5, offset: 0x97D8E, size: 0x8, addend: 0x0, symName: __ZNSt3__16vectorIN24BaseDeterministicContext12MutateRegionENS_9allocatorIS2_EEED2B7v160006Ev, symObjAddr: 0x5580, symBinAddr: 0x10002CEF0, symSize: 0x40 }
  - { offsetInCU: 0x1C50F, offset: 0x97DB8, size: 0x8, addend: 0x0, symName: __ZNSt3__16vectorIN24BaseDeterministicContext12MutateRegionENS_9allocatorIS2_EEE16__destroy_vectorC1ERS5_, symObjAddr: 0x55C0, symBinAddr: 0x10002CF30, symSize: 0x30 }
  - { offsetInCU: 0x1C548, offset: 0x97DF1, size: 0x8, addend: 0x0, symName: __ZNSt3__16vectorIN24BaseDeterministicContext12MutateRegionENS_9allocatorIS2_EEE16__destroy_vectorclB7v160006Ev, symObjAddr: 0x55F0, symBinAddr: 0x10002CF60, symSize: 0x90 }
  - { offsetInCU: 0x1C56E, offset: 0x97E17, size: 0x8, addend: 0x0, symName: __ZNSt3__16vectorIN24BaseDeterministicContext12MutateRegionENS_9allocatorIS2_EEE16__destroy_vectorC2ERS5_, symObjAddr: 0x5680, symBinAddr: 0x10002CFF0, symSize: 0x20 }
  - { offsetInCU: 0x1C5A7, offset: 0x97E50, size: 0x8, addend: 0x0, symName: __ZNKSt3__16vectorIN24BaseDeterministicContext12MutateRegionENS_9allocatorIS2_EEE17__annotate_deleteB7v160006Ev, symObjAddr: 0x56A0, symBinAddr: 0x10002D010, symSize: 0xB0 }
  - { offsetInCU: 0x1C5CD, offset: 0x97E76, size: 0x8, addend: 0x0, symName: __ZNSt3__16vectorIN24BaseDeterministicContext12MutateRegionENS_9allocatorIS2_EEE7__clearB7v160006Ev, symObjAddr: 0x5760, symBinAddr: 0x10002D0D0, symSize: 0x20 }
  - { offsetInCU: 0x1C5F3, offset: 0x97E9C, size: 0x8, addend: 0x0, symName: __ZNSt3__116allocator_traitsINS_9allocatorIN24BaseDeterministicContext12MutateRegionEEEE10deallocateB7v160006ERS4_PS3_m, symObjAddr: 0x5780, symBinAddr: 0x10002D0F0, symSize: 0x30 }
  - { offsetInCU: 0x1C635, offset: 0x97EDE, size: 0x8, addend: 0x0, symName: __ZNSt3__16vectorIN24BaseDeterministicContext12MutateRegionENS_9allocatorIS2_EEE7__allocB7v160006Ev, symObjAddr: 0x57B0, symBinAddr: 0x10002D120, symSize: 0x20 }
  - { offsetInCU: 0x1C65B, offset: 0x97F04, size: 0x8, addend: 0x0, symName: __ZNKSt3__16vectorIN24BaseDeterministicContext12MutateRegionENS_9allocatorIS2_EEE8capacityB7v160006Ev, symObjAddr: 0x57D0, symBinAddr: 0x10002D140, symSize: 0x30 }
  - { offsetInCU: 0x1C681, offset: 0x97F2A, size: 0x8, addend: 0x0, symName: __ZNKSt3__16vectorIN24BaseDeterministicContext12MutateRegionENS_9allocatorIS2_EEE31__annotate_contiguous_containerB7v160006EPKvS7_S7_S7_, symObjAddr: 0x5800, symBinAddr: 0x10002D170, symSize: 0x20 }
  - { offsetInCU: 0x1C6D3, offset: 0x97F7C, size: 0x8, addend: 0x0, symName: __ZNKSt3__16vectorIN24BaseDeterministicContext12MutateRegionENS_9allocatorIS2_EEE4dataB7v160006Ev, symObjAddr: 0x5820, symBinAddr: 0x10002D190, symSize: 0x20 }
  - { offsetInCU: 0x1C6F9, offset: 0x97FA2, size: 0x8, addend: 0x0, symName: __ZNSt3__16vectorIN24BaseDeterministicContext12MutateRegionENS_9allocatorIS2_EEE22__base_destruct_at_endB7v160006EPS2_, symObjAddr: 0x5840, symBinAddr: 0x10002D1B0, symSize: 0x80 }
  - { offsetInCU: 0x1C73D, offset: 0x97FE6, size: 0x8, addend: 0x0, symName: __ZNSt3__116allocator_traitsINS_9allocatorIN24BaseDeterministicContext12MutateRegionEEEE7destroyB7v160006IS3_vEEvRS4_PT_, symObjAddr: 0x58C0, symBinAddr: 0x10002D230, symSize: 0x30 }
  - { offsetInCU: 0x1C77A, offset: 0x98023, size: 0x8, addend: 0x0, symName: __ZNSt3__19allocatorIN24BaseDeterministicContext12MutateRegionEE7destroyB7v160006EPS2_, symObjAddr: 0x58F0, symBinAddr: 0x10002D260, symSize: 0x10 }
  - { offsetInCU: 0x1C7AE, offset: 0x98057, size: 0x8, addend: 0x0, symName: __ZNSt3__19allocatorIN24BaseDeterministicContext12MutateRegionEE10deallocateB7v160006EPS2_m, symObjAddr: 0x5900, symBinAddr: 0x10002D270, symSize: 0x40 }
  - { offsetInCU: 0x1C7F0, offset: 0x98099, size: 0x8, addend: 0x0, symName: __ZNSt3__117__compressed_pairIPN24BaseDeterministicContext12MutateRegionENS_9allocatorIS2_EEE6secondB7v160006Ev, symObjAddr: 0x5940, symBinAddr: 0x10002D2B0, symSize: 0x20 }
  - { offsetInCU: 0x1C816, offset: 0x980BF, size: 0x8, addend: 0x0, symName: __ZNSt3__122__compressed_pair_elemINS_9allocatorIN24BaseDeterministicContext12MutateRegionEEELi1ELb1EE5__getB7v160006Ev, symObjAddr: 0x5960, symBinAddr: 0x10002D2D0, symSize: 0x10 }
  - { offsetInCU: 0x1C83C, offset: 0x980E5, size: 0x8, addend: 0x0, symName: __ZNKSt3__16vectorIN24BaseDeterministicContext12MutateRegionENS_9allocatorIS2_EEE9__end_capB7v160006Ev, symObjAddr: 0x5970, symBinAddr: 0x10002D2E0, symSize: 0x20 }
  - { offsetInCU: 0x1C862, offset: 0x9810B, size: 0x8, addend: 0x0, symName: __ZNKSt3__117__compressed_pairIPN24BaseDeterministicContext12MutateRegionENS_9allocatorIS2_EEE5firstB7v160006Ev, symObjAddr: 0x5990, symBinAddr: 0x10002D300, symSize: 0x20 }
  - { offsetInCU: 0x1C888, offset: 0x98131, size: 0x8, addend: 0x0, symName: __ZNKSt3__122__compressed_pair_elemIPN24BaseDeterministicContext12MutateRegionELi0ELb0EE5__getB7v160006Ev, symObjAddr: 0x59B0, symBinAddr: 0x10002D320, symSize: 0x10 }
  - { offsetInCU: 0x1C8AE, offset: 0x98157, size: 0x8, addend: 0x0, symName: __ZN24BaseDeterministicContextD2Ev, symObjAddr: 0x6000, symBinAddr: 0x10002D330, symSize: 0x50 }
  - { offsetInCU: 0x1C8DB, offset: 0x98184, size: 0x8, addend: 0x0, symName: __ZN13RepeatMutatorD2Ev, symObjAddr: 0x6050, symBinAddr: 0x10002D380, symSize: 0x20 }
  - { offsetInCU: 0x1C944, offset: 0x981ED, size: 0x8, addend: 0x0, symName: __ZN16BlockFlipMutatorD2Ev, symObjAddr: 0x8FE0, symBinAddr: 0x10002D3A0, symSize: 0x20 }
  - { offsetInCU: 0x1C971, offset: 0x9821A, size: 0x8, addend: 0x0, symName: __ZN13AppendMutatorD2Ev, symObjAddr: 0x9000, symBinAddr: 0x10002D3C0, symSize: 0x20 }
  - { offsetInCU: 0x1C99E, offset: 0x98247, size: 0x8, addend: 0x0, symName: __ZN18BlockInsertMutatorD2Ev, symObjAddr: 0x9020, symBinAddr: 0x10002D3E0, symSize: 0x20 }
  - { offsetInCU: 0x1C9CB, offset: 0x98274, size: 0x8, addend: 0x0, symName: __ZN21BlockDuplicateMutatorD2Ev, symObjAddr: 0x9040, symBinAddr: 0x10002D400, symSize: 0x20 }
  - { offsetInCU: 0x1C9F8, offset: 0x982A1, size: 0x8, addend: 0x0, symName: __ZN13SpliceMutatorD2Ev, symObjAddr: 0x9060, symBinAddr: 0x10002D420, symSize: 0x20 }
  - { offsetInCU: 0x1CA25, offset: 0x982CE, size: 0x8, addend: 0x0, symName: __ZN12RangeMutatorD2Ev, symObjAddr: 0x9080, symBinAddr: 0x10002D440, symSize: 0x20 }
  - { offsetInCU: 0x1CA52, offset: 0x982FB, size: 0x8, addend: 0x0, symName: __ZN15ByteFlipMutatorD2Ev, symObjAddr: 0x90A0, symBinAddr: 0x10002D460, symSize: 0x20 }
  - { offsetInCU: 0x1CA7F, offset: 0x98328, size: 0x8, addend: 0x0, symName: __ZN17ArithmeticMutatorD2Ev, symObjAddr: 0x90C0, symBinAddr: 0x10002D480, symSize: 0x20 }
  - { offsetInCU: 0x1CAAC, offset: 0x98355, size: 0x8, addend: 0x0, symName: __ZN23InterestingValueMutatorD2Ev, symObjAddr: 0x90E0, symBinAddr: 0x10002D4A0, symSize: 0x40 }
  - { offsetInCU: 0x1CAD9, offset: 0x98382, size: 0x8, addend: 0x0, symName: __ZNSt3__16vectorIN24BaseDeterministicContext12MutateRegionENS_9allocatorIS2_EEE6resizeEm, symObjAddr: 0x9120, symBinAddr: 0x10002D4E0, symSize: 0x80 }
  - { offsetInCU: 0x1CB1F, offset: 0x983C8, size: 0x8, addend: 0x0, symName: __ZNSt3__16vectorIN24BaseDeterministicContext12MutateRegionENS_9allocatorIS2_EEE8__appendEm, symObjAddr: 0x91A0, symBinAddr: 0x10002D560, symSize: 0x100 }
  - { offsetInCU: 0x1CB7A, offset: 0x98423, size: 0x8, addend: 0x0, symName: __ZNSt3__16vectorIN24BaseDeterministicContext12MutateRegionENS_9allocatorIS2_EEE17__destruct_at_endB7v160006EPS2_, symObjAddr: 0x92A0, symBinAddr: 0x10002D660, symSize: 0x60 }
  - { offsetInCU: 0x1CBBE, offset: 0x98467, size: 0x8, addend: 0x0, symName: __ZNSt3__16vectorIN24BaseDeterministicContext12MutateRegionENS_9allocatorIS2_EEE9__end_capB7v160006Ev, symObjAddr: 0x9300, symBinAddr: 0x10002D6C0, symSize: 0x20 }
  - { offsetInCU: 0x1CBE4, offset: 0x9848D, size: 0x8, addend: 0x0, symName: __ZNSt3__16vectorIN24BaseDeterministicContext12MutateRegionENS_9allocatorIS2_EEE18__construct_at_endEm, symObjAddr: 0x9320, symBinAddr: 0x10002D6E0, symSize: 0xC0 }
  - { offsetInCU: 0x1CC56, offset: 0x984FF, size: 0x8, addend: 0x0, symName: __ZNKSt3__16vectorIN24BaseDeterministicContext12MutateRegionENS_9allocatorIS2_EEE11__recommendB7v160006Em, symObjAddr: 0x93E0, symBinAddr: 0x10002D7A0, symSize: 0xA0 }
  - { offsetInCU: 0x1CCAB, offset: 0x98554, size: 0x8, addend: 0x0, symName: __ZNSt3__114__split_bufferIN24BaseDeterministicContext12MutateRegionERNS_9allocatorIS2_EEEC1EmmS5_, symObjAddr: 0x9480, symBinAddr: 0x10002D840, symSize: 0x40 }
  - { offsetInCU: 0x1CD01, offset: 0x985AA, size: 0x8, addend: 0x0, symName: __ZNSt3__114__split_bufferIN24BaseDeterministicContext12MutateRegionERNS_9allocatorIS2_EEE18__construct_at_endEm, symObjAddr: 0x94C0, symBinAddr: 0x10002D880, symSize: 0xB0 }
  - { offsetInCU: 0x1CD44, offset: 0x985ED, size: 0x8, addend: 0x0, symName: __ZNSt3__114__split_bufferIN24BaseDeterministicContext12MutateRegionERNS_9allocatorIS2_EEED1Ev, symObjAddr: 0x96A0, symBinAddr: 0x10002DA60, symSize: 0x20 }
  - { offsetInCU: 0x1CD70, offset: 0x98619, size: 0x8, addend: 0x0, symName: __ZNSt3__117__compressed_pairIPN24BaseDeterministicContext12MutateRegionENS_9allocatorIS2_EEE5firstB7v160006Ev, symObjAddr: 0x96C0, symBinAddr: 0x10002DA80, symSize: 0x20 }
  - { offsetInCU: 0x1CD96, offset: 0x9863F, size: 0x8, addend: 0x0, symName: __ZNSt3__122__compressed_pair_elemIPN24BaseDeterministicContext12MutateRegionELi0ELb0EE5__getB7v160006Ev, symObjAddr: 0x96E0, symBinAddr: 0x10002DAA0, symSize: 0x10 }
  - { offsetInCU: 0x1CDD5, offset: 0x9867E, size: 0x8, addend: 0x0, symName: __ZNSt3__16vectorIN24BaseDeterministicContext12MutateRegionENS_9allocatorIS2_EEE21_ConstructTransactionC1B7v160006ERS5_m, symObjAddr: 0x96F0, symBinAddr: 0x10002DAB0, symSize: 0x30 }
  - { offsetInCU: 0x1CE1D, offset: 0x986C6, size: 0x8, addend: 0x0, symName: __ZNSt3__116allocator_traitsINS_9allocatorIN24BaseDeterministicContext12MutateRegionEEEE9constructB7v160006IS3_JEvEEvRS4_PT_DpOT0_, symObjAddr: 0x9720, symBinAddr: 0x10002DAE0, symSize: 0x30 }
  - { offsetInCU: 0x1CE5F, offset: 0x98708, size: 0x8, addend: 0x0, symName: __ZNSt3__16vectorIN24BaseDeterministicContext12MutateRegionENS_9allocatorIS2_EEE21_ConstructTransactionD1B7v160006Ev, symObjAddr: 0x9750, symBinAddr: 0x10002DB10, symSize: 0x20 }
  - { offsetInCU: 0x1CE89, offset: 0x98732, size: 0x8, addend: 0x0, symName: __ZNSt3__16vectorIN24BaseDeterministicContext12MutateRegionENS_9allocatorIS2_EEE21_ConstructTransactionC2B7v160006ERS5_m, symObjAddr: 0x9770, symBinAddr: 0x10002DB30, symSize: 0x40 }
  - { offsetInCU: 0x1CED1, offset: 0x9877A, size: 0x8, addend: 0x0, symName: __ZNSt3__19allocatorIN24BaseDeterministicContext12MutateRegionEE9constructB7v160006IS2_JEEEvPT_DpOT0_, symObjAddr: 0x97B0, symBinAddr: 0x10002DB70, symSize: 0x30 }
  - { offsetInCU: 0x1CF13, offset: 0x987BC, size: 0x8, addend: 0x0, symName: __ZNSt3__16vectorIN24BaseDeterministicContext12MutateRegionENS_9allocatorIS2_EEE21_ConstructTransactionD2B7v160006Ev, symObjAddr: 0x97E0, symBinAddr: 0x10002DBA0, symSize: 0x20 }
  - { offsetInCU: 0x1CF3D, offset: 0x987E6, size: 0x8, addend: 0x0, symName: __ZNKSt3__16vectorIN24BaseDeterministicContext12MutateRegionENS_9allocatorIS2_EEE8max_sizeEv, symObjAddr: 0x9800, symBinAddr: 0x10002DBC0, symSize: 0x60 }
  - { offsetInCU: 0x1CF65, offset: 0x9880E, size: 0x8, addend: 0x0, symName: __ZNKSt3__16vectorIN24BaseDeterministicContext12MutateRegionENS_9allocatorIS2_EEE20__throw_length_errorB7v160006Ev, symObjAddr: 0x9860, symBinAddr: 0x10002DC20, symSize: 0x20 }
  - { offsetInCU: 0x1CF95, offset: 0x9883E, size: 0x8, addend: 0x0, symName: __ZNSt3__116allocator_traitsINS_9allocatorIN24BaseDeterministicContext12MutateRegionEEEE8max_sizeB7v160006IS4_vEEmRKS4_, symObjAddr: 0x9880, symBinAddr: 0x10002DC40, symSize: 0x20 }
  - { offsetInCU: 0x1CFC3, offset: 0x9886C, size: 0x8, addend: 0x0, symName: __ZNKSt3__16vectorIN24BaseDeterministicContext12MutateRegionENS_9allocatorIS2_EEE7__allocB7v160006Ev, symObjAddr: 0x98A0, symBinAddr: 0x10002DC60, symSize: 0x20 }
  - { offsetInCU: 0x1CFE9, offset: 0x98892, size: 0x8, addend: 0x0, symName: __ZNKSt3__19allocatorIN24BaseDeterministicContext12MutateRegionEE8max_sizeB7v160006Ev, symObjAddr: 0x98C0, symBinAddr: 0x10002DC80, symSize: 0x20 }
  - { offsetInCU: 0x1D00F, offset: 0x988B8, size: 0x8, addend: 0x0, symName: __ZNKSt3__117__compressed_pairIPN24BaseDeterministicContext12MutateRegionENS_9allocatorIS2_EEE6secondB7v160006Ev, symObjAddr: 0x98E0, symBinAddr: 0x10002DCA0, symSize: 0x20 }
  - { offsetInCU: 0x1D035, offset: 0x988DE, size: 0x8, addend: 0x0, symName: __ZNKSt3__122__compressed_pair_elemINS_9allocatorIN24BaseDeterministicContext12MutateRegionEEELi1ELb1EE5__getB7v160006Ev, symObjAddr: 0x9900, symBinAddr: 0x10002DCC0, symSize: 0x10 }
  - { offsetInCU: 0x1D05B, offset: 0x98904, size: 0x8, addend: 0x0, symName: __ZNSt3__114__split_bufferIN24BaseDeterministicContext12MutateRegionERNS_9allocatorIS2_EEEC2EmmS5_, symObjAddr: 0x9910, symBinAddr: 0x10002DCD0, symSize: 0xD0 }
  - { offsetInCU: 0x1D0CE, offset: 0x98977, size: 0x8, addend: 0x0, symName: __ZNSt3__117__compressed_pairIPN24BaseDeterministicContext12MutateRegionERNS_9allocatorIS2_EEEC1B7v160006IDnS6_EEOT_OT0_, symObjAddr: 0x99E0, symBinAddr: 0x10002DDA0, symSize: 0x30 }
  - { offsetInCU: 0x1D126, offset: 0x989CF, size: 0x8, addend: 0x0, symName: __ZNSt3__114__split_bufferIN24BaseDeterministicContext12MutateRegionERNS_9allocatorIS2_EEE7__allocB7v160006Ev, symObjAddr: 0x9A50, symBinAddr: 0x10002DE10, symSize: 0x20 }
  - { offsetInCU: 0x1D14C, offset: 0x989F5, size: 0x8, addend: 0x0, symName: __ZNSt3__114__split_bufferIN24BaseDeterministicContext12MutateRegionERNS_9allocatorIS2_EEE9__end_capB7v160006Ev, symObjAddr: 0x9A70, symBinAddr: 0x10002DE30, symSize: 0x20 }
  - { offsetInCU: 0x1D172, offset: 0x98A1B, size: 0x8, addend: 0x0, symName: __ZNSt3__117__compressed_pairIPN24BaseDeterministicContext12MutateRegionERNS_9allocatorIS2_EEEC2B7v160006IDnS6_EEOT_OT0_, symObjAddr: 0x9A90, symBinAddr: 0x10002DE50, symSize: 0x40 }
  - { offsetInCU: 0x1D1CA, offset: 0x98A73, size: 0x8, addend: 0x0, symName: __ZNSt3__122__compressed_pair_elemIRNS_9allocatorIN24BaseDeterministicContext12MutateRegionEEELi1ELb0EEC2B7v160006IS5_vEEOT_, symObjAddr: 0x9AD0, symBinAddr: 0x10002DE90, symSize: 0x20 }
  - { offsetInCU: 0x1D20C, offset: 0x98AB5, size: 0x8, addend: 0x0, symName: __ZNSt3__19allocatorIN24BaseDeterministicContext12MutateRegionEE8allocateB7v160006Em, symObjAddr: 0x9AF0, symBinAddr: 0x10002DEB0, symSize: 0x50 }
  - { offsetInCU: 0x1D240, offset: 0x98AE9, size: 0x8, addend: 0x0, symName: __ZNSt3__117__compressed_pairIPN24BaseDeterministicContext12MutateRegionERNS_9allocatorIS2_EEE6secondB7v160006Ev, symObjAddr: 0x9B40, symBinAddr: 0x10002DF00, symSize: 0x20 }
  - { offsetInCU: 0x1D266, offset: 0x98B0F, size: 0x8, addend: 0x0, symName: __ZNSt3__122__compressed_pair_elemIRNS_9allocatorIN24BaseDeterministicContext12MutateRegionEEELi1ELb0EE5__getB7v160006Ev, symObjAddr: 0x9B60, symBinAddr: 0x10002DF20, symSize: 0x20 }
  - { offsetInCU: 0x1D28C, offset: 0x98B35, size: 0x8, addend: 0x0, symName: __ZNSt3__117__compressed_pairIPN24BaseDeterministicContext12MutateRegionERNS_9allocatorIS2_EEE5firstB7v160006Ev, symObjAddr: 0x9B80, symBinAddr: 0x10002DF40, symSize: 0x20 }
  - { offsetInCU: 0x1D2BC, offset: 0x98B65, size: 0x8, addend: 0x0, symName: __ZNSt3__114__split_bufferIN24BaseDeterministicContext12MutateRegionERNS_9allocatorIS2_EEE21_ConstructTransactionC1B7v160006EPPS2_m, symObjAddr: 0x9BA0, symBinAddr: 0x10002DF60, symSize: 0x30 }
  - { offsetInCU: 0x1D302, offset: 0x98BAB, size: 0x8, addend: 0x0, symName: __ZNSt3__114__split_bufferIN24BaseDeterministicContext12MutateRegionERNS_9allocatorIS2_EEE21_ConstructTransactionD1B7v160006Ev, symObjAddr: 0x9BD0, symBinAddr: 0x10002DF90, symSize: 0x20 }
  - { offsetInCU: 0x1D32C, offset: 0x98BD5, size: 0x8, addend: 0x0, symName: __ZNSt3__114__split_bufferIN24BaseDeterministicContext12MutateRegionERNS_9allocatorIS2_EEE21_ConstructTransactionC2B7v160006EPPS2_m, symObjAddr: 0x9BF0, symBinAddr: 0x10002DFB0, symSize: 0x40 }
  - { offsetInCU: 0x1D372, offset: 0x98C1B, size: 0x8, addend: 0x0, symName: __ZNSt3__114__split_bufferIN24BaseDeterministicContext12MutateRegionERNS_9allocatorIS2_EEE21_ConstructTransactionD2B7v160006Ev, symObjAddr: 0x9C30, symBinAddr: 0x10002DFF0, symSize: 0x20 }
  - { offsetInCU: 0x1D39C, offset: 0x98C45, size: 0x8, addend: 0x0, symName: __ZNSt3__116reverse_iteratorIPN24BaseDeterministicContext12MutateRegionEEC1B7v160006ES3_, symObjAddr: 0x9CC0, symBinAddr: 0x10002E080, symSize: 0x30 }
  - { offsetInCU: 0x1D3D4, offset: 0x98C7D, size: 0x8, addend: 0x0, symName: __ZNKSt3__116reverse_iteratorIPN24BaseDeterministicContext12MutateRegionEE4baseB7v160006Ev, symObjAddr: 0x9CF0, symBinAddr: 0x10002E0B0, symSize: 0x20 }
  - { offsetInCU: 0x1D3FA, offset: 0x98CA3, size: 0x8, addend: 0x0, symName: __ZNKSt3__16vectorIN24BaseDeterministicContext12MutateRegionENS_9allocatorIS2_EEE14__annotate_newB7v160006Em, symObjAddr: 0x9D50, symBinAddr: 0x10002E110, symSize: 0xB0 }
  - { offsetInCU: 0x1D449, offset: 0x98CF2, size: 0x8, addend: 0x0, symName: __ZNKSt3__111__move_loopINS_17_ClassicAlgPolicyEEclB7v160006INS_16reverse_iteratorIPN24BaseDeterministicContext12MutateRegionEEES8_S8_EENS_4pairIT_T1_EESA_T0_SB_, symObjAddr: 0xA250, symBinAddr: 0x10002E610, symSize: 0xB0 }
  - { offsetInCU: 0x1D4B4, offset: 0x98D5D, size: 0x8, addend: 0x0, symName: __ZNSt3__18_IterOpsINS_17_ClassicAlgPolicyEE11__iter_moveB7v160006IRNS_16reverse_iteratorIPN24BaseDeterministicContext12MutateRegionEEEEENS_9enable_ifIXsr12is_referenceIDTdeclsr3stdE7declvalIRT_EEEEE5valueEDTclsr3stdE4movedeclsr3stdE7declvalISC_EEEEE4typeEOSB_, symObjAddr: 0xA480, symBinAddr: 0x10002E840, symSize: 0x20 }
  - { offsetInCU: 0x1D4E0, offset: 0x98D89, size: 0x8, addend: 0x0, symName: __ZNKSt3__116reverse_iteratorIPN24BaseDeterministicContext12MutateRegionEEdeB7v160006Ev, symObjAddr: 0xA4A0, symBinAddr: 0x10002E860, symSize: 0x30 }
  - { offsetInCU: 0x1D514, offset: 0x98DBD, size: 0x8, addend: 0x0, symName: __ZNSt3__116reverse_iteratorIPN24BaseDeterministicContext12MutateRegionEEppB7v160006Ev, symObjAddr: 0xA4D0, symBinAddr: 0x10002E890, symSize: 0x20 }
  - { offsetInCU: 0x1D53A, offset: 0x98DE3, size: 0x8, addend: 0x0, symName: __ZNSt3__18_IterOpsINS_17_ClassicAlgPolicyEE25__validate_iter_referenceB7v160006IRNS_16reverse_iteratorIPN24BaseDeterministicContext12MutateRegionEEEEEvv, symObjAddr: 0xA4F0, symBinAddr: 0x10002E8B0, symSize: 0x10 }
  - { offsetInCU: 0x1D558, offset: 0x98E01, size: 0x8, addend: 0x0, symName: __ZNSt3__118__unwrap_iter_implINS_16reverse_iteratorIPN24BaseDeterministicContext12MutateRegionEEELb0EE8__unwrapB7v160006ES5_, symObjAddr: 0xA500, symBinAddr: 0x10002E8C0, symSize: 0x20 }
