Got task_info, 0
Loaded libIPTelephony.dylib at 0x7ff817276000
__ZN20ImsResultDomainPosixD1Ev
__ZN20ImsResultDomainBambiD1Ev
__ZN9ImsResultC2ERKS_
__ZN9ImsResultD2Ev
__ZN9ImsResultD1Ev
__ZN9ImsResultD0Ev
__ZNK9ImsResult11descriptionEv
__ZN9ImsResult8setCauseERKS_
__ZN9ImsResultaSERKS_
__ZN9ImsResultaSEOS_
__ZNK9ImsResult3logER12ImsOutStream
__ZNK18ImsStringOutStream11loggableStrEv
__ZNK9ImsResult12loggableNameEv
__ZNK20ImsResultDomainPosix17textForResultCodeEi
__ZNSt3__119basic_ostringstreamIcNS_11char_traitsIcEENS_9allocatorIcEEEC1B6v15006Ev
__ZNSt3__119basic_ostringstreamIcNS_11char_traitsIcEENS_9allocatorIcEEED1Ev
__ZNK20ImsResultDomainBambi17textForResultCodeEi
__ZN3ims6result15resultWithCauseERK9ImsResultS3_
__ZN3ims6result3logERKNSt3__112basic_stringIcNS1_11char_traitsIcEENS1_9allocatorIcEEEER9ImsResult
__ZNSt3__14endlIcNS_11char_traitsIcEEEERNS_13basic_ostreamIT_T0_EES7_
__ZN3ims6result3logERKNSt3__112basic_stringIcNS1_11char_traitsIcEENS1_9allocatorIcEEEEO9ImsResult
__ZN20ImsResultDomainPosixD0Ev
__ZNK20ImsResultDomainPosix7isErrorEi
__ZN20ImsResultDomainBambiD0Ev
__ZNK20ImsResultDomainBambi7isErrorEi
__ZN15ImsResultDomainC2ERKNSt3__112basic_stringIcNS0_11char_traitsIcEENS0_9allocatorIcEEEE
__ZN15ImsResultDomainD1Ev
__ZN15ImsResultDomainD0Ev
__ZN14LoggableStringC2ERKNSt3__112basic_stringIcNS0_11char_traitsIcEENS0_9allocatorIcEEEE
___clang_call_terminate
__ZNSt3__112basic_stringIcNS_11char_traitsIcEENS_9allocatorIcEEEC2B6v15006IDnEEPKc
__ZNKSt3__112basic_stringIcNS_11char_traitsIcEENS_9allocatorIcEEE20__throw_length_errorB6v15006Ev
__ZNSt3__120__throw_length_errorB6v15006EPKc
__ZNSt12length_errorC1B6v15006EPKc
__ZNSt3__124__put_character_sequenceIcNS_11char_traitsIcEEEERNS_13basic_ostreamIT_T0_EES7_PKS4_m
__ZNSt3__116__pad_and_outputIcNS_11char_traitsIcEEEENS_19ostreambuf_iteratorIT_T0_EES6_PKS4_S8_S8_RNS_8ios_baseES4_
__GLOBAL__sub_I_ImsResult.cpp
__ZN17SDPMediaCandidateC2EtNSt3__112basic_stringIcNS0_11char_traitsIcEENS0_9allocatorIcEEEEt
__ZNK17SDPMediaCandidate5valueEv
__ZN17SDPMediaCandidateD1Ev
__ZN17SDPMediaCandidateD0Ev
__ZNK8SDPField5validEv
__ZN17SDPMediaCandidateD2Ev
__ZN21XcapBootstrappingInfoC2ERKNSt3__112basic_stringIcNS0_11char_traitsIcEENS0_9allocatorIcEEEE
__ZN21XcapBootstrappingInfo10parseChildERKNSt3__112basic_stringIcNS0_11char_traitsIcEENS0_9allocatorIcEEEERKN5bambi13XmlParserNodeE
__ZN21XcapBootstrappingInfoD1Ev
__ZN21XcapBootstrappingInfoD0Ev
__ZN5bambi13XmlParserItem7setNameERKNSt3__112basic_stringIcNS1_11char_traitsIcEENS1_9allocatorIcEEEE
__ZN5bambi13XmlParserItem7setTextERKNSt3__112basic_stringIcNS1_11char_traitsIcEENS1_9allocatorIcEEEES9_
__ZN5bambi13XmlParserItem12setAttributeERKNSt3__112basic_stringIcNS1_11char_traitsIcEENS1_9allocatorIcEEEES9_
__ZN5bambi13XmlParserItem12setNamespaceERKNSt3__16vectorINS_18XmlParserNamespaceENS1_9allocatorIS3_EEEE
__ZN5bambi13XmlParserItem11createChildERKNSt3__112basic_stringIcNS1_11char_traitsIcEENS1_9allocatorIcEEEE
__ZN5bambi13XmlParserItem14parseCompletedERKNSt3__112basic_stringIcNS1_11char_traitsIcEENS1_9allocatorIcEEEE
__ZNKSt3__112basic_stringIcNS_11char_traitsIcEENS_9allocatorIcEEE20__throw_out_of_rangeB6v15006Ev
__ZNSt3__120__throw_out_of_rangeB6v15006EPKc
__ZNSt12out_of_rangeC1B6v15006EPKc
__ZN15SipStringHeaderC2ERKNSt3__112basic_stringIcNS0_11char_traitsIcEENS0_9allocatorIcEEEES8_
__ZN9SipHeaderD2Ev
__ZN15SipStringHeaderC2ERKS_
__ZNK15SipStringHeader11encodeValueER12ImsOutStream
__ZN16ObfuscatedStringD1Ev
__ZNK15SipStringHeader13valueAsStringEPNSt3__112basic_stringIcNS0_11char_traitsIcEENS0_9allocatorIcEEEE
__ZN15SipStringHeader18setValueFromStringERKNSt3__112basic_stringIcNS0_11char_traitsIcEENS0_9allocatorIcEEEE
__ZN15SipStringHeaderD1Ev
__ZN15SipStringHeaderD0Ev
__ZNK9SipHeader12loggableNameEv
__ZNK15SipStringHeader5cloneEv
__ZNK9SipHeader16allowsDuplicatesEv
__ZNK9SipHeader13allowsMergingEv
__ZN9SipHeader11mergeHeaderERKS_
__ZNSt3__13setIP9ImsSocketNS_4lessIS2_EENS_9allocatorIS2_EEED1B6v15006Ev
__ZN9ImsSocket25_createSocketWithDispatchEiRKN3ims8DispatchEb
__ZN9ImsSocket20attachDispatchSourceEP16dispatch_queue_s
__ZN9ImsSocket16_setDscpOnSocketEi
__ZN9ImsSocketC2E9DscpClass
__ZN3ims7PhantomC2Ev
__ZN9ImsSocketD2Ev
__ZN9ImsSocket5closeEv
__ZN9ImsSocketD1Ev
__ZN9ImsSocketD0Ev
__ZNSt3__110shared_ptrI16SocketDescriptorE5resetB6v15006IS1_vEEvPT_
__ZN9ImsSocket14allowPortReuseEv
__ZN9ImsSocket27setReusePortOptionForSocketEi
__ZNK9ImsSocket16socketDescriptorEv
__ZN9ImsSocket27setNoSigpipeOptionForSocketEi
__ZN9ImsSocket21bindSocketToInterfaceEiN9IpAddress15AddressTypeMaskERKNSt3__112basic_stringIcNS2_11char_traitsIcEENS2_9allocatorIcEEEE
____ZN9ImsSocket20attachDispatchSourceEP16dispatch_queue_s_block_invoke
___copy_helper_block_e8_40c28_ZTSN3ims16PhantomReferenceE
___destroy_helper_block_e8_40c28_ZTSN3ims16PhantomReferenceE
____ZN9ImsSocket20attachDispatchSourceEP16dispatch_queue_s_block_invoke.18
___copy_helper_block_e8_32c44_ZTSNSt3__110shared_ptrI16SocketDescriptorEE
___destroy_helper_block_e8_32c44_ZTSNSt3__110shared_ptrI16SocketDescriptorEE
__ZN9ImsSocket12setDscpClassE9DscpClass
__ZN9ImsSocket10socketTypeEv
__ZNSt3__110shared_ptrIN3ims7Phantom13phantom_emptyEEaSB6v15006EOS4_
__ZNSt3__120__shared_ptr_emplaceIN3ims7Phantom13phantom_emptyENS_9allocatorIS3_EEED1Ev
__ZNSt3__120__shared_ptr_emplaceIN3ims7Phantom13phantom_emptyENS_9allocatorIS3_EEED0Ev
__ZNSt3__120__shared_ptr_emplaceIN3ims7Phantom13phantom_emptyENS_9allocatorIS3_EEE16__on_zero_sharedEv
__ZNSt3__120__shared_ptr_emplaceIN3ims7Phantom13phantom_emptyENS_9allocatorIS3_EEE21__on_zero_shared_weakEv
__ZNSt3__110shared_ptrIN3ims7Phantom13phantom_emptyEED2B6v15006Ev
__ZNSt3__16__treeIP9ImsSocketNS_4lessIS2_EENS_9allocatorIS2_EEE7destroyEPNS_11__tree_nodeIS2_PvEE
__ZNSt3__120__shared_ptr_emplaceI16SocketDescriptorNS_9allocatorIS1_EEED1Ev
__ZNSt3__120__shared_ptr_emplaceI16SocketDescriptorNS_9allocatorIS1_EEED0Ev
__ZNSt3__120__shared_ptr_emplaceI16SocketDescriptorNS_9allocatorIS1_EEE16__on_zero_sharedEv
__ZNSt3__120__shared_ptr_emplaceI16SocketDescriptorNS_9allocatorIS1_EEE21__on_zero_shared_weakEv
__ZNSt3__110shared_ptrI16SocketDescriptorED2B6v15006Ev
__ZNSt3__16__treeIP9ImsSocketNS_4lessIS2_EENS_9allocatorIS2_EEE25__emplace_unique_key_argsIS2_JS2_EEENS_4pairINS_15__tree_iteratorIS2_PNS_11__tree_nodeIS2_PvEElEEbEERKT_DpOT0_
__ZNSt3__16__treeIP9ImsSocketNS_4lessIS2_EENS_9allocatorIS2_EEE16__insert_node_atEPNS_15__tree_end_nodeIPNS_16__tree_node_baseIPvEEEERSC_SC_
__ZNSt3__127__tree_balance_after_insertIPNS_16__tree_node_baseIPvEEEEvT_S5_
__ZNSt3__16__treeIP9ImsSocketNS_4lessIS2_EENS_9allocatorIS2_EEE14__erase_uniqueIS2_EEmRKT_
__ZNSt3__16__treeIP9ImsSocketNS_4lessIS2_EENS_9allocatorIS2_EEE21__remove_node_pointerEPNS_11__tree_nodeIS2_PvEE
__ZNSt3__113__tree_removeIPNS_16__tree_node_baseIPvEEEEvT_S5_
__ZNSt3__110shared_ptrI16SocketDescriptorEC2IS1_vEEPT_
__ZNSt3__120__shared_ptr_pointerIP16SocketDescriptorNS_10shared_ptrIS1_E27__shared_ptr_default_deleteIS1_S1_EENS_9allocatorIS1_EEED1Ev
__ZNSt3__120__shared_ptr_pointerIP16SocketDescriptorNS_10shared_ptrIS1_E27__shared_ptr_default_deleteIS1_S1_EENS_9allocatorIS1_EEED0Ev
__ZNSt3__120__shared_ptr_pointerIP16SocketDescriptorNS_10shared_ptrIS1_E27__shared_ptr_default_deleteIS1_S1_EENS_9allocatorIS1_EEE16__on_zero_sharedEv
__ZNKSt3__120__shared_ptr_pointerIP16SocketDescriptorNS_10shared_ptrIS1_E27__shared_ptr_default_deleteIS1_S1_EENS_9allocatorIS1_EEE13__get_deleterERKSt9type_info
__ZNSt3__120__shared_ptr_pointerIP16SocketDescriptorNS_10shared_ptrIS1_E27__shared_ptr_default_deleteIS1_S1_EENS_9allocatorIS1_EEE21__on_zero_shared_weakEv
__GLOBAL__sub_I_ImsSocket.cpp
__ZN40SipServerNonInviteTryingTransactionState13handleRequestERK10SipRequest
__ZN40SipServerNonInviteTryingTransactionState22handleOutgoingResponseERK11SipResponseR9ImsResult
__ZN40SipServerNonInviteTryingTransactionState11handleTimerEP17SipTimerContainerRKNSt3__112basic_stringIcNS2_11char_traitsIcEENS2_9allocatorIcEEEE
__ZN40SipServerNonInviteTryingTransactionState10enterStateEj
__ZN44SipServerNonInviteProceedingTransactionState13handleRequestERK10SipRequest
__ZN44SipServerNonInviteProceedingTransactionState22handleOutgoingResponseERK11SipResponseR9ImsResult
__ZN43SipServerNonInviteCompletedTransactionState10enterStateEj
__ZN43SipServerNonInviteCompletedTransactionState11handleTimerEP17SipTimerContainerRKNSt3__112basic_stringIcNS2_11char_traitsIcEENS2_9allocatorIcEEEE
__ZN43SipServerNonInviteCompletedTransactionState13handleRequestERK10SipRequest
__ZN40SipServerNonInviteTryingTransactionStateD1Ev
__ZN40SipServerNonInviteTryingTransactionStateD0Ev
__ZNK40SipServerNonInviteTryingTransactionState2idEv
__ZN19SipTransactionState21handleConnectionErrorEv
__ZN19SipTransactionState14handleResponseERK11SipResponse
__ZN40SipServerNonInviteTryingTransactionState21allowOutgoingResponseEv
__ZThn8_N40SipServerNonInviteTryingTransactionStateD1Ev
__ZThn8_N40SipServerNonInviteTryingTransactionStateD0Ev
__ZNK11ImsLoggable3logER12ImsOutStream
__ZN44SipServerNonInviteProceedingTransactionStateD1Ev
__ZN44SipServerNonInviteProceedingTransactionStateD0Ev
__ZNK44SipServerNonInviteProceedingTransactionState2idEv
__ZN8SipState10enterStateEj
__ZN44SipServerNonInviteProceedingTransactionState21allowOutgoingResponseEv
__ZThn8_N44SipServerNonInviteProceedingTransactionStateD1Ev
__ZThn8_N44SipServerNonInviteProceedingTransactionStateD0Ev
__ZN43SipServerNonInviteCompletedTransactionStateD1Ev
__ZN43SipServerNonInviteCompletedTransactionStateD0Ev
__ZNK43SipServerNonInviteCompletedTransactionState2idEv
__ZN19SipTransactionState22handleOutgoingResponseERK11SipResponseR9ImsResult
__ZN19SipTransactionState21allowOutgoingResponseEv
__ZThn8_N43SipServerNonInviteCompletedTransactionStateD1Ev
__ZThn8_N43SipServerNonInviteCompletedTransactionStateD0Ev
__ZN8SipStateD2Ev
__ZNK12SDPAttribute8toStreamER12ImsOutStream
__ZNK12SDPAttribute3keyEv
__ZN12SDPAttributeD1Ev
__ZN12SDPAttributeD0Ev
__ZN16SipUnknownHeaderD1Ev
__ZN16SipUnknownHeaderD0Ev
__ZNK16SipUnknownHeader16allowsDuplicatesEv
__ZN22TTAKRegistrationPolicy21performActualWaitTimeERK9ImsResultj
__ZN22TTAKRegistrationPolicy11handleTimerEP17SipTimerContainerRKNSt3__112basic_stringIcNS2_11char_traitsIcEENS2_9allocatorIcEEEE
__ZN22TTAKRegistrationPolicy20startingRegistrationEv
__ZN22TTAKRegistrationPolicy12deinitializeEv
__ZN22TTAKRegistrationPolicy18onInterfaceChangedEv
__ZN25Rfc5626RegistrationPolicyD1Ev
__ZN25Rfc5626RegistrationPolicyD0Ev
__ZNK16SipTimerDelegate13timersEnabledEv
__ZNK25Rfc5626RegistrationPolicy25generalErrorRetryIntervalEv
__ZNK25Rfc5626RegistrationPolicy23fatalErrorRetryIntervalEv
__ZNK25Rfc5626RegistrationPolicy27forbiddenErrorRetryIntervalEv
__ZNK21SipRegistrationPolicy19maxAttemptsPerProxyEv
__ZN21SipRegistrationPolicy17handleProxyChangeEv
__ZN21SipRegistrationPolicy22subscriptionRetryTimerEv
__ZN21SipRegistrationPolicy32useNextProxyOnRegistrationChangeEv
__ZNK25Rfc5626RegistrationPolicy4nameEv
__ZNK21SipRegistrationPolicy25isTransactionRetryAllowedEv
__ZNK21SipRegistrationPolicy17isCSFBModeEnabledEv
__ZN21SipRegistrationPolicy23handleImsOutageResponseEv
__ZNK21SipRegistrationPolicy11isEmergencyEv
__ZNK21SipRegistrationPolicy20shouldNotifyDelegateEv
__ZNK21SipRegistrationPolicy33allowNotificationsInLimitedAccessEv
__ZThn88_N25Rfc5626RegistrationPolicyD1Ev
__ZThn88_N25Rfc5626RegistrationPolicyD0Ev
__ZN11SipLockable24terminationLocksReleasedEv
__ZN22TTAKRegistrationPolicyD1Ev
__ZN22TTAKRegistrationPolicyD0Ev
__ZN22TTAKRegistrationPolicy12useNextProxyEv
__ZNK22TTAKRegistrationPolicy4nameEv
__ZThn8_N22TTAKRegistrationPolicyD1Ev
__ZThn8_N22TTAKRegistrationPolicyD0Ev
__ZThn88_N22TTAKRegistrationPolicyD1Ev
__ZThn88_N22TTAKRegistrationPolicyD0Ev
__ZN11ImsLoggableD1Ev
__ZN11ImsLoggableD0Ev
__ZNK11ImsLoggable12loggableNameEv
__ZN14LoggableStringC2EPKc
__GLOBAL__sub_I_TTAKRegistrationPolicy.cpp
__ZN21SipRegistrationConfig19initializeFromPrefsERK8ImsPrefs
__ZN21SipRegistrationConfig31retryAfterStatusCodesFromStringERNSt3__13setIjNS0_4lessIjEENS0_9allocatorIjEEEERKNS0_12basic_stringIcNS0_11char_traitsIcEENS4_IcEEEE
__Z22deviceEventsFromStringRKNSt3__112basic_stringIcNS_11char_traitsIcEENS_9allocatorIcEEEE
__ZNK21SipRegistrationConfig28honorRetryAfterForStatusCodeEj
__ZNK21SipRegistrationConfig7isValidEv
__Z20deviceEventsToStringj
__ZSt28__throw_bad_array_new_lengthB6v15006v
__ZNSt3__16vectorINS_12basic_stringIcNS_11char_traitsIcEENS_9allocatorIcEEEENS4_IS6_EEED2B6v15006Ev
__ZNSt3__16vectorINS_12basic_stringIcNS_11char_traitsIcEENS_9allocatorIcEEEENS4_IS6_EEE22__base_destruct_at_endB6v15006EPS6_
__ZNSt3__16__treeIjNS_4lessIjEENS_9allocatorIjEEE7destroyEPNS_11__tree_nodeIjPvEE
__ZNSt3__16__treeIjNS_4lessIjEENS_9allocatorIjEEE25__emplace_unique_key_argsIjJRKjEEENS_4pairINS_15__tree_iteratorIjPNS_11__tree_nodeIjPvEElEEbEERKT_DpOT0_
__ZNSt3__16__treeIjNS_4lessIjEENS_9allocatorIjEEE16__insert_node_atEPNS_15__tree_end_nodeIPNS_16__tree_node_baseIPvEEEERSA_SA_
__ZNKSt3__16vectorI12SipRetryInfoNS_9allocatorIS1_EEE20__throw_length_errorB6v15006Ev
__ZNSt3__119__allocate_at_leastB6v15006INS_9allocatorI12SipRetryInfoEEEENS_19__allocation_resultINS_16allocator_traitsIT_E7pointerEEERS6_m
__ZNKSt3__16vectorINS_12basic_stringIcNS_11char_traitsIcEENS_9allocatorIcEEEENS4_IS6_EEE20__throw_length_errorB6v15006Ev
__ZNSt3__119__allocate_at_leastB6v15006INS_9allocatorINS_12basic_stringIcNS_11char_traitsIcEENS1_IcEEEEEEEENS_19__allocation_resultINS_16allocator_traitsIT_E7pointerEEERSA_m
__ZNSt3__114__split_bufferINS_12basic_stringIcNS_11char_traitsIcEENS_9allocatorIcEEEERNS4_IS6_EEED2Ev
__ZNSt3__114__split_bufferINS_12basic_stringIcNS_11char_traitsIcEENS_9allocatorIcEEEERNS4_IS6_EEE17__destruct_at_endB6v15006EPS6_
__ZN3ims4joinINSt3__111__wrap_iterIPKNS1_12basic_stringIcNS1_11char_traitsIcEENS1_9allocatorIcEEEEEEEES8_T_SC_RS9_
__ZN18SipResponseCodeMap10fromStringERKNSt3__112basic_stringIcNS0_11char_traitsIcEENS0_9allocatorIcEEEE
__ZN18SipResponseCodeMap35addResponseCodesForMethodFromStringERKNSt3__112basic_stringIcNS0_11char_traitsIcEENS0_9allocatorIcEEEES8_
__ZNK18SipResponseCodeMap29containsResponseCodeForMethodERKNSt3__112basic_stringIcNS0_11char_traitsIcEENS0_9allocatorIcEEEEjPb
__ZL33setContainsResponseCodeOrWildcardRKNSt3__13setIjNS_4lessIjEENS_9allocatorIjEEEEj
__ZNK18SipResponseCodeMapeqERKS_
__ZNK18SipResponseCodeMap3logER12ImsOutStream
__ZNK18SipResponseCodeMap5emptyEv
__ZN18SipResponseCodeMapD1Ev
__ZN18SipResponseCodeMapD0Ev
__ZNK18SipResponseCodeMap12loggableNameEv
__ZNSt3__16__treeINS_12__value_typeINS_12basic_stringIcNS_11char_traitsIcEENS_9allocatorIcEEEENS_3setIjNS_4lessIjEENS5_IjEEEEEENS_19__map_value_compareIS7_SD_NS9_IS7_EELb1EEENS5_ISD_EEE7destroyEPNS_11__tree_nodeISD_PvEE
__ZNSt3__116allocator_traitsINS_9allocatorINS_11__tree_nodeINS_12__value_typeINS_12basic_stringIcNS_11char_traitsIcEENS1_IcEEEENS_3setIjNS_4lessIjEENS1_IjEEEEEEPvEEEEE7destroyB6v15006INS_4pairIKS8_SD_EEvvEEvRSH_PT_
__ZNSt3__16__treeINS_12__value_typeINS_12basic_stringIcNS_11char_traitsIcEENS_9allocatorIcEEEENS_3setIjNS_4lessIjEENS5_IjEEEEEENS_19__map_value_compareIS7_SD_NS9_IS7_EELb1EEENS5_ISD_EEE12__find_equalIS7_EERPNS_16__tree_node_baseIPvEERPNS_15__tree_end_nodeISN_EERKT_
__ZNSt3__16__treeINS_12__value_typeINS_12basic_stringIcNS_11char_traitsIcEENS_9allocatorIcEEEENS_3setIjNS_4lessIjEENS5_IjEEEEEENS_19__map_value_compareIS7_SD_NS9_IS7_EELb1EEENS5_ISD_EEE16__insert_node_atEPNS_15__tree_end_nodeIPNS_16__tree_node_baseIPvEEEERSN_SN_
__ZNKSt3__14lessINS_12basic_stringIcNS_11char_traitsIcEENS_9allocatorIcEEEEEclB6v15006ERKS6_S9_
__ZNSt3__122__tree_node_destructorINS_9allocatorINS_11__tree_nodeINS_12__value_typeINS_12basic_stringIcNS_11char_traitsIcEENS1_IcEEEENS_3setIjNS_4lessIjEENS1_IjEEEEEEPvEEEEEclB6v15006EPSG_
__ZNSt3__16__treeIjNS_4lessIjEENS_9allocatorIjEEE25__emplace_unique_key_argsIjJjEEENS_4pairINS_15__tree_iteratorIjPNS_11__tree_nodeIjPvEElEEbEERKT_DpOT0_
__ZNKSt3__16__treeINS_12__value_typeINS_12basic_stringIcNS_11char_traitsIcEENS_9allocatorIcEEEENS_3setIjNS_4lessIjEENS5_IjEEEEEENS_19__map_value_compareIS7_SD_NS9_IS7_EELb1EEENS5_ISD_EEE4findIS7_EENS_21__tree_const_iteratorISD_PNS_11__tree_nodeISD_PvEElEERKT_
__ZNSt3__1eqB6v15006IKNS_12basic_stringIcNS_11char_traitsIcEENS_9allocatorIcEEEENS_3setIjNS_4lessIjEENS4_IjEEEEEEbRKNS_4pairIT_T0_EESI_
__ZN15SipAcceptHeaderD1Ev
__ZN15SipAcceptHeaderD0Ev
__ZNK15SipAcceptHeader5cloneEv
__ZNK20SipMultiStringHeader16allowsDuplicatesEv
__ZNK20SipMultiStringHeader13allowsMergingEv
__ZNSt3__16__treeINS_12basic_stringIcNS_11char_traitsIcEENS_9allocatorIcEEEENS_4lessIS6_EENS4_IS6_EEE7destroyEPNS_11__tree_nodeIS6_PvEE
__ZN24BambiConferenceCallState12stateMachineEv
__ZNK24BambiConferenceCallState12stateMachineEv
__ZN38BambiConferenceCallWaitingForHoldStateC1EP19BambiConferenceCall
__ZN38BambiConferenceCallWaitingForHoldState10enterStateEj
__ZN38BambiConferenceCallWaitingForHoldState11handleTimerEP17SipTimerContainerRKNSt3__112basic_stringIcNS2_11char_traitsIcEENS2_9allocatorIcEEEE
__ZN38BambiConferenceCallWaitingForHoldState28handleParticipantStateChangeEP26BambiConferenceParticipantN20BambiCallParticipant16ParticipantStateES3_
__ZN40BambiConferenceCallSessionRequestedStateC1EP19BambiConferenceCall
__ZN40BambiConferenceCallSessionRequestedState10enterStateEj
__ZN40BambiConferenceCallSessionRequestedState28handleParticipantStateChangeEP26BambiConferenceParticipantN20BambiCallParticipant16ParticipantStateES3_
__ZN40BambiConferenceCallSessionConfirmedStateC1EP19BambiConferenceCall
__ZN40BambiConferenceCallSessionConfirmedState15addParticipantsEv
__ZN40BambiConferenceCallSessionConfirmedState10enterStateEj
__ZN40BambiConferenceCallSessionConfirmedState28handleParticipantStateChangeEP26BambiConferenceParticipantN20BambiCallParticipant16ParticipantStateES3_
____ZN40BambiConferenceCallSessionConfirmedState28handleParticipantStateChangeEP26BambiConferenceParticipantN20BambiCallParticipant16ParticipantStateES3__block_invoke
__ZN41BambiConferenceCallSessionTerminatedStateC1EP19BambiConferenceCall
__ZN41BambiConferenceCallSessionTerminatedState10enterStateEj
__ZN41BambiConferenceCallSessionTerminatedState28handleParticipantStateChangeEP26BambiConferenceParticipantN20BambiCallParticipant16ParticipantStateES3_
__ZN52BambiConferenceCallWaitToResumeConfirmedSessionStateC1EP19BambiConferenceCall
__ZN52BambiConferenceCallWaitToResumeConfirmedSessionState10enterStateEj
__ZN52BambiConferenceCallWaitToResumeConfirmedSessionState28handleParticipantStateChangeEP26BambiConferenceParticipantN20BambiCallParticipant16ParticipantStateES3_
__ZN24BambiConferenceCallState9exitStateEj
__ZN38BambiConferenceCallWaitingForHoldStateD1Ev
__ZN38BambiConferenceCallWaitingForHoldStateD0Ev
__ZNK38BambiConferenceCallWaitingForHoldState2idEv
__ZThn8_N38BambiConferenceCallWaitingForHoldStateD1Ev
__ZThn8_N38BambiConferenceCallWaitingForHoldStateD0Ev
__ZN40BambiConferenceCallSessionRequestedStateD1Ev
__ZN40BambiConferenceCallSessionRequestedStateD0Ev
__ZNK40BambiConferenceCallSessionRequestedState2idEv
__ZThn8_N40BambiConferenceCallSessionRequestedStateD1Ev
__ZThn8_N40BambiConferenceCallSessionRequestedStateD0Ev
__ZN40BambiConferenceCallSessionConfirmedStateD1Ev
__ZN40BambiConferenceCallSessionConfirmedStateD0Ev
__ZNK40BambiConferenceCallSessionConfirmedState2idEv
__ZThn8_N40BambiConferenceCallSessionConfirmedStateD1Ev
__ZThn8_N40BambiConferenceCallSessionConfirmedStateD0Ev
__ZN41BambiConferenceCallSessionTerminatedStateD1Ev
__ZN41BambiConferenceCallSessionTerminatedStateD0Ev
__ZNK41BambiConferenceCallSessionTerminatedState2idEv
__ZThn8_N41BambiConferenceCallSessionTerminatedStateD1Ev
__ZThn8_N41BambiConferenceCallSessionTerminatedStateD0Ev
__ZN52BambiConferenceCallWaitToResumeConfirmedSessionStateD1Ev
__ZN52BambiConferenceCallWaitToResumeConfirmedSessionStateD0Ev
__ZNK52BambiConferenceCallWaitToResumeConfirmedSessionState2idEv
__ZThn8_N52BambiConferenceCallWaitToResumeConfirmedSessionStateD1Ev
__ZThn8_N52BambiConferenceCallWaitToResumeConfirmedSessionStateD0Ev
__ZNSt3__16vectorIP26BambiConferenceParticipantNS_9allocatorIS2_EEEC2ERKS5_
__ZNSt3__16vectorIP26BambiConferenceParticipantNS_9allocatorIS2_EEE11__vallocateB6v15006Em
__ZNKSt3__16vectorIP26BambiConferenceParticipantNS_9allocatorIS2_EEE20__throw_length_errorB6v15006Ev
__ZNSt3__119__allocate_at_leastB6v15006INS_9allocatorIP26BambiConferenceParticipantEEEENS_19__allocation_resultINS_16allocator_traitsIT_E7pointerEEERS7_m
__ZN22IMSRegistrationManagerC2EP18IPTelephonyManager
__ZN22IMSRegistrationManagerD2Ev
__ZN22IMSRegistrationManagerD1Ev
__ZThn8_N22IMSRegistrationManagerD1Ev
__ZThn16_N22IMSRegistrationManagerD1Ev
__ZN22IMSRegistrationManagerD0Ev
__ZThn8_N22IMSRegistrationManagerD0Ev
__ZThn16_N22IMSRegistrationManagerD0Ev
__ZN22IMSRegistrationManager19sipStackInitializedERKNSt3__112basic_stringIcNS0_11char_traitsIcEENS0_9allocatorIcEEEE
__ZN21SipRegistrationConfigaSERKS_
__ZNK22IMSRegistrationManager21getRegistrationConfigERKNSt3__112basic_stringIcNS0_11char_traitsIcEENS0_9allocatorIcEEEE
__ZN3ims13AccessNetworkD1Ev
__ZN22IMSRegistrationManager19sipStackInvalidatedERKNSt3__112basic_stringIcNS0_11char_traitsIcEENS0_9allocatorIcEEEE
__ZN3ims22RegistrationActiveInfoD1Ev
__ZN22IMSRegistrationManager25setRegistrationTerminatedERKNSt3__112basic_stringIcNS0_11char_traitsIcEENS0_9allocatorIcEEEEN3ims16RegFailureReasonElb
__ZN22IMSRegistrationManager20getRegistrationStateERKNSt3__112basic_stringIcNS0_11char_traitsIcEENS0_9allocatorIcEEEE
__ZN3ims19CFMutableDictionaryD1Ev
__ZN22IMSRegistrationManager30handleRegistrationStateChangedERKNSt3__112basic_stringIcNS0_11char_traitsIcEENS0_9allocatorIcEEEERKN3ims17RegistrationStateE
__ZThn8_N22IMSRegistrationManager30handleRegistrationStateChangedERKNSt3__112basic_stringIcNS0_11char_traitsIcEENS0_9allocatorIcEEEERKN3ims17RegistrationStateE
__ZN22IMSRegistrationManager25handleRegistrationRequestERKNSt3__112basic_stringIcNS0_11char_traitsIcEENS0_9allocatorIcEEEERK22SipRegistrationMetrics
__ZThn8_N22IMSRegistrationManager25handleRegistrationRequestERKNSt3__112basic_stringIcNS0_11char_traitsIcEENS0_9allocatorIcEEEERK22SipRegistrationMetrics
__ZN22IMSRegistrationManager24handleRegistrationActiveERKNSt3__112basic_stringIcNS0_11char_traitsIcEENS0_9allocatorIcEEEERK33SipRegistrationActiveNotification
__ZThn8_N22IMSRegistrationManager24handleRegistrationActiveERKNSt3__112basic_stringIcNS0_11char_traitsIcEENS0_9allocatorIcEEEERK33SipRegistrationActiveNotification
__ZN22IMSRegistrationManager28handleRegistrationTerminatedERKNSt3__112basic_stringIcNS0_11char_traitsIcEENS0_9allocatorIcEEEERK37SipRegistrationTerminatedNotification
__ZThn8_N22IMSRegistrationManager28handleRegistrationTerminatedERKNSt3__112basic_stringIcNS0_11char_traitsIcEENS0_9allocatorIcEEEERK37SipRegistrationTerminatedNotification
__ZN22IMSRegistrationManager23handleRegistrationErrorERKNSt3__112basic_stringIcNS0_11char_traitsIcEENS0_9allocatorIcEEEERK32SipRegistrationErrorNotification
__ZThn8_N22IMSRegistrationManager23handleRegistrationErrorERKNSt3__112basic_stringIcNS0_11char_traitsIcEENS0_9allocatorIcEEEERK32SipRegistrationErrorNotification
__ZN22IMSRegistrationManager28handleRegistrationModeChangeERKNSt3__112basic_stringIcNS0_11char_traitsIcEENS0_9allocatorIcEEEERK19SipRegistrationMode
__ZThn8_N22IMSRegistrationManager28handleRegistrationModeChangeERKNSt3__112basic_stringIcNS0_11char_traitsIcEENS0_9allocatorIcEEEERK19SipRegistrationMode
__ZN22IMSRegistrationManager28handleRegistrationIdentitiesERKNSt3__112basic_stringIcNS0_11char_traitsIcEENS0_9allocatorIcEEEERKNS0_6vectorIN3ims20RegistrationIdentityENS4_ISB_EEEE
__ZThn8_N22IMSRegistrationManager28handleRegistrationIdentitiesERKNSt3__112basic_stringIcNS0_11char_traitsIcEENS0_9allocatorIcEEEERKNS0_6vectorIN3ims20RegistrationIdentityENS4_ISB_EEEE
__ZN22IMSRegistrationManager28handleNewInitialRegistrationERKNSt3__112basic_stringIcNS0_11char_traitsIcEENS0_9allocatorIcEEEE
__ZThn8_N22IMSRegistrationManager28handleNewInitialRegistrationERKNSt3__112basic_stringIcNS0_11char_traitsIcEENS0_9allocatorIcEEEE
__ZNK22IMSRegistrationManager9logPrefixER12ImsOutStream
__ZN25BambiRegistrationDelegate27handleRegistrationThrottledERKNSt3__112basic_stringIcNS0_11char_traitsIcEENS0_9allocatorIcEEEEjl
__ZThn16_NK22IMSRegistrationManager9logPrefixER12ImsOutStream
__ZN25BambiRegistrationDelegateD1Ev
__ZN25BambiRegistrationDelegateD0Ev
__ZN25BambiRegistrationDelegate28handleRegistrationIdentitiesERKNSt3__112basic_stringIcNS0_11char_traitsIcEENS0_9allocatorIcEEEERKNS0_6vectorIN3ims20RegistrationIdentityENS4_ISB_EEEE
__ZN25BambiRegistrationDelegate28handleNewInitialRegistrationERKNSt3__112basic_stringIcNS0_11char_traitsIcEENS0_9allocatorIcEEEE
__ZNSt3__16vectorI6SipUriNS_9allocatorIS1_EEE6assignIPS1_EENS_9enable_ifIXaasr27__is_cpp17_forward_iteratorIT_EE5valuesr16is_constructibleIS1_NS_15iterator_traitsIS8_E9referenceEEE5valueEvE4typeES8_S8_
__ZNSt3__16vectorI6SipUriNS_9allocatorIS1_EEE13__vdeallocateEv
__ZNSt3__16vectorI6SipUriNS_9allocatorIS1_EEE11__vallocateB6v15006Em
__ZNSt3__130__uninitialized_allocator_copyB6v15006INS_9allocatorI6SipUriEEPS2_S4_S4_EET2_RT_T0_T1_S5_
__ZNKSt3__16vectorI6SipUriNS_9allocatorIS1_EEE20__throw_length_errorB6v15006Ev
__ZNSt3__119__allocate_at_leastB6v15006INS_9allocatorI6SipUriEEEENS_19__allocation_resultINS_16allocator_traitsIT_E7pointerEEERS6_m
__ZNSt3__16vectorI12SipRetryInfoNS_9allocatorIS1_EEE6assignIPS1_EENS_9enable_ifIXaasr27__is_cpp17_forward_iteratorIT_EE5valuesr16is_constructibleIS1_NS_15iterator_traitsIS8_E9referenceEEE5valueEvE4typeES8_S8_
__ZNSt3__16vectorI12SipRetryInfoNS_9allocatorIS1_EEE11__vallocateB6v15006Em
__ZNSt3__16__treeIjNS_4lessIjEENS_9allocatorIjEEE14__assign_multiINS_21__tree_const_iteratorIjPNS_11__tree_nodeIjPvEElEEEEvT_SD_
__ZNSt3__16__treeIjNS_4lessIjEENS_9allocatorIjEEE19__node_insert_multiEPNS_11__tree_nodeIjPvEE
__ZNSt3__16__treeIjNS_4lessIjEENS_9allocatorIjEEE18_DetachedTreeCache13__detach_nextEPNS_11__tree_nodeIjPvEE
__ZNSt3__16__treeIjNS_4lessIjEENS_9allocatorIjEEE18_DetachedTreeCacheD2B6v15006Ev
__ZNSt3__16__treeIjNS_4lessIjEENS_9allocatorIjEEE15__emplace_multiIJRKjEEENS_15__tree_iteratorIjPNS_11__tree_nodeIjPvEElEEDpOT_
__ZNSt3__16__treeINS_12__value_typeINS_12basic_stringIcNS_11char_traitsIcEENS_9allocatorIcEEEENS_3setIjNS_4lessIjEENS5_IjEEEEEENS_19__map_value_compareIS7_SD_NS9_IS7_EELb1EEENS5_ISD_EEE14__assign_multiINS_21__tree_const_iteratorISD_PNS_11__tree_nodeISD_PvEElEEEEvT_SQ_
__ZNSt3__14pairIRNS_12basic_stringIcNS_11char_traitsIcEENS_9allocatorIcEEEERNS_3setIjNS_4lessIjEENS4_IjEEEEEaSB6v15006IRKNS0_IKS6_SC_EELPv0EEERSE_OT_
__ZNSt3__16__treeINS_12__value_typeINS_12basic_stringIcNS_11char_traitsIcEENS_9allocatorIcEEEENS_3setIjNS_4lessIjEENS5_IjEEEEEENS_19__map_value_compareIS7_SD_NS9_IS7_EELb1EEENS5_ISD_EEE16__find_leaf_highERPNS_15__tree_end_nodeIPNS_16__tree_node_baseIPvEEEERKS7_
__ZNSt3__16__treeINS_12__value_typeINS_12basic_stringIcNS_11char_traitsIcEENS_9allocatorIcEEEENS_3setIjNS_4lessIjEENS5_IjEEEEEENS_19__map_value_compareIS7_SD_NS9_IS7_EELb1EEENS5_ISD_EEE18_DetachedTreeCache13__detach_nextEPNS_11__tree_nodeISD_PvEE
__ZNSt3__16__treeINS_12__value_typeINS_12basic_stringIcNS_11char_traitsIcEENS_9allocatorIcEEEENS_3setIjNS_4lessIjEENS5_IjEEEEEENS_19__map_value_compareIS7_SD_NS9_IS7_EELb1EEENS5_ISD_EEE18_DetachedTreeCacheD2B6v15006Ev
__ZNSt3__16__treeINS_12__value_typeINS_12basic_stringIcNS_11char_traitsIcEENS_9allocatorIcEEEENS_3setIjNS_4lessIjEENS5_IjEEEEEENS_19__map_value_compareIS7_SD_NS9_IS7_EELb1EEENS5_ISD_EEE15__emplace_multiIJRKNS_4pairIKS7_SC_EEEEENS_15__tree_iteratorISD_PNS_11__tree_nodeISD_PvEElEEDpOT_
__ZNSt3__16__treeINS_12__value_typeINS_12basic_stringIcNS_11char_traitsIcEENS_9allocatorIcEEEENS_3setIjNS_4lessIjEENS5_IjEEEEEENS_19__map_value_compareIS7_SD_NS9_IS7_EELb1EEENS5_ISD_EEE16__construct_nodeIJRKNS_4pairIKS7_SC_EEEEENS_10unique_ptrINS_11__tree_nodeISD_PvEENS_22__tree_node_destructorINS5_ISS_EEEEEEDpOT_
__ZNSt3__14pairIKNS_12basic_stringIcNS_11char_traitsIcEENS_9allocatorIcEEEENS_3setIjNS_4lessIjEENS4_IjEEEEEC2ERKSD_
__ZNSt3__13setIjNS_4lessIjEENS_9allocatorIjEEEC2B6v15006ERKS5_
__ZNSt3__13setIjNS_4lessIjEENS_9allocatorIjEEE6insertB6v15006INS_21__tree_const_iteratorIjPNS_11__tree_nodeIjPvEElEEEEvT_SD_
__ZNSt3__16__treeIjNS_4lessIjEENS_9allocatorIjEEE30__emplace_hint_unique_key_argsIjJRKjEEENS_4pairINS_15__tree_iteratorIjPNS_11__tree_nodeIjPvEElEEbEENS_21__tree_const_iteratorIjSE_lEERKT_DpOT0_
__ZNSt3__16__treeIjNS_4lessIjEENS_9allocatorIjEEE12__find_equalIjEERPNS_16__tree_node_baseIPvEENS_21__tree_const_iteratorIjPNS_11__tree_nodeIjS8_EElEERPNS_15__tree_end_nodeISA_EESB_RKT_
__ZNSt3__16__treeIjNS_4lessIjEENS_9allocatorIjEEE12__find_equalIjEERPNS_16__tree_node_baseIPvEERPNS_15__tree_end_nodeISA_EERKT_
__ZNSt3__16vectorINS_12basic_stringIcNS_11char_traitsIcEENS_9allocatorIcEEEENS4_IS6_EEE6assignIPS6_EENS_9enable_ifIXaasr27__is_cpp17_forward_iteratorIT_EE5valuesr16is_constructibleIS6_NS_15iterator_traitsISC_E9referenceEEE5valueEvE4typeESC_SC_
__ZNSt3__16vectorINS_12basic_stringIcNS_11char_traitsIcEENS_9allocatorIcEEEENS4_IS6_EEE13__vdeallocateEv
__ZNSt3__16vectorINS_12basic_stringIcNS_11char_traitsIcEENS_9allocatorIcEEEENS4_IS6_EEE11__vallocateB6v15006Em
__ZNSt3__130__uninitialized_allocator_copyB6v15006INS_9allocatorINS_12basic_stringIcNS_11char_traitsIcEENS1_IcEEEEEEPS6_S8_S8_EET2_RT_T0_T1_S9_
__ZNKSt3__129_AllocatorDestroyRangeReverseINS_9allocatorINS_12basic_stringIcNS_11char_traitsIcEENS1_IcEEEEEEPS6_EclB6v15006Ev
__ZN21SipRegistrationConfigC2ERKS_
__ZN14SipSsoAuthInfoD1Ev
__ZNSt3__16vectorI6SipUriNS_9allocatorIS1_EEEC2ERKS4_
__ZNSt3__16vectorI12SipRetryInfoNS_9allocatorIS1_EEEC2ERKS4_
__ZN3ims14AccessNetworksC2ERKS0_
__ZNSt3__13mapINS_12basic_stringIcNS_11char_traitsIcEENS_9allocatorIcEEEENS_3setIjNS_4lessIjEENS4_IjEEEENS8_IS6_EENS4_INS_4pairIKS6_SB_EEEEEC2B6v15006ERKSH_
__ZNSt3__13mapINS_12basic_stringIcNS_11char_traitsIcEENS_9allocatorIcEEEENS_3setIjNS_4lessIjEENS4_IjEEEENS8_IS6_EENS4_INS_4pairIKS6_SB_EEEEE6insertB6v15006INS_20__map_const_iteratorINS_21__tree_const_iteratorINS_12__value_typeIS6_SB_EEPNS_11__tree_nodeISM_PvEElEEEEEEvT_ST_
__ZNSt3__16__treeINS_12__value_typeINS_12basic_stringIcNS_11char_traitsIcEENS_9allocatorIcEEEENS_3setIjNS_4lessIjEENS5_IjEEEEEENS_19__map_value_compareIS7_SD_NS9_IS7_EELb1EEENS5_ISD_EEE30__emplace_hint_unique_key_argsIS7_JRKNS_4pairIKS7_SC_EEEEENSK_INS_15__tree_iteratorISD_PNS_11__tree_nodeISD_PvEElEEbEENS_21__tree_const_iteratorISD_ST_lEERKT_DpOT0_
__ZNSt3__16__treeINS_12__value_typeINS_12basic_stringIcNS_11char_traitsIcEENS_9allocatorIcEEEENS_3setIjNS_4lessIjEENS5_IjEEEEEENS_19__map_value_compareIS7_SD_NS9_IS7_EELb1EEENS5_ISD_EEE12__find_equalIS7_EERPNS_16__tree_node_baseIPvEENS_21__tree_const_iteratorISD_PNS_11__tree_nodeISD_SL_EElEERPNS_15__tree_end_nodeISN_EESO_RKT_
__ZNSt3__16vectorINS_12basic_stringIcNS_11char_traitsIcEENS_9allocatorIcEEEENS4_IS6_EEEC2ERKS8_
__ZN3ims14AccessNetworksD2Ev
__ZN3ctu9SharedRefIK10__CFNumberNS_2cf16cfretain_functorENS3_17cfrelease_functorES2_ED2Ev
__ZN3ctu9SharedRefI14__CFDictionaryNS_2cf16cfretain_functorENS2_17cfrelease_functorES1_ED2Ev
__ZN3ims19CFMutableDictionaryD0Ev
__ZNK3ims6CFType3logER12ImsOutStream
__ZNK3ims6CFType12loggableNameEv
__ZNK3ims12CFDictionary14expectedTypeIDEv
__ZNK3ims6CFType6typeIDEv
__ZNSt3__16vectorI6SipUriNS_9allocatorIS1_EEED2B6v15006Ev
__ZNSt3__16__treeINS_12__value_typeINS_12basic_stringIcNS_11char_traitsIcEENS_9allocatorIcEEEE21SipRegistrationConfigEENS_19__map_value_compareIS7_S9_NS_4lessIS7_EELb1EEENS5_IS9_EEE7destroyEPNS_11__tree_nodeIS9_PvEE
__ZNSt3__116allocator_traitsINS_9allocatorINS_11__tree_nodeINS_12__value_typeINS_12basic_stringIcNS_11char_traitsIcEENS1_IcEEEE21SipRegistrationConfigEEPvEEEEE7destroyB6v15006INS_4pairIKS8_S9_EEvvEEvRSD_PT_
__ZN21SipRegistrationConfigD2Ev
__ZNSt3__16__treeINS_12__value_typeINS_12basic_stringIcNS_11char_traitsIcEENS_9allocatorIcEEEEbEENS_19__map_value_compareIS7_S8_NS_4lessIS7_EELb1EEENS5_IS8_EEE7destroyEPNS_11__tree_nodeIS8_PvEE
__ZNSt3__16__treeINS_12__value_typeINS_12basic_stringIcNS_11char_traitsIcEENS_9allocatorIcEEEE21SipRegistrationConfigEENS_19__map_value_compareIS7_S9_NS_4lessIS7_EELb1EEENS5_IS9_EEE25__emplace_unique_key_argsIS7_JRKNS_21piecewise_construct_tENS_5tupleIJRKS7_EEENSK_IJEEEEEENS_4pairINS_15__tree_iteratorIS9_PNS_11__tree_nodeIS9_PvEElEEbEERKT_DpOT0_
__ZNSt3__16__treeINS_12__value_typeINS_12basic_stringIcNS_11char_traitsIcEENS_9allocatorIcEEEE21SipRegistrationConfigEENS_19__map_value_compareIS7_S9_NS_4lessIS7_EELb1EEENS5_IS9_EEE12__find_equalIS7_EERPNS_16__tree_node_baseIPvEERPNS_15__tree_end_nodeISK_EERKT_
__ZNSt3__16__treeINS_12__value_typeINS_12basic_stringIcNS_11char_traitsIcEENS_9allocatorIcEEEE21SipRegistrationConfigEENS_19__map_value_compareIS7_S9_NS_4lessIS7_EELb1EEENS5_IS9_EEE16__construct_nodeIJRKNS_21piecewise_construct_tENS_5tupleIJRKS7_EEENSK_IJEEEEEENS_10unique_ptrINS_11__tree_nodeIS9_PvEENS_22__tree_node_destructorINS5_ISS_EEEEEEDpOT_
__ZNSt3__16__treeINS_12__value_typeINS_12basic_stringIcNS_11char_traitsIcEENS_9allocatorIcEEEE21SipRegistrationConfigEENS_19__map_value_compareIS7_S9_NS_4lessIS7_EELb1EEENS5_IS9_EEE16__insert_node_atEPNS_15__tree_end_nodeIPNS_16__tree_node_baseIPvEEEERSK_SK_
__ZNSt3__14pairIKNS_12basic_stringIcNS_11char_traitsIcEENS_9allocatorIcEEEE21SipRegistrationConfigEC1B6v15006IJRS7_EJEEENS_21piecewise_construct_tENS_5tupleIJDpT_EEENSD_IJDpT0_EEE
__ZN21SipRegistrationConfigC2Ev
__ZNSt3__122__tree_node_destructorINS_9allocatorINS_11__tree_nodeINS_12__value_typeINS_12basic_stringIcNS_11char_traitsIcEENS1_IcEEEE21SipRegistrationConfigEEPvEEEEEclB6v15006EPSC_
__ZNSt3__16__treeINS_12__value_typeINS_12basic_stringIcNS_11char_traitsIcEENS_9allocatorIcEEEEbEENS_19__map_value_compareIS7_S8_NS_4lessIS7_EELb1EEENS5_IS8_EEE4findIS7_EENS_15__tree_iteratorIS8_PNS_11__tree_nodeIS8_PvEElEERKT_
__ZNSt3__16__treeINS_12__value_typeINS_12basic_stringIcNS_11char_traitsIcEENS_9allocatorIcEEEEbEENS_19__map_value_compareIS7_S8_NS_4lessIS7_EELb1EEENS5_IS8_EEE25__emplace_unique_key_argsIS7_JRKNS_21piecewise_construct_tENS_5tupleIJRKS7_EEENSJ_IJEEEEEENS_4pairINS_15__tree_iteratorIS8_PNS_11__tree_nodeIS8_PvEElEEbEERKT_DpOT0_
__ZNSt3__16__treeINS_12__value_typeINS_12basic_stringIcNS_11char_traitsIcEENS_9allocatorIcEEEEbEENS_19__map_value_compareIS7_S8_NS_4lessIS7_EELb1EEENS5_IS8_EEE12__find_equalIS7_EERPNS_16__tree_node_baseIPvEERPNS_15__tree_end_nodeISJ_EERKT_
__ZNSt3__16__treeINS_12__value_typeINS_12basic_stringIcNS_11char_traitsIcEENS_9allocatorIcEEEEbEENS_19__map_value_compareIS7_S8_NS_4lessIS7_EELb1EEENS5_IS8_EEE16__construct_nodeIJRKNS_21piecewise_construct_tENS_5tupleIJRKS7_EEENSJ_IJEEEEEENS_10unique_ptrINS_11__tree_nodeIS8_PvEENS_22__tree_node_destructorINS5_ISR_EEEEEEDpOT_
__ZNSt3__16__treeINS_12__value_typeINS_12basic_stringIcNS_11char_traitsIcEENS_9allocatorIcEEEEbEENS_19__map_value_compareIS7_S8_NS_4lessIS7_EELb1EEENS5_IS8_EEE16__insert_node_atEPNS_15__tree_end_nodeIPNS_16__tree_node_baseIPvEEEERSJ_SJ_
__ZNSt3__122__tree_node_destructorINS_9allocatorINS_11__tree_nodeINS_12__value_typeINS_12basic_stringIcNS_11char_traitsIcEENS1_IcEEEEbEEPvEEEEEclB6v15006EPSB_
__ZN15SipUssdDataBodyC2ERK11SipUssdData
__ZN11SipUssdDataD1Ev
__ZNK15SipUssdDataBody11generateXmlEv
__ZN15SipUssdDataBodyD1Ev
__ZN15SipUssdDataBodyD0Ev
__ZN7SipBody25initWithContentTypeHeaderERK20SipContentTypeHeader
__ZNK15SipUssdDataBody5cloneEv
__ZNK15SipUssdDataBody11contentTypeEv
__ZN7SipBody11addedToPartEP11SipBodyPart
__ZN15SipUssdDataBody8rootItemEv
__GLOBAL__sub_I_SipUssdDataBody.cpp
__ZN22SipIPSecTransportGroup16SipTransportPair10deletePairEv
__ZN22SipIPSecTransportGroupC1EP26SipTransportLayerInterface
__ZN22SipIPSecTransportGroupD2Ev
__ZN22SipIPSecTransportGroupD1Ev
__ZThn72_N22SipIPSecTransportGroupD1Ev
__ZThn160_N22SipIPSecTransportGroupD1Ev
__ZThn168_N22SipIPSecTransportGroupD1Ev
__ZN22SipIPSecTransportGroupD0Ev
__ZThn72_N22SipIPSecTransportGroupD0Ev
__ZThn160_N22SipIPSecTransportGroupD0Ev
__ZThn168_N22SipIPSecTransportGroupD0Ev
__ZNK22SipIPSecTransportGroup11initializedEv
__ZN9ImsResultlsIA28_cEERS_RKT_
__ZN12ImsOutStreamlsEPKc
__ZN22SipIPSecTransportGroup10initializeERK9IpAddressRK6SipUriRKNSt3__112basic_stringIcNS6_11char_traitsIcEENS6_9allocatorIcEEEEP17SipTransportGroupjjb
__ZN9ImsResultlsIA25_cEERS_RKT_
__ZN15SipVectorHeaderIP20SipSecurityMechanismE7addItemERKS1_
__ZN22SipIPSecTransportGroup18updateServiceClassEv
__ZN22SipIPSecTransportGroup30updateFromSecurityServerHeaderEPK23SipSecurityServerHeader
__ZN9ImsResultlsIA57_cEERS_RKT_
__ZN9ImsResultlsIA20_cEERS_RKT_
__ZN9ImsResultlsIA19_cEERS_RKT_
__ZN22SipIPSecTransportGroup27addTransportSpecificHeadersEP10SipMessage
__ZN22SipIPSecTransportGroup10updateKeysEPA16_KhS2_
__ZN9ImsResultlsIA53_cEERS_RKT_
__ZN9ImsResultlsIA21_cEERS_RKT_
__ZN9ImsResultlsIA40_cEERS_RKT_
__ZN9ImsResultlsIA22_cEERS_RKT_
__ZN9ImsResultlsIA31_cEERS_RKT_
__ZN9ImsResultlsIA32_cEERS_RKT_
__ZN22SipIPSecTransportGroup26updateKeysFromAuthResponseERK15SipAuthResponse
__ZN22SipIPSecTransportGroup27processMessageFromTransportEP10SipMessagePKhmbRK9IpAddressP12SipTransportP16SipTcpConnection
__ZN22SipIPSecTransportGroup21processDataFromSocketEPKhmRK9IpAddressP21ImsUdpSocketInterface
__ZThn160_N22SipIPSecTransportGroup21processDataFromSocketEPKhmRK9IpAddressP21ImsUdpSocketInterface
__ZN22SipIPSecTransportGroup8sendDataEPKhmRKNSt3__112basic_stringIcNS2_11char_traitsIcEENS2_9allocatorIcEEEERK9IpAddressPP16SipTcpConnection
__ZN9ImsResultlsIA38_cEERS_RKT_
__ZN9ImsResultlsIA49_cEERS_RKT_
__ZN9ImsResultlsI9IpAddressEERS_RKT_
__ZN9ImsResultlsIA12_cEERS_RKT_
__ZN9ImsResultlsIA23_cEERS_RKT_
__ZN9ImsResultlsIA24_cEERS_RKT_
__ZN9ImsResultlsINSt3__112basic_stringIcNS1_11char_traitsIcEENS1_9allocatorIcEEEEEERS_RKT_
__ZNK22SipIPSecTransportGroup18localServerAddressEv
__ZNK22SipIPSecTransportGroup18localClientAddressEv
__ZNK22SipIPSecTransportGroup15remoteServerUriEv
__ZN22SipIPSecTransportGroup16updateExpirationEj
__ZN22SipIPSecTransportGroup11handleTimerEP17SipTimerContainerRKNSt3__112basic_stringIcNS2_11char_traitsIcEENS2_9allocatorIcEEEE
__ZThn168_N22SipIPSecTransportGroup11handleTimerEP17SipTimerContainerRKNSt3__112basic_stringIcNS2_11char_traitsIcEENS2_9allocatorIcEEEE
__ZNK22SipIPSecTransportGroup12loggableNameEv
__ZNK22SipIPSecTransportGroup18printTransportInfoER12ImsOutStreamb
__ZN17SipTransportGroupD1Ev
__ZN17SipTransportGroupD0Ev
__ZN17SipTransportGroup10isReliableEv
__ZN17SipTransportGroup19transactionTimedOutEv
__ZN17SipTransportGroup14transportGroupEv
__ZN17SipTransportGroup27addTransportSpecificHeadersEP10SipMessage
__ZNK17SipTransportGroup7isIPSecEv
__ZN17SipTransportGroup16handleSystemWakeEv
__ZN17SipTransportGroup16triggerTcpErrorsERK9ImsResult
__ZN17SipTransportGroup28transportLayerRequestedCloseEv
__ZNK17SipTransportGroup33acceptsTransactionsFromConnectionEv
__ZN21SipTransportInterfaceD1Ev
__ZN21SipTransportInterfaceD0Ev
__ZN22SipIPSecTransportGroup12udpTransportEv
__ZN22SipIPSecTransportGroup12tcpTransportEv
__ZNK22SipIPSecTransportGroup9localPortEv
__ZNK22SipIPSecTransportGroup8isSecureEv
__ZNK22SipIPSecTransportGroup7isIPSecEv
__ZN29ImsUdpSocketInterfaceDelegate17handleSocketErrorEP21ImsUdpSocketInterfaceRK9ImsResult
__ZN29ImsUdpSocketInterfaceDelegate7setPortEt
__ZN29ImsUdpSocketInterfaceDelegateD1Ev
__ZN29ImsUdpSocketInterfaceDelegateD0Ev
__ZN29ImsUdpSocketInterfaceDelegate21processDataFromSocketEPKhmRK9IpAddressP21ImsUdpSocketInterface
__ZN21SipTransportInterfaceD2Ev
__ZNKSt3__16vectorIP20SipSecurityMechanismNS_9allocatorIS2_EEE20__throw_length_errorB6v15006Ev
__ZNSt3__119__allocate_at_leastB6v15006INS_9allocatorIP20SipSecurityMechanismEEEENS_19__allocation_resultINS_16allocator_traitsIT_E7pointerEEERS7_m
__GLOBAL__sub_I_SipIPSecTransportGroup.cpp
__ZN16XcapNodeSelector4Step12encodePrefixERNSt3__119basic_ostringstreamIcNS1_11char_traitsIcEENS1_9allocatorIcEEEEPKN6XcapNs6nsTypeE
__ZN16XcapNodeSelectorC2Ev
__ZN16XcapNodeSelector10appendNodeERKNSt3__112basic_stringIcNS0_11char_traitsIcEENS0_9allocatorIcEEEEPKN6XcapNs6nsTypeE
__ZN16XcapNodeSelectorC2ERKS_
__ZN16XcapNodeSelectoraSERKS_
__ZN16XcapNodeSelectorD2Ev
__ZNK16XcapNodeSelector9fetchPathEv
__ZNK16XcapNodeSelector10fetchQueryEv
__ZNK16XcapNodeSelector8asStringEv
__ZN16XcapNodeSelector16appendNodeByAttrERKNSt3__112basic_stringIcNS0_11char_traitsIcEENS0_9allocatorIcEEEES8_S8_PKN6XcapNs6nsTypeE
__ZN16XcapNodeSelector8StepName6encodeEv
__ZN16XcapNodeSelector8StepAttr6encodeEv
__ZTv0_n40_N16XcapNodeSelector8StepAttr6encodeEv
__ZN16XcapNodeSelector15ElementSelectorD2Ev
__ZN16XcapNodeSelector15ElementSelectorD1Ev
__ZN16XcapNodeSelector15ElementSelectorD0Ev
__ZN16XcapNodeSelector15ElementSelector6encodeEv
__ZN16XcapNodeSelector8StepNameD1Ev
__ZN16XcapNodeSelector8StepNameD0Ev
__ZNK16XcapNodeSelector8StepName5cloneEv
__ZN16XcapNodeSelector8StepAttrD1Ev
__ZN16XcapNodeSelector8StepAttrD0Ev
__ZNK16XcapNodeSelector8StepAttr5cloneEv
__ZTv0_n24_N16XcapNodeSelector8StepAttrD1Ev
__ZTv0_n24_N16XcapNodeSelector8StepAttrD0Ev
__ZTcv0_n32_v0_n24_NK16XcapNodeSelector8StepAttr5cloneEv
__ZNK16XcapNodeSelector15ElementSelector5cloneEv
__ZNSt3__16__treeIN6XcapNs6nsTypeENS_4lessIS2_EENS_9allocatorIS2_EEE7destroyEPNS_11__tree_nodeIS2_PvEE
__ZNSt3__16__treeIN6XcapNs6nsTypeENS_4lessIS2_EENS_9allocatorIS2_EEE14__assign_multiINS_21__tree_const_iteratorIS2_PNS_11__tree_nodeIS2_PvEElEEEEvT_SF_
__ZNSt3__16__treeIN6XcapNs6nsTypeENS_4lessIS2_EENS_9allocatorIS2_EEE16__insert_node_atEPNS_15__tree_end_nodeIPNS_16__tree_node_baseIPvEEEERSC_SC_
__ZNSt3__16__treeIN6XcapNs6nsTypeENS_4lessIS2_EENS_9allocatorIS2_EEE18_DetachedTreeCache13__detach_nextEPNS_11__tree_nodeIS2_PvEE
__ZNSt3__16__treeIN6XcapNs6nsTypeENS_4lessIS2_EENS_9allocatorIS2_EEE18_DetachedTreeCacheD2B6v15006Ev
__ZN16XcapNodeSelector8StepAttrD2Ev
__ZNSt3__16vectorIhNS_9allocatorIhEEEC2ERKS3_
__ZNSt3__16vectorIhNS_9allocatorIhEEE11__vallocateB6v15006Em
__ZNKSt3__16vectorIhNS_9allocatorIhEEE20__throw_length_errorB6v15006Ev
__ZNKSt3__16vectorIPN16XcapNodeSelector4StepENS_9allocatorIS3_EEE20__throw_length_errorB6v15006Ev
__ZNSt3__119__allocate_at_leastB6v15006INS_9allocatorIPN16XcapNodeSelector4StepEEEEENS_19__allocation_resultINS_16allocator_traitsIT_E7pointerEEERS8_m
__ZN10SipSdpBodyC2Ev
__ZNSt3__110shared_ptrI8SDPModelEaSB6v15006EOS2_
__ZNSt3__110shared_ptrI8SDPModelEaSB6v15006ERKS2_
__ZN10SipSdpBodyC2ERKNSt3__112basic_stringIcNS0_11char_traitsIcEENS0_9allocatorIcEEEERK17SDPParserSettings
__ZN10SipSdpBodyD2Ev
__ZN10SipSdpBodyD1Ev
__ZN10SipSdpBodyD0Ev
__ZNK10SipSdpBody13contentLengthEv
__ZNK10SipSdpBody6encodeER12ImsOutStreamb
__ZN10SipSdpBody6decodeERNSt3__113basic_istreamIcNS0_11char_traitsIcEEEEmRK21SipMessageEncodingMap
__ZN10SipSdpBody6decodeERKNSt3__112basic_stringIcNS0_11char_traitsIcEENS0_9allocatorIcEEEERK21SipMessageEncodingMap
__ZNK10SipSdpBody5cloneEv
__ZNK10SipSdpBody11contentTypeEv
__ZNSt3__110shared_ptrI8SDPModelED2B6v15006Ev
__GLOBAL__sub_I_SipSdpBody.cpp
__ZN20SipServerTransactionC2EP19SipTransactionLayerRK10SipRequestRK16IpAddressWrapperRKNSt3__112basic_stringIcNS8_11char_traitsIcEENS8_9allocatorIcEEEE
__ZN20SipServerTransactionD2Ev
__ZN20SipServerTransactionD1Ev
__ZThn64_N20SipServerTransactionD1Ev
__ZThn80_N20SipServerTransactionD1Ev
__ZThn152_N20SipServerTransactionD1Ev
__ZThn232_N20SipServerTransactionD1Ev
__ZN20SipServerTransactionD0Ev
__ZThn64_N20SipServerTransactionD0Ev
__ZThn80_N20SipServerTransactionD0Ev
__ZThn152_N20SipServerTransactionD0Ev
__ZThn232_N20SipServerTransactionD0Ev
__ZN20SipServerTransaction27rejectTransactionWithStatusEjRKNSt3__112basic_stringIcNS0_11char_traitsIcEENS0_9allocatorIcEEEE
__ZN20SipServerTransaction27rejectTransactionWithResultER9ImsResult
__ZNK20SipServerTransaction12loggableNameEv
__ZThn80_NK20SipServerTransaction12loggableNameEv
__ZN20SipServerTransaction17resendLastMessageEv
__ZN20SipServerTransaction13handleRequestERK10SipRequest
__ZN23SipTypedTerminationLockI11SipLockableED1Ev
__ZN20SipServerTransaction20internalSendResponseEP11SipResponseb
__ZN20SipServerTransaction12sendResponseEP11SipResponseb
__ZN9ImsResultlsIA36_cEERS_RKT_
__ZN9ImsResultlsIA41_cEERS_RKT_
__ZN9ImsResultlsI14LoggableStringEERS_RKT_
__ZN20SipServerTransaction12sendResponseEjRKNSt3__112basic_stringIcNS0_11char_traitsIcEENS0_9allocatorIcEEEE
__ZN11SipResponseD1Ev
__ZN26SipServerInviteTransactionC1EP19SipTransactionLayerRK10SipRequestRK16IpAddressWrapperRKNSt3__112basic_stringIcNS8_11char_traitsIcEENS8_9allocatorIcEEEE
__ZN26SipServerInviteTransaction12initialStateEv
__ZN29SipServerNonInviteTransactionC1EP19SipTransactionLayerRK10SipRequestRK16IpAddressWrapperRKNSt3__112basic_stringIcNS8_11char_traitsIcEENS8_9allocatorIcEEEE
__ZN29SipServerNonInviteTransaction12initialStateEv
__ZNK20SipTypedStateMachineI19SipTransactionStateE14currentStateIdEv
__ZNK14SipTransaction16stateMachineNameEv
__ZN20SipTypedStateMachineI19SipTransactionStateE8addStateEPS0_
__ZNK20SipTypedStateMachineI19SipTransactionStateE12currentStateEv
__ZN14SipTransaction11handleTimerEP17SipTimerContainerRKNSt3__112basic_stringIcNS2_11char_traitsIcEENS2_9allocatorIcEEEE
__ZNK14SipTransaction8userNameEv
__ZN14SipTransaction21handleConnectionErrorEv
__ZThn64_NK14SipTransaction8userNameEv
__ZThn64_N14SipTransaction21handleConnectionErrorEv
__ZThn232_N14SipTransaction11handleTimerEP17SipTimerContainerRKNSt3__112basic_stringIcNS2_11char_traitsIcEENS2_9allocatorIcEEEE
__ZN26SipServerInviteTransactionD1Ev
__ZN26SipServerInviteTransactionD0Ev
__ZThn64_N26SipServerInviteTransactionD1Ev
__ZThn64_N26SipServerInviteTransactionD0Ev
__ZThn80_N26SipServerInviteTransactionD1Ev
__ZThn80_N26SipServerInviteTransactionD0Ev
__ZThn152_N26SipServerInviteTransactionD1Ev
__ZThn152_N26SipServerInviteTransactionD0Ev
__ZThn232_N26SipServerInviteTransactionD1Ev
__ZThn232_N26SipServerInviteTransactionD0Ev
__ZN29SipServerNonInviteTransactionD1Ev
__ZN29SipServerNonInviteTransactionD0Ev
__ZThn64_N29SipServerNonInviteTransactionD1Ev
__ZThn64_N29SipServerNonInviteTransactionD0Ev
__ZThn80_N29SipServerNonInviteTransactionD1Ev
__ZThn80_N29SipServerNonInviteTransactionD0Ev
__ZThn152_N29SipServerNonInviteTransactionD1Ev
__ZThn152_N29SipServerNonInviteTransactionD0Ev
__ZThn232_N29SipServerNonInviteTransactionD1Ev
__ZThn232_N29SipServerNonInviteTransactionD0Ev
__ZN32SipAutoRespondingTransactionUserC2EjRKNSt3__112basic_stringIcNS0_11char_traitsIcEENS0_9allocatorIcEEEEb
__ZN32SipAutoRespondingTransactionUserD1Ev
__ZN32SipAutoRespondingTransactionUserD0Ev
__ZN32SipAutoRespondingTransactionUser13handleRequestERK10SipRequestP20SipServerTransaction
__ZN18SipTransactionUser14handleResponseERK11SipResponseP20SipClientTransaction
__ZN32SipAutoRespondingTransactionUser22handleTransactionErrorERK9ImsResultP14SipTransaction
__ZN18SipTransactionUser20transactionCompletedEP14SipTransaction
__ZN32SipAutoRespondingTransactionUser21transactionTerminatedEP14SipTransaction
__ZN32SipAutoRespondingTransactionUserC2ER9ImsResultb
__ZN23SipTypedTerminationLockI11SipLockableEC2EPS0_RK14LoggableString
__ZN22SipTerminationLockBaseC2ERK14LoggableString
__ZN23SipTypedTerminationLockI11SipLockableED0Ev
__ZN22SipTerminationLockBaseD1Ev
__ZN22SipTerminationLockBaseD0Ev
__ZN23SipTypedTerminationLockI11SipLockableED2Ev
__ZNSt3__112__hash_tableINS_17__hash_value_typeIjP19SipTransactionStateEENS_22__unordered_map_hasherIjS4_NS_4hashIjEENS_8equal_toIjEELb1EEENS_21__unordered_map_equalIjS4_S9_S7_Lb1EEENS_9allocatorIS4_EEE4findIjEENS_15__hash_iteratorIPNS_11__hash_nodeIS4_PvEEEERKT_
__ZNSt3__112__hash_tableINS_17__hash_value_typeIjP19SipTransactionStateEENS_22__unordered_map_hasherIjS4_NS_4hashIjEENS_8equal_toIjEELb1EEENS_21__unordered_map_equalIjS4_S9_S7_Lb1EEENS_9allocatorIS4_EEE25__emplace_unique_key_argsIjJRKNS_21piecewise_construct_tENS_5tupleIJOjEEENSK_IJEEEEEENS_4pairINS_15__hash_iteratorIPNS_11__hash_nodeIS4_PvEEEEbEERKT_DpOT0_
__ZNSt3__112__hash_tableINS_17__hash_value_typeIjP19SipTransactionStateEENS_22__unordered_map_hasherIjS4_NS_4hashIjEENS_8equal_toIjEELb1EEENS_21__unordered_map_equalIjS4_S9_S7_Lb1EEENS_9allocatorIS4_EEE8__rehashILb1EEEvm
__ZNSt3__112__hash_tableINS_17__hash_value_typeIjP19SipTransactionStateEENS_22__unordered_map_hasherIjS4_NS_4hashIjEENS_8equal_toIjEELb1EEENS_21__unordered_map_equalIjS4_S9_S7_Lb1EEENS_9allocatorIS4_EEE11__do_rehashILb1EEEvm
__ZN17BambiAirplaneMode3setEb
__ZNK26SipProxyAuthenticateHeader25createAuthorizationHeaderEv
__ZN26SipProxyAuthenticateHeaderD1Ev
__ZN26SipProxyAuthenticateHeaderD0Ev
__ZNK26SipProxyAuthenticateHeader5cloneEv
__ZNK13SipAuthHeader16allowsDuplicatesEv
__ZNK26SipProxyAuthenticateHeader31matchingAuthorizationHeaderNameEv
__ZN15SipBackoffTimer5resetEv
__ZN21SipSimpleBackoffTimer13scheduleRetryEv
__ZN19Rfc5626BackoffTimer13scheduleRetryEv
__ZN15SipBackoffTimerD1Ev
__ZN15SipBackoffTimerD0Ev
__ZN21SipSimpleBackoffTimerD1Ev
__ZN21SipSimpleBackoffTimerD0Ev
__ZN19Rfc5626BackoffTimerD1Ev
__ZN19Rfc5626BackoffTimerD0Ev
__ZN25BambiEmergencyCallHandlerC2EP8SipStack
__ZN25BambiEmergencyCallHandler15resetConditionsEv
__ZN23SipTypedTerminationLockI19ImsLocationSelectorED1Ev
__ZN3ims12LocationInfoD1Ev
__ZN25BambiEmergencyCallOptionsD1Ev
__ZN25BambiEmergencyCallHandlerD2Ev
__ZN25BambiEmergencyCallHandlerD1Ev
__ZThn8_N25BambiEmergencyCallHandlerD1Ev
__ZThn16_N25BambiEmergencyCallHandlerD1Ev
__ZThn24_N25BambiEmergencyCallHandlerD1Ev
__ZThn32_N25BambiEmergencyCallHandlerD1Ev
__ZThn40_N25BambiEmergencyCallHandlerD1Ev
__ZThn120_N25BambiEmergencyCallHandlerD1Ev
__ZN25BambiEmergencyCallHandlerD0Ev
__ZThn8_N25BambiEmergencyCallHandlerD0Ev
__ZThn16_N25BambiEmergencyCallHandlerD0Ev
__ZThn24_N25BambiEmergencyCallHandlerD0Ev
__ZThn32_N25BambiEmergencyCallHandlerD0Ev
__ZThn40_N25BambiEmergencyCallHandlerD0Ev
__ZThn120_N25BambiEmergencyCallHandlerD0Ev
__ZN25BambiEmergencyCallHandler26cancelPendingEmergencyCallEN3ims16DisconnectReason10ReasonCodeE
__ZN25BambiEmergencyCallHandler24handleRegistrationActiveERKNSt3__112basic_stringIcNS0_11char_traitsIcEENS0_9allocatorIcEEEERK33SipRegistrationActiveNotification
__ZN25BambiEmergencyCallHandler15checkConditionsEv
__ZN25BambiEmergencyCallHandler28handleRegistrationTerminatedERKNSt3__112basic_stringIcNS0_11char_traitsIcEENS0_9allocatorIcEEEERK37SipRegistrationTerminatedNotification
__ZN25BambiEmergencyCallHandler18exitEmergencyStateEv
__ZN25BambiEmergencyCallHandler28handleRegistrationModeChangeERKNSt3__112basic_stringIcNS0_11char_traitsIcEENS0_9allocatorIcEEEERK19SipRegistrationMode
__ZN25BambiEmergencyCallHandler23handleRegistrationErrorERKNSt3__112basic_stringIcNS0_11char_traitsIcEENS0_9allocatorIcEEEERK32SipRegistrationErrorNotification
__ZNK25BambiEmergencyCallHandler6configEv
__ZN25BambiEmergencyCallHandler35initializeTransportForAnonymousCallEv
__ZN25BambiEmergencyCallHandler17stackInitCompleteEP8SipStackRK9ImsResult
____ZN25BambiEmergencyCallHandler17stackInitCompleteEP8SipStackRK9ImsResult_block_invoke
__ZN25BambiEmergencyCallHandler22handleStackInitializedEv
__ZN25BambiEmergencyCallHandler31deferCancelPendingEmergencyCallEN3ims16DisconnectReason10ReasonCodeE
___copy_helper_block_e8_40c14_ZTS9ImsResult
___destroy_helper_block_e8_40c14_ZTS9ImsResult
__ZThn24_N25BambiEmergencyCallHandler17stackInitCompleteEP8SipStackRK9ImsResult
__ZN25BambiEmergencyCallHandler14currentProxiesEv
__ZN25BambiEmergencyCallHandler12tryNextProxyEv
__ZNSt3__14listI6SipUriNS_9allocatorIS1_EEE9push_backERKS1_
__ZN25BambiEmergencyCallHandler17redialAnonymouslyEv
__ZN25BambiEmergencyCallHandler11prepareCallEP9BambiCall
__ZN25BambiEmergencyCallHandler17dialAnonymousCallEv
__ZN15SipParameterMapD1Ev
__ZN25BambiEmergencyCallHandler27transportInitializedToProxyERK6SipUriRK9ImsResult
__ZThn8_N25BambiEmergencyCallHandler27transportInitializedToProxyERK6SipUriRK9ImsResult
__ZN25BambiEmergencyCallHandler13clearLocationEv
__ZN25BambiEmergencyCallHandler14createLocationEP8SipStackP27ImsLocationSelectorDelegate
__ZN25BambiEmergencyCallHandler24preferredLocationTimeoutEP8SipStack
__ZN23SipTypedTerminationLockI19ImsLocationSelectorE3setEPS0_RK14LoggableString
__ZN25BambiEmergencyCallHandler20handleLocationUpdateEN3ims12LocationInfoE
__ZN9BambiCall24setEmergencyLocationInfoEN3ims12LocationInfoE
__ZThn32_N25BambiEmergencyCallHandler20handleLocationUpdateEN3ims12LocationInfoE
____ZN25BambiEmergencyCallHandler31deferCancelPendingEmergencyCallEN3ims16DisconnectReason10ReasonCodeE_block_invoke
__ZN25BambiEmergencyCallHandler26endEmergencyCallWithReasonEN3ims16DisconnectReason10ReasonCodeE
__ZN25BambiEmergencyCallHandler26startEmergencyCallBackModeEv
__ZN31BambiCallSessionTerminatedEventD1Ev
__ZN25BambiEmergencyCallHandler15handleCallEventEP14BambiCallEvent
__ZN25BambiEmergencyCallHandler21handleCallInvalidatedEP9BambiCall
__ZN25BambiEmergencyCallHandler11handleTimerEP17SipTimerContainerRKNSt3__112basic_stringIcNS2_11char_traitsIcEENS2_9allocatorIcEEEE
__ZThn16_N25BambiEmergencyCallHandler11handleTimerEP17SipTimerContainerRKNSt3__112basic_stringIcNS2_11char_traitsIcEENS2_9allocatorIcEEEE
__ZN25BambiEmergencyCallHandler23deferExitEmergencyStateEv
____ZN25BambiEmergencyCallHandler23deferExitEmergencyStateEv_block_invoke
__ZN25BambiEmergencyCallHandler11checkTimersEv
__ZN25BambiEmergencyCallHandler17handleInfoRequestERK10SipRequest
__ZThn128_N25BambiEmergencyCallHandler17handleInfoRequestERK10SipRequest
__ZN25BambiEmergencyCallHandler25handleRegistrationRequestERKNSt3__112basic_stringIcNS0_11char_traitsIcEENS0_9allocatorIcEEEERK22SipRegistrationMetrics
__ZN25BambiEmergencyCallHandler30handleRegistrationStateChangedERKNSt3__112basic_stringIcNS0_11char_traitsIcEENS0_9allocatorIcEEEERKN3ims17RegistrationStateE
__ZN25BambiEmergencyCallHandler19stackDeinitCompleteEP8SipStack
__ZNK25BambiEmergencyCallHandler12loggableNameEv
__ZNK25BambiEmergencyCallHandler9logPrefixER12ImsOutStream
__ZThn24_N25BambiEmergencyCallHandler19stackDeinitCompleteEP8SipStack
__ZThn40_NK25BambiEmergencyCallHandler9logPrefixER12ImsOutStream
__ZThn120_NK25BambiEmergencyCallHandler12loggableNameEv
__ZN24SipTransportInitDelegateD1Ev
__ZN24SipTransportInitDelegateD0Ev
__ZN16SipStackDelegateD1Ev
__ZN16SipStackDelegateD0Ev
__ZN27ImsLocationSelectorDelegateD1Ev
__ZN27ImsLocationSelectorDelegateD0Ev
__ZN25BambiEmergencyCallOptionsC2Ev
__ZN14SipStackConfigC1Ev
__ZN18SipUserAgentConfigC2Ev
__ZNSt3__16__treeINS_12__value_typeINS_12basic_stringIcNS_11char_traitsIcEENS_9allocatorIcEEEENS_6vectorIN20SipHeaderTemplateMap14HeaderTemplateENS5_ISA_EEEEEENS_19__map_value_compareIS7_SD_NS_4lessIS7_EELb1EEENS5_ISD_EEE7destroyEPNS_11__tree_nodeISD_PvEE
__ZNSt3__116allocator_traitsINS_9allocatorINS_11__tree_nodeINS_12__value_typeINS_12basic_stringIcNS_11char_traitsIcEENS1_IcEEEENS_6vectorIN20SipHeaderTemplateMap14HeaderTemplateENS1_ISB_EEEEEEPvEEEEE7destroyB6v15006INS_4pairIKS8_SD_EEvvEEvRSH_PT_
__ZNSt3__16vectorIN20SipHeaderTemplateMap14HeaderTemplateENS_9allocatorIS2_EEED2B6v15006Ev
__ZNSt3__16vectorIN20SipHeaderTemplateMap14HeaderTemplateENS_9allocatorIS2_EEE22__base_destruct_at_endB6v15006EPS2_
__ZNSt3__16__treeINS_12__value_typeINS_12basic_stringIcNS_11char_traitsIcEENS_9allocatorIcEEEEjEENS_19__map_value_compareIS7_S8_NS_4lessIS7_EELb1EEENS5_IS8_EEE7destroyEPNS_11__tree_nodeIS8_PvEE
__ZNSt3__16vectorI26SipSecurityAgreementConfigNS_9allocatorIS1_EEED2B6v15006Ev
__ZN18SipUserAgentConfigD2Ev
__ZN14SipStackConfigD2Ev
__ZNSt3__16__treeINS_12__value_typeINS_12basic_stringIcNS_11char_traitsIcEENS_9allocatorIcEEEES7_EENS_19__map_value_compareIS7_S8_NS_4lessIS7_EELb1EEENS5_IS8_EEE7destroyEPNS_11__tree_nodeIS8_PvEE
__ZNSt3__116allocator_traitsINS_9allocatorINS_11__tree_nodeINS_12__value_typeINS_12basic_stringIcNS_11char_traitsIcEENS1_IcEEEES8_EEPvEEEEE7destroyB6v15006INS_4pairIKS8_S8_EEvvEEvRSC_PT_
__ZNSt3__16__treeINS_12__value_typeIjNS_4listIP26BambiCallTerminationReasonNS_9allocatorIS4_EEEEEENS_19__map_value_compareIjS8_NS_4lessIjEELb1EEENS5_IS8_EEE7destroyEPNS_11__tree_nodeIS8_PvEE
__ZNSt3__110__list_impIP26BambiCallTerminationReasonNS_9allocatorIS2_EEE5clearEv
__ZNSt3__110__list_impI6SipUriNS_9allocatorIS1_EEE5clearEv
__ZN14SipStackConfigaSERKS_
__ZN18SipUserAgentConfigaSERKS_
__ZNSt3__16__treeINS_12basic_stringIcNS_11char_traitsIcEENS_9allocatorIcEEEENS_4lessIS6_EENS4_IS6_EEE14__assign_multiINS_21__tree_const_iteratorIS6_PNS_11__tree_nodeIS6_PvEElEEEEvT_SI_
__ZNSt3__16__treeINS_12basic_stringIcNS_11char_traitsIcEENS_9allocatorIcEEEENS_4lessIS6_EENS4_IS6_EEE16__find_leaf_highERPNS_15__tree_end_nodeIPNS_16__tree_node_baseIPvEEEERKS6_
__ZNSt3__16__treeINS_12basic_stringIcNS_11char_traitsIcEENS_9allocatorIcEEEENS_4lessIS6_EENS4_IS6_EEE16__insert_node_atEPNS_15__tree_end_nodeIPNS_16__tree_node_baseIPvEEEERSF_SF_
__ZNSt3__16__treeINS_12basic_stringIcNS_11char_traitsIcEENS_9allocatorIcEEEENS_4lessIS6_EENS4_IS6_EEE18_DetachedTreeCache13__detach_nextEPNS_11__tree_nodeIS6_PvEE
__ZNSt3__16__treeINS_12basic_stringIcNS_11char_traitsIcEENS_9allocatorIcEEEENS_4lessIS6_EENS4_IS6_EEE18_DetachedTreeCacheD2B6v15006Ev
__ZNSt3__16__treeINS_12basic_stringIcNS_11char_traitsIcEENS_9allocatorIcEEEENS_4lessIS6_EENS4_IS6_EEE15__emplace_multiIJRKS6_EEENS_15__tree_iteratorIS6_PNS_11__tree_nodeIS6_PvEElEEDpOT_
__ZNSt3__16__treeINS_12basic_stringIcNS_11char_traitsIcEENS_9allocatorIcEEEENS_4lessIS6_EENS4_IS6_EEE16__construct_nodeIJRKS6_EEENS_10unique_ptrINS_11__tree_nodeIS6_PvEENS_22__tree_node_destructorINS4_ISH_EEEEEEDpOT_
__ZNSt3__122__tree_node_destructorINS_9allocatorINS_11__tree_nodeINS_12basic_stringIcNS_11char_traitsIcEENS1_IcEEEEPvEEEEEclB6v15006EPS9_
__ZNSt3__16__treeINS_12__value_typeINS_12basic_stringIcNS_11char_traitsIcEENS_9allocatorIcEEEENS_6vectorIN20SipHeaderTemplateMap14HeaderTemplateENS5_ISA_EEEEEENS_19__map_value_compareIS7_SD_NS_4lessIS7_EELb1EEENS5_ISD_EEE14__assign_multiINS_21__tree_const_iteratorISD_PNS_11__tree_nodeISD_PvEElEEEEvT_SR_
__ZNSt3__14pairIRNS_12basic_stringIcNS_11char_traitsIcEENS_9allocatorIcEEEERNS_6vectorIN20SipHeaderTemplateMap14HeaderTemplateENS4_ISA_EEEEEaSB6v15006IRKNS0_IKS6_SC_EELPv0EEERSE_OT_
__ZNSt3__16vectorIN20SipHeaderTemplateMap14HeaderTemplateENS_9allocatorIS2_EEE6assignIPS2_EENS_9enable_ifIXaasr27__is_cpp17_forward_iteratorIT_EE5valuesr16is_constructibleIS2_NS_15iterator_traitsIS9_E9referenceEEE5valueEvE4typeES9_S9_
__ZNSt3__16vectorIN20SipHeaderTemplateMap14HeaderTemplateENS_9allocatorIS2_EEE13__vdeallocateEv
__ZNSt3__16vectorIN20SipHeaderTemplateMap14HeaderTemplateENS_9allocatorIS2_EEE11__vallocateB6v15006Em
__ZNSt3__130__uninitialized_allocator_copyB6v15006INS_9allocatorIN20SipHeaderTemplateMap14HeaderTemplateEEEPS3_S5_S5_EET2_RT_T0_T1_S6_
__ZNKSt3__129_AllocatorDestroyRangeReverseINS_9allocatorIN20SipHeaderTemplateMap14HeaderTemplateEEEPS3_EclB6v15006Ev
__ZNKSt3__16vectorIN20SipHeaderTemplateMap14HeaderTemplateENS_9allocatorIS2_EEE20__throw_length_errorB6v15006Ev
__ZNSt3__119__allocate_at_leastB6v15006INS_9allocatorIN20SipHeaderTemplateMap14HeaderTemplateEEEEENS_19__allocation_resultINS_16allocator_traitsIT_E7pointerEEERS7_m
__ZNSt3__16__treeINS_12__value_typeINS_12basic_stringIcNS_11char_traitsIcEENS_9allocatorIcEEEENS_6vectorIN20SipHeaderTemplateMap14HeaderTemplateENS5_ISA_EEEEEENS_19__map_value_compareIS7_SD_NS_4lessIS7_EELb1EEENS5_ISD_EEE16__find_leaf_highERPNS_15__tree_end_nodeIPNS_16__tree_node_baseIPvEEEERKS7_
__ZNSt3__16__treeINS_12__value_typeINS_12basic_stringIcNS_11char_traitsIcEENS_9allocatorIcEEEENS_6vectorIN20SipHeaderTemplateMap14HeaderTemplateENS5_ISA_EEEEEENS_19__map_value_compareIS7_SD_NS_4lessIS7_EELb1EEENS5_ISD_EEE16__insert_node_atEPNS_15__tree_end_nodeIPNS_16__tree_node_baseIPvEEEERSO_SO_
__ZNSt3__16__treeINS_12__value_typeINS_12basic_stringIcNS_11char_traitsIcEENS_9allocatorIcEEEENS_6vectorIN20SipHeaderTemplateMap14HeaderTemplateENS5_ISA_EEEEEENS_19__map_value_compareIS7_SD_NS_4lessIS7_EELb1EEENS5_ISD_EEE18_DetachedTreeCache13__detach_nextEPNS_11__tree_nodeISD_PvEE
__ZNSt3__16__treeINS_12__value_typeINS_12basic_stringIcNS_11char_traitsIcEENS_9allocatorIcEEEENS_6vectorIN20SipHeaderTemplateMap14HeaderTemplateENS5_ISA_EEEEEENS_19__map_value_compareIS7_SD_NS_4lessIS7_EELb1EEENS5_ISD_EEE18_DetachedTreeCacheD2B6v15006Ev
__ZNSt3__16__treeINS_12__value_typeINS_12basic_stringIcNS_11char_traitsIcEENS_9allocatorIcEEEENS_6vectorIN20SipHeaderTemplateMap14HeaderTemplateENS5_ISA_EEEEEENS_19__map_value_compareIS7_SD_NS_4lessIS7_EELb1EEENS5_ISD_EEE15__emplace_multiIJRKNS_4pairIKS7_SC_EEEEENS_15__tree_iteratorISD_PNS_11__tree_nodeISD_PvEElEEDpOT_
__ZNSt3__16__treeINS_12__value_typeINS_12basic_stringIcNS_11char_traitsIcEENS_9allocatorIcEEEENS_6vectorIN20SipHeaderTemplateMap14HeaderTemplateENS5_ISA_EEEEEENS_19__map_value_compareIS7_SD_NS_4lessIS7_EELb1EEENS5_ISD_EEE16__construct_nodeIJRKNS_4pairIKS7_SC_EEEEENS_10unique_ptrINS_11__tree_nodeISD_PvEENS_22__tree_node_destructorINS5_IST_EEEEEEDpOT_
__ZNSt3__14pairIKNS_12basic_stringIcNS_11char_traitsIcEENS_9allocatorIcEEEENS_6vectorIN20SipHeaderTemplateMap14HeaderTemplateENS4_ISA_EEEEEC2ERKSD_
__ZNSt3__16vectorIN20SipHeaderTemplateMap14HeaderTemplateENS_9allocatorIS2_EEEC2ERKS5_
__ZNSt3__122__tree_node_destructorINS_9allocatorINS_11__tree_nodeINS_12__value_typeINS_12basic_stringIcNS_11char_traitsIcEENS1_IcEEEENS_6vectorIN20SipHeaderTemplateMap14HeaderTemplateENS1_ISB_EEEEEEPvEEEEEclB6v15006EPSG_
__ZNSt3__16vectorI26SipSecurityAgreementConfigNS_9allocatorIS1_EEE6assignIPS1_EENS_9enable_ifIXaasr27__is_cpp17_forward_iteratorIT_EE5valuesr16is_constructibleIS1_NS_15iterator_traitsIS8_E9referenceEEE5valueEvE4typeES8_S8_
__ZNSt3__16vectorI26SipSecurityAgreementConfigNS_9allocatorIS1_EEE13__vdeallocateEv
__ZNSt3__16vectorI26SipSecurityAgreementConfigNS_9allocatorIS1_EEE11__vallocateB6v15006Em
__ZNSt3__130__uninitialized_allocator_copyB6v15006INS_9allocatorI26SipSecurityAgreementConfigEEPS2_S4_S4_EET2_RT_T0_T1_S5_
__ZNSt3__19allocatorI26SipSecurityAgreementConfigE9constructB6v15006IS1_JRS1_EEEvPT_DpOT0_
__ZNKSt3__16vectorI26SipSecurityAgreementConfigNS_9allocatorIS1_EEE20__throw_length_errorB6v15006Ev
__ZNSt3__119__allocate_at_leastB6v15006INS_9allocatorI26SipSecurityAgreementConfigEEEENS_19__allocation_resultINS_16allocator_traitsIT_E7pointerEEERS6_m
__ZNSt3__16__treeINS_12__value_typeINS_12basic_stringIcNS_11char_traitsIcEENS_9allocatorIcEEEES7_EENS_19__map_value_compareIS7_S8_NS_4lessIS7_EELb1EEENS5_IS8_EEE14__assign_multiINS_21__tree_const_iteratorIS8_PNS_11__tree_nodeIS8_PvEElEEEEvT_SM_
__ZNSt3__16__treeINS_12__value_typeINS_12basic_stringIcNS_11char_traitsIcEENS_9allocatorIcEEEES7_EENS_19__map_value_compareIS7_S8_NS_4lessIS7_EELb1EEENS5_IS8_EEE16__find_leaf_highERPNS_15__tree_end_nodeIPNS_16__tree_node_baseIPvEEEERKS7_
__ZNSt3__16__treeINS_12__value_typeINS_12basic_stringIcNS_11char_traitsIcEENS_9allocatorIcEEEES7_EENS_19__map_value_compareIS7_S8_NS_4lessIS7_EELb1EEENS5_IS8_EEE16__insert_node_atEPNS_15__tree_end_nodeIPNS_16__tree_node_baseIPvEEEERSJ_SJ_
__ZNSt3__16__treeINS_12__value_typeINS_12basic_stringIcNS_11char_traitsIcEENS_9allocatorIcEEEES7_EENS_19__map_value_compareIS7_S8_NS_4lessIS7_EELb1EEENS5_IS8_EEE18_DetachedTreeCache13__detach_nextEPNS_11__tree_nodeIS8_PvEE
__ZNSt3__16__treeINS_12__value_typeINS_12basic_stringIcNS_11char_traitsIcEENS_9allocatorIcEEEES7_EENS_19__map_value_compareIS7_S8_NS_4lessIS7_EELb1EEENS5_IS8_EEE18_DetachedTreeCacheD2B6v15006Ev
__ZNSt3__16__treeINS_12__value_typeINS_12basic_stringIcNS_11char_traitsIcEENS_9allocatorIcEEEES7_EENS_19__map_value_compareIS7_S8_NS_4lessIS7_EELb1EEENS5_IS8_EEE15__emplace_multiIJRKNS_4pairIKS7_S7_EEEEENS_15__tree_iteratorIS8_PNS_11__tree_nodeIS8_PvEElEEDpOT_
__ZNSt3__16__treeINS_12__value_typeINS_12basic_stringIcNS_11char_traitsIcEENS_9allocatorIcEEEES7_EENS_19__map_value_compareIS7_S8_NS_4lessIS7_EELb1EEENS5_IS8_EEE16__construct_nodeIJRKNS_4pairIKS7_S7_EEEEENS_10unique_ptrINS_11__tree_nodeIS8_PvEENS_22__tree_node_destructorINS5_ISO_EEEEEEDpOT_
__ZNSt3__14pairIKNS_12basic_stringIcNS_11char_traitsIcEENS_9allocatorIcEEEES6_EC2ERKS8_
__ZNSt3__122__tree_node_destructorINS_9allocatorINS_11__tree_nodeINS_12__value_typeINS_12basic_stringIcNS_11char_traitsIcEENS1_IcEEEES8_EEPvEEEEEclB6v15006EPSB_
__ZN15SipParameterMapD0Ev
__ZNK15SipParameterMap3logER12ImsOutStream
__ZNK15SipParameterMap12loggableNameEv
__ZN3ims12LocationInfoC2ERKS0_
__ZNKSt3__112__hash_tableINS_17__hash_value_typeINS_12basic_stringIcNS_11char_traitsIcEENS_9allocatorIcEEEEP12SipTimerInfoEENS_22__unordered_map_hasherIS7_SA_NS_4hashIS7_EENS_8equal_toIS7_EELb1EEENS_21__unordered_map_equalIS7_SA_SF_SD_Lb1EEENS5_ISA_EEE4findIS7_EENS_21__hash_const_iteratorIPNS_11__hash_nodeISA_PvEEEERKT_
__ZNKSt3__14hashINS_12basic_stringIcNS_11char_traitsIcEENS_9allocatorIcEEEEEclERKS6_
__ZNSt3__121__murmur2_or_cityhashImLm64EEclEPKvm
__ZNSt3__121__murmur2_or_cityhashImLm64EE18__hash_len_0_to_16EPKcm
__ZNSt3__121__murmur2_or_cityhashImLm64EE19__hash_len_17_to_32EPKcm
__ZNSt3__121__murmur2_or_cityhashImLm64EE19__hash_len_33_to_64EPKcm
__ZNKSt3__18equal_toINS_12basic_stringIcNS_11char_traitsIcEENS_9allocatorIcEEEEEclB6v15006ERKS6_S9_
__ZN31BambiCallSessionTerminatedEventD0Ev
__ZNK14BambiCallEvent12loggableNameEv
__ZNK31BambiCallSessionTerminatedEvent5cloneEv
__ZN23SipTypedTerminationLockI19ImsLocationSelectorED0Ev
__ZN23SipTypedTerminationLockI19ImsLocationSelectorED2Ev
__GLOBAL__sub_I_BambiEmergencyCallHandler.cpp
__ZN23XcapDocumentCommWaitingC1Ev
__ZN23XcapDocumentCommWaiting11createChildERKNSt3__112basic_stringIcNS0_11char_traitsIcEENS0_9allocatorIcEEEE
__ZN23XcapDocumentCommWaiting10parseChildERKNSt3__112basic_stringIcNS0_11char_traitsIcEENS0_9allocatorIcEEEERKN5bambi13XmlParserNodeE
__ZNK23XcapDocumentCommWaiting8asStringEv
__ZN23XcapDocumentCommWaitingD1Ev
__ZN23XcapDocumentCommWaitingD0Ev
__ZNK23XcapDocumentCommWaiting5cloneEv
__ZThn8_N23XcapDocumentCommWaitingD1Ev
__ZThn8_N23XcapDocumentCommWaitingD0Ev
__ZNSt3__16vectorIN5bambi9XmlTreeNsENS_9allocatorIS2_EEEC2ERKS5_
__ZNSt3__16vectorIN5bambi9XmlTreeNsENS_9allocatorIS2_EEE11__vallocateB6v15006Em
__ZNKSt3__16vectorIN5bambi9XmlTreeNsENS_9allocatorIS2_EEE20__throw_length_errorB6v15006Ev
__ZNSt3__119__allocate_at_leastB6v15006INS_9allocatorIN5bambi9XmlTreeNsEEEEENS_19__allocation_resultINS_16allocator_traitsIT_E7pointerEEERS7_m
__ZNSt3__130__uninitialized_allocator_copyB6v15006INS_9allocatorIN5bambi9XmlTreeNsEEEPS3_S5_S5_EET2_RT_T0_T1_S6_
__ZNSt3__19allocatorIN5bambi9XmlTreeNsEE9constructB6v15006IS2_JRS2_EEEvPT_DpOT0_
__ZNSt3__19allocatorIN5bambi9XmlTreeNsEE7destroyB6v15006EPS2_
__ZNSt3__16vectorIN5bambi9XmlTreeNsENS_9allocatorIS2_EEED2B6v15006Ev
__GLOBAL__sub_I_XcapDocumentCommWaiting.cpp
__ZN8ImsPrefs25getAcceptContactParamsKeyEv
__ZN8ImsPrefs29getAcceptedSmsContentTypesKeyEv
__ZN8ImsPrefs23getAccessBarringTypeKeyEv
__ZNSt3__16vectorINS_12basic_stringIcNS_11char_traitsIcEENS_9allocatorIcEEEENS4_IS6_EEEC1B6v15006ESt16initializer_listIS6_E
__ZN8ImsPrefs32getAccessNetworkRefreshMethodKeyEv
__ZN8ImsPrefs43getAccessNetworkRefreshDelayMillisecondsKeyEv
__ZN8ImsPrefs37getAccessNetworkRefreshInHeldCallsKeyEv
__ZN8ImsPrefs44getAddAccessNetworkInfoToInsecureMessagesKeyEv
__ZN8ImsPrefs39getAddConferenceParticipantsToInviteKeyEv
__ZN8ImsPrefs33getAddContentDispositionInPIDFKeyEv
__ZN8ImsPrefs29getAdditionalContactParamsKeyEv
__ZN8ImsPrefs28getAddQosOptionsToSocketsKeyEv
__ZN8ImsPrefs23getAdditionalHeadersKeyEv
__ZN8ImsPrefs27getAdditionalFeatureTagsKeyEv
__ZN8ImsPrefs35getAddGeolocationSupportedHeaderKeyEv
__ZN8ImsPrefs35getAddRoutableLocalAddressHeaderKeyEv
__ZN8ImsPrefs27getAddSipInstanceForWifiKeyEv
__ZN8ImsPrefs34getAllowAnonymousEmergencyCallsKeyEv
__ZN8ImsPrefs33getAllowEmergencyRetryForIPSecKeyEv
__ZN8ImsPrefs46getAllowAnonymousEmergencyCallsWhileRoamingKeyEv
__ZN8ImsPrefs23getAllowDisabledModeKeyEv
__ZN8ImsPrefs35getAllowEarlyRegistrationRefreshKeyEv
__ZN8ImsPrefs33getAllowInvalidTimestampInPCNIKeyEv
__ZN8ImsPrefs29getAllowPCNIInAirplaneModeKeyEv
__ZN8ImsPrefs40getAllowLimitedAccessModeRegistrationKeyEv
__ZN8ImsPrefs36getAllowMultipleAddressesPerProxyKeyEv
__ZN8ImsPrefs40getAllowRemoteHoldForUnconfirmedCallsKeyEv
__ZN8ImsPrefs43getAllowIncomingCallsDuringEmergencyCallKeyEv
__ZN8ImsPrefs43getAllowOutgoingCallsDuringEmergencyCallKeyEv
__ZN8ImsPrefs37getAllowPhoneContextInEmergencyUriKeyEv
__ZN8ImsPrefs26getAllowTelUriInReferToKeyEv
__ZN8ImsPrefs42getAllowResponsesOverDifferentTransportKeyEv
__ZN8ImsPrefs36getAllowRegistrationCanceledStateKeyEv
__ZN8ImsPrefs45getAllowSimultaneousCallsWhileUnregisteredKeyEv
__ZN8ImsPrefs38getAddEmergencyContactParamInInviteKeyEv
__ZN8ImsPrefs28getAlwaysAddPrivacyHeaderKeyEv
__ZN8ImsPrefs26getAlwaysAddSipInstanceKeyEv
__ZN8ImsPrefs44getAlwaysAddSipInstanceToSubscribeRequestKeyEv
__ZN8ImsPrefs42getRedialOverLteIfEpsFallbackCallFailedKeyEv
__ZN8ImsPrefs26getAlwaysAddTextServiceKeyEv
__ZN8ImsPrefs27getCompressIPv6AddressesKeyEv
__ZN8ImsPrefs29getAlwaysEmergencyRegisterKeyEv
__ZN8ImsPrefs20getAlwaysPrack18xKeyEv
__ZN8ImsPrefs26getAlwaysResetProxyListKeyEv
__ZN8ImsPrefs31getAlwaysSendSessionProgressKeyEv
__ZN8ImsPrefs30getAlwaysSendTryingResponseKeyEv
__ZN8ImsPrefs27getAlwaysSetPhoneContextKeyEv
__ZN8ImsPrefs43getAlwaysAddGeolocationForEmergencyCallsKeyEv
__ZN8ImsPrefs61getAlwaysAddGeolocationToInviteForNormalSetupEmergencyCallKeyEv
__ZN8ImsPrefs61getAlwaysAddGeolocationToUpdateForNormalSetupEmergencyCallKeyEv
__ZN8ImsPrefs36getAlwaysUnsubscribeFromRegEventsKeyEv
__ZN8ImsPrefs37getAuthResponseTimeoutMillisecondsKeyEv
__ZN8ImsPrefs20getBarSmsWithDataKeyEv
__ZN8ImsPrefs20getCallEndReasonsKeyEv
__ZN8ImsPrefs36getCallSetupPingTimerMillisecondsKeyEv
__ZN8ImsPrefs47getClearRegistrationCallIdOnDeinitializationKeyEv
__ZN8ImsPrefs17getContactUserKeyEv
__ZN8ImsPrefs29getContactUserRegisterOnlyKeyEv
__ZN8ImsPrefs41getContinueEmergencyCallOnMediaTimeoutKeyEv
__ZN8ImsPrefs46getEmergencyMediaTimeoutDeferalTimerSecondsKeyEv
__ZN8ImsPrefs37getConvertSessionProgressToRingingKeyEv
__ZN8ImsPrefs32getCountryOfOriginationFormatKeyEv
__ZN8ImsPrefs24getCSFBOnAccessBarredKeyEv
__ZN8ImsPrefs42getCheckContactHeaderOnRegisterResponseKeyEv
__ZN8ImsPrefs31getLocationForShortCodeCallsKeyEv
__ZN8ImsPrefs26getDefaultAuthAlgorithmKeyEv
__ZN8ImsPrefs25getDefaultLocalSipPortKeyEv
__ZN8ImsPrefs26getDefaultRemoteSipPortKeyEv
__ZN8ImsPrefs44getDeferMediaActivationOnSessionConfirmedKeyEv
__ZN8ImsPrefs36getDeferIncomingMessagesUntilWakeKeyEv
__ZN8ImsPrefs37getDeferReRegOnConnectivityDisableKeyEv
__ZN8ImsPrefs28getDeferReRegOnSubDisableKeyEv
__ZN8ImsPrefs30getEnableSignalingReductionKeyEv
__ZN8ImsPrefs43getDeregistrationWaitTimeoutMillisecondsKeyEv
__ZN8ImsPrefs42getDialogEventPackageSessionDescriptionKeyEv
__ZN8ImsPrefs45getDisableAccessNetworkInfoForAckAndCancelKeyEv
__ZN8ImsPrefs39getDisableRegistrationOnNotifyEventsKeyEv
__ZN8ImsPrefs40getDontChangeProxiesDuringActiveCallsKeyEv
__ZN8ImsPrefs42getDontThrottleOnRegistrationErrorCodesKeyEv
__ZN8ImsPrefs48getDontSendPreconditionsIfCallWaitingDisabledKeyEv
__ZN8ImsPrefs28getDropRegistrationOnCSFBKeyEv
__ZN8ImsPrefs29getDropRegistrationOnSRVCCKeyEv
__ZN8ImsPrefs42getDropRegistrationOnAirplaneModeToggleKeyEv
__ZN8ImsPrefs34getDropRegistrationOnErrorCodesKeyEv
__ZN8ImsPrefs35getDropRegistrationOnWaitTimeoutKeyEv
__ZN8ImsPrefs39getDropRegistrationOn305ToAllProxiesKeyEv
__ZN8ImsPrefs27getEarlyMediaNeedsHeaderKeyEv
__ZN8ImsPrefs36getEchoRemotePreconditionStrengthKeyEv
__ZN8ImsPrefs39getEmergencyAnonymousAutomaticRedialKeyEv
__ZN8ImsPrefs44getEmergencyCallBackModeExpirationSecondsKeyEv
__ZN8ImsPrefs38getEmergencyCallSetupTimeoutSecondsKeyEv
__ZN8ImsPrefs41getEmergencySessionSetupTimeoutSecondsKeyEv
__ZN8ImsPrefs42getEmergencyErrorResponsesToTriggerCSFBKeyEv
__ZN8ImsPrefs23getEmergencyImpuRankKeyEv
__ZN8ImsPrefs37getEmergencyLocationLookupRequiredKeyEv
__ZN8ImsPrefs43getEmergencyLocationLookupTimeoutSecondsKeyEv
__ZN8ImsPrefs40getEmergencyLocationUpdateTimeSecondsKeyEv
__ZN8ImsPrefs43getEmergencyLocationUpdateTimeMinSecondsKeyEv
__ZN8ImsPrefs41getEmergencyLocationUpdateTimeSMSFixedKeyEv
__ZN8ImsPrefs38getSupportsCurrentLocationDiscoveryKeyEv
__ZN8ImsPrefs32getEmergencyPreferredIdentityKeyEv
__ZN8ImsPrefs37getEmergencyRegistrationRequestUriKeyEv
__ZN8ImsPrefs41getEmergencyRegistrationTimeoutSecondsKeyEv
__ZN8ImsPrefs41getEmergencyRegistrationRetryResponsesKeyEv
__ZN8ImsPrefs35getEmergencyRingbackTimerSecondsKeyEv
__ZN8ImsPrefs39getEmergencySMSModeExpirationSecondsKeyEv
__ZN8ImsPrefs31getAddLocationToEmergencySMSKeyEv
__ZN8ImsPrefs19getEmergencyURNsKeyEv
__ZN8ImsPrefs25getEnableATCommandModeKeyEv
__ZN8ImsPrefs25getEnableAccessBarringKeyEv
__ZN8ImsPrefs31getEnableCellularNetworkInfoKeyEv
__ZN8ImsPrefs33getEnableEmergencyRegistrationKeyEv
__ZN8ImsPrefs19getEnableForkingKeyEv
__ZN8ImsPrefs33getEnableLastAccessNetworkInfoKeyEv
__ZN8ImsPrefs29getEnableReasonHeaderInByeKeyEv
__ZN8ImsPrefs17getEnableRportKeyEv
__ZN8ImsPrefs22getEnableSenderNameKeyEv
__ZN8ImsPrefs21getEnableSessionIdKeyEv
__ZN8ImsPrefs33getEnableRegistrationSessionIdKeyEv
__ZN8ImsPrefs37getEnableSystemWillNotSleepSupportKeyEv
__ZN8ImsPrefs33getEndCallOnAudioBearerRevokedKeyEv
__ZN8ImsPrefs46getEnforceMaximumEmergencyExpirationSecondsKeyEv
__ZN8ImsPrefs29getEPSFallbackTimerSecondsKeyEv
__ZN8ImsPrefs34getFastEmergencyLocationEnabledKeyEv
__ZN8ImsPrefs41getFastEmergencyLocationTimeoutSecondsKeyEv
__ZN8ImsPrefs20getFatalSmsErrorsKeyEv
__ZN8ImsPrefs26getFatalTransportErrorsKeyEv
__ZN8ImsPrefs24getFeatureTagsEnabledKeyEv
__ZN8ImsPrefs37getForbiddenRegistrationErrorCodesKeyEv
__ZN8ImsPrefs34getForceResetExistingTransportsKeyEv
__ZN8ImsPrefs14getForceTcpKeyEv
__ZN8ImsPrefs14getForceTlsKeyEv
__ZN8ImsPrefs23getForcedFeatureTagsKeyEv
__ZN8ImsPrefs26getFuzzyContactMatchingKeyEv
__ZN8ImsPrefs38getHonorSimAccessClassBeforeBarringKeyEv
__ZN8ImsPrefs24getIPSecSegmentOffsetKeyEv
__ZN8ImsPrefs32getIPSecBringupUseNetworkPathKeyEv
__ZN8ImsPrefs37getIPSecBringupTimeoutMillisecondsKeyEv
__ZN8ImsPrefs31getAlwaysUseDefaultTransportKeyEv
__ZN8ImsPrefs36getDropTrafficOnUnknownTransportsKeyEv
__ZN8ImsPrefs24getIgnoreDuplicateSDPKeyEv
__ZN8ImsPrefs35getIgnoreErrorsInTerminatedForksKeyEv
__ZN8ImsPrefs40getIgnoreNonCompliantSupportedHeadersKeyEv
__ZN8ImsPrefs32getIgnoreSessionRefreshErrorsKeyEv
__ZN8ImsPrefs35getIgnoreFromHeaderForSenderNameKeyEv
__ZN8ImsPrefs32getIgnoreOverridesForWPSCallsKeyEv
__ZN8ImsPrefs26getIgnoreWPSCallsOverNRKeyEv
__ZN8ImsPrefs36getIgnoreNetworkUnreachableErrorsKeyEv
__ZN8ImsPrefs41getIgnoreLimitedServiceInEmergencyModeKeyEv
__ZN8ImsPrefs36getIgnoreReregistrationErrorCodesKeyEv
__ZN8ImsPrefs23getIgnoreWifiHotspotKeyEv
__ZN8ImsPrefs41getIgnoreRegNotificationContactExpiresKeyEv
__ZN8ImsPrefs14getImpuRankKeyEv
__ZN8ImsPrefs28getIncomingCallEndReasonsKeyEv
__ZN8ImsPrefs34getIncomingPhoneNumberPrefixMapKeyEv
__ZN8ImsPrefs53getIncompleteRegistrationThrottlingIntervalSecondsKeyEv
__ZN8ImsPrefs39getInitialRemotePreconditionStrengthKeyEv
__ZN8ImsPrefs39getInviteErrorResponsesToTriggerCSFBKeyEv
__ZN8ImsPrefs29getIR92PreconditionSupportKeyEv
__ZN8ImsPrefs31getKillCallOnHoldResumeErrorKeyEv
__ZN8ImsPrefs28getKillForkOnUpdateErrorsKeyEv
__ZN8ImsPrefs39getKillRegistrationOnHandoverTimeoutKeyEv
__ZN8ImsPrefs20getLegacyImpuRankKeyEv
__ZN8ImsPrefs49getLimitedConnectivityHysteresisTimeoutSecondsKeyEv
__ZN8ImsPrefs51getLimitedConnectivityHysteresisFromRegistrationKeyEv
__ZN8ImsPrefs30getLocalQoSTimeoutMOSecondsKeyEv
__ZN8ImsPrefs30getLocalQoSTimeoutMTSecondsKeyEv
__ZN8ImsPrefs43getMaintainTransportForDurationOfSessionKeyEv
__ZN8ImsPrefs20getMaxAuthRetriesKeyEv
__ZN8ImsPrefs32getMaxFatalRegistrationErrorsKeyEv
__ZN8ImsPrefs24getMaxForbiddenErrorsKeyEv
__ZN8ImsPrefs31getMaxReRegistrationAttemptsKeyEv
__ZN8ImsPrefs34getAddLocationInInviteResponsesKeyEv
__ZN8ImsPrefs31getAddServicesToUssdSessionsKeyEv
__ZN8ImsPrefs37getMaxRegistrationAttemptsPerProxyKeyEv
__ZN8ImsPrefs24getMaxTransportErrorsKeyEv
__ZN8ImsPrefs23getMaxUdpMessageSizeKeyEv
__ZN8ImsPrefs30getMinSessionExpiresSecondsKeyEv
__ZN8ImsPrefs18getMethodInPIDFKeyEv
__ZN8ImsPrefs29getNetworkBasedCallWaitingKeyEv
__ZN8ImsPrefs28getEnableVideoCallWaitingKeyEv
__ZN8ImsPrefs44getNetworkTerminationRetryIntervalSecondsKeyEv
__ZN8ImsPrefs33getNonPrivateEmergencyPrefixesKeyEv
__ZN8ImsPrefs28getNoFallbackVoiceServiceKeyEv
__ZN8ImsPrefs31getNonFatalReInviteResponsesKeyEv
__ZN8ImsPrefs34getNumberOfSilentRedialAttemptsKeyEv
__ZN8ImsPrefs42getOnlyUpdatePreconditionsIfConfPresentKeyEv
__ZN8ImsPrefs24getOutgoingCallPrefixKeyEv
__ZN8ImsPrefs20getOutgoingDomainKeyEv
__ZN8ImsPrefs23getUseOutgoingSipUriKeyEv
__ZN8ImsPrefs28getPdnBringupTimerSecondsKeyEv
__ZN8ImsPrefs26getPdpBackOffTimerforRAKeyEv
__ZN8ImsPrefs27getPerCallQoSIndicationsKeyEv
__ZN8ImsPrefs27getAllow3DPIDFInMessagesKeyEv
__ZN8ImsPrefs22getPIDFGeoPrivShapeKeyEv
__ZN8ImsPrefs20getPIDFConfidenceKeyEv
__ZN8ImsPrefs21getPrackErrorDelayKeyEv
__ZN8ImsPrefs31getPreconditionAllowMTUpdateKeyEv
__ZN8ImsPrefs46getPreconditionUpdateDelayTimerMillisecondsKeyEv
__ZN8ImsPrefs19getPreconditionsKeyEv
__ZN8ImsPrefs26getPreferredAuthQopListKeyEv
__ZN8ImsPrefs29getPreferredSenderIdentityKeyEv
__ZN8ImsPrefs25getPreferredSenderNameKeyEv
__ZN8ImsPrefs24getPrivacyHeaderValueKeyEv
__ZN8ImsPrefs30getPrivateEmergencyPrefixesKeyEv
__ZN8ImsPrefs21getQosOptionsClassKeyEv
__ZN8ImsPrefs41getQueueUnreliableProvisionalResponsesKeyEv
__ZN8ImsPrefs28getReRegisterOnErrorCodesKeyEv
__ZN8ImsPrefs40getReRegisterOnInternalRequestTimeoutKeyEv
__ZN8ImsPrefs34getReRegisterOnCellularHandoverKeyEv
__ZN8ImsPrefs38getRequireRegistrationOnEPSFallbackKeyEv
__ZN8ImsPrefs47getReRegistrationHysteresisTimerMillisecondsKeyEv
__ZN8ImsPrefs33getReSubscribeOnReRegistrationKeyEv
__ZN8ImsPrefs35getRefreshRegistrationDuringECBMKeyEv
__ZN8ImsPrefs28getRegSubscriptionEnabledKeyEv
__ZN8ImsPrefs38getRegSubscriptionExpirationSecondsKeyEv
__ZN8ImsPrefs29getRegisterOnServiceUpdateKeyEv
__ZN8ImsPrefs35getRegistrationExpirationSecondsKeyEv
__ZN8ImsPrefs38getRegisterSmsWhenAccessBarringZeroKeyEv
__ZN8ImsPrefs31getRegisterSmsOnEmergencyPdnKeyEv
__ZN8ImsPrefs24getRegistrationPolicyKeyEv
__ZN8ImsPrefs39getRegistrationRefreshCushionPercentKeyEv
__ZN8ImsPrefs38getRegistrationRetryBaseTimeSecondsKeyEv
__ZN8ImsPrefs37getRegistrationRetryMaxTimeSecondsKeyEv
__ZN8ImsPrefs32getRegistrationRetryIntervalsKeyEv
__ZN8ImsPrefs42getRegistrationThrottlingCushionPercentKeyEv
__ZN8ImsPrefs41getRemoveForkOnTransactionDoesNotExistKeyEv
__ZN8ImsPrefs41getReportSipErrorsDuringReRegistrationKeyEv
__ZN8ImsPrefs44getRequireExplicitPortsForEmergencyRoutesKeyEv
__ZN8ImsPrefs29getRequireQoSBeforeRingingKeyEv
__ZN8ImsPrefs40getRequirePreconditionsWhenSdpPresentKeyEv
__ZN8ImsPrefs39getRequirePreconditionsWhenMandatoryKeyEv
__ZN8ImsPrefs30getVerstatFeatureCapabilityKeyEv
__ZN8ImsPrefs26getEnableBrandedCallingKeyEv
__ZN8ImsPrefs33getSpamHeaderFeatureCapabilityKeyEv
__ZN8ImsPrefs32getResetCallIdOnAuthChallengeKeyEv
__ZN8ImsPrefs38getResetCallIdOnInitialRegistrationKeyEv
__ZN8ImsPrefs38getResetConnectionsWhenClosedByPeerKeyEv
__ZN8ImsPrefs31getResetDisabledModeOnEventsKeyEv
__ZN8ImsPrefs29getResetThrottlingOnEventsKeyEv
__ZN8ImsPrefs37getResetPdnOnMaxRegistrationErrorsKeyEv
__ZN8ImsPrefs27getRetryAfterStatusCodesKeyEv
__ZN8ImsPrefs33getIgnoreRetryAfterStatusCodesKeyEv
__ZN8ImsPrefs31getRestartRingbackTimerOn180KeyEv
__ZN8ImsPrefs26getRingbackTimerSecondsKeyEv
__ZN8ImsPrefs25getRingingTimerSecondsKeyEv
__ZN8ImsPrefs30getSecurityAgreementOptionsKeyEv
__ZN8ImsPrefs27getSecurityAgreementAlgsKeyEv
__ZN8ImsPrefs28getSecurityAgreementEalgsKeyEv
__ZN8ImsPrefs31getSendAcceptContactInInviteKeyEv
__ZN8ImsPrefs28getSendAcceptContactInSmsKeyEv
__ZN8ImsPrefs34getSendEmergencyLocationUpdatesKeyEv
__ZN8ImsPrefs33getSendInitialInviteAsInactiveKeyEv
__ZN8ImsPrefs32getSendResumeInviteAsSendRecvKeyEv
__ZN8ImsPrefs34getSendLocalTimeZoneInformationKeyEv
__ZN8ImsPrefs25getSendOfferWithInviteKeyEv
__ZN8ImsPrefs42getSendPreconditionsInConfirmedSessionsKeyEv
__ZN8ImsPrefs27getSendPreferredIdentityKeyEv
__ZN8ImsPrefs34getSendPreferredServiceInInviteKeyEv
__ZN8ImsPrefs36getSendReInviteInInactiveSessionsKeyEv
__ZN8ImsPrefs18getServiceClassKeyEv
__ZN8ImsPrefs27getSessionExpiresSecondsKeyEv
__ZN8ImsPrefs24getSpamCallRiskLevelsKeyEv
__ZN8ImsPrefs29getSpamCallCategoryMappingKeyEv
__ZN8ImsPrefs53getAllowEmergencyRegistrationInLimitedAccessOnWiFiKeyEv
__ZN8ImsPrefs26getSupportSessionTimersKeyEv
__ZN8ImsPrefs46getSetSessionTimerRefresherInInitialRequestKeyEv
__ZN8ImsPrefs30getSetCountryWithCampedPANIKeyEv
__ZN8ImsPrefs32getSRVCCCleanupTimeoutSecondsKeyEv
__ZN8ImsPrefs41getStartLocalQosTimerOnSessionProgressKeyEv
__ZN8ImsPrefs27getStrictCallFlowTimeoutKeyEv
__ZN8ImsPrefs38getStrictTS24930PreconditionHeadersKeyEv
__ZN8ImsPrefs33getSubscriptionRetryMaxSecondsKeyEv
__ZN8ImsPrefs33getSubscriptionRetryMinSecondsKeyEv
__ZN8ImsPrefs55getSubscriptionTerminatedMeansRegistrationTerminatedKeyEv
__ZN8ImsPrefs30getSupportPEarlyMediaHeaderKeyEv
__ZN8ImsPrefs39getSystemWakeWaitTimeoutMillisecondsKeyEv
__ZN8ImsPrefs33getTLSKeepAliveIntervalSecondsKeyEv
__ZN8ImsPrefs32getTLSIdlePingIntervalSecondsKeyEv
__ZN8ImsPrefs27getTcpIdleTimeoutSecondsKeyEv
__ZN8ImsPrefs32getTransferWaitForHoldTimeoutKeyEv
__ZN8ImsPrefs32getTransferWaitForJoinTimeoutKeyEv
__ZN8ImsPrefs27getTransferHangupTimeoutKeyEv
__ZN8ImsPrefs36getTransferorShouldSendByeRequestKeyEv
__ZN8ImsPrefs29getExplicitTransferEnabledKeyEv
__ZN8ImsPrefs31getHoldTransferTargetSessionKeyEv
__ZN8ImsPrefs33getTransportInitTimeoutSecondsKeyEv
__ZN8ImsPrefs36getTriggerCSFBOnLocalQoSTimeoutMOKeyEv
__ZN8ImsPrefs36getTriggerCSFBOnLocalQoSTimeoutMTKeyEv
__ZN8ImsPrefs27getTriggerCSFBOnSDPErrorKeyEv
__ZN8ImsPrefs40getTriggerCSFBOnWaitForRingingTimeoutKeyEv
__ZN8ImsPrefs43getTimeoutRegistrationAllProxyErrorCodesKeyEv
__ZN8ImsPrefs32getUseAoRForSmsSenderIdentityKeyEv
__ZN8ImsPrefs21getUseCIDUrlInPIDFKeyEv
__ZN8ImsPrefs20getUseTupleInPIDFKeyEv
__ZN8ImsPrefs34getUseCampedAccessNetworkInPANIKeyEv
__ZN8ImsPrefs23getUseCompactHeadersKeyEv
__ZN8ImsPrefs31getUseCorrectAckConstructionKeyEv
__ZN8ImsPrefs34getUseStrictBearerPreconditionsKeyEv
__ZN8ImsPrefs44getRequireBearerPortMatchForPreconditionsKeyEv
__ZN8ImsPrefs30getUseBase64ForMultipartSMSKeyEv
__ZN8ImsPrefs22getUseCustomSSOAuthKeyEv
__ZN8ImsPrefs27getUseDialogEventPackageKeyEv
__ZN8ImsPrefs28getUseDummyImeiCheckDigitKeyEv
__ZN8ImsPrefs37getUseEphemeralSipSourcePortForTcpKeyEv
__ZN8ImsPrefs33getUseFakeSAsForDeregistrationKeyEv
__ZN8ImsPrefs14getUseIPSecKeyEv
__ZN8ImsPrefs31getUseEphemeralRangeForIPSecKeyEv
__ZN8ImsPrefs30getMaxIPSecTransportRetriesKeyEv
__ZN8ImsPrefs22getDefaultIPSecPortKeyEv
__ZN8ImsPrefs15getUseImsPdnKeyEv
__ZN8ImsPrefs13getUseIpv4KeyEv
__ZN8ImsPrefs37getUseNextProxyForPcscfRestorationKeyEv
__ZN8ImsPrefs40getUseNormalIdentityForEmergencyCallsKeyEv
__ZN8ImsPrefs39getUseNormalIdentityForEmergencyUSIMKeyEv
__ZN8ImsPrefs36getUsePublicDomainForPhoneContextKeyEv
__ZN8ImsPrefs26getUserAgentHeaderValueKeyEv
__ZN8ImsPrefs17getUssdEnabledKeyEv
__ZN8ImsPrefs37getUssdResponseTimeoutMillisecondsKeyEv
__ZN8ImsPrefs33getValidateSipMessageRecipientKeyEv
__ZN8ImsPrefs25getVirtualInterfaceMtuKeyEv
__ZN8ImsPrefs39getWaitForAckBeforeEndingCallTimeoutKeyEv
__ZN8ImsPrefs31getWaitForByeResponseTimeoutKeyEv
__ZN8ImsPrefs34getWaitForCancelResponseTimeoutKeyEv
__ZN8ImsPrefs34getWaitForRingingTimerMOSecondsKeyEv
__ZN8ImsPrefs34getWaitForRingingTimerMTSecondsKeyEv
__ZN8ImsPrefs35getWaitForRingingTimerWPSSecondsKeyEv
__ZN8ImsPrefs25getWPSCSFBDelayTimeoutKeyEv
__ZN8ImsPrefs15getSipTimerAKeyEv
__ZN8ImsPrefs15getSipTimerBKeyEv
__ZN8ImsPrefs15getSipTimerCKeyEv
__ZN8ImsPrefs15getSipTimerDKeyEv
__ZN8ImsPrefs15getSipTimerEKeyEv
__ZN8ImsPrefs15getSipTimerFKeyEv
__ZN8ImsPrefs15getSipTimerGKeyEv
__ZN8ImsPrefs15getSipTimerHKeyEv
__ZN8ImsPrefs15getSipTimerIKeyEv
__ZN8ImsPrefs15getSipTimerJKeyEv
__ZN8ImsPrefs16getSipTimerT1KeyEv
__ZN8ImsPrefs16getSipTimerT2KeyEv
__ZN8ImsPrefs16getSipTimerT4KeyEv
__ZN8ImsPrefs27getSip200RetransmitTimerKeyEv
__ZN8ImsPrefs23getAckReceiveTimeoutKeyEv
__ZN8ImsPrefs24getAckRetransmitTimerKeyEv
__ZN8ImsPrefs25getRegAwaitAuthTimeoutKeyEv
__ZN8ImsPrefs27getInviteResponseTimeoutKeyEv
__ZN8ImsPrefs30getEPSInviteResponseTimeoutKeyEv
__ZN8ImsPrefs36getEmergencyInviteResponseTimeoutKeyEv
__ZN8ImsPrefs47getAddServicesToContactInConferenceSubscribeKeyEv
__ZN8ImsPrefs38getAddSupportedHeaderToAllResponsesKeyEv
__ZN8ImsPrefs39getAlwaysSubscribeToConferenceEventsKeyEv
__ZN8ImsPrefs40getDisableMergeOnInviteErrorResponsesKeyEv
__ZN8ImsPrefs22getConferenceServerKeyEv
__ZN8ImsPrefs36getTreatAllNotificationsAsPartialKeyEv
__ZN8ImsPrefs40getSendConferenceSubscribeInNewDialogKeyEv
__ZN8ImsPrefs40getSendConferenceSubscribeAfterRefersKeyEv
__ZN8ImsPrefs21getSendReferToPeerKeyEv
__ZN8ImsPrefs21getSerializeRefersKeyEv
__ZN8ImsPrefs27getSerializeParticipantsKeyEv
__ZN8ImsPrefs34getUseDomainForConferenceServerKeyEv
__ZN8ImsPrefs30getAddBWSpecsAtSessionLevelKeyEv
__ZN8ImsPrefs20getAllowHoldMusicKeyEv
__ZN8ImsPrefs29getAllowIPv6UnicastAddressKeyEv
__ZN8ImsPrefs30getAlwaysPrintSDPFormatInfoKeyEv
__ZN8ImsPrefs31getBandwidthSpecifierASValueKeyEv
__ZN8ImsPrefs31getBandwidthSpecifierRRValueKeyEv
__ZN8ImsPrefs31getBandwidthSpecifierRSValueKeyEv
__ZN8ImsPrefs37getSuppressBSUntilPreconditionsMetKeyEv
__ZN8ImsPrefs35getDTMFDigitDurationMillisecondsKeyEv
__ZN8ImsPrefs40getDTMFInterDigitIntervalMillisecondsKeyEv
__ZN8ImsPrefs16getDTMFVolumeKeyEv
__ZN8ImsPrefs31getEnableBandwidthSpecifiersKeyEv
__ZN8ImsPrefs30getEnableHandoverProtectionKeyEv
__ZN8ImsPrefs34getEnableRemoteRTCPDeactivationKeyEv
__ZN8ImsPrefs15getEnableDTXKeyEv
__ZN8ImsPrefs25getEnablePreconditionsKeyEv
__ZN8ImsPrefs37getEnableRingbackAudioForTextCallsKeyEv
__ZN8ImsPrefs31getEnableRTCPExtendedReportsKeyEv
__ZN8ImsPrefs33getEnableSDPCandidateAttributeKeyEv
__ZN8ImsPrefs31getHideSessionLevelDirectionKeyEv
__ZN8ImsPrefs34getHoldHeartbeatIntervalSecondsKeyEv
__ZN8ImsPrefs32getInactivityTimerRTCPSecondsKeyEv
__ZN8ImsPrefs31getInactivityTimerRTPSecondsKeyEv
__ZN8ImsPrefs23getIncludeEVSIOModesKeyEv
__ZN8ImsPrefs22getIncludeSDPMaxRedKeyEv
__ZN8ImsPrefs36getIncludeSDPModeChangeCapabilityKeyEv
__ZN8ImsPrefs34getIncludeSDPModeChangeNeighborKeyEv
__ZN8ImsPrefs32getIncludeSDPModeChangePeriodKeyEv
__ZN8ImsPrefs36getLocalRTCPReportIntervalSecondsKeyEv
__ZN8ImsPrefs31getMaxInactivityTimerRTPRTCPKeyEv
__ZN8ImsPrefs26getMaxPacketizationTimeKeyEv
__ZN8ImsPrefs19getMaxRedundancyKeyEv
__ZN8ImsPrefs31getMinInactivityTimerRTPRTCPKeyEv
__ZN8ImsPrefs26getModeChangeCapabilityKeyEv
__ZN8ImsPrefs24getModeChangeNeighborKeyEv
__ZN8ImsPrefs22getModeChangePeriodKeyEv
__ZN8ImsPrefs18getModeSetAMRNBKeyEv
__ZN8ImsPrefs18getModeSetAMRWBKeyEv
__ZN8ImsPrefs28getUseModeSetIntersectionKeyEv
__ZN8ImsPrefs17getSDPTemplateKeyEv
__ZN8ImsPrefs35getBindMediaToTransportInterfaceKeyEv
__ZN8ImsPrefs32getEnforceEarlyMediaDirectionKeyEv
__ZN8ImsPrefs40getEnforceEarlyMediaInactiveDirectionKeyEv
__ZN8ImsPrefs25getUseRemoteMediaOrderKeyEv
__ZN8ImsPrefs30getUseRTPDetectionAutoStartKeyEv
__ZN8ImsPrefs27getLinkMonitorPreferenceKeyEv
__ZN8ImsPrefs24getEnableIncomingDTMFKeyEv
__ZN8ImsPrefs20getOriginUsernameKeyEv
__ZN8ImsPrefs26getPacketAlignmentAMRNBKeyEv
__ZN8ImsPrefs26getPacketAlignmentAMRWBKeyEv
__ZN8ImsPrefs23getPacketizationTimeKeyEv
__ZN8ImsPrefs33getPayloadTypeBWEfficientAMRNBKeyEv
__ZN8ImsPrefs33getPayloadTypeBWEfficientAMRWBKeyEv
__ZN8ImsPrefs24getPayloadTypeDTMF16KKeyEv
__ZN8ImsPrefs23getPayloadTypeDTMF8KKeyEv
__ZN8ImsPrefs32getPayloadTypeOctetAlignAMRNBKeyEv
__ZN8ImsPrefs32getPayloadTypeOctetAlignAMRWBKeyEv
__ZN8ImsPrefs20getPayloadTypeTTYKeyEv
__ZN8ImsPrefs30getPayloadTypeTTYRedundancyKeyEv
__ZN8ImsPrefs24getPreferredAMRNBModeKeyEv
__ZN8ImsPrefs24getPreferredAMRWBModeKeyEv
__ZN8ImsPrefs18getRingbackToneKeyEv
__ZN8ImsPrefs27getRTCPXRBasebandSupportKeyEv
__ZN8ImsPrefs34getRTTBandwidthSpecifierASValueKeyEv
__ZN8ImsPrefs41getRTTBandwidthSpecifierRTCPPercentageKeyEv
__ZN8ImsPrefs43getRTTUpgradeResponseTimeoutMillisecondsKeyEv
__ZN8ImsPrefs32getStopLocalRingbackToneOn181KeyEv
__ZN8ImsPrefs25getRTCPIntervalSecondsKeyEv
__ZN8ImsPrefs32getRTTNegotiationTimerSecondsKeyEv
__ZN8ImsPrefs21getSRTPCryptoSuiteKeyEv
__ZN8ImsPrefs35getSRTPEndToAccessEdgeProtectionKeyEv
__ZN8ImsPrefs29getSRTPUnauthenticatedSRTPKeyEv
__ZN8ImsPrefs26getSRTPUnencryptedSRTCPKeyEv
__ZN8ImsPrefs25getSRTPUnencryptedSRTPKeyEv
__ZN8ImsPrefs19getSampleRateTTYKeyEv
__ZN8ImsPrefs17getAudioCodecsKeyEv
__ZN8ImsPrefs20getAudioCodecListKeyEv
__ZN8ImsPrefs20getEVSHardBwLimitKeyEv
__ZN8ImsPrefs20getEVSHardBrLimitKeyEv
__ZN8ImsPrefs33getRestrictSessionEVSBandwidthKeyEv
__ZN8ImsPrefs29getOrderEVSCodecsByCodecIDKeyEv
__ZN8ImsPrefs18getSupportAMRNBKeyEv
__ZN8ImsPrefs18getSupportAMRWBKeyEv
__ZN8ImsPrefs17getSupportPCMAKeyEv
__ZN8ImsPrefs17getSupportPCMUKeyEv
__ZN8ImsPrefs26getUseEphemeralRTPPortsKeyEv
__ZN8ImsPrefs47getUseRestrictiveDirectionWhenCreatingAnswerKeyEv
__ZN8ImsPrefs33getUseSDPTemplateWhenAnsweringKeyEv
__ZN8ImsPrefs33getUseSDPTemplateForAllInvitesKeyEv
__ZN8ImsPrefs30getUseSDPTemplateForUpdatesKeyEv
__ZN8ImsPrefs44getSuppressOctetAlignAttributeForBECodecsKeyEv
__ZN8ImsPrefs36getSelectForkWithActiveEarlyMediaKeyEv
__ZN8ImsPrefs42getSelectLatestForkWithActiveEarlyMediaKeyEv
__ZN8ImsPrefs22getEnableAPOnlyModeKeyEv
__ZN8ImsPrefs16getEnableANBRKeyEv
__ZN8ImsPrefs26getEnableRateAdaptationKeyEv
__ZN8ImsPrefs14getXcapAuidKeyEv
__ZN8ImsPrefs17getXcapBsfHostKeyEv
__ZN8ImsPrefs17getXcapBsfPortKeyEv
__ZN8ImsPrefs31getXcapBsfUseSecureTransportKeyEv
__ZN8ImsPrefs21getXcapContentTypeKeyEv
__ZN8ImsPrefs31getXcapDisableOnNetworkErrorKeyEv
__ZN8ImsPrefs27getXcapFetchAllCDIVRulesKeyEv
__ZN8ImsPrefs33getXcapForbiddenHttpErrorCodesKeyEv
__ZN8ImsPrefs36getXcapImeiHeaderNameInBsfRequestKeyEv
__ZN8ImsPrefs18getXcapImpuRankKeyEv
__ZN8ImsPrefs30getXcapImsFeatureDependencyKeyEv
__ZN8ImsPrefs35getXcapImsRegistrationDependencyKeyEv
__ZN8ImsPrefs17getXcapNafHostKeyEv
__ZN8ImsPrefs17getXcapNafPortKeyEv
__ZN8ImsPrefs31getXcapNafUseSecureTransportKeyEv
__ZN8ImsPrefs26getXcapPreferredGbaModeKeyEv
__ZN8ImsPrefs32getXcapProvisioningDependencyKeyEv
__ZN8ImsPrefs29getXcapRequestTimeoutValueKeyEv
__ZN8ImsPrefs33getXcapUnsolicitedRequestDelayKeyEv
__ZN8ImsPrefs30getXcapReuseAuthCredentialsKeyEv
__ZN8ImsPrefs42getXcapServeMultipleCDIVRulesPerRequestKeyEv
__ZN8ImsPrefs26getXcapCFErasureSupportKeyEv
__ZN8ImsPrefs27getXcapCFMediaTagSupportKeyEv
__ZN8ImsPrefs21getXcapCLIRSupportKeyEv
__ZN8ImsPrefs19getXcapCWSupportKeyEv
__ZN8ImsPrefs19getXcapCBSupportKeyEv
__ZN8ImsPrefs25getXcapUtInterfaceTypeKeyEv
__ZN8ImsPrefs28getXcapUseSecureTransportKeyEv
__ZN8ImsPrefs19getXcapSupportedKeyEv
__ZN8ImsPrefs21getXcapHttpVersionKeyEv
__ZN8ImsPrefs27getAllowRTPStackHandoverKeyEv
__ZN8ImsPrefs45getMediaSessionHandoverTimeoutMillisecondsKeyEv
__ZN8ImsPrefs31getAutoRingTimerMillisecondsKeyEv
__ZN8ImsPrefs33getBasebandRequestTimerSecondsKeyEv
__ZN8ImsPrefs17getCallSubjectKeyEv
__ZN8ImsPrefs35getClearThrottlingOnSocketErrorsKeyEv
__ZN8ImsPrefs50getConferenceParticipantJoinTimeoutMillisecondsKeyEv
__ZN8ImsPrefs46getConferenceWaitForHoldTimeoutMillisecondsKeyEv
__ZN8ImsPrefs34getCSFBDeregisterTimeoutSecondsKeyEv
__ZN8ImsPrefs24getEndConferenceOn405KeyEv
__ZN8ImsPrefs16getDeviceIMEIKeyEv
__ZN8ImsPrefs22getDisableDeviceSVNKeyEv
__ZN8ImsPrefs17getDisplayNameKeyEv
__ZN8ImsPrefs20getDigestPasswordKeyEv
__ZN8ImsPrefs20getDigestUsernameKeyEv
__ZN8ImsPrefs12getDomainKeyEv
__ZN8ImsPrefs18getDropIncomingKeyEv
__ZN8ImsPrefs18getDropOutgoingKeyEv
__ZN8ImsPrefs33getFatalRegistrationErrorCodesKeyEv
__ZN8ImsPrefs30getEnableBasebandSipLoggingKeyEv
__ZN8ImsPrefs49getEnableBasebandAssertOnInitializationFailureKeyEv
__ZN8ImsPrefs21getEnableGlobalLogKeyEv
__ZN8ImsPrefs20getEnableLoopbackKeyEv
__ZN8ImsPrefs33getHoldResumeTimerMillisecondsKeyEv
__ZN8ImsPrefs30getHonorForbiddenRetryAfterKeyEv
__ZN8ImsPrefs34getIgnoreSessionTimerExpirationKeyEv
__ZN8ImsPrefs32getInternalDisableSipInstanceKeyEv
__ZN8ImsPrefs10getImpiKeyEv
__ZN8ImsPrefs10getImpuKeyEv
__ZN8ImsPrefs19getLoggingParamsKeyEv
__ZN8ImsPrefs18getMaxCallCountKeyEv
__ZN8ImsPrefs29getMaxProxyResolveAttemptsKeyEv
__ZN8ImsPrefs22getMediaAddressTypeKeyEv
__ZN8ImsPrefs20getMediaInterfaceKeyEv
__ZN8ImsPrefs22getMediaInitTimeoutKeyEv
__ZN8ImsPrefs42getMultiCallHoldResumeTimerMillisecondsKeyEv
__ZN8ImsPrefs37getNewSubscriptionOnReRegistrationKeyEv
__ZN8ImsPrefs22getNetworkInterfaceKeyEv
__ZN8ImsPrefs17getOutgoingUriKeyEv
__ZN8ImsPrefs19getPcscfOverrideKeyEv
__ZN8ImsPrefs30getRejectSMSWithFakeTimeoutKeyEv
__ZN8ImsPrefs32getReRegisterOnMobikeHandoverKeyEv
__ZN8ImsPrefs41getResponseCodesAllowedForSilentRedialKeyEv
__ZN8ImsPrefs42getRegistrationExpirationCushionSecondsKeyEv
__ZN8ImsPrefs42getRegistrationRefreshCushionCapSecondsKeyEv
__ZN8ImsPrefs45getRegistrationThrottlingCushionCapSecondsKeyEv
__ZN8ImsPrefs27getSessionExpiresCushionKeyEv
__ZN8ImsPrefs29getShutdownWaitTimeSecondsKeyEv
__ZN8ImsPrefs36getTTYReinviteTimeoutMillisecondsKeyEv
__ZN8ImsPrefs21getUseAPMediaStackKeyEv
__ZN8ImsPrefs27getUseJitterBufferForRTPKeyEv
__ZN8ImsPrefs26getUseRegistrationPrefsKeyEv
__ZN8ImsPrefs25getUseVirtualInterfaceKeyEv
__ZN8ImsPrefs43getResetCallIdOn401WithoutSecurityServerKeyEv
__ZN8ImsPrefs23getUseUacAsRefresherKeyEv
__ZN8ImsPrefs47getAddPreconditionToSupportedHeaderIfEnabledKeyEv
__ZN8ImsPrefs57getUseInviteToRefreshSessionIfRemoteDoesNotAllowUpdateKeyEv
__ZN8ImsPrefs59getDoNotRefreshSessionIfNoSessionExpiresHeaderFromRemoteKeyEv
__ZN8ImsPrefs30getSendPreconditionsInPrackKeyEv
__ZN8ImsPrefs11getPcscfKeyEv
__ZN8ImsPrefs34getLegacySimUSIMFallbackSupportKeyEv
__ZN8ImsPrefs25getLegacySimIgnoreISIMKeyEv
__ZN8ImsPrefs29getLegacySimUseMDNFromCSIMKeyEv
__ZN8ImsPrefs28getLegacySimCarrierDomainKeyEv
__ZN8ImsPrefs25getLegacySimImpuFormatKeyEv
__ZN8ImsPrefs25getLegacySimImpiFormatKeyEv
__ZN8ImsPrefs25getUSIMFallbackSupportKeyEv
__ZN8ImsPrefs16getIgnoreISIMKeyEv
__ZN8ImsPrefs20getUseMDNFromCSIMKeyEv
__ZN8ImsPrefs19getCarrierDomainKeyEv
__ZN8ImsPrefs16getImpuFormatKeyEv
__ZN8ImsPrefs16getImpiFormatKeyEv
__ZN8ImsPrefs20getForceSmsOverCSKeyEv
__ZN8ImsPrefs23getDestinationNumberKeyEv
__ZN8ImsPrefs23getHysteresisTimeoutKeyEv
__ZN8ImsPrefs29getBlockSilentRedialOverCSKeyEv
__ZN8ImsPrefs22getBlockCallsOverCSKeyEv
__ZN8ImsPrefs50getDialAsEmergencyOverIMSForUndetectedEmergencyKeyEv
__ZN8ImsPrefs26getEnableVolteByDefaultKeyEv
__ZN8ImsPrefs28getE911OverITechSupportedKeyEv
__ZN8ImsPrefs26getE911OverIMSSupportedKeyEv
__ZN8ImsPrefs26getE911OverITechNoLimitKeyEv
__ZN8ImsPrefs17getLte911TimerKeyEv
__ZN8ImsPrefs26getEndNonEmergencyCallsKeyEv
__ZN8ImsPrefs32getTestEmergencyPSAPSupportedKeyEv
__ZN8ImsPrefs25getTTYOverImsSupportedKeyEv
__ZN8ImsPrefs40getIgnoreCallerIDBlockingForEmergencyKeyEv
__ZN8ImsPrefs37getCallTransferOnlyIfIMSRegisteredKeyEv
__ZN8ImsPrefs28getCallTransferDialNumberKeyEv
__ZN8ImsPrefs28getCallTransferRequestUriKeyEv
__ZN8ImsPrefs23getCallTransferToUriKeyEv
__ZN8ImsPrefs34getAllowPullsWithoutDialogEventKeyEv
__ZN3ctu14NeverDestroyedI17ImsPrefsKeyStringEC2IJRA20_KcRA10_S4_bRA1_S4_bEEEDpOT_
__ZN17ImsPrefsKeyStringC2ERKNSt3__112basic_stringIcNS0_11char_traitsIcEENS0_9allocatorIcEEEES8_bS8_b
__ZN11ImsPrefsKeyC2ERKNSt3__112basic_stringIcNS0_11char_traitsIcEENS0_9allocatorIcEEEES8_b
__ZN11ImsPrefsKeyD2Ev
__ZN3ctu14NeverDestroyedI17ImsPrefsKeyStringEC2IJRA24_KcRA10_S4_bRA51_S4_bEEEDpOT_
__ZNSt3__130__uninitialized_allocator_copyB6v15006INS_9allocatorINS_12basic_stringIcNS_11char_traitsIcEENS1_IcEEEEEEPKS6_S9_PS6_EET2_RT_T0_T1_SB_
__ZN3ctu14NeverDestroyedI15ImsPrefsKeyEnumEC2IJRA18_KcRA10_S4_bNSt3__16vectorINS9_12basic_stringIcNS9_11char_traitsIcEENS9_9allocatorIcEEEENSE_ISG_EEEEEEEDpOT_
__ZN15ImsPrefsKeyEnumC2ERKNSt3__112basic_stringIcNS0_11char_traitsIcEENS0_9allocatorIcEEEES8_bNS0_6vectorIS6_NS4_IS6_EEEE
__ZNSt3__16__treeINS_12basic_stringIcNS_11char_traitsIcEENS_9allocatorIcEEEENS_4lessIS6_EENS4_IS6_EEE30__emplace_hint_unique_key_argsIS6_JRKS6_EEENS_4pairINS_15__tree_iteratorIS6_PNS_11__tree_nodeIS6_PvEElEEbEENS_21__tree_const_iteratorIS6_SJ_lEERKT_DpOT0_
__ZNSt3__16__treeINS_12basic_stringIcNS_11char_traitsIcEENS_9allocatorIcEEEENS_4lessIS6_EENS4_IS6_EEE12__find_equalIS6_EERPNS_16__tree_node_baseIPvEENS_21__tree_const_iteratorIS6_PNS_11__tree_nodeIS6_SD_EElEERPNS_15__tree_end_nodeISF_EESG_RKT_
__ZNSt3__16__treeINS_12basic_stringIcNS_11char_traitsIcEENS_9allocatorIcEEEENS_4lessIS6_EENS4_IS6_EEE12__find_equalIS6_EERPNS_16__tree_node_baseIPvEERPNS_15__tree_end_nodeISF_EERKT_
__ZN3ctu14NeverDestroyedI15ImsPrefsKeyEnumEC2IJRA27_KcRA10_S4_bNSt3__16vectorINS9_12basic_stringIcNS9_11char_traitsIcEENS9_9allocatorIcEEEENSE_ISG_EEEEEEEDpOT_
__ZN3ctu14NeverDestroyedI14ImsPrefsKeyIntEC2IJRA38_KcRA10_S4_biEEEDpOT_
__ZN3ctu14NeverDestroyedI15ImsPrefsKeyBoolEC2IJRA32_KcRA10_S4_bbEEEDpOT_
__ZN3ctu14NeverDestroyedI15ImsPrefsKeyBoolEC2IJRA39_KcRA10_S4_bbEEEDpOT_
__ZN3ctu14NeverDestroyedI15ImsPrefsKeyBoolEC2IJRA34_KcRA10_S4_bbEEEDpOT_
__ZN3ctu14NeverDestroyedI15ImsPrefsKeyBoolEC2IJRA28_KcRA10_S4_bbEEEDpOT_
__ZN3ctu14NeverDestroyedI15ImsPrefsKeyDictEC2IJRA24_KcRA10_S4_bEEEDpOT_
__ZN3ctu14NeverDestroyedI15ImsPrefsKeyBoolEC2IJRA23_KcRA10_S4_bbEEEDpOT_
__ZN3ctu14NeverDestroyedI15ImsPrefsKeyDictEC2IJRA18_KcRA10_S4_bEEEDpOT_
__ZN3ctu14NeverDestroyedI15ImsPrefsKeyDictEC2IJRA22_KcRA10_S4_bEEEDpOT_
__ZN3ctu14NeverDestroyedI15ImsPrefsKeyBoolEC2IJRA30_KcRA10_S4_bbEEEDpOT_
__ZN3ctu14NeverDestroyedI15ImsPrefsKeyBoolEC2IJRA22_KcRA10_S4_bbEEEDpOT_
__ZN3ctu14NeverDestroyedI15ImsPrefsKeyBoolEC2IJRA29_KcRA10_S4_bbEEEDpOT_
__ZN3ctu14NeverDestroyedI15ImsPrefsKeyBoolEC2IJRA41_KcRA10_S4_bbEEEDpOT_
__ZN3ctu14NeverDestroyedI15ImsPrefsKeyBoolEC2IJRA18_KcRA10_S4_bbEEEDpOT_
__ZN3ctu14NeverDestroyedI15ImsPrefsKeyBoolEC2IJRA24_KcRA10_S4_bbEEEDpOT_
__ZN3ctu14NeverDestroyedI15ImsPrefsKeyBoolEC2IJRA35_KcRA10_S4_bbEEEDpOT_
__ZN3ctu14NeverDestroyedI15ImsPrefsKeyBoolEC2IJRA31_KcRA10_S4_bbEEEDpOT_
__ZN3ctu14NeverDestroyedI15ImsPrefsKeyBoolEC2IJRA38_KcRA10_S4_bbEEEDpOT_
__ZN3ctu14NeverDestroyedI15ImsPrefsKeyBoolEC2IJRA21_KcRA10_S4_bbEEEDpOT_
__ZN3ctu14NeverDestroyedI15ImsPrefsKeyBoolEC2IJRA37_KcRA10_S4_bbEEEDpOT_
__ZN3ctu14NeverDestroyedI15ImsPrefsKeyBoolEC2IJRA40_KcRA10_S4_bbEEEDpOT_
__ZN3ctu14NeverDestroyedI15ImsPrefsKeyBoolEC2IJRA33_KcRA10_S4_bbEEEDpOT_
__ZN3ctu14NeverDestroyedI15ImsPrefsKeyBoolEC2IJRA15_KcRA10_S4_bbEEEDpOT_
__ZN3ctu14NeverDestroyedI15ImsPrefsKeyBoolEC2IJRA26_KcRA10_S4_bbEEEDpOT_
__ZN3ctu14NeverDestroyedI15ImsPrefsKeyBoolEC2IJRA25_KcRA10_S4_bbEEEDpOT_
__ZN3ctu14NeverDestroyedI15ImsPrefsKeyBoolEC2IJRA56_KcRA10_S4_bbEEEDpOT_
__ZN3ctu14NeverDestroyedI14ImsPrefsKeyIntEC2IJRA32_KcRA10_S4_biEEEDpOT_
__ZN3ctu14NeverDestroyedI15ImsPrefsKeyDictEC2IJRA15_KcRA10_S4_bEEEDpOT_
__ZN3ctu14NeverDestroyedI14ImsPrefsKeyIntEC2IJRA31_KcRA10_S4_biEEEDpOT_
__ZN3ctu14NeverDestroyedI15ImsPrefsKeyBoolEC2IJRA42_KcRA10_S4_bbEEEDpOT_
__ZN3ctu14NeverDestroyedI17ImsPrefsKeyStringEC2IJRA12_KcRA10_S4_bRA1_S4_bEEEDpOT_
__ZN3ctu14NeverDestroyedI15ImsPrefsKeyBoolEC2IJRA36_KcRA10_S4_bbEEEDpOT_
__ZN3ctu14NeverDestroyedI14ImsPrefsKeyIntEC2IJRA41_KcRA10_S4_biEEEDpOT_
__ZN3ctu14NeverDestroyedI15ImsPrefsKeyBoolEC2IJRA19_KcRA10_S4_bbEEEDpOT_
__ZN3ctu14NeverDestroyedI15ImsPrefsKeyEnumEC2IJRA26_KcRA10_S4_bNSt3__16vectorINS9_12basic_stringIcNS9_11char_traitsIcEENS9_9allocatorIcEEEENSE_ISG_EEEEEEEDpOT_
__ZN3ctu14NeverDestroyedI17ImsPrefsKeyStringEC2IJRA21_KcRA10_S4_bRA1_S4_bEEEDpOT_
__ZN3ctu14NeverDestroyedI14ImsPrefsKeyIntEC2IJRA20_KcRA10_S4_biEEEDpOT_
__ZN3ctu14NeverDestroyedI14ImsPrefsKeyIntEC2IJRA21_KcRA10_S4_biEEEDpOT_
__ZN3ctu14NeverDestroyedI16ImsPrefsKeyArrayEC2IJRA34_KcRA10_S4_bRA1_S4_EEEDpOT_
__ZN3ctu14NeverDestroyedI17ImsPrefsKeyStringEC2IJRA37_KcRA10_S4_bRA1_S4_bEEEDpOT_
__ZN3ctu14NeverDestroyedI15ImsPrefsKeyBoolEC2IJRA43_KcRA10_S4_bbEEEDpOT_
__ZN3ctu14NeverDestroyedI17ImsPrefsKeyStringEC2IJRA29_KcRA10_S4_bRA1_S4_bEEEDpOT_
__ZN3ctu14NeverDestroyedI14ImsPrefsKeyIntEC2IJRA39_KcRA10_S4_biEEEDpOT_
__ZN3ctu14NeverDestroyedI14ImsPrefsKeyIntEC2IJRA33_KcRA10_S4_biEEEDpOT_
__ZN3ctu14NeverDestroyedI14ImsPrefsKeyIntEC2IJRA36_KcRA10_S4_biEEEDpOT_
__ZN3ctu14NeverDestroyedI17ImsPrefsKeyStringEC2IJRA18_KcRA10_S4_bRA1_S4_bEEEDpOT_
__ZN3ctu14NeverDestroyedI14ImsPrefsKeyIntEC2IJRA35_KcRA10_S4_biEEEDpOT_
__ZN3ctu14NeverDestroyedI17ImsPrefsKeyStringEC2IJRA32_KcRA10_S4_bRA1_S4_bEEEDpOT_
__ZN3ctu14NeverDestroyedI17ImsPrefsKeyStringEC2IJRA36_KcRA10_S4_bRA1_S4_bEEEDpOT_
__ZN3ctu14NeverDestroyedI14ImsPrefsKeyIntEC2IJRA30_KcRA10_S4_biEEEDpOT_
__ZN3ctu14NeverDestroyedI14ImsPrefsKeyIntEC2IJRA34_KcRA10_S4_biEEEDpOT_
__ZN3ctu14NeverDestroyedI15ImsPrefsKeyDictEC2IJRA14_KcRA10_S4_bEEEDpOT_
__ZN3ctu14NeverDestroyedI15ImsPrefsKeyBoolEC2IJRA20_KcRA10_S4_bbEEEDpOT_
__ZN3ctu14NeverDestroyedI15ImsPrefsKeyBoolEC2IJRA14_KcRA10_S4_bbEEEDpOT_
__ZN3ctu14NeverDestroyedI15ImsPrefsKeyBoolEC2IJRA12_KcRA10_S4_bbEEEDpOT_
__ZN3ctu14NeverDestroyedI15ImsPrefsKeyBoolEC2IJRA17_KcRA10_S4_bbEEEDpOT_
__ZN3ctu14NeverDestroyedI15ImsPrefsKeyBoolEC2IJRA16_KcRA10_S4_bbEEEDpOT_
__ZN3ctu14NeverDestroyedI14ImsPrefsKeyIntEC2IJRA24_KcRA10_S4_biEEEDpOT_
__ZN3ctu14NeverDestroyedI17ImsPrefsKeyStringEC2IJRA15_KcRA10_S4_bRA1_S4_bEEEDpOT_
__ZN3ctu14NeverDestroyedI17ImsPrefsKeyStringEC2IJRA21_KcRA10_S4_bRA6_S4_bEEEDpOT_
__ZN3ctu14NeverDestroyedI15ImsPrefsKeyBoolEC2IJRA9_KcRA10_S4_bbEEEDpOT_
__ZN3ctu14NeverDestroyedI14ImsPrefsKeyIntEC2IJRA19_KcRA10_S4_biEEEDpOT_
__ZN3ctu14NeverDestroyedI15ImsPrefsKeyBoolEC2IJRA27_KcRA10_S4_bbEEEDpOT_
__ZN3ctu14NeverDestroyedI17ImsPrefsKeyStringEC2IJRA31_KcRA10_S4_bRA4_S4_bEEEDpOT_
__ZN3ctu14NeverDestroyedI17ImsPrefsKeyStringEC2IJRA9_KcRA10_S4_bRA1_S4_bEEEDpOT_
__ZN3ctu14NeverDestroyedI15ImsPrefsKeyDictEC2IJRA23_KcRA10_S4_bEEEDpOT_
__ZN3ctu14NeverDestroyedI15ImsPrefsKeyDictEC2IJRA29_KcRA10_S4_bEEEDpOT_
__ZN3ctu14NeverDestroyedI14ImsPrefsKeyIntEC2IJRA48_KcRA10_S4_biEEEDpOT_
__ZN3ctu14NeverDestroyedI17ImsPrefsKeyStringEC2IJRA34_KcRA10_S4_bRA1_S4_bEEEDpOT_
__ZN3ctu14NeverDestroyedI17ImsPrefsKeyStringEC2IJRA34_KcRA10_S4_bRA20_S4_bEEEDpOT_
__ZN3ctu14NeverDestroyedI17ImsPrefsKeyStringEC2IJRA23_KcRA10_S4_bRA1_S4_bEEEDpOT_
__ZN3ctu14NeverDestroyedI14ImsPrefsKeyIntEC2IJRA44_KcRA10_S4_biEEEDpOT_
__ZN3ctu14NeverDestroyedI15ImsPrefsKeyBoolEC2IJRA46_KcRA10_S4_bbEEEDpOT_
__ZN3ctu14NeverDestroyedI14ImsPrefsKeyIntEC2IJRA25_KcRA10_S4_biEEEDpOT_
__ZN3ctu14NeverDestroyedI14ImsPrefsKeyIntEC2IJRA15_KcRA10_S4_biEEEDpOT_
__ZN3ctu14NeverDestroyedI14ImsPrefsKeyIntEC2IJRA27_KcRA10_S4_biEEEDpOT_
__ZN3ctu14NeverDestroyedI14ImsPrefsKeyIntEC2IJRA26_KcRA10_S4_biEEEDpOT_
__ZN3ctu14NeverDestroyedI14ImsPrefsKeyIntEC2IJRA18_KcRA10_S4_biEEEDpOT_
__ZN3ctu14NeverDestroyedI17ImsPrefsKeyStringEC2IJRA13_KcRA10_S4_bRA9_S4_bEEEDpOT_
__ZN3ctu14NeverDestroyedI17ImsPrefsKeyStringEC2IJRA28_KcRA10_S4_bRA1_S4_bEEEDpOT_
__ZN3ctu14NeverDestroyedI17ImsPrefsKeyStringEC2IJRA26_KcRA10_S4_bRA4_S4_bEEEDpOT_
__ZN3ctu14NeverDestroyedI14ImsPrefsKeyIntEC2IJRA29_KcRA10_S4_biEEEDpOT_
__ZN3ctu14NeverDestroyedI15ImsPrefsKeyDictEC2IJRA19_KcRA10_S4_bEEEDpOT_
__ZN3ctu14NeverDestroyedI14ImsPrefsKeyIntEC2IJRA23_KcRA10_S4_biEEEDpOT_
__ZN3ctu14NeverDestroyedI15ImsPrefsKeyEnumEC2IJRA17_KcRA10_S4_bNSt3__16vectorINS9_12basic_stringIcNS9_11char_traitsIcEENS9_9allocatorIcEEEENSE_ISG_EEEEEEEDpOT_
__ZN3ctu14NeverDestroyedI14ImsPrefsKeyIntEC2IJRA28_KcRA10_S4_biEEEDpOT_
__ZN3ctu14NeverDestroyedI15ImsPrefsKeyEnumEC2IJRA14_KcRA10_S4_bNSt3__16vectorINS9_12basic_stringIcNS9_11char_traitsIcEENS9_9allocatorIcEEEENSE_ISG_EEEEEEEDpOT_
__ZN3ctu14NeverDestroyedI17ImsPrefsKeyStringEC2IJRA24_KcRA10_S4_bRA1_S4_bEEEDpOT_
__ZN3ctu14NeverDestroyedI17ImsPrefsKeyStringEC2IJRA19_KcRA10_S4_bRA3_S4_bEEEDpOT_
__ZN3ctu14NeverDestroyedI17ImsPrefsKeyStringEC2IJRA25_KcRA10_S4_bRA1_S4_bEEEDpOT_
__ZN3ctu14NeverDestroyedI17ImsPrefsKeyStringEC2IJRA16_KcRA10_S4_bRA1_S4_bEEEDpOT_
__ZN3ctu14NeverDestroyedI17ImsPrefsKeyStringEC2IJRA23_KcRA10_S4_bRA11_S4_bEEEDpOT_
__ZN3ctu14NeverDestroyedI14ImsPrefsKeyIntEC2IJRA42_KcRA10_S4_biEEEDpOT_
__ZN3ctu14NeverDestroyedI17ImsPrefsKeyStringEC2IJRA19_KcRA10_S4_bRA8_S4_bEEEDpOT_
__ZN3ctu14NeverDestroyedI17ImsPrefsKeyStringEC2IJRA27_KcRA10_S4_bRA24_S4_bEEEDpOT_
__ZN3ctu14NeverDestroyedI14ImsPrefsKeyIntEC2IJRA37_KcRA10_S4_biEEEDpOT_
__ZN3ctu14NeverDestroyedI15ImsPrefsKeyEnumEC2IJRA25_KcRA10_S4_bNSt3__16vectorINS9_12basic_stringIcNS9_11char_traitsIcEENS9_9allocatorIcEEEENSE_ISG_EEEEEEEDpOT_
__ZN3ctu14NeverDestroyedI15ImsPrefsKeyEnumEC2IJRA28_KcRA10_S4_bNSt3__16vectorINS9_12basic_stringIcNS9_11char_traitsIcEENS9_9allocatorIcEEEENSE_ISG_EEEEEEEDpOT_
__ZN3ctu14NeverDestroyedI17ImsPrefsKeyStringEC2IJRA26_KcRA10_S4_bRA32_S4_bEEEDpOT_
__ZN3ctu14NeverDestroyedI17ImsPrefsKeyStringEC2IJRA24_KcRA10_S4_bRA32_S4_bEEEDpOT_
__ZN3ctu14NeverDestroyedI17ImsPrefsKeyStringEC2IJRA22_KcRA10_S4_bRA1_S4_bEEEDpOT_
__ZN3ctu14NeverDestroyedI16ImsPrefsKeyArrayEC2IJRA22_KcRA10_S4_bRA26_S4_EEEDpOT_
__ZN3ctu14NeverDestroyedI16ImsPrefsKeyArrayEC2IJRA23_KcRA10_S4_bRA13_S4_EEEDpOT_
__ZN3ctu14NeverDestroyedI15ImsPrefsKeyDictEC2IJRA13_KcRA10_S4_bEEEDpOT_
__ZN3ctu14NeverDestroyedI14ImsPrefsKeyIntEC2IJRA22_KcRA10_S4_biEEEDpOT_
__ZN3ctu14NeverDestroyedI16ImsPrefsKeyArrayEC2IJRA24_KcRA10_S4_bRA1_S4_EEEDpOT_
__ZN3ctu14NeverDestroyedI15ImsPrefsKeyBoolEC2IJRA48_KcRA10_S4_bbEEEDpOT_
__ZN3ctu14NeverDestroyedI15ImsPrefsKeyBoolEC2IJRA50_KcRA10_S4_bbEEEDpOT_
__ZN3ctu14NeverDestroyedI17ImsPrefsKeyStringEC2IJRA38_KcRA10_S4_bRA1_S4_bEEEDpOT_
__ZN3ctu14NeverDestroyedI14ImsPrefsKeyIntEC2IJRA17_KcRA10_S4_biEEEDpOT_
__ZN3ctu14NeverDestroyedI15ImsPrefsKeyBoolEC2IJRA10_KcS6_bbEEEDpOT_
__ZN3ctu14NeverDestroyedI15ImsPrefsKeyBoolEC2IJRA8_KcRA10_S4_bbEEEDpOT_
__ZN3ctu14NeverDestroyedI17ImsPrefsKeyStringEC2IJRA21_KcRA10_S4_bRA30_S4_bEEEDpOT_
__ZN3ctu14NeverDestroyedI14ImsPrefsKeyIntEC2IJRA46_KcRA10_S4_biEEEDpOT_
__ZN3ctu14NeverDestroyedI14ImsPrefsKeyIntEC2IJRA2_KcRA20_S4_biEEEDpOT_
__ZN3ctu14NeverDestroyedI14ImsPrefsKeyIntEC2IJRA3_KcRA20_S4_biEEEDpOT_
__ZN3ctu14NeverDestroyedI14ImsPrefsKeyIntEC2IJRA19_KcRA20_S4_biEEEDpOT_
__ZN3ctu14NeverDestroyedI14ImsPrefsKeyIntEC2IJRA18_KcRA20_S4_biEEEDpOT_
__ZN3ctu14NeverDestroyedI14ImsPrefsKeyIntEC2IJRA20_KcS6_biEEEDpOT_
__ZN3ctu14NeverDestroyedI14ImsPrefsKeyIntEC2IJRA22_KcRA20_S4_biEEEDpOT_
__ZN3ctu14NeverDestroyedI14ImsPrefsKeyIntEC2IJRA25_KcRA20_S4_biEEEDpOT_
__ZN3ctu14NeverDestroyedI14ImsPrefsKeyIntEC2IJRA31_KcRA20_S4_biEEEDpOT_
__ZN3ctu14NeverDestroyedI15ImsPrefsKeyBoolEC2IJRA42_KcRA18_S4_bbEEEDpOT_
__ZN3ctu14NeverDestroyedI15ImsPrefsKeyBoolEC2IJRA33_KcRA18_S4_bbEEEDpOT_
__ZN3ctu14NeverDestroyedI15ImsPrefsKeyBoolEC2IJRA34_KcRA18_S4_bbEEEDpOT_
__ZN3ctu14NeverDestroyedI17ImsPrefsKeyStringEC2IJRA35_KcRA18_S4_bRA12_S4_bEEEDpOT_
__ZN3ctu14NeverDestroyedI17ImsPrefsKeyStringEC2IJRA17_KcRA18_S4_bRA1_S4_bEEEDpOT_
__ZN3ctu14NeverDestroyedI15ImsPrefsKeyBoolEC2IJRA31_KcRA18_S4_bbEEEDpOT_
__ZN3ctu14NeverDestroyedI15ImsPrefsKeyBoolEC2IJRA35_KcRA18_S4_bbEEEDpOT_
__ZN3ctu14NeverDestroyedI15ImsPrefsKeyBoolEC2IJRA16_KcRA18_S4_bbEEEDpOT_
__ZN3ctu14NeverDestroyedI15ImsPrefsKeyBoolEC2IJRA22_KcRA18_S4_bbEEEDpOT_
__ZN3ctu14NeverDestroyedI15ImsPrefsKeyBoolEC2IJRA29_KcRA18_S4_bbEEEDpOT_
__ZN3ctu14NeverDestroyedI15ImsPrefsKeyBoolEC2IJRA25_KcRA6_S4_bbEEEDpOT_
__ZN3ctu14NeverDestroyedI15ImsPrefsKeyBoolEC2IJRA15_KcRA6_S4_bbEEEDpOT_
__ZN3ctu14NeverDestroyedI15ImsPrefsKeyBoolEC2IJRA24_KcRA6_S4_bbEEEDpOT_
__ZN3ctu14NeverDestroyedI14ImsPrefsKeyIntEC2IJRA26_KcRA6_S4_biEEEDpOT_
__ZN3ctu14NeverDestroyedI15ImsPrefsKeyBoolEC2IJRA32_KcRA6_S4_bbEEEDpOT_
__ZN3ctu14NeverDestroyedI14ImsPrefsKeyIntEC2IJRA30_KcRA6_S4_biEEEDpOT_
__ZN3ctu14NeverDestroyedI14ImsPrefsKeyIntEC2IJRA35_KcRA6_S4_biEEEDpOT_
__ZN3ctu14NeverDestroyedI14ImsPrefsKeyIntEC2IJRA11_KcRA6_S4_biEEEDpOT_
__ZN3ctu14NeverDestroyedI15ImsPrefsKeyBoolEC2IJRA26_KcRA6_S4_bbEEEDpOT_
__ZN3ctu14NeverDestroyedI15ImsPrefsKeyBoolEC2IJRA29_KcRA6_S4_bbEEEDpOT_
__ZN3ctu14NeverDestroyedI15ImsPrefsKeyBoolEC2IJRA10_KcRA6_S4_bbEEEDpOT_
__ZN3ctu14NeverDestroyedI15ImsPrefsKeyBoolEC2IJRA20_KcRA6_S4_bbEEEDpOT_
__ZN3ctu14NeverDestroyedI15ImsPrefsKeyBoolEC2IJRA28_KcRA6_S4_bbEEEDpOT_
__ZN3ctu14NeverDestroyedI14ImsPrefsKeyIntEC2IJRA29_KcRA6_S4_biEEEDpOT_
__ZN3ctu14NeverDestroyedI14ImsPrefsKeyIntEC2IJRA27_KcRA6_S4_biEEEDpOT_
__ZN3ctu14NeverDestroyedI15ImsPrefsKeyBoolEC2IJRA18_KcRA6_S4_bbEEEDpOT_
__ZN3ctu14NeverDestroyedI15ImsPrefsKeyBoolEC2IJRA17_KcRA6_S4_bbEEEDpOT_
__ZN3ctu14NeverDestroyedI15ImsPrefsKeyBoolEC2IJRA31_KcRA6_S4_bbEEEDpOT_
__ZN3ctu14NeverDestroyedI15ImsPrefsKeyBoolEC2IJRA27_KcRA6_S4_bbEEEDpOT_
__ZN3ctu14NeverDestroyedI14ImsPrefsKeyIntEC2IJRA31_KcRA6_S4_biEEEDpOT_
__ZN3ctu14NeverDestroyedI14ImsPrefsKeyIntEC2IJRA21_KcRA6_S4_biEEEDpOT_
__ZN3ctu14NeverDestroyedI14ImsPrefsKeyIntEC2IJRA14_KcRA6_S4_biEEEDpOT_
__ZN3ctu14NeverDestroyedI14ImsPrefsKeyIntEC2IJRA19_KcRA6_S4_biEEEDpOT_
__ZN3ctu14NeverDestroyedI14ImsPrefsKeyIntEC2IJRA17_KcRA6_S4_biEEEDpOT_
__ZN3ctu14NeverDestroyedI17ImsPrefsKeyStringEC2IJRA13_KcRA6_S4_bRA1_S4_bEEEDpOT_
__ZN3ctu14NeverDestroyedI15ImsPrefsKeyBoolEC2IJRA23_KcRA6_S4_bbEEEDpOT_
__ZN3ctu14NeverDestroyedI17ImsPrefsKeyStringEC2IJRA12_KcRA6_S4_bRA1_S4_bEEEDpOT_
__ZN3ctu14NeverDestroyedI15ImsPrefsKeyBoolEC2IJRA30_KcRA6_S4_bbEEEDpOT_
__ZN3ctu14NeverDestroyedI15ImsPrefsKeyBoolEC2IJRA35_KcRA6_S4_bbEEEDpOT_
__ZN3ctu14NeverDestroyedI15ImsPrefsKeyEnumEC2IJRA22_KcRA6_S4_bNSt3__16vectorINS9_12basic_stringIcNS9_11char_traitsIcEENS9_9allocatorIcEEEENSE_ISG_EEEEEEEDpOT_
__ZN3ctu14NeverDestroyedI15ImsPrefsKeyBoolEC2IJRA19_KcRA6_S4_bbEEEDpOT_
__ZN3ctu14NeverDestroyedI17ImsPrefsKeyStringEC2IJRA15_KcRA6_S4_bRA1_S4_bEEEDpOT_
__ZN3ctu14NeverDestroyedI17ImsPrefsKeyStringEC2IJRA21_KcRA6_S4_bRA4_S4_bEEEDpOT_
__ZN3ctu14NeverDestroyedI14ImsPrefsKeyIntEC2IJRA18_KcRA6_S4_biEEEDpOT_
__ZN3ctu14NeverDestroyedI14ImsPrefsKeyIntEC2IJRA28_KcRA6_S4_biEEEDpOT_
__ZN3ctu14NeverDestroyedI14ImsPrefsKeyIntEC2IJRA15_KcRA6_S4_biEEEDpOT_
__ZN3ctu14NeverDestroyedI14ImsPrefsKeyIntEC2IJRA25_KcRA6_S4_biEEEDpOT_
__ZN3ctu14NeverDestroyedI17ImsPrefsKeyStringEC2IJRA13_KcRA6_S4_bRA5_S4_bEEEDpOT_
__ZN3ctu14NeverDestroyedI15ImsPrefsKeyDictEC2IJRA22_KcRA6_S4_bEEEDpOT_
__ZN3ctu14NeverDestroyedI14ImsPrefsKeyIntEC2IJRA36_KcRA6_S4_biEEEDpOT_
__ZN3ctu14NeverDestroyedI14ImsPrefsKeyIntEC2IJRA38_KcRA6_S4_biEEEDpOT_
__ZN3ctu14NeverDestroyedI14ImsPrefsKeyIntEC2IJRA20_KcRA6_S4_biEEEDpOT_
__ZN3ctu14NeverDestroyedI17ImsPrefsKeyStringEC2IJRA16_KcRA6_S4_bRA1_S4_bEEEDpOT_
__ZN3ctu14NeverDestroyedI15ImsPrefsKeyBoolEC2IJRA21_KcRA6_S4_bbEEEDpOT_
__ZN3ctu14NeverDestroyedI15ImsPrefsKeyDictEC2IJRA12_KcRA6_S4_bEEEDpOT_
__ZN3ctu14NeverDestroyedI17ImsPrefsKeyStringEC2IJRA15_KcRA6_S4_bS8_bEEEDpOT_
__ZN3ctu14NeverDestroyedI17ImsPrefsKeyStringEC2IJRA15_KcRA6_S4_bRA9_S4_bEEEDpOT_
__ZN3ctu14NeverDestroyedI15ImsPrefsKeyBoolEC2IJRA13_KcRA6_S4_bbEEEDpOT_
__ZN3ctu14NeverDestroyedI15ImsPrefsKeyBoolEC2IJRA12_KcRA6_S4_bbEEEDpOT_
__ZN3ctu14NeverDestroyedI15ImsPrefsKeyBoolEC2IJRA42_KcRA6_S4_bbEEEDpOT_
__ZN3ctu14NeverDestroyedI15ImsPrefsKeyBoolEC2IJRA39_KcRA6_S4_bbEEEDpOT_
__ZN3ctu14NeverDestroyedI15ImsPrefsKeyBoolEC2IJRA37_KcRA6_S4_bbEEEDpOT_
__ZN3ctu14NeverDestroyedI15ImsPrefsKeyBoolEC2IJRA17_KcRA16_S4_bbEEEDpOT_
__ZN3ctu14NeverDestroyedI15ImsPrefsKeyBoolEC2IJRA11_KcRA16_S4_bbEEEDpOT_
__ZN3ctu14NeverDestroyedI15ImsPrefsKeyBoolEC2IJRA21_KcRA16_S4_bbEEEDpOT_
__ZN3ctu14NeverDestroyedI17ImsPrefsKeyStringEC2IJRA5_KcS6_bRA22_S4_bEEEDpOT_
__ZN3ctu14NeverDestroyedI17ImsPrefsKeyStringEC2IJRA8_KcRA5_S4_bRA1_S4_bEEEDpOT_
__ZN3ctu14NeverDestroyedI14ImsPrefsKeyIntEC2IJRA8_KcRA5_S4_biEEEDpOT_
__ZN3ctu14NeverDestroyedI15ImsPrefsKeyBoolEC2IJRA22_KcRA5_S4_bbEEEDpOT_
__ZN3ctu14NeverDestroyedI17ImsPrefsKeyStringEC2IJRA12_KcRA5_S4_bRA34_S4_bEEEDpOT_
__ZN3ctu14NeverDestroyedI15ImsPrefsKeyBoolEC2IJRA18_KcRA5_S4_bbEEEDpOT_
__ZN3ctu14NeverDestroyedI17ImsPrefsKeyStringEC2IJRA24_KcRA5_S4_bRA1_S4_bEEEDpOT_
__ZN3ctu14NeverDestroyedI17ImsPrefsKeyStringEC2IJRA27_KcRA5_S4_bRA1_S4_bEEEDpOT_
__ZN3ctu14NeverDestroyedI17ImsPrefsKeyStringEC2IJRA9_KcRA5_S4_bRA1_S4_bEEEDpOT_
__ZN3ctu14NeverDestroyedI15ImsPrefsKeyBoolEC2IJRA21_KcRA5_S4_bbEEEDpOT_
__ZN3ctu14NeverDestroyedI15ImsPrefsKeyBoolEC2IJRA26_KcRA5_S4_bbEEEDpOT_
__ZN3ctu14NeverDestroyedI17ImsPrefsKeyStringEC2IJRA17_KcRA5_S4_bRA7_S4_bEEEDpOT_
__ZN3ctu14NeverDestroyedI15ImsPrefsKeyBoolEC2IJRA23_KcRA5_S4_bbEEEDpOT_
__ZN3ctu14NeverDestroyedI14ImsPrefsKeyIntEC2IJRA20_KcRA5_S4_biEEEDpOT_
__ZN3ctu14NeverDestroyedI14ImsPrefsKeyIntEC2IJRA24_KcRA5_S4_biEEEDpOT_
__ZN3ctu14NeverDestroyedI15ImsPrefsKeyBoolEC2IJRA33_KcRA5_S4_bbEEEDpOT_
__ZN3ctu14NeverDestroyedI15ImsPrefsKeyBoolEC2IJRA13_KcRA5_S4_bbEEEDpOT_
__ZN3ctu14NeverDestroyedI15ImsPrefsKeyBoolEC2IJRA11_KcRA5_S4_bbEEEDpOT_
__ZN3ctu14NeverDestroyedI17ImsPrefsKeyStringEC2IJRA16_KcRA5_S4_bRA1_S4_bEEEDpOT_
__ZN3ctu14NeverDestroyedI15ImsPrefsKeyBoolEC2IJRA19_KcRA5_S4_bbEEEDpOT_
__ZN3ctu14NeverDestroyedI15ImsPrefsKeyBoolEC2IJRA10_KcRA5_S4_bbEEEDpOT_
__ZN3ctu14NeverDestroyedI17ImsPrefsKeyStringEC2IJRA16_KcRA5_S4_bRA4_S4_bEEEDpOT_
__ZN3ctu14NeverDestroyedI15ImsPrefsKeyBoolEC2IJRA22_KcRA9_S4_bbEEEDpOT_
__ZN3ctu14NeverDestroyedI14ImsPrefsKeyIntEC2IJRA40_KcRA9_S4_biEEEDpOT_
__ZN3ctu14NeverDestroyedI14ImsPrefsKeyIntEC2IJRA26_KcRA9_S4_biEEEDpOT_
__ZN3ctu14NeverDestroyedI14ImsPrefsKeyIntEC2IJRA28_KcRA9_S4_biEEEDpOT_
__ZN3ctu14NeverDestroyedI17ImsPrefsKeyStringEC2IJRA12_KcRA9_S4_bRA1_S4_bEEEDpOT_
__ZN3ctu14NeverDestroyedI17ImsPrefsKeyStringEC2IJRA30_KcRA9_S4_bS8_bEEEDpOT_
__ZN3ctu14NeverDestroyedI14ImsPrefsKeyIntEC2IJRA45_KcRA9_S4_biEEEDpOT_
__ZN3ctu14NeverDestroyedI14ImsPrefsKeyIntEC2IJRA41_KcRA9_S4_biEEEDpOT_
__ZN3ctu14NeverDestroyedI14ImsPrefsKeyIntEC2IJRA29_KcRA9_S4_biEEEDpOT_
__ZN3ctu14NeverDestroyedI15ImsPrefsKeyBoolEC2IJRA19_KcRA9_S4_bbEEEDpOT_
__ZN3ctu14NeverDestroyedI17ImsPrefsKeyStringEC2IJRA11_KcRA9_S4_bRA1_S4_bEEEDpOT_
__ZN3ctu14NeverDestroyedI15ImsPrefsKeyBoolEC2IJRA17_KcRA9_S4_bbEEEDpOT_
__ZN3ctu14NeverDestroyedI17ImsPrefsKeyStringEC2IJRA15_KcRA9_S4_bRA1_S4_bEEEDpOT_
__ZN3ctu14NeverDestroyedI17ImsPrefsKeyStringEC2IJRA7_KcRA9_S4_bRA1_S4_bEEEDpOT_
__ZN3ctu14NeverDestroyedI17ImsPrefsKeyStringEC2IJRA13_KcRA9_S4_bRA1_S4_bEEEDpOT_
__ZN3ctu14NeverDestroyedI17ImsPrefsKeyStringEC2IJRA28_KcRA9_S4_bRA1_S4_bEEEDpOT_
__ZN3ctu14NeverDestroyedI15ImsPrefsKeyBoolEC2IJRA25_KcRA9_S4_bbEEEDpOT_
__ZN3ctu14NeverDestroyedI15ImsPrefsKeyBoolEC2IJRA44_KcRA9_S4_bbEEEDpOT_
__ZN3ctu14NeverDestroyedI15ImsPrefsKeyBoolEC2IJRA16_KcRA9_S4_bbEEEDpOT_
__ZN3ctu14NeverDestroyedI15ImsPrefsKeyBoolEC2IJRA15_KcRA9_S4_bbEEEDpOT_
__ZN3ctu14NeverDestroyedI15ImsPrefsKeyBoolEC2IJRA29_KcRA9_S4_bbEEEDpOT_
__ZN3ctu14NeverDestroyedI15ImsPrefsKeyBoolEC2IJRA27_KcRA9_S4_bbEEEDpOT_
__ZN3ctu14NeverDestroyedI17ImsPrefsKeyStringEC2IJRA5_KcRA9_S4_bRA1_S4_bEEEDpOT_
__ZN3ctu14NeverDestroyedI17ImsPrefsKeyStringEC2IJRA14_KcRA9_S4_bRA1_S4_bEEEDpOT_
__ZN3ctu14NeverDestroyedI14ImsPrefsKeyIntEC2IJRA13_KcRA9_S4_biEEEDpOT_
__ZN3ctu14NeverDestroyedI14ImsPrefsKeyIntEC2IJRA24_KcRA9_S4_biEEEDpOT_
__ZN3ctu14NeverDestroyedI17ImsPrefsKeyStringEC2IJRA17_KcRA9_S4_bRA1_S4_bEEEDpOT_
__ZN3ctu14NeverDestroyedI14ImsPrefsKeyIntEC2IJRA37_KcRA9_S4_biEEEDpOT_
__ZN3ctu14NeverDestroyedI15ImsPrefsKeyBoolEC2IJRA32_KcRA9_S4_bbEEEDpOT_
__ZN3ctu14NeverDestroyedI17ImsPrefsKeyStringEC2IJRA36_KcRA9_S4_bRA2_S4_bEEEDpOT_
__ZN3ctu14NeverDestroyedI14ImsPrefsKeyIntEC2IJRA22_KcRA9_S4_biEEEDpOT_
__ZN3ctu14NeverDestroyedI14ImsPrefsKeyIntEC2IJRA31_KcRA9_S4_biEEEDpOT_
__ZN3ctu14NeverDestroyedI15ImsPrefsKeyBoolEC2IJRA21_KcRA9_S4_bbEEEDpOT_
__ZN3ctu14NeverDestroyedI15ImsPrefsKeyBoolEC2IJRA20_KcRA9_S4_bbEEEDpOT_
__ZN3ctu14NeverDestroyedI15ImsPrefsKeyBoolEC2IJRA38_KcRA5_S4_bbEEEDpOT_
__ZN3ctu14NeverDestroyedI15ImsPrefsKeyBoolEC2IJRA42_KcRA5_S4_bbEEEDpOT_
__ZN3ctu14NeverDestroyedI15ImsPrefsKeyBoolEC2IJRA52_KcRA5_S4_bbEEEDpOT_
__ZN3ctu14NeverDestroyedI15ImsPrefsKeyBoolEC2IJRA54_KcRA5_S4_bbEEEDpOT_
__ZN3ctu14NeverDestroyedI15ImsPrefsKeyBoolEC2IJRA25_KcRA5_S4_bbEEEDpOT_
__ZN3ctu14NeverDestroyedI17ImsPrefsKeyStringEC2IJRA6_KcRA12_S4_bRA1_S4_bEEEDpOT_
__ZN3ctu14NeverDestroyedI15ImsPrefsKeyBoolEC2IJRA11_KcRA10_S4_bbEEEDpOT_
__ZN3ctu14NeverDestroyedI17ImsPrefsKeyStringEC2IJRA14_KcRA10_S4_bRA1_S4_bEEEDpOT_
__ZN3ctu14NeverDestroyedI17ImsPrefsKeyStringEC2IJRA11_KcRA10_S4_bRA1_S4_bEEEDpOT_
__ZN3ctu14NeverDestroyedI17ImsPrefsKeyStringEC2IJRA11_KcRA10_S4_bRA16_S4_bEEEDpOT_
__ZN3ctu14NeverDestroyedI15ImsPrefsKeyBoolEC2IJRA20_KcRA4_S4_bbEEEDpOT_
__ZN3ctu14NeverDestroyedI15ImsPrefsKeyBoolEC2IJRA11_KcRA4_S4_bbEEEDpOT_
__ZN3ctu14NeverDestroyedI15ImsPrefsKeyBoolEC2IJRA15_KcRA4_S4_bbEEEDpOT_
__ZN3ctu14NeverDestroyedI17ImsPrefsKeyStringEC2IJRA14_KcRA4_S4_bRA1_S4_bEEEDpOT_
__ZN3ctu14NeverDestroyedI17ImsPrefsKeyStringEC2IJRA11_KcRA4_S4_bRA1_S4_bEEEDpOT_
__ZN3ctu14NeverDestroyedI17ImsPrefsKeyStringEC2IJRA11_KcRA4_S4_bRA16_S4_bEEEDpOT_
__ZN3ctu14NeverDestroyedI15ImsPrefsKeyBoolEC2IJRA12_KcRA4_S4_bbEEEDpOT_
__ZN3ctu14NeverDestroyedI17ImsPrefsKeyStringEC2IJRA18_KcRA8_S4_bRA1_S4_bEEEDpOT_
__ZN3ctu14NeverDestroyedI14ImsPrefsKeyIntEC2IJRA18_KcRA8_S4_biEEEDpOT_
__ZN3ctu14NeverDestroyedI15ImsPrefsKeyBoolEC2IJRA45_KcRA6_S4_bbEEEDpOT_
__ZN3ctu14NeverDestroyedI14ImsPrefsKeyIntEC2IJRA13_KcRA6_S4_biEEEDpOT_
__ZN3ctu14NeverDestroyedI15ImsPrefsKeyBoolEC2IJRA16_KcRA6_S4_bbEEEDpOT_
__ZN3ctu14NeverDestroyedI15ImsPrefsKeyBoolEC2IJRA32_KcRA13_S4_bbEEEDpOT_
__ZN3ctu14NeverDestroyedI17ImsPrefsKeyStringEC2IJRA23_KcRA13_S4_bRA1_S4_bEEEDpOT_
__ZN3ctu14NeverDestroyedI17ImsPrefsKeyStringEC2IJRA18_KcRA13_S4_bRA1_S4_bEEEDpOT_
__ZN3ctu14NeverDestroyedI15ImsPrefsKeyBoolEC2IJRA29_KcRA13_S4_bbEEEDpOT_
__ZN14SipUssdSessionC1Ev
__ZN14SipUssdSessionD2Ev
__ZN14SipUssdSessionD1Ev
__ZThn80_N14SipUssdSessionD1Ev
__ZThn152_N14SipUssdSessionD1Ev
__ZN14SipUssdSessionD0Ev
__ZThn80_N14SipUssdSessionD0Ev
__ZThn152_N14SipUssdSessionD0Ev
__ZN14SipUssdSession12deinitializeEv
__ZN14SipUssdSession8setStateENS_5StateE
__ZN14SipUssdSession24terminationLocksReleasedEv
__ZThn80_N14SipUssdSession24terminationLocksReleasedEv
__ZNK14SipUssdSession12loggableNameEv
__ZThn80_NK14SipUssdSession12loggableNameEv
__ZN14SipUssdSession10initializeEP9SipDialog
__ZN14SipUssdSession12startSessionEv
__ZN10SipMessage6headerI15SipAcceptHeaderEEPT_b
__ZN14SipUssdSession18sendAdditionalDataERKNSt3__112basic_stringIcNS0_11char_traitsIcEENS0_9allocatorIcEEEE
__ZN14SipUssdSession8sendInfoERK11SipUssdData
__ZN9ImsResultlsIA30_cEERS_RKT_
__ZN14SipUssdSession13handleRequestERK10SipRequestP20SipServerTransaction
__ZNK10SipMessage4bodyI15SipUssdDataBodyEEPKT_v
__ZN14SipUssdSession14handleResponseERK11SipResponseP20SipClientTransaction
__ZN14SipUssdSession22handleTransactionErrorERK9ImsResultP14SipTransaction
__ZN14SipUssdSession23removeClientTransactionEP20SipClientTransaction
__ZN14SipUssdSession11handleTimerEP17SipTimerContainerRKNSt3__112basic_stringIcNS2_11char_traitsIcEENS2_9allocatorIcEEEE
__ZN14SipUssdSession13cancelSessionEv
__ZN19SipSessionInterface11handleTimerEP17SipTimerContainerRKNSt3__112basic_stringIcNS2_11char_traitsIcEENS2_9allocatorIcEEEE
__ZThn152_N14SipUssdSession11handleTimerEP17SipTimerContainerRKNSt3__112basic_stringIcNS2_11char_traitsIcEENS2_9allocatorIcEEEE
__ZNK14SipUssdSession16printSessionInfoER12ImsOutStream
__ZN14SipUssdSession7sendByeEv
__ZN9ImsResultlsIA27_cEERS_RKT_
__ZN14SipUssdSession10sendCancelEv
__ZN14SipUssdSession3byeERK26BambiCallTerminationReasonb
__ZNK14SipUssdSession15desiredServicesEv
__ZNK19SipSessionInterface8localSdpEv
__ZN19SipSessionInterface13handleRequestERK10SipRequestP20SipServerTransaction
__ZN19SipSessionInterface32handleClientTransactionCompletedEP20SipClientTransaction
__ZN19SipSessionInterface32handleServerTransactionCompletedEP20SipServerTransaction
__ZN19SipSessionInterface22handleOutgoingResponseEP11SipResponseP20SipServerTransaction
__ZN19SipSessionInterface26handleAuthChallengeTimeoutEv
__ZN19SipSessionInterface24fillCommonRequestHeadersEP10SipRequest
__ZNK19SipSessionInterface15desiredServicesEv
__ZN19SipSessionInterface20addServerTransactionEP20SipServerTransaction
__ZNK14SipUssdSession10terminatedEv
__GLOBAL__sub_I_SipUssdSession.cpp
__ZN20BambiCallMediaStreamD1Ev
__ZN20BambiCallMediaStreamD0Ev
__ZN20BambiCallMediaStream17setMediaSessionIdEy
__ZNK20BambiCallMediaStream9logPrefixER12ImsOutStream
__ZN20SipTlsTransportGroupC1EP26SipTransportLayerInterface
__ZN20SipTlsTransportGroupD2Ev
__ZN20SipTlsTransportGroup5closeEv
__ZN23SipTypedTerminationLockI16SipTcpConnectionED1Ev
__ZN20SipTlsTransportGroupD1Ev
__ZThn72_N20SipTlsTransportGroupD1Ev
__ZThn160_N20SipTlsTransportGroupD1Ev
__ZN20SipTlsTransportGroupD0Ev
__ZThn72_N20SipTlsTransportGroupD0Ev
__ZThn160_N20SipTlsTransportGroupD0Ev
__ZNK20SipTlsTransportGroup12loggableNameEv
__ZN20SipTlsTransportGroup10initializeERK9IpAddressS2_RKNSt3__112basic_stringIcNS3_11char_traitsIcEENS3_9allocatorIcEEEE
__ZN23SipTypedTerminationLockI16SipTcpConnectionE3setEPS0_RK14LoggableString
__ZN20SipTlsTransportGroup8sendDataEPKhmRKNSt3__112basic_stringIcNS2_11char_traitsIcEENS2_9allocatorIcEEEERK9IpAddressPP16SipTcpConnection
__ZNK20SipTlsTransportGroup18localClientAddressEv
__ZNK20SipTlsTransportGroup18localServerAddressEv
__ZNK20SipTlsTransportGroup15remoteServerUriEv
__ZN20SipTlsTransportGroup27processMessageFromTransportEP10SipMessagePKhmbRK9IpAddressP12SipTransportP16SipTcpConnection
__ZNK20SipTlsTransportGroup18printTransportInfoER12ImsOutStreamb
__ZN20SipTlsTransportGroup27addTransportSpecificHeadersEP10SipMessage
__ZN20SipTlsTransportGroup16getTransportNameEP16SipTcpConnectionPNSt3__112basic_stringIcNS2_11char_traitsIcEENS2_9allocatorIcEEEE
__ZN20SipTlsTransportGroup16triggerTcpErrorsERK9ImsResult
__ZN20SipTlsTransportGroup7addUserEP17SipConnectionUser
__ZN20SipTlsTransportGroup10removeUserEP17SipConnectionUser
__ZN20SipTlsTransportGroup28transportLayerRequestedCloseEv
__ZN20SipTlsTransportGroup25sendMessageFromConnectionEP10SipMessageP16SipTcpConnection
__ZThn160_N20SipTlsTransportGroup25sendMessageFromConnectionEP10SipMessageP16SipTcpConnection
__ZN20SipTlsTransportGroup22processIncomingMessageEP10SipMessagePKhmbRK9IpAddressP16SipTcpConnection
__ZThn160_N20SipTlsTransportGroup22processIncomingMessageEP10SipMessagePKhmbRK9IpAddressP16SipTcpConnection
__ZN20SipTlsTransportGroup16removeConnectionEP16SipTcpConnection
__ZThn160_N20SipTlsTransportGroup16removeConnectionEP16SipTcpConnection
__ZN20SipTlsTransportGroup25handleErrorFromConnectionEP16SipTcpConnectionRK9ImsResult
__ZThn160_N20SipTlsTransportGroup25handleErrorFromConnectionEP16SipTcpConnectionRK9ImsResult
__ZN20SipTlsTransportGroup15messageEncodingEv
__ZThn160_N20SipTlsTransportGroup15messageEncodingEv
__ZN20SipTlsTransportGroup16handleSystemWakeEv
__ZN20SipTlsTransportGroup18updateServiceClassEv
__ZN20SipTlsTransportGroup11sendMessageEP10SipMessagePP21SipTransportInterface
__ZN9ImsResultlsIA56_cEERS_RKT_
__ZNK20SipTlsTransportGroup9localPortEv
__ZN20SipTlsTransportGroup10isReliableEv
__ZN20SipTlsTransportGroup19transactionTimedOutEv
__ZN20SipTlsTransportGroup12udpTransportEv
__ZN20SipTlsTransportGroup12tcpTransportEv
__ZNK20SipTlsTransportGroup11initializedEv
__ZNK20SipTlsTransportGroup8isSecureEv
__ZNK20SipTlsTransportGroup33acceptsTransactionsFromConnectionEv
__ZN20SipTlsTransportGroup5groupEv
__ZN20SipTlsTransportGroup14transportLayerEv
__ZNK20SipTlsTransportGroup21shouldResetConnectionEP16SipTcpConnection
__ZThn160_N20SipTlsTransportGroup5groupEv
__ZThn160_N20SipTlsTransportGroup14transportLayerEv
__ZThn160_NK20SipTlsTransportGroup21shouldResetConnectionEP16SipTcpConnection
__ZN23SipTypedTerminationLockI16SipTcpConnectionED0Ev
__ZN23SipTypedTerminationLockI16SipTcpConnectionED2Ev
__ZN25SipInsecureTransportGroup5closeEv
__ZN25SipInsecureTransportGroupD1Ev
__ZThn72_N25SipInsecureTransportGroupD1Ev
__ZN25SipInsecureTransportGroupD0Ev
__ZThn72_N25SipInsecureTransportGroupD0Ev
__ZNK25SipInsecureTransportGroup12loggableNameEv
__ZN25SipInsecureTransportGroup10initializeERK9IpAddressRKNSt3__112basic_stringIcNS3_11char_traitsIcEENS3_9allocatorIcEEEE
__ZN25SipInsecureTransportGroup8sendDataEPKhmRKNSt3__112basic_stringIcNS2_11char_traitsIcEENS2_9allocatorIcEEEERK9IpAddressPP16SipTcpConnection
__ZNK25SipInsecureTransportGroup18localClientAddressEv
__ZNK25SipInsecureTransportGroup18localServerAddressEv
__ZNK25SipInsecureTransportGroup15remoteServerUriEv
__ZN25SipInsecureTransportGroup27processMessageFromTransportEP10SipMessagePKhmbRK9IpAddressP12SipTransportP16SipTcpConnection
__ZNK25SipInsecureTransportGroup18printTransportInfoER12ImsOutStreamb
__ZN25SipInsecureTransportGroup27addTransportSpecificHeadersEP10SipMessage
__ZN25SipInsecureTransportGroup18updateServiceClassEv
__ZN25SipInsecureTransportGroup16triggerTcpErrorsERK9ImsResult
__ZN25SipInsecureTransportGroup12udpTransportEv
__ZN25SipInsecureTransportGroup12tcpTransportEv
__ZNK25SipInsecureTransportGroup11initializedEv
__ZNK25SipInsecureTransportGroup9localPortEv
__ZNK25SipInsecureTransportGroup8isSecureEv
__ZN19RTPTransportManagerD1Ev
__ZN19RTPTransportManagerD2Ev
__ZN19RTPTransportManagerD0Ev
__ZN19RTPTransportManager14setupTransportEyRK9IpAddressRKNSt3__112basic_stringIcNS3_11char_traitsIcEENS3_9allocatorIcEEEERK15ImsServiceClassNS3_10shared_ptrI8SDPModelEEN8SDPMedia9MediaTypeENSF_I10RTPManagerEEP29ImsUdpSocketInterfaceDelegatePK8SipStack
__ZN19RTPTransportManager15removeTransportEy
__ZN19RTPTransportManager12getTransportEyt
__ZN19RTPTransportManager8clearAllEv
__ZNSt3__110shared_ptrI10RTPManagerED2B6v15006Ev
__ZNSt3__16__treeINS_12__value_typeIyNS_6vectorIP21ImsUdpSocketInterfaceNS_9allocatorIS4_EEEEEENS_19__map_value_compareIyS8_NS_4lessIyEELb1EEENS5_IS8_EEE7destroyEPNS_11__tree_nodeIS8_PvEE
__ZNSt3__16vectorIP21ImsUdpSocketInterfaceNS_9allocatorIS2_EEEC2ERKS5_
__ZNSt3__16vectorIP21ImsUdpSocketInterfaceNS_9allocatorIS2_EEE11__vallocateB6v15006Em
__ZNKSt3__16vectorIP21ImsUdpSocketInterfaceNS_9allocatorIS2_EEE20__throw_length_errorB6v15006Ev
__ZNSt3__119__allocate_at_leastB6v15006INS_9allocatorIP21ImsUdpSocketInterfaceEEEENS_19__allocation_resultINS_16allocator_traitsIT_E7pointerEEERS7_m
__ZNSt3__16__treeINS_12__value_typeIyNS_6vectorIP21ImsUdpSocketInterfaceNS_9allocatorIS4_EEEEEENS_19__map_value_compareIyS8_NS_4lessIyEELb1EEENS5_IS8_EEE25__emplace_unique_key_argsIyJRKNS_21piecewise_construct_tENS_5tupleIJRKyEEENSJ_IJEEEEEENS_4pairINS_15__tree_iteratorIS8_PNS_11__tree_nodeIS8_PvEElEEbEERKT_DpOT0_
__ZNSt3__16__treeINS_12__value_typeIyNS_6vectorIP21ImsUdpSocketInterfaceNS_9allocatorIS4_EEEEEENS_19__map_value_compareIyS8_NS_4lessIyEELb1EEENS5_IS8_EEE14__erase_uniqueIyEEmRKT_
__ZNSt3__16__treeINS_12__value_typeIyNS_6vectorIP21ImsUdpSocketInterfaceNS_9allocatorIS4_EEEEEENS_19__map_value_compareIyS8_NS_4lessIyEELb1EEENS5_IS8_EEE5eraseENS_21__tree_const_iteratorIS8_PNS_11__tree_nodeIS8_PvEElEE
__ZNSt3__16__treeINS_12__value_typeIyNS_6vectorIP21ImsUdpSocketInterfaceNS_9allocatorIS4_EEEEEENS_19__map_value_compareIyS8_NS_4lessIyEELb1EEENS5_IS8_EEE21__remove_node_pointerEPNS_11__tree_nodeIS8_PvEE
__GLOBAL__sub_I_RTPTransportManager.cpp
__ZN20SipUnsupportedHeaderD1Ev
__ZN20SipUnsupportedHeaderD0Ev
__ZNK20SipUnsupportedHeader5cloneEv
__ZN9SipHeaderC2ERKNSt3__112basic_stringIcNS0_11char_traitsIcEENS0_9allocatorIcEEEE
__ZN9SipHeaderC2ERKS_
__ZNK9SipHeader3logER12ImsOutStream
__ZNK9SipHeader22valueAndParamsAsStringEPNSt3__112basic_stringIcNS0_11char_traitsIcEENS0_9allocatorIcEEEE
__ZNK9SipHeader13valueAsStringEPNSt3__112basic_stringIcNS0_11char_traitsIcEENS0_9allocatorIcEEEE
__ZNK9SipHeader6encodeER12ImsOutStreamb
__ZN9SipHeader6decodeERKNSt3__112basic_stringIcNS0_11char_traitsIcEENS0_9allocatorIcEEEE
__ZN9SipHeaderD1Ev
__ZN9SipHeaderD0Ev
__GLOBAL__sub_I_SipHeader.cpp
__ZN22SipParameterListHeaderC2ERKS_
__ZNK22SipParameterListHeader11encodeValueER12ImsOutStream
__ZN22SipParameterListHeader18setValueFromStringERKNSt3__112basic_stringIcNS0_11char_traitsIcEENS0_9allocatorIcEEEE
__ZN22SipParameterListHeaderD1Ev
__ZN22SipParameterListHeaderD0Ev
__ZNSt3__13mapIN15XcapCBCondition9ConditionEKNS_12basic_stringIcNS_11char_traitsIcEENS_9allocatorIcEEEENS_4lessIS2_EENS6_INS_4pairIKS2_S9_EEEEED1B6v15006Ev
__ZN15XcapCBConditionC1Ev
__ZN15XcapCBConditionC2ERKS_
__ZNK15XcapCBCondition8asStringEv
__ZN15XcapCBCondition10parseChildERKNSt3__112basic_stringIcNS0_11char_traitsIcEENS0_9allocatorIcEEEERKN5bambi13XmlParserNodeE
__ZNK15XcapCBCondition13constructTreeEv
__ZThn8_NK15XcapCBCondition13constructTreeEv
__ZN15XcapCBConditionD1Ev
__ZN15XcapCBConditionD0Ev
__ZThn8_N15XcapCBConditionD1Ev
__ZThn8_N15XcapCBConditionD0Ev
__ZNSt3__16__treeINS_12__value_typeIN15XcapCBCondition9ConditionEKNS_12basic_stringIcNS_11char_traitsIcEENS_9allocatorIcEEEEEENS_19__map_value_compareIS3_SB_NS_4lessIS3_EELb1EEENS7_ISB_EEE16__insert_node_atEPNS_15__tree_end_nodeIPNS_16__tree_node_baseIPvEEEERSM_SM_
__ZNSt3__16__treeINS_12__value_typeIN15XcapCBCondition9ConditionEKNS_12basic_stringIcNS_11char_traitsIcEENS_9allocatorIcEEEEEENS_19__map_value_compareIS3_SB_NS_4lessIS3_EELb1EEENS7_ISB_EEE7destroyEPNS_11__tree_nodeISB_PvEE
__ZNSt3__16__treeINS_12__value_typeIN15XcapCBCondition9ConditionEKNS_12basic_stringIcNS_11char_traitsIcEENS_9allocatorIcEEEEEENS_19__map_value_compareIS3_SB_NS_4lessIS3_EELb1EEENS7_ISB_EEE25__emplace_unique_key_argsIS3_JRKNS_21piecewise_construct_tENS_5tupleIJRKS3_EEENSM_IJEEEEEENS_4pairINS_15__tree_iteratorISB_PNS_11__tree_nodeISB_PvEElEEbEERKT_DpOT0_
__ZNSt3__16__treeINS_12__value_typeIN15XcapCBCondition9ConditionEKNS_12basic_stringIcNS_11char_traitsIcEENS_9allocatorIcEEEEEENS_19__map_value_compareIS3_SB_NS_4lessIS3_EELb1EEENS7_ISB_EEE25__emplace_unique_key_argsIS3_JRKNS_21piecewise_construct_tENS_5tupleIJOS3_EEENSM_IJEEEEEENS_4pairINS_15__tree_iteratorISB_PNS_11__tree_nodeISB_PvEElEEbEERKT_DpOT0_
__ZNSt3__110shared_ptrIN5bambi11XmlTreeNodeEED2B6v15006Ev
__GLOBAL__sub_I_XcapCBCondition.cpp
__Z8logBytesRKNSt3__16vectorIhNS_9allocatorIhEEEE
__ZNSt3__1lsB6v15006INS_11char_traitsIcEEEERNS_13basic_ostreamIcT_EES6_RKNS_8__iom_t4IcEE
__Z13isPhoneNumberRKNSt3__112basic_stringIcNS_11char_traitsIcEENS_9allocatorIcEEEE
__ZNK6SipUri8isBarredEv
__ZNK6SipUri8isSipUriEv
__ZL11isSipSchemeRKNSt3__112basic_stringIcNS_11char_traitsIcEENS_9allocatorIcEEEE
__ZNK6SipUri11guessSchemeEv
__ZNK6SipUri8isTelUriEv
__ZL11isTelSchemeRKNSt3__112basic_stringIcNS_11char_traitsIcEENS_9allocatorIcEEEE
__ZNK6SipUri5isUrnEv
__ZL11isUrnSchemeRKNSt3__112basic_stringIcNS_11char_traitsIcEENS_9allocatorIcEEEE
__ZNK6SipUri14isEmergencyUrnEv
__ZNK6SipUri22getEmergencySubserviceEv
__ZN6SipUri15setNamespaceStrERKNSt3__112basic_stringIcNS0_11char_traitsIcEENS0_9allocatorIcEEEE
__ZN6SipHopD2Ev
__ZN6SipUriC2ERK9IpAddress
__ZN6SipUriC2ERKNSt3__112basic_stringIcNS0_11char_traitsIcEENS0_9allocatorIcEEEE
__ZN6SipUri10fromStringERKNSt3__112basic_stringIcNS0_11char_traitsIcEENS0_9allocatorIcEEEE
__ZN6SipUriC2ERKS_
__ZN6SipUriD2Ev
__ZN6SipUriD1Ev
__ZN6SipUriD0Ev
__ZN6SipUriaSERKS_
__ZN6SipUri5clearEv
__ZN6SipUri10makeSipUriEv
__ZN6SipUri7makeUrnEv
__ZNK6SipUri14isAnonymousUriEv
__ZNK6SipUri15isAnonymousUserEv
__ZN6SipUri13makeAnonymousEv
__ZN6SipUri7setUserERKNSt3__112basic_stringIcNS0_11char_traitsIcEENS0_9allocatorIcEEEES8_
__ZN6SipUri7setUserERKNSt3__112basic_stringIcNS0_11char_traitsIcEENS0_9allocatorIcEEEERK15SipParameterMap
__ZN6SipUri7setHostERK7SipHost
__ZN6SipHop7setHostERK7SipHost
__ZNK6SipUri12phoneContextEv
__ZNK6SipUri12verstatLevelEv
__ZN6SipUri15setPhoneContextERKNSt3__112basic_stringIcNS0_11char_traitsIcEENS0_9allocatorIcEEEE
__ZNK6SipUri17needsPhoneContextEv
__ZL18isLocalPhoneNumberRKNSt3__112basic_stringIcNS_11char_traitsIcEENS_9allocatorIcEEEE
__ZNK6SipUri27countryCodeFromPhoneContextEv
__ZNK6SipUri8asStringENS_11BracketTypeE
__ZNK6SipUri8asStringEPNSt3__112basic_stringIcNS0_11char_traitsIcEENS0_9allocatorIcEEEENS_11BracketTypeE
__ZNK6SipUri8toStreamER12ImsOutStreamNS_11BracketTypeE
__ZNK6SipUri8toStreamER12ImsOutStream
__ZN9PIIStringD1Ev
__ZNK6SipUri18getContentIdStringERKNSt3__112basic_stringIcNS0_11char_traitsIcEENS0_9allocatorIcEEEEb
__ZNK6SipUri9transportEv
__ZNK6SipUri10isValidUriEv
__ZN6SipUri13makeCanonicalEv
__ZNK6SipUri6equalsERKS_b
__ZNSt3__1neB6v15006IcNS_11char_traitsIcEENS_9allocatorIcEEEEbRKNS_12basic_stringIT_T0_T1_EESB_
__ZNSt3__1eqB6v15006INS_9allocatorIcEEEEbRKNS_12basic_stringIcNS_11char_traitsIcEET_EES9_
__ZNK6SipUri9userMatchERKS_
__ZNK6SipUri21normalizedPhoneNumberEv
__ZN6SipUri12anonymousUriEv
__ZNK16IpAddressWrapper3logER12ImsOutStream
__ZNK6SipHop9toAddressEv
__ZNK6SipUri5cloneEv
__ZNK6SipHop13returnAddressEv
__ZN6SipHopD1Ev
__ZN6SipHopD0Ev
__ZN9PIIStringC2ERKNSt3__112basic_stringIcNS0_11char_traitsIcEENS0_9allocatorIcEEEES8_
__ZN7ImsUuidD1Ev
__ZNSt3__110unique_ptrIN11IMSCallInfo8DialInfoENS_14default_deleteIS2_EEE5resetB6v15006EPS2_
__ZN7ImsUuideqERKS_
__ZN3ims13AccessNetwork5clearEv
____ZN11IMSCallInfo12continueCallEv_block_invoke
___copy_helper_block_e8_48c26_ZTSN3ims14DisconnectInfoE
___destroy_helper_block_e8_48c26_ZTSN3ims14DisconnectInfoE
____ZN11IMSCallInfo27sendAccessBarringDisconnectEv_block_invoke
__ZNK3ims13AccessNetwork7isValidEv
__ZL14companionStackRKNSt3__112basic_stringIcNS_11char_traitsIcEENS_9allocatorIcEEEE
__ZNK3ctu9SharedRefIK14__CFDictionaryNS_2cf16cfretain_functorENS3_17cfrelease_functorES2_E3getEv
__ZN3ims12CFDictionaryD1Ev
__ZNK3ctu9SharedRefI14__CFDictionaryNS_2cf16cfretain_functorENS2_17cfrelease_functorES1_E3getEv
__ZNK3ctu9SharedRefIK10__CFNumberNS_2cf16cfretain_functorENS3_17cfrelease_functorES2_E3getEv
__ZN17BambiCallDelegate36handleSessionActivationAcceptedEventEP14BambiCallEvent
__ZN17BambiCallDelegate21handleConferenceEventEP24BambiCallConferenceEvent
__ZN14IMSCallManager14conferenceCallEv
__ZN17BambiCallDelegate17handleTryingEventEP14BambiCallEvent
__ZN17BambiCallDelegate33handlePreconditionsSatisfiedEventEP36BambiCallPreconditionsSatisfiedEvent
__ZN17BambiCallDelegate27handleSessionRequestedEventEP30BambiCallSessionRequestedEvent
__ZN17BambiCallDelegate18handleRingingEventEP33BambiCallProvisionalResponseEvent
__ZN17BambiCallDelegate15handleLRBTEventEP14BambiCallEventb
__ZN17BambiCallDelegate28handleTextMediaDetectedEventEP14BambiCallEvent
__ZN17BambiCallDelegate26handleSessionProgressEventEP33BambiCallProvisionalResponseEvent
__ZN17BambiCallDelegate29handleSessionTerminatingEventEP32BambiCallSessionTerminatingEvent
__ZN17BambiCallDelegate27handleJoinedConferenceEventEP30BambiCallJoinedConferenceEvent
__ZN17BambiCallDelegate31handleTextMediaDeactivatedEventEP14BambiCallEvent
__ZN17BambiCallDelegate25handleHoldIndicationEventEP34BambiCallHoldResumeIndicationEvent
__ZN17BambiCallDelegate27handleResumeIndicationEventEP34BambiCallHoldResumeIndicationEvent
__ZN17BambiCallDelegate22handleVocoderInfoEventEPK10__CFStringPK10__CFNumber
__ZN17BambiCallDelegate26handleTextStreamTokenEventEPK10__CFNumber
__ZN17BambiCallDelegate25handleTextStreamHeldEventEb
__ZN17BambiCallDelegate27handleMediaInitializedEventEP14BambiCallEvent
__ZN17BambiCallDelegate22handleUnprocessedEventEP14BambiCallEvent
__ZN17BambiCallDelegate21handleMetricOnlyEventEP14BambiCallEvent
__ZN26BambiMetricsLoggerDelegate27handleBasebandCallIdForCallEP9BambiCallhRKNSt3__112basic_stringIcNS2_11char_traitsIcEENS2_9allocatorIcEEEE
__ZN7ImsUuidD0Ev
__ZNK7ImsUuid12loggableNameEv
__ZN25BambiEmergencyCallOptionsC2ERKS_
__ZN14SipStackConfigC2ERKS_
__ZN35BambiCallIncomingTerminationReasonsD1Ev
__ZN27BambiCallTerminationReasonsD1Ev
__ZN23SipTransportLayerConfigD1Ev
__ZN18SipUserAgentConfigC2ERKS_
__ZNSt3__13setINS_12basic_stringIcNS_11char_traitsIcEENS_9allocatorIcEEEENS_4lessIS6_EENS4_IS6_EEEC2B6v15006ERKSA_
__ZNSt3__13setINS_12basic_stringIcNS_11char_traitsIcEENS_9allocatorIcEEEENS_4lessIS6_EENS4_IS6_EEE6insertB6v15006INS_21__tree_const_iteratorIS6_PNS_11__tree_nodeIS6_PvEElEEEEvT_SI_
__ZNSt3__13mapINS_12basic_stringIcNS_11char_traitsIcEENS_9allocatorIcEEEENS_6vectorIN20SipHeaderTemplateMap14HeaderTemplateENS4_IS9_EEEENS_4lessIS6_EENS4_INS_4pairIKS6_SB_EEEEEC2B6v15006ERKSI_
__ZNSt3__13mapINS_12basic_stringIcNS_11char_traitsIcEENS_9allocatorIcEEEENS_6vectorIN20SipHeaderTemplateMap14HeaderTemplateENS4_IS9_EEEENS_4lessIS6_EENS4_INS_4pairIKS6_SB_EEEEE6insertB6v15006INS_20__map_const_iteratorINS_21__tree_const_iteratorINS_12__value_typeIS6_SB_EEPNS_11__tree_nodeISN_PvEElEEEEEEvT_SU_
__ZNSt3__16__treeINS_12__value_typeINS_12basic_stringIcNS_11char_traitsIcEENS_9allocatorIcEEEENS_6vectorIN20SipHeaderTemplateMap14HeaderTemplateENS5_ISA_EEEEEENS_19__map_value_compareIS7_SD_NS_4lessIS7_EELb1EEENS5_ISD_EEE30__emplace_hint_unique_key_argsIS7_JRKNS_4pairIKS7_SC_EEEEENSL_INS_15__tree_iteratorISD_PNS_11__tree_nodeISD_PvEElEEbEENS_21__tree_const_iteratorISD_SU_lEERKT_DpOT0_
__ZNSt3__16__treeINS_12__value_typeINS_12basic_stringIcNS_11char_traitsIcEENS_9allocatorIcEEEENS_6vectorIN20SipHeaderTemplateMap14HeaderTemplateENS5_ISA_EEEEEENS_19__map_value_compareIS7_SD_NS_4lessIS7_EELb1EEENS5_ISD_EEE12__find_equalIS7_EERPNS_16__tree_node_baseIPvEENS_21__tree_const_iteratorISD_PNS_11__tree_nodeISD_SM_EElEERPNS_15__tree_end_nodeISO_EESP_RKT_
__ZNSt3__16__treeINS_12__value_typeINS_12basic_stringIcNS_11char_traitsIcEENS_9allocatorIcEEEENS_6vectorIN20SipHeaderTemplateMap14HeaderTemplateENS5_ISA_EEEEEENS_19__map_value_compareIS7_SD_NS_4lessIS7_EELb1EEENS5_ISD_EEE12__find_equalIS7_EERPNS_16__tree_node_baseIPvEERPNS_15__tree_end_nodeISO_EERKT_
__ZN23SipTransportLayerConfigC2ERKS_
__ZNSt3__16vectorI26SipSecurityAgreementConfigNS_9allocatorIS1_EEEC2ERKS4_
__ZN31BambiCallTerminationReasonsBase19canAddCustomReasonsEv
__ZN27BambiCallTerminationReasonsD0Ev
__ZNSt3__13mapINS_12basic_stringIcNS_11char_traitsIcEENS_9allocatorIcEEEES6_NS_4lessIS6_EENS4_INS_4pairIKS6_S6_EEEEEC2B6v15006ERKSD_
__ZNSt3__13mapINS_12basic_stringIcNS_11char_traitsIcEENS_9allocatorIcEEEES6_NS_4lessIS6_EENS4_INS_4pairIKS6_S6_EEEEE6insertB6v15006INS_20__map_const_iteratorINS_21__tree_const_iteratorINS_12__value_typeIS6_S6_EEPNS_11__tree_nodeISI_PvEElEEEEEEvT_SP_
__ZNSt3__16__treeINS_12__value_typeINS_12basic_stringIcNS_11char_traitsIcEENS_9allocatorIcEEEES7_EENS_19__map_value_compareIS7_S8_NS_4lessIS7_EELb1EEENS5_IS8_EEE30__emplace_hint_unique_key_argsIS7_JRKNS_4pairIKS7_S7_EEEEENSG_INS_15__tree_iteratorIS8_PNS_11__tree_nodeIS8_PvEElEEbEENS_21__tree_const_iteratorIS8_SP_lEERKT_DpOT0_
__ZNSt3__16__treeINS_12__value_typeINS_12basic_stringIcNS_11char_traitsIcEENS_9allocatorIcEEEES7_EENS_19__map_value_compareIS7_S8_NS_4lessIS7_EELb1EEENS5_IS8_EEE12__find_equalIS7_EERPNS_16__tree_node_baseIPvEENS_21__tree_const_iteratorIS8_PNS_11__tree_nodeIS8_SH_EElEERPNS_15__tree_end_nodeISJ_EESK_RKT_
__ZNSt3__16__treeINS_12__value_typeINS_12basic_stringIcNS_11char_traitsIcEENS_9allocatorIcEEEES7_EENS_19__map_value_compareIS7_S8_NS_4lessIS7_EELb1EEENS5_IS8_EEE12__find_equalIS7_EERPNS_16__tree_node_baseIPvEERPNS_15__tree_end_nodeISJ_EERKT_
__ZNSt3__123__optional_storage_baseINS_12basic_stringIcNS_11char_traitsIcEENS_9allocatorIcEEEELb0EE13__assign_fromB6v15006IRKNS_27__optional_copy_assign_baseIS6_Lb0EEEEEvOT_
__ZN16BambiCallOptionsC2ERKS_
__ZNSt3__120__optional_copy_baseINS_12basic_stringIcNS_11char_traitsIcEENS_9allocatorIcEEEELb0EEC2B6v15006ERKS7_
__ZN16BambiCallOptionsD2Ev
__ZN3ims6detail14to_string_implImNSt3__117integral_constantIbLb0EEEEclERKm
__ZN7ImsUuidC2ERKNSt3__112basic_stringIcNS0_11char_traitsIcEENS0_9allocatorIcEEEE
__ZN3ims12CFDictionaryD0Ev
__ZN3ims13NetworkConfigC2Ev
__ZN3ims15NetworkServicesD2Ev
__ZN3ims14PrefsContainer7releaseEv
__ZN3ims9IsimFilesD1Ev
__ZNSt3__16vectorINS_12basic_stringIcNS_11char_traitsIcEENS_9allocatorIcEEEENS4_IS6_EEE21__push_back_slow_pathIRKS6_EEvOT_
__ZN3ctu9SharedRefIK14__CFDictionaryNS_2cf16cfretain_functorENS3_17cfrelease_functorES2_EC2ERKS6_
__ZN3ctu9SharedRefIK14__CFDictionaryNS_2cf16cfretain_functorENS3_17cfrelease_functorES2_ED2Ev
__ZN3ims11StackConfigD2Ev
__ZN3ims13NetworkConfigD2Ev
__ZN14IMSCallOptionsD2Ev
__ZN3ims16CallIncomingInfoD2Ev
__ZN7ImsUuidC2EPKc
__ZN3ctu9SharedRefIK10__CFNumberNS_2cf16cfretain_functorENS3_17cfrelease_functorES2_EC2ERKS6_
__ZNKSt3__16vectorIP11IMSCallInfoNS_9allocatorIS2_EEE20__throw_length_errorB6v15006Ev
__ZNSt3__119__allocate_at_leastB6v15006INS_9allocatorIP11IMSCallInfoEEEENS_19__allocation_resultINS_16allocator_traitsIT_E7pointerEEERS7_m
__ZNSt3__16vectorI6SipUriNS_9allocatorIS1_EEE26__swap_out_circular_bufferERNS_14__split_bufferIS1_RS3_EE
__ZNSt3__142__uninitialized_allocator_move_if_noexceptB6v15006INS_9allocatorI6SipUriEENS_16reverse_iteratorIPS2_EES6_S6_EET2_RT_T0_T1_S7_
__ZNSt3__114__split_bufferI6SipUriRNS_9allocatorIS1_EEED2Ev
__ZNK3ims12CFDictionary8getValueIS0_EEbRKNS_6CFTypeEPT_
__ZNKSt3__16vectorIP9BambiCallNS_9allocatorIS2_EEE20__throw_length_errorB6v15006Ev
__ZNSt3__119__allocate_at_leastB6v15006INS_9allocatorIP9BambiCallEEEENS_19__allocation_resultINS_16allocator_traitsIT_E7pointerEEERS7_m
__ZNSt3__112basic_stringIcNS_11char_traitsIcEENS_9allocatorIcEEEC2B6v15006ENS_24__uninitialized_size_tagEmRKS4_
__ZN3ims4joinINSt3__111__wrap_iterIPKtEEEENS1_12basic_stringIcNS1_11char_traitsIcEENS1_9allocatorIcEEEET_SC_RKSB_
__ZN3ims4joinINSt3__111__wrap_iterIPKtEEEEvT_S6_R12ImsOutStreamRKNS1_12basic_stringIcNS1_11char_traitsIcEENS1_9allocatorIcEEEE
__ZNSt3__120back_insert_iteratorINS_6vectorItNS_9allocatorItEEEEEaSB6v15006EOt
__ZNKSt3__16vectorItNS_9allocatorItEEE20__throw_length_errorB6v15006Ev
__ZNSt3__119__allocate_at_leastB6v15006INS_9allocatorItEEEENS_19__allocation_resultINS_16allocator_traitsIT_E7pointerEEERS5_m
___chkstk_darwin
___chkstk_darwin_llvm_probe
__ZNK25DefaultRegistrationPolicy16maxRetryIntervalEv
__ZNK25DefaultRegistrationPolicy25generalErrorRetryIntervalEv
__ZNK25DefaultRegistrationPolicy23fatalErrorRetryIntervalEv
__ZNK25DefaultRegistrationPolicy27forbiddenErrorRetryIntervalEv
__ZN25DefaultRegistrationPolicy12updateConfigERK21SipRegistrationConfig
__ZN25DefaultRegistrationPolicyD1Ev
__ZN25DefaultRegistrationPolicyD0Ev
__ZNK25DefaultRegistrationPolicy4nameEv
__ZThn8_N25DefaultRegistrationPolicyD1Ev
__ZThn8_N25DefaultRegistrationPolicyD0Ev
__ZThn88_N25DefaultRegistrationPolicyD1Ev
__ZThn88_N25DefaultRegistrationPolicyD0Ev
__GLOBAL__sub_I_DefaultRegistrationPolicy.cpp
__ZN11SipRecorder10recordBlobEPK10SipMessageRKNSt3__112basic_stringIcNS3_11char_traitsIcEENS3_9allocatorIcEEEESB_b
__ZNSt3__114basic_ofstreamIcNS_11char_traitsIcEEEC1EPKcj
__ZNSt3__114basic_ofstreamIcNS_11char_traitsIcEEED1Ev
__ZNSt3__1plIcNS_11char_traitsIcEENS_9allocatorIcEEEENS_12basic_stringIT_T0_T1_EERKS9_S6_
__GLOBAL__sub_I_SipRecorder.cpp
__ZN17ImsSSLContextBase11readAppDataERNSt3__112basic_stringIcNS0_11char_traitsIcEENS0_9allocatorIcEEEE
__ZN17ImsSSLContextBase12writeAppDataERKNSt3__112basic_stringIcNS0_11char_traitsIcEENS0_9allocatorIcEEEE
__ZN17ImsSSLContextBase12writeAppDataEPKvPm
__ZN13ImsSSLContext10initializeEv
__ZN13ImsSSLContext22_handleSSLReadCallbackEPKvPvPm
__ZN13ImsSSLContext23_handleSSLWriteCallbackEPKvS1_Pm
__ZN13ImsSSLContext12deinitializeEv
__ZNK13ImsSSLContext4idleEv
__ZNK13ImsSSLContext9connectedEv
__ZN13ImsSSLContext9handshakeEv
__ZN13ImsSSLContext11readAppDataERNSt3__112basic_stringIcNS0_11char_traitsIcEENS0_9allocatorIcEEEE
__ZN13ImsSSLContext12writeAppDataERKNSt3__112basic_stringIcNS0_11char_traitsIcEENS0_9allocatorIcEEEE
__ZN13ImsSSLContext12writeAppDataEPKvPm
__ZN13ImsSSLContext21fetchNegotiatedCipherEv
__ZN17ImsSSLContextBaseD1Ev
__ZN17ImsSSLContextBaseD0Ev
__ZN17ImsSSLContextBase10initializeEv
__ZN17ImsSSLContextBase12deinitializeEv
__ZNK17ImsSSLContextBase4idleEv
__ZNK17ImsSSLContextBase9connectedEv
__ZN17ImsSSLContextBase9handshakeEv
__ZN17ImsSSLContextBase21fetchNegotiatedCipherEv
__ZN13ImsSSLContextD1Ev
__ZN13ImsSSLContextD0Ev
__ZN16SipDialogManagerC2EP12SipUserAgent
__ZN16SipDialogManagerD2Ev
__ZN16SipDialogManager12deinitializeEv
__ZN16SipDialogManagerD1Ev
__ZThn8_N16SipDialogManagerD1Ev
__ZThn16_N16SipDialogManagerD1Ev
__ZN16SipDialogManagerD0Ev
__ZThn8_N16SipDialogManagerD0Ev
__ZThn16_N16SipDialogManagerD0Ev
__ZN16SipDialogManager32initializeMobileOriginatedDialogERK6SipUri
__ZN16SipDialogManager15updateDialogMapERKNSt3__112basic_stringIcNS0_11char_traitsIcEENS0_9allocatorIcEEEES8_P9SipDialog
__ZN16SipDialogManager17initializeSessionERK6SipUriPK16BambiCallOptions
__ZN16SipDialogManager21initializeUssdSessionERKNSt3__112basic_stringIcNS0_11char_traitsIcEENS0_9allocatorIcEEEES8_
__ZN16SipDialogManager23subscribeToEventPackageEP15SipEventPackageRK6SipUri
__ZNK16SipDialogManager16dialogWithCallIdERKNSt3__112basic_stringIcNS0_11char_traitsIcEENS0_9allocatorIcEEEE
__ZNK16SipDialogManager16dialogForRequestERK10SipRequest
__ZN16SipDialogManager9handleAckERK10SipRequest
__ZN16SipDialogManager32createDialogForServerTransactionEP20SipServerTransactionP9ImsResult
__ZN26BambiCallTerminationReasonD1Ev
__ZN16SipDialogManager26handleNewServerTransactionEP20SipServerTransaction
__ZNK10SipMessage6headerI26SipSubscriptionStateHeaderEEPKT_v
__ZN16SipDialogManager16dialogTerminatedEP9SipDialog
__ZN16SipDialogManager13handleRequestERK10SipRequestP20SipServerTransaction
__ZThn8_N16SipDialogManager13handleRequestERK10SipRequestP20SipServerTransaction
__ZN16SipDialogManager14handleResponseERK11SipResponseP20SipClientTransaction
__ZThn8_N16SipDialogManager14handleResponseERK11SipResponseP20SipClientTransaction
__ZN16SipDialogManager22handleTransactionErrorERK9ImsResultP14SipTransaction
__ZThn8_N16SipDialogManager22handleTransactionErrorERK9ImsResultP14SipTransaction
__ZN16SipDialogManager20transactionCompletedEP14SipTransaction
__ZThn8_N16SipDialogManager20transactionCompletedEP14SipTransaction
__ZN16SipDialogManager21transactionTerminatedEP14SipTransaction
__ZThn8_N16SipDialogManager21transactionTerminatedEP14SipTransaction
__ZN16SipDialogManager15getSubscriptionERKNSt3__112basic_stringIcNS0_11char_traitsIcEENS0_9allocatorIcEEEES8_S8_
__ZN16SipDialogManager22cancelAllSubscriptionsEv
__ZNK16SipDialogManager18printSubscriptionsER12ImsOutStream
__ZNK16SipDialogManager12printDialogsER12ImsOutStream
__ZNK16SipDialogManager9logPrefixER12ImsOutStream
__ZThn16_NK16SipDialogManager9logPrefixER12ImsOutStream
__ZNK16SipDialogManager17activeDialogCountEv
__ZN16SipDialogManager11checkTimersEv
__ZN20SipUserAgentDelegateD1Ev
__ZN20SipUserAgentDelegateD0Ev
__ZN20SipUserAgentDelegate26handleNewServerTransactionEP20SipServerTransaction
__ZN18SipTransactionUserD1Ev
__ZN18SipTransactionUserD0Ev
__ZN18SipTransactionUser13handleRequestERK10SipRequestP20SipServerTransaction
__ZN18SipTransactionUser22handleTransactionErrorERK9ImsResultP14SipTransaction
__ZN18SipTransactionUser21transactionTerminatedEP14SipTransaction
__ZNSt3__112__hash_tableINS_17__hash_value_typeINS_12basic_stringIcNS_11char_traitsIcEENS_9allocatorIcEEEEP9SipDialogEENS_22__unordered_map_hasherIS7_SA_NS_4hashIS7_EENS_8equal_toIS7_EELb1EEENS_21__unordered_map_equalIS7_SA_SF_SD_Lb1EEENS5_ISA_EEED2Ev
__ZNSt3__112__hash_tableINS_17__hash_value_typeINS_12basic_stringIcNS_11char_traitsIcEENS_9allocatorIcEEEEP9SipDialogEENS_22__unordered_map_hasherIS7_SA_NS_4hashIS7_EENS_8equal_toIS7_EELb1EEENS_21__unordered_map_equalIS7_SA_SF_SD_Lb1EEENS5_ISA_EEE17__deallocate_nodeEPNS_16__hash_node_baseIPNS_11__hash_nodeISA_PvEEEE
__ZNSt3__16__treeINS_12basic_stringIcNS_11char_traitsIcEENS_9allocatorIcEEEENS_4lessIS6_EENS4_IS6_EEE25__emplace_unique_key_argsIS6_JRKS6_EEENS_4pairINS_15__tree_iteratorIS6_PNS_11__tree_nodeIS6_PvEElEEbEERKT_DpOT0_
__ZNSt3__112__hash_tableINS_17__hash_value_typeINS_12basic_stringIcNS_11char_traitsIcEENS_9allocatorIcEEEEP9SipDialogEENS_22__unordered_map_hasherIS7_SA_NS_4hashIS7_EENS_8equal_toIS7_EELb1EEENS_21__unordered_map_equalIS7_SA_SF_SD_Lb1EEENS5_ISA_EEE14__erase_uniqueIS7_EEmRKT_
__ZNSt3__112__hash_tableINS_17__hash_value_typeINS_12basic_stringIcNS_11char_traitsIcEENS_9allocatorIcEEEEP9SipDialogEENS_22__unordered_map_hasherIS7_SA_NS_4hashIS7_EENS_8equal_toIS7_EELb1EEENS_21__unordered_map_equalIS7_SA_SF_SD_Lb1EEENS5_ISA_EEE4findIS7_EENS_15__hash_iteratorIPNS_11__hash_nodeISA_PvEEEERKT_
__ZNSt3__112__hash_tableINS_17__hash_value_typeINS_12basic_stringIcNS_11char_traitsIcEENS_9allocatorIcEEEEP9SipDialogEENS_22__unordered_map_hasherIS7_SA_NS_4hashIS7_EENS_8equal_toIS7_EELb1EEENS_21__unordered_map_equalIS7_SA_SF_SD_Lb1EEENS5_ISA_EEE5eraseENS_21__hash_const_iteratorIPNS_11__hash_nodeISA_PvEEEE
__ZNSt3__112__hash_tableINS_17__hash_value_typeINS_12basic_stringIcNS_11char_traitsIcEENS_9allocatorIcEEEEP9SipDialogEENS_22__unordered_map_hasherIS7_SA_NS_4hashIS7_EENS_8equal_toIS7_EELb1EEENS_21__unordered_map_equalIS7_SA_SF_SD_Lb1EEENS5_ISA_EEE6removeENS_21__hash_const_iteratorIPNS_11__hash_nodeISA_PvEEEE
__ZNSt3__122__hash_node_destructorINS_9allocatorINS_11__hash_nodeINS_17__hash_value_typeINS_12basic_stringIcNS_11char_traitsIcEENS1_IcEEEEP9SipDialogEEPvEEEEEclB6v15006EPSD_
__ZNSt3__112__hash_tableINS_17__hash_value_typeINS_12basic_stringIcNS_11char_traitsIcEENS_9allocatorIcEEEEP9SipDialogEENS_22__unordered_map_hasherIS7_SA_NS_4hashIS7_EENS_8equal_toIS7_EELb1EEENS_21__unordered_map_equalIS7_SA_SF_SD_Lb1EEENS5_ISA_EEE25__emplace_unique_key_argsIS7_JRKNS_21piecewise_construct_tENS_5tupleIJRKS7_EEENSP_IJEEEEEENS_4pairINS_15__hash_iteratorIPNS_11__hash_nodeISA_PvEEEEbEERKT_DpOT0_
__ZNSt3__112__hash_tableINS_17__hash_value_typeINS_12basic_stringIcNS_11char_traitsIcEENS_9allocatorIcEEEEP9SipDialogEENS_22__unordered_map_hasherIS7_SA_NS_4hashIS7_EENS_8equal_toIS7_EELb1EEENS_21__unordered_map_equalIS7_SA_SF_SD_Lb1EEENS5_ISA_EEE8__rehashILb1EEEvm
__ZNSt3__112__hash_tableINS_17__hash_value_typeINS_12basic_stringIcNS_11char_traitsIcEENS_9allocatorIcEEEEP9SipDialogEENS_22__unordered_map_hasherIS7_SA_NS_4hashIS7_EENS_8equal_toIS7_EELb1EEENS_21__unordered_map_equalIS7_SA_SF_SD_Lb1EEENS5_ISA_EEE11__do_rehashILb1EEEvm
__ZNSt3__113unordered_mapINS_12basic_stringIcNS_11char_traitsIcEENS_9allocatorIcEEEEP9SipDialogNS_4hashIS6_EENS_8equal_toIS6_EENS4_INS_4pairIKS6_S8_EEEEEC2ERKSH_
__ZNSt3__112__hash_tableINS_17__hash_value_typeINS_12basic_stringIcNS_11char_traitsIcEENS_9allocatorIcEEEEP9SipDialogEENS_22__unordered_map_hasherIS7_SA_NS_4hashIS7_EENS_8equal_toIS7_EELb1EEENS_21__unordered_map_equalIS7_SA_SF_SD_Lb1EEENS5_ISA_EEE25__emplace_unique_key_argsIS7_JRKNS_4pairIKS7_S9_EEEEENSM_INS_15__hash_iteratorIPNS_11__hash_nodeISA_PvEEEEbEERKT_DpOT0_
__ZN18SipUserAgentConfig19initializeFromPrefsERK8ImsPrefs
__ZNK18SipUserAgentConfig26shouldCSFBOnInviteResponseEjb
__ZN12SipUserAgentC2EP8SipStack
__ZN12SipUserAgentD2Ev
__ZN12SipUserAgent19clearAssociatedUrisEv
__ZN12SipUserAgentD1Ev
__ZThn16_N12SipUserAgentD1Ev
__ZN12SipUserAgentD0Ev
__ZThn16_N12SipUserAgentD0Ev
__ZN12SipUserAgent12deinitializeEv
__ZN22SipRegistrationSubject11delObserverEP23SipRegistrationObserver
__ZN12SipUserAgent10initializeEv
__ZN22SipRegistrationSubject11addObserverEP23SipRegistrationObserver
__ZNK12SipUserAgent9logPrefixER12ImsOutStream
__ZThn16_NK12SipUserAgent9logPrefixER12ImsOutStream
__ZN12SipUserAgent26handleNewServerTransactionEP20SipServerTransaction
__ZN12SipUserAgent27setDelegateForRequestMethodEP20SipUserAgentDelegateRKNSt3__112basic_stringIcNS2_11char_traitsIcEENS2_9allocatorIcEEEE
__ZNK12SipUserAgent19conferenceServerUriEv
__ZNSt3__1plIcNS_11char_traitsIcEENS_9allocatorIcEEEENS_12basic_stringIT_T0_T1_EERKS9_SB_
__ZN12SipUserAgent17setAssociatedUrisERK11SipRouteSetPK6SipUri
__ZNK12SipUserAgent9publicUriEv
__ZN12SipUserAgent13setPublicGruuERKNSt3__112basic_stringIcNS0_11char_traitsIcEENS0_9allocatorIcEEEE
__ZNK12SipUserAgent12publicDomainEv
__ZN12SipUserAgent27clearLastPreferredPublicUriEv
__ZN10SipMessage6headerI18SipSupportedHeaderEEPT_b
__ZN20SipMultiStringHeader9addValuesINSt3__121__tree_const_iteratorINS1_12basic_stringIcNS1_11char_traitsIcEENS1_9allocatorIcEEEEPNS1_11__tree_nodeIS8_PvEElEEEEvT_SE_
__ZNK12SipUserAgent14addAllowHeaderEP10SipMessage
__ZNK12SipUserAgent26addPreferredIdentityHeaderEP10SipRequest
__ZNK12SipUserAgent12addUAHeadersEP10SipMessage
__ZNK12SipUserAgent15makeSipInstanceEPNSt3__112basic_stringIcNS0_11char_traitsIcEENS0_9allocatorIcEEEE
__ZNK12SipUserAgent17isEmergencyInviteERKNSt3__112basic_stringIcNS0_11char_traitsIcEENS0_9allocatorIcEEEEj
__ZNK12SipUserAgent31fillContactForServicesAndMethodEP15SipContactParamjRKNSt3__112basic_stringIcNS2_11char_traitsIcEENS2_9allocatorIcEEEEj
__ZNK12SipUserAgent19getCallTransferInfoERKNSt3__112basic_stringIcNS0_11char_traitsIcEENS0_9allocatorIcEEEEP17SipReplacesHeader
__ZN18ReplacesHeaderDataD1Ev
__ZN12SipUserAgent17getPreferredMediaERKNSt3__112basic_stringIcNS0_11char_traitsIcEENS0_9allocatorIcEEEE
__ZNK18SipUserAgentConfig33countryOfOriginationAllowedInPANIEv
__ZNK18SipUserAgentConfig33countryOfOriginationAllowedInBodyEv
__ZN18SipUserAgentConfig29latLongAllowedInShortCodeCallEv
__ZN18SipUserAgentConfig31civicInfoAllowedInShortCodeCallEv
__ZN13SipStackLayerD1Ev
__ZN13SipStackLayerD0Ev
__ZN24ImsRandomNumberGeneratorIhED2Ev
__ZNSt3__16__treeIP23SipRegistrationObserverNS_4lessIS2_EENS_9allocatorIS2_EEE14__erase_uniqueIS2_EEmRKT_
__ZNSt3__16__treeIP23SipRegistrationObserverNS_4lessIS2_EENS_9allocatorIS2_EEE21__remove_node_pointerEPNS_11__tree_nodeIS2_PvEE
__ZNSt3__16__treeIP23SipRegistrationObserverNS_4lessIS2_EENS_9allocatorIS2_EEE25__emplace_unique_key_argsIS2_JRKS2_EEENS_4pairINS_15__tree_iteratorIS2_PNS_11__tree_nodeIS2_PvEElEEbEERKT_DpOT0_
__ZNKSt3__16__treeINS_12__value_typeINS_12basic_stringIcNS_11char_traitsIcEENS_9allocatorIcEEEE13SipDialogInfoEENS_19__map_value_compareIS7_S9_NS_4lessIS7_EELb1EEENS5_IS9_EEE4findIS7_EENS_21__tree_const_iteratorIS9_PNS_11__tree_nodeIS9_PvEElEERKT_
__ZN24SipDialogParticipantInfoC2ERKS_
__ZN26SipDialogParticipantTargetD1Ev
__ZNSt3__16vectorI28SipDialogParticipantIdentityNS_9allocatorIS1_EEEC2ERKS4_
__ZNSt3__16vectorI28SipDialogParticipantIdentityNS_9allocatorIS1_EEE11__vallocateB6v15006Em
__ZNKSt3__16vectorI28SipDialogParticipantIdentityNS_9allocatorIS1_EEE20__throw_length_errorB6v15006Ev
__ZNSt3__119__allocate_at_leastB6v15006INS_9allocatorI28SipDialogParticipantIdentityEEEENS_19__allocation_resultINS_16allocator_traitsIT_E7pointerEEERS6_m
__ZNSt3__130__uninitialized_allocator_copyB6v15006INS_9allocatorI28SipDialogParticipantIdentityEEPS2_S4_S4_EET2_RT_T0_T1_S5_
__ZNSt3__19allocatorI28SipDialogParticipantIdentityE9constructB6v15006IS1_JRS1_EEEvPT_DpOT0_
__ZNSt3__19allocatorI28SipDialogParticipantIdentityE7destroyB6v15006EPS1_
__ZNSt3__16vectorI34SipDialogParticipantMediaAttributeNS_9allocatorIS1_EEEC2ERKS4_
__ZNSt3__16vectorI34SipDialogParticipantMediaAttributeNS_9allocatorIS1_EEE11__vallocateB6v15006Em
__ZNKSt3__16vectorI34SipDialogParticipantMediaAttributeNS_9allocatorIS1_EEE20__throw_length_errorB6v15006Ev
__ZNSt3__119__allocate_at_leastB6v15006INS_9allocatorI34SipDialogParticipantMediaAttributeEEEENS_19__allocation_resultINS_16allocator_traitsIT_E7pointerEEERS6_m
__ZNSt3__16vectorI28SipDialogParticipantIdentityNS_9allocatorIS1_EEED2B6v15006Ev
__ZNKSt3__16__treeINS_12basic_stringIcNS_11char_traitsIcEENS_9allocatorIcEEEENS_4lessIS6_EENS4_IS6_EEE4findIS6_EENS_21__tree_const_iteratorIS6_PNS_11__tree_nodeIS6_PvEElEERKT_
__ZNSt3__16__treeINS_12__value_typeINS_12basic_stringIcNS_11char_traitsIcEENS_9allocatorIcEEEEP20SipUserAgentDelegateEENS_19__map_value_compareIS7_SA_NS_4lessIS7_EELb1EEENS5_ISA_EEE7destroyEPNS_11__tree_nodeISA_PvEE
__ZNSt3__16__treeINS_12basic_stringIcNS_11char_traitsIcEENS_9allocatorIcEEEENS_4lessIS6_EENS4_IS6_EEE25__emplace_unique_key_argsIS6_JS6_EEENS_4pairINS_15__tree_iteratorIS6_PNS_11__tree_nodeIS6_PvEElEEbEERKT_DpOT0_
__ZNSt3__16__treeINS_12__value_typeINS_12basic_stringIcNS_11char_traitsIcEENS_9allocatorIcEEEEP20SipUserAgentDelegateEENS_19__map_value_compareIS7_SA_NS_4lessIS7_EELb1EEENS5_ISA_EEE4findIS7_EENS_15__tree_iteratorISA_PNS_11__tree_nodeISA_PvEElEERKT_
__ZNSt3__16__treeINS_12__value_typeINS_12basic_stringIcNS_11char_traitsIcEENS_9allocatorIcEEEEP20SipUserAgentDelegateEENS_19__map_value_compareIS7_SA_NS_4lessIS7_EELb1EEENS5_ISA_EEE25__emplace_unique_key_argsIS7_JRKNS_21piecewise_construct_tENS_5tupleIJRKS7_EEENSL_IJEEEEEENS_4pairINS_15__tree_iteratorISA_PNS_11__tree_nodeISA_PvEElEEbEERKT_DpOT0_
__ZNSt3__16__treeINS_12__value_typeINS_12basic_stringIcNS_11char_traitsIcEENS_9allocatorIcEEEEP20SipUserAgentDelegateEENS_19__map_value_compareIS7_SA_NS_4lessIS7_EELb1EEENS5_ISA_EEE12__find_equalIS7_EERPNS_16__tree_node_baseIPvEERPNS_15__tree_end_nodeISL_EERKT_
__ZNSt3__16__treeINS_12__value_typeINS_12basic_stringIcNS_11char_traitsIcEENS_9allocatorIcEEEEP20SipUserAgentDelegateEENS_19__map_value_compareIS7_SA_NS_4lessIS7_EELb1EEENS5_ISA_EEE16__construct_nodeIJRKNS_21piecewise_construct_tENS_5tupleIJRKS7_EEENSL_IJEEEEEENS_10unique_ptrINS_11__tree_nodeISA_PvEENS_22__tree_node_destructorINS5_IST_EEEEEEDpOT_
__ZNSt3__16__treeINS_12__value_typeINS_12basic_stringIcNS_11char_traitsIcEENS_9allocatorIcEEEEP20SipUserAgentDelegateEENS_19__map_value_compareIS7_SA_NS_4lessIS7_EELb1EEENS5_ISA_EEE16__insert_node_atEPNS_15__tree_end_nodeIPNS_16__tree_node_baseIPvEEEERSL_SL_
__ZNSt3__122__tree_node_destructorINS_9allocatorINS_11__tree_nodeINS_12__value_typeINS_12basic_stringIcNS_11char_traitsIcEENS1_IcEEEEP20SipUserAgentDelegateEEPvEEEEEclB6v15006EPSD_
__ZNSt3__16__treeINS_12__value_typeINS_12basic_stringIcNS_11char_traitsIcEENS_9allocatorIcEEEEP20SipUserAgentDelegateEENS_19__map_value_compareIS7_SA_NS_4lessIS7_EELb1EEENS5_ISA_EEE14__erase_uniqueIS7_EEmRKT_
__ZNSt3__16__treeINS_12__value_typeINS_12basic_stringIcNS_11char_traitsIcEENS_9allocatorIcEEEEP20SipUserAgentDelegateEENS_19__map_value_compareIS7_SA_NS_4lessIS7_EELb1EEENS5_ISA_EEE5eraseENS_21__tree_const_iteratorISA_PNS_11__tree_nodeISA_PvEElEE
__ZNSt3__16__treeINS_12__value_typeINS_12basic_stringIcNS_11char_traitsIcEENS_9allocatorIcEEEEP20SipUserAgentDelegateEENS_19__map_value_compareIS7_SA_NS_4lessIS7_EELb1EEENS5_ISA_EEE21__remove_node_pointerEPNS_11__tree_nodeISA_PvEE
__ZNSt3__16__treeINS_12basic_stringIcNS_11char_traitsIcEENS_9allocatorIcEEEENS_4lessIS6_EENS4_IS6_EEE14__erase_uniqueIS6_EEmRKT_
__ZNSt3__16__treeINS_12basic_stringIcNS_11char_traitsIcEENS_9allocatorIcEEEENS_4lessIS6_EENS4_IS6_EEE4findIS6_EENS_15__tree_iteratorIS6_PNS_11__tree_nodeIS6_PvEElEERKT_
__ZNSt3__16__treeINS_12basic_stringIcNS_11char_traitsIcEENS_9allocatorIcEEEENS_4lessIS6_EENS4_IS6_EEE5eraseENS_21__tree_const_iteratorIS6_PNS_11__tree_nodeIS6_PvEElEE
__ZNSt3__16__treeINS_12basic_stringIcNS_11char_traitsIcEENS_9allocatorIcEEEENS_4lessIS6_EENS4_IS6_EEE21__remove_node_pointerEPNS_11__tree_nodeIS6_PvEE
__GLOBAL__sub_I_SipUserAgent.cpp
__ZN7ImsPrefC2ERKNSt3__112basic_stringIcNS0_11char_traitsIcEENS0_9allocatorIcEEEES8_PK11ImsPrefsKey
__ZN7ImsPrefC2ERKS_
__ZNK13ImsStringPref11stringValueEv
__ZNK8ImsPrefs21substituteRuntimeVarsERKNSt3__112basic_stringIcNS0_11char_traitsIcEENS0_9allocatorIcEEEE
__ZNK13ImsStringPref9boolValueEv
__ZNK13ImsStringPref8intValueEv
__ZNK13ImsStringPref7cfValueEv
__ZNK10ImsIntPref11stringValueEv
__ZNK10ImsIntPref7cfValueEv
__ZNK11ImsBoolPref7cfValueEv
__ZN12ImsArrayPrefD2Ev
__ZN12ImsArrayPrefD1Ev
__ZN12ImsArrayPrefD0Ev
__ZNK12ImsArrayPref3logER12ImsOutStream
__ZNK12ImsArrayPref3logER12ImsOutStreambi
__ZNK12ImsArrayPref7cfValueEv
__ZNK12ImsArrayPref12stringValuesEPNSt3__16vectorINS0_12basic_stringIcNS0_11char_traitsIcEENS0_9allocatorIcEEEENS5_IS7_EEEE
__ZNK12ImsArrayPref13childWithNameERKNSt3__112basic_stringIcNS0_11char_traitsIcEENS0_9allocatorIcEEEE
__ZN12ImsArrayPref8addChildEP7ImsPref
__ZN11ImsDictPrefD2Ev
__ZN11ImsDictPrefD1Ev
__ZN11ImsDictPrefD0Ev
__ZN11ImsDictPref13childWithNameERKNSt3__112basic_stringIcNS0_11char_traitsIcEENS0_9allocatorIcEEEE
__ZNK11ImsDictPref13childWithNameERKNSt3__112basic_stringIcNS0_11char_traitsIcEENS0_9allocatorIcEEEE
__ZNK11ImsDictPref3logER12ImsOutStream
__ZNK11ImsDictPref3logER12ImsOutStreambi
__ZNK11ImsDictPref7cfValueEv
__ZN11ImsDictPref16addChildWithNameEP7ImsPrefRKNSt3__112basic_stringIcNS2_11char_traitsIcEENS2_9allocatorIcEEEE
__ZN11ImsDictPref5mergeERKS_
__ZNK11ImsDictPref14stringMapValueEPNSt3__13mapINS0_12basic_stringIcNS0_11char_traitsIcEENS0_9allocatorIcEEEES7_NS0_4lessIS7_EENS5_INS0_4pairIKS7_S7_EEEEEE
__ZNK11ImsDictPref4keysEPNSt3__16vectorINS0_12basic_stringIcNS0_11char_traitsIcEENS0_9allocatorIcEEEENS5_IS7_EEEE
__ZNK11ImsDictPref13keysAndValuesEPNSt3__16vectorINS0_12basic_stringIcNS0_11char_traitsIcEENS0_9allocatorIcEEEENS5_IS7_EEEEPNS1_IPK7ImsPrefNS5_ISD_EEEE
__ZNK11ImsDictPref16stringChildValueERKNSt3__112basic_stringIcNS0_11char_traitsIcEENS0_9allocatorIcEEEEPS6_
__ZNK15ImsPrefsKeyEnum12allowedValueERKNSt3__112basic_stringIcNS0_11char_traitsIcEENS0_9allocatorIcEEEE
__ZN15ImsPrefsSection7addPrefERK7ImsPref
__ZN15ImsPrefsSectionD2Ev
__ZN15ImsPrefsSectionD1Ev
__ZN15ImsPrefsSectionD0Ev
__ZN15ImsPrefsSection5clearEv
__ZNK15ImsPrefsSection12prefWithNameERKNSt3__112basic_stringIcNS0_11char_traitsIcEENS0_9allocatorIcEEEE
__ZNK15ImsPrefsSection3logER12ImsOutStream
__ZNK15ImsPrefsSection8logPrefsER12ImsOutStreambb
__ZN8ImsPrefsC2Ev
__ZN8ImsPrefs15addKeyInSectionEPK11ImsPrefsKeyRKNSt3__112basic_stringIcNS3_11char_traitsIcEENS3_9allocatorIcEEEESB_
__ZN8ImsPrefs21setDefaultRuntimeVarsEv
__ZN8ImsPrefsD2Ev
__ZN8ImsPrefs5clearEv
__ZN8ImsPrefsD1Ev
__ZThn80_N8ImsPrefsD1Ev
__ZN8ImsPrefsD0Ev
__ZThn80_N8ImsPrefsD0Ev
__ZNK8ImsPrefs12keysWithNameERKNSt3__112basic_stringIcNS0_11char_traitsIcEENS0_9allocatorIcEEEE
__ZNK8ImsPrefs20valueForOldEnumValueERK15ImsPrefsKeyEnumRKNSt3__112basic_stringIcNS3_11char_traitsIcEENS3_9allocatorIcEEEE
__ZN8ImsPrefs13setRuntimeVarERKNSt3__112basic_stringIcNS0_11char_traitsIcEENS0_9allocatorIcEEEES8_b
__ZN8ImsPrefs16updateRuntimeVarERKNSt3__112basic_stringIcNS0_11char_traitsIcEENS0_9allocatorIcEEEES8_b
__ZN14ImsPrefsSourceC2EP8ImsPrefsRKNSt3__112basic_stringIcNS2_11char_traitsIcEENS2_9allocatorIcEEEE
__ZN14ImsPrefsSourceD2Ev
__ZN14ImsPrefsSourceD1Ev
__ZN14ImsPrefsSourceD0Ev
__ZN14ImsPrefsSource12loadFromDictEPK14__CFDictionaryRKNSt3__112basic_stringIcNS3_11char_traitsIcEENS3_9allocatorIcEEEEb
__ZN9ImsResultlsIA37_cEERS_RKT_
__ZL22fillDictPrefFromObjectP8ImsPrefsRKNSt3__112basic_stringIcNS1_11char_traitsIcEENS1_9allocatorIcEEEES9_P11ImsDictPrefP12NSDictionarybbSB_
__ZN9ImsResultlsIA44_cEERS_RKT_
__ZN14ImsPrefsSource12loadFromFileERKNSt3__112basic_stringIcNS0_11char_traitsIcEENS0_9allocatorIcEEEES8_b
__ZNK14ImsPrefsSource3logER12ImsOutStream
__ZN8ImsPrefs8loadDictEPK14__CFDictionaryRKNSt3__112basic_stringIcNS3_11char_traitsIcEENS3_9allocatorIcEEEESB_b
__ZN8ImsPrefs9loadPlistERKNSt3__112basic_stringIcNS0_11char_traitsIcEENS0_9allocatorIcEEEES8_S8_b
__ZNK8ImsPrefs14logRuntimeVarsER12ImsOutStream
__ZNK8ImsPrefs3logER12ImsOutStream
__ZThn80_NK8ImsPrefs3logER12ImsOutStream
__ZNK8ImsPrefs11prefWithKeyERK11ImsPrefsKey
__ZNK8ImsPrefs11stringValueERK17ImsPrefsKeyString
__ZNK8ImsPrefs11stringValueERK15ImsPrefsKeyEnum
__ZNK8ImsPrefs16typedPrefWithKeyI11ImsDictPrefEEPKT_RK11ImsPrefsKey
__ZNK8ImsPrefs16typedPrefWithKeyI12ImsArrayPrefEEPKT_RK11ImsPrefsKey
__ZNK8ImsPrefs17stringArrayValuesERK16ImsPrefsKeyArrayPNSt3__16vectorINS3_12basic_stringIcNS3_11char_traitsIcEENS3_9allocatorIcEEEENS8_ISA_EEEE
__ZNK8ImsPrefs14stringMapValueERK15ImsPrefsKeyDictPNSt3__13mapINS3_12basic_stringIcNS3_11char_traitsIcEENS3_9allocatorIcEEEESA_NS3_4lessISA_EENS8_INS3_4pairIKSA_SA_EEEEEE
__ZNK11ImsPrefsKey19addInfoToDictionaryEP14__CFDictionaryb
__ZNK17ImsPrefsKeyString27defaultValueAsStringInPrefsERK8ImsPrefs
__ZNK17ImsPrefsKeyString20createPrefFromStringERKNSt3__112basic_stringIcNS0_11char_traitsIcEENS0_9allocatorIcEEEES8_
__ZNK17ImsPrefsKeyString19addInfoToDictionaryEP14__CFDictionaryb
__ZNK15ImsPrefsKeyEnum20createPrefFromStringERKNSt3__112basic_stringIcNS0_11char_traitsIcEENS0_9allocatorIcEEEES8_
__ZNK15ImsPrefsKeyEnum19addInfoToDictionaryEP14__CFDictionaryb
__ZNK14ImsPrefsKeyInt20createPrefFromStringERKNSt3__112basic_stringIcNS0_11char_traitsIcEENS0_9allocatorIcEEEES8_
__ZNK14ImsPrefsKeyInt19addInfoToDictionaryEP14__CFDictionaryb
__ZNK15ImsPrefsKeyBool20createPrefFromStringERKNSt3__112basic_stringIcNS0_11char_traitsIcEENS0_9allocatorIcEEEES8_
__ZNK15ImsPrefsKeyBool19addInfoToDictionaryEP14__CFDictionaryb
__ZN16ImsPrefsKeyArrayC2ERKNSt3__112basic_stringIcNS0_11char_traitsIcEENS0_9allocatorIcEEEES8_bS6_
__ZNK16ImsPrefsKeyArray20defaultValueAsStringEv
__ZNK16ImsPrefsKeyArray20createPrefFromStringERKNSt3__112basic_stringIcNS0_11char_traitsIcEENS0_9allocatorIcEEEES8_
__ZNK16ImsPrefsKeyArray19addInfoToDictionaryEP14__CFDictionaryb
__ZNK15ImsPrefsKeyDict20createPrefFromStringERKNSt3__112basic_stringIcNS0_11char_traitsIcEENS0_9allocatorIcEEEES8_
__ZNK15ImsPrefsKeyDict19addInfoToDictionaryEP14__CFDictionaryb
__ZN8ImsPrefs22logVerificationFailureERK9ImsResult
__ZN13ImsStringPrefD1Ev
__ZN13ImsStringPrefD0Ev
__ZNK13ImsStringPref3logER12ImsOutStream
__ZNK7ImsPref12loggableNameEv
__ZNK13ImsStringPref5cloneEv
__ZNK7ImsPref3logER12ImsOutStreambi
__ZN13ImsStringPref8setValueERKNSt3__112basic_stringIcNS0_11char_traitsIcEENS0_9allocatorIcEEEE
__ZN11ImsBoolPrefD1Ev
__ZN11ImsBoolPrefD0Ev
__ZNK11ImsBoolPref3logER12ImsOutStream
__ZNK11ImsBoolPref5cloneEv
__ZNK11ImsBoolPref9boolValueEv
__ZNK11ImsBoolPref11stringValueEv
__ZNK11ImsBoolPref8intValueEv
__ZN10ImsIntPrefD1Ev
__ZN10ImsIntPrefD0Ev
__ZNK10ImsIntPref3logER12ImsOutStream
__ZNK10ImsIntPref5cloneEv
__ZNK10ImsIntPref9boolValueEv
__ZNK10ImsIntPref8intValueEv
__ZNK12ImsArrayPref5cloneEv
__ZNK7ImsPref9boolValueEv
__ZNK7ImsPref11stringValueEv
__ZNK7ImsPref8intValueEv
__ZNK12ImsArrayPref10childCountEv
__ZNK11ImsDictPref5cloneEv
__ZNK11ImsDictPref10childCountEv
__ZNK11ImsPrefsKey8validateEPK7ImsPref
__ZNK11ImsPrefsKey27defaultValueAsStringInPrefsERK8ImsPrefs
__ZNK17ImsPrefsKeyString8validateEPK7ImsPref
__ZNK17ImsPrefsKeyString4typeEv
__ZNK17ImsPrefsKeyString20defaultValueAsStringEv
__ZNK15ImsPrefsKeyEnum8validateEPK7ImsPref
__ZNK15ImsPrefsKeyEnum4typeEv
__ZNK15ImsPrefsKeyEnum20defaultValueAsStringEv
__ZNK14ImsPrefsKeyInt8validateEPK7ImsPref
__ZNK14ImsPrefsKeyInt4typeEv
__ZNK14ImsPrefsKeyInt20defaultValueAsStringEv
__ZNK15ImsPrefsKeyBool8validateEPK7ImsPref
__ZNK15ImsPrefsKeyBool4typeEv
__ZNK15ImsPrefsKeyBool20defaultValueAsStringEv
__ZNK15ImsPrefsKeyDict8validateEPK7ImsPref
__ZNK15ImsPrefsKeyDict4typeEv
__ZNK15ImsPrefsKeyDict20defaultValueAsStringEv
__ZNK15ImsPrefsSection12loggableNameEv
__ZNK8ImsPrefs9logPrefixER12ImsOutStream
__ZNK8ImsPrefs12loggableNameEv
__ZThn80_NK8ImsPrefs12loggableNameEv
__ZNK14ImsPrefsSource12loggableNameEv
__ZNK16ImsPrefsKeyArray8validateEPK7ImsPref
__ZNK16ImsPrefsKeyArray4typeEv
__ZN7ImsPrefD1Ev
__ZN7ImsPrefD0Ev
__ZN7ImsPrefD2Ev
__ZN13ImsStringPrefC2ERKNSt3__112basic_stringIcNS0_11char_traitsIcEENS0_9allocatorIcEEEES8_PK11ImsPrefsKeyS8_
__ZN15ImsPrefsSectionC2ERKNSt3__112basic_stringIcNS0_11char_traitsIcEENS0_9allocatorIcEEEEP8ImsPrefs
__ZL14prefFromObjectP8ImsPrefsRKNSt3__112basic_stringIcNS1_11char_traitsIcEENS1_9allocatorIcEEEES9_S9_P11objc_objectbb
__ZN9ImsResultlsIA2_cEERS_RKT_
__ZN9ImsResultlsIA15_cEERS_RKT_
__ZN9ImsResultlsIA6_cEERS_RKT_
__ZN9ImsResultlsIA18_cEERS_RKT_
__ZN9ImsResultlsIA60_cEERS_RKT_
__ZN9ImsResultlsIA14_cEERS_RKT_
__ZN9ImsResultlsIA5_cEERS_RKT_
__ZN9ImsResultlsIA8_cEERS_RKT_
__ZN9ImsResultlsIA16_cEERS_RKT_
__ZN9ImsResultlsIA7_cEERS_RKT_
__ZN9ImsResultlsIA13_cEERS_RKT_
__ZN9ImsResultlsIA9_cEERS_RKT_
__ZN9ImsResultlsIA35_cEERS_RKT_
__ZN9ImsResultlsIA17_cEERS_RKT_
__ZL23fillArrayPrefFromObjectP8ImsPrefsRKNSt3__112basic_stringIcNS1_11char_traitsIcEENS1_9allocatorIcEEEES9_P12ImsArrayPrefP7NSArrayb
__ZN3ims4joinINSt3__121__tree_const_iteratorINS1_12basic_stringIcNS1_11char_traitsIcEENS1_9allocatorIcEEEEPNS1_11__tree_nodeIS8_PvEElEEEES8_T_SE_RKS8_
__ZN3ims4joinINSt3__121__tree_const_iteratorINS1_12basic_stringIcNS1_11char_traitsIcEENS1_9allocatorIcEEEEPNS1_11__tree_nodeIS8_PvEElEEEEvT_SE_R12ImsOutStreamRKS8_
__ZNSt3__16__treeINS_12__value_typeINS_12basic_stringIcNS_11char_traitsIcEENS_9allocatorIcEEEEP7ImsPrefEENS_19__map_value_compareIS7_SA_NS_4lessIS7_EELb1EEENS5_ISA_EEE7destroyEPNS_11__tree_nodeISA_PvEE
__ZNKSt3__16vectorIPK11ImsPrefsKeyNS_9allocatorIS3_EEE20__throw_length_errorB6v15006Ev
__ZNSt3__119__allocate_at_leastB6v15006INS_9allocatorIPK11ImsPrefsKeyEEEENS_19__allocation_resultINS_16allocator_traitsIT_E7pointerEEERS8_m
__ZNKSt3__16vectorIP7ImsPrefNS_9allocatorIS2_EEE20__throw_length_errorB6v15006Ev
__ZNSt3__119__allocate_at_leastB6v15006INS_9allocatorIP7ImsPrefEEEENS_19__allocation_resultINS_16allocator_traitsIT_E7pointerEEERS7_m
__ZNSt3__16__treeINS_12__value_typeINS_12basic_stringIcNS_11char_traitsIcEENS_9allocatorIcEEEEP7ImsPrefEENS_19__map_value_compareIS7_SA_NS_4lessIS7_EELb1EEENS5_ISA_EEE12__find_equalIS7_EERPNS_16__tree_node_baseIPvEERPNS_15__tree_end_nodeISL_EERKT_
__ZNSt3__16__treeINS_12__value_typeINS_12basic_stringIcNS_11char_traitsIcEENS_9allocatorIcEEEEP7ImsPrefEENS_19__map_value_compareIS7_SA_NS_4lessIS7_EELb1EEENS5_ISA_EEE16__insert_node_atEPNS_15__tree_end_nodeIPNS_16__tree_node_baseIPvEEEERSL_SL_
__ZNSt3__16__treeINS_12__value_typeINS_12basic_stringIcNS_11char_traitsIcEENS_9allocatorIcEEEEP7ImsPrefEENS_19__map_value_compareIS7_SA_NS_4lessIS7_EELb1EEENS5_ISA_EEE4findIS7_EENS_15__tree_iteratorISA_PNS_11__tree_nodeISA_PvEElEERKT_
__ZNKSt3__16__treeINS_12__value_typeINS_12basic_stringIcNS_11char_traitsIcEENS_9allocatorIcEEEEP7ImsPrefEENS_19__map_value_compareIS7_SA_NS_4lessIS7_EELb1EEENS5_ISA_EEE4findIS7_EENS_21__tree_const_iteratorISA_PNS_11__tree_nodeISA_PvEElEERKT_
__ZNSt3__16__treeINS_12__value_typeINS_12basic_stringIcNS_11char_traitsIcEENS_9allocatorIcEEEEP7ImsPrefEENS_19__map_value_compareIS7_SA_NS_4lessIS7_EELb1EEENS5_ISA_EEE25__emplace_unique_key_argsIS7_JRKNS_21piecewise_construct_tENS_5tupleIJOS7_EEENSL_IJEEEEEENS_4pairINS_15__tree_iteratorISA_PNS_11__tree_nodeISA_PvEElEEbEERKT_DpOT0_
__ZNSt3__16__treeINS_12__value_typeINS_12basic_stringIcNS_11char_traitsIcEENS_9allocatorIcEEEES7_EENS_19__map_value_compareIS7_S8_NS_4lessIS7_EELb1EEENS5_IS8_EEE25__emplace_unique_key_argsIS7_JRKNS_21piecewise_construct_tENS_5tupleIJRKS7_EEENSJ_IJEEEEEENS_4pairINS_15__tree_iteratorIS8_PNS_11__tree_nodeIS8_PvEElEEbEERKT_DpOT0_
__ZNSt3__16__treeINS_12__value_typeINS_12basic_stringIcNS_11char_traitsIcEENS_9allocatorIcEEEES7_EENS_19__map_value_compareIS7_S8_NS_4lessIS7_EELb1EEENS5_IS8_EEE16__construct_nodeIJRKNS_21piecewise_construct_tENS_5tupleIJRKS7_EEENSJ_IJEEEEEENS_10unique_ptrINS_11__tree_nodeIS8_PvEENS_22__tree_node_destructorINS5_ISR_EEEEEEDpOT_
__ZNKSt3__16vectorIPK7ImsPrefNS_9allocatorIS3_EEE20__throw_length_errorB6v15006Ev
__ZNSt3__16__treeINS_12__value_typeINS_12basic_stringIcNS_11char_traitsIcEENS_9allocatorIcEEEENS_6vectorIPK11ImsPrefsKeyNS5_ISB_EEEEEENS_19__map_value_compareIS7_SE_NS_4lessIS7_EELb1EEENS5_ISE_EEE7destroyEPNS_11__tree_nodeISE_PvEE
__ZNSt3__16__treeINS_12__value_typeINS_12basic_stringIcNS_11char_traitsIcEENS_9allocatorIcEEEENS_3mapIS7_S7_NS_4lessIS7_EENS5_INS_4pairIKS7_S7_EEEEEEEENS_19__map_value_compareIS7_SG_SA_Lb1EEENS5_ISG_EEE7destroyEPNS_11__tree_nodeISG_PvEE
__ZNSt3__116allocator_traitsINS_9allocatorINS_11__tree_nodeINS_12__value_typeINS_12basic_stringIcNS_11char_traitsIcEENS1_IcEEEENS_3mapIS8_S8_NS_4lessIS8_EENS1_INS_4pairIKS8_S8_EEEEEEEEPvEEEEE7destroyB6v15006INSC_ISD_SG_EEvvEEvRSK_PT_
__ZNSt3__16__treeINS_12__value_typeINS_12basic_stringIcNS_11char_traitsIcEENS_9allocatorIcEEEEP15ImsPrefsSectionEENS_19__map_value_compareIS7_SA_NS_4lessIS7_EELb1EEENS5_ISA_EEE7destroyEPNS_11__tree_nodeISA_PvEE
__ZNSt3__16__treeINS_12__value_typeINS_12basic_stringIcNS_11char_traitsIcEENS_9allocatorIcEEEEN8ImsPrefs10RuntimeVarEEENS_19__map_value_compareIS7_SA_NS_4lessIS7_EELb1EEENS5_ISA_EEE7destroyEPNS_11__tree_nodeISA_PvEE
__ZNSt3__116allocator_traitsINS_9allocatorINS_11__tree_nodeINS_12__value_typeINS_12basic_stringIcNS_11char_traitsIcEENS1_IcEEEEN8ImsPrefs10RuntimeVarEEEPvEEEEE7destroyB6v15006INS_4pairIKS8_SA_EEvvEEvRSE_PT_
__ZNSt3__16vectorI9ImsResultNS_9allocatorIS1_EEED2B6v15006Ev
__ZNSt3__16__treeINS_12__value_typeINS_12basic_stringIcNS_11char_traitsIcEENS_9allocatorIcEEEES7_EENS_19__map_value_compareIS7_S8_NS_4lessIS7_EELb1EEENS5_IS8_EEE25__emplace_unique_key_argsIS7_JRKNS_21piecewise_construct_tENS_5tupleIJOS7_EEENSJ_IJEEEEEENS_4pairINS_15__tree_iteratorIS8_PNS_11__tree_nodeIS8_PvEElEEbEERKT_DpOT0_
__ZNSt3__16__treeINS_12__value_typeINS_12basic_stringIcNS_11char_traitsIcEENS_9allocatorIcEEEENS_3mapIS7_S7_NS_4lessIS7_EENS5_INS_4pairIKS7_S7_EEEEEEEENS_19__map_value_compareIS7_SG_SA_Lb1EEENS5_ISG_EEE12__find_equalIS7_EERPNS_16__tree_node_baseIPvEERPNS_15__tree_end_nodeISP_EERKT_
__ZNSt3__16__treeINS_12__value_typeINS_12basic_stringIcNS_11char_traitsIcEENS_9allocatorIcEEEENS_3mapIS7_S7_NS_4lessIS7_EENS5_INS_4pairIKS7_S7_EEEEEEEENS_19__map_value_compareIS7_SG_SA_Lb1EEENS5_ISG_EEE16__insert_node_atEPNS_15__tree_end_nodeIPNS_16__tree_node_baseIPvEEEERSP_SP_
__ZNKSt3__16vectorIP14ImsPrefsSourceNS_9allocatorIS2_EEE20__throw_length_errorB6v15006Ev
__ZNSt3__119__allocate_at_leastB6v15006INS_9allocatorIP14ImsPrefsSourceEEEENS_19__allocation_resultINS_16allocator_traitsIT_E7pointerEEERS7_m
__ZNKSt3__16__treeINS_12__value_typeINS_12basic_stringIcNS_11char_traitsIcEENS_9allocatorIcEEEES7_EENS_19__map_value_compareIS7_S8_NS_4lessIS7_EELb1EEENS5_IS8_EEE4findIS7_EENS_21__tree_const_iteratorIS8_PNS_11__tree_nodeIS8_PvEElEERKT_
__ZNKSt3__16__treeINS_12__value_typeINS_12basic_stringIcNS_11char_traitsIcEENS_9allocatorIcEEEENS_3mapIS7_S7_NS_4lessIS7_EENS5_INS_4pairIKS7_S7_EEEEEEEENS_19__map_value_compareIS7_SG_SA_Lb1EEENS5_ISG_EEE4findIS7_EENS_21__tree_const_iteratorISG_PNS_11__tree_nodeISG_PvEElEERKT_
__ZNSt3__16__treeINS_12__value_typeINS_12basic_stringIcNS_11char_traitsIcEENS_9allocatorIcEEEEN8ImsPrefs10RuntimeVarEEENS_19__map_value_compareIS7_SA_NS_4lessIS7_EELb1EEENS5_ISA_EEE25__emplace_unique_key_argsIS7_JRKNS_21piecewise_construct_tENS_5tupleIJRKS7_EEENSL_IJEEEEEENS_4pairINS_15__tree_iteratorISA_PNS_11__tree_nodeISA_PvEElEEbEERKT_DpOT0_
__ZNSt3__16__treeINS_12__value_typeINS_12basic_stringIcNS_11char_traitsIcEENS_9allocatorIcEEEEP15ImsPrefsSectionEENS_19__map_value_compareIS7_SA_NS_4lessIS7_EELb1EEENS5_ISA_EEE4findIS7_EENS_15__tree_iteratorISA_PNS_11__tree_nodeISA_PvEElEERKT_
__ZNKSt3__16__treeINS_12__value_typeINS_12basic_stringIcNS_11char_traitsIcEENS_9allocatorIcEEEEP15ImsPrefsSectionEENS_19__map_value_compareIS7_SA_NS_4lessIS7_EELb1EEENS5_ISA_EEE4findIS7_EENS_21__tree_const_iteratorISA_PNS_11__tree_nodeISA_PvEElEERKT_
__ZNKSt3__16vectorI9ImsResultNS_9allocatorIS1_EEE20__throw_length_errorB6v15006Ev
__ZNSt3__114__split_bufferI9ImsResultRNS_9allocatorIS1_EEED2Ev
__GLOBAL__sub_I_ImsPrefs.mm
__ZN18AVCRTPAudioSession10initializeERK9IpAddressbRKNSt3__112basic_stringIcNS3_11char_traitsIcEENS3_9allocatorIcEEEESB_14MediaDirectionNS3_8weak_ptrI10SDPSessionEE
__ZN20RTPSharedPointerBase9getSharedI21MediaSessionInterfaceEENSt3__110shared_ptrIT_EEv
__ZN18AVCRTPAudioSession19scheduleSkywalkInitENSt3__18weak_ptrI10SDPSessionEE
__ZN18AVCRTPAudioSession12completeInitEv
__ZThn24_N18AVCRTPAudioSession10initializeERK9IpAddressbRKNSt3__112basic_stringIcNS3_11char_traitsIcEENS3_9allocatorIcEEEESB_14MediaDirectionNS3_8weak_ptrI10SDPSessionEE
____ZN18AVCRTPAudioSession19scheduleSkywalkInitENSt3__18weak_ptrI10SDPSessionEE_block_invoke
___copy_helper_block_e8_40c36_ZTSKNSt3__18weak_ptrI10SDPSessionEE
___destroy_helper_block_e8_40c36_ZTSKNSt3__18weak_ptrI10SDPSessionEE
__ZN18AVCRTPAudioSession16setConfigurationENSt3__18weak_ptrI10SDPSessionEE
__ZNSt3__1eqB6v15006IcNS_11char_traitsIcEENS_9allocatorIcEEEEbRKNS_12basic_stringIT_T0_T1_EEPKS6_
__ZN13AVCRTPSessionI14AVCAudioStreamE16setConfigurationENSt3__18weak_ptrI10SDPSessionEE
__ZThn24_N18AVCRTPAudioSession16setConfigurationENSt3__18weak_ptrI10SDPSessionEE
__ZN18AVCRTPAudioSession25configureMediaLinkMonitorEtt
__ZThn24_N18AVCRTPAudioSession25configureMediaLinkMonitorEtt
__ZN18AVCRTPAudioSession19configureRemoteRTCPEbt
__ZThn24_N18AVCRTPAudioSession19configureRemoteRTCPEbt
__ZN16AVCRTPRTTSession19configureRemoteRTCPEbt
__ZThn24_N16AVCRTPRTTSession19configureRemoteRTCPEbt
__ZN18AVCRTPAudioSession16startSendingDTMFEh
__ZThn24_N18AVCRTPAudioSession16startSendingDTMFEh
__ZN18AVCRTPAudioSession15stopSendingDTMFEv
__ZThn24_N18AVCRTPAudioSession15stopSendingDTMFEv
__ZN18AVCRTPAudioSession14sendDTMFDigitsERKNSt3__16vectorIhNS0_9allocatorIhEEEE
__ZThn24_N18AVCRTPAudioSession14sendDTMFDigitsERKNSt3__16vectorIhNS0_9allocatorIhEEEE
__ZN18AVCRTPAudioSession10audioReadyEv
__ZThn528_N18AVCRTPAudioSession10audioReadyEv
__ZN16AVCRTPRTTSession10initializeERK9IpAddressbRKNSt3__112basic_stringIcNS3_11char_traitsIcEENS3_9allocatorIcEEEESB_14MediaDirectionNS3_8weak_ptrI10SDPSessionEE
__ZN20RTPSharedPointerBase9getSharedI16AVCRTPRTTSessionEENSt3__110shared_ptrIT_EEv
__ZThn24_N16AVCRTPRTTSession10initializeERK9IpAddressbRKNSt3__112basic_stringIcNS3_11char_traitsIcEENS3_9allocatorIcEEEESB_14MediaDirectionNS3_8weak_ptrI10SDPSessionEE
__ZN16AVCRTPRTTSession16setConfigurationENSt3__18weak_ptrI10SDPSessionEE
__ZN13AVCRTPSessionI13AVCTextStreamE16setConfigurationENSt3__18weak_ptrI10SDPSessionEE
__ZThn24_N16AVCRTPRTTSession16setConfigurationENSt3__18weak_ptrI10SDPSessionEE
__ZN13AVCRTPSessionI14AVCAudioStreamED1Ev
__ZN13AVCRTPSessionI14AVCAudioStreamED0Ev
__ZN13AVCRTPSessionI14AVCAudioStreamE9terminateEb
__ZN13AVCRTPSessionI14AVCAudioStreamE5startEb
__ZN13AVCRTPSessionI14AVCAudioStreamE4stopEb
__ZN13AVCRTPSessionI14AVCAudioStreamE12setDirectionERK14MediaDirectionb
__ZN13AVCRTPSessionI14AVCAudioStreamE9configureEb
__ZNK13AVCRTPSessionI14AVCAudioStreamE6activeEv
__ZNK13AVCRTPSessionI14AVCAudioStreamE6pausedEv
__ZN13AVCRTPSessionI14AVCAudioStreamE15toTimerIdStringEj
__ZThn24_N13AVCRTPSessionI14AVCAudioStreamED1Ev
__ZThn24_N13AVCRTPSessionI14AVCAudioStreamED0Ev
__ZThn24_N13AVCRTPSessionI14AVCAudioStreamE9terminateEb
__ZThn24_N13AVCRTPSessionI14AVCAudioStreamE5startEb
__ZThn24_N13AVCRTPSessionI14AVCAudioStreamE4stopEb
__ZThn24_N13AVCRTPSessionI14AVCAudioStreamE12setDirectionERK14MediaDirectionb
__ZThn24_N13AVCRTPSessionI14AVCAudioStreamE16setConfigurationENSt3__18weak_ptrI10SDPSessionEE
__ZThn24_N13AVCRTPSessionI14AVCAudioStreamE9configureEb
__ZNK18MediaSessionDriver18transactionPendingEv
__ZThn24_NK13AVCRTPSessionI14AVCAudioStreamE6activeEv
__ZThn24_NK13AVCRTPSessionI14AVCAudioStreamE6pausedEv
__ZN18MediaSessionDriver9directionEv
__ZN21MediaSessionInterface8delegateEv
__ZN21MediaSessionInterface11setDelegateENSt3__18weak_ptrI20MediaSessionDelegateEE
__ZN21MediaSessionInterface13clearDelegateEv
__ZNK21MediaSessionInterface9sessionIdEv
__ZNK18MediaSessionDriver12isAudioReadyEv
__ZNK18MediaSessionDriver12loggableNameEv
__ZThn24_N13AVCRTPSessionI14AVCAudioStreamE15toTimerIdStringEj
__ZThn112_N13AVCRTPSessionI14AVCAudioStreamED1Ev
__ZThn112_N13AVCRTPSessionI14AVCAudioStreamED0Ev
__ZThn88_NK18MediaSessionDriver12loggableNameEv
__ZN18MediaSessionDriver15toTimerIdStringEj
__ZN21SipThreadSafeLockableD1Ev
__ZN21SipThreadSafeLockableD0Ev
__ZN18AVCRTPAudioSessionD1Ev
__ZN18AVCRTPAudioSessionD0Ev
__ZN18AVCRTPAudioSession18configureLocalRTCPEbt
__ZN18AVCRTPAudioSession9mediaTypeEv
__ZN18AVCRTPAudioSession19mediaSupportEnabledEN8SDPMedia9MediaTypeE
__ZNK18AVCRTPAudioSession12isAudioReadyEv
__ZThn24_N18AVCRTPAudioSessionD1Ev
__ZThn24_N18AVCRTPAudioSessionD0Ev
__ZThn24_N18AVCRTPAudioSession9mediaTypeEv
__ZThn24_N18AVCRTPAudioSession19mediaSupportEnabledEN8SDPMedia9MediaTypeE
__ZThn24_N18AVCRTPAudioSession18configureLocalRTCPEbt
__ZThn24_NK18AVCRTPAudioSession12isAudioReadyEv
__ZThn112_N18AVCRTPAudioSessionD1Ev
__ZThn112_N18AVCRTPAudioSessionD0Ev
__ZThn248_N18AVCRTPAudioSessionD1Ev
__ZThn248_N18AVCRTPAudioSessionD0Ev
__ZThn528_N18AVCRTPAudioSessionD1Ev
__ZThn528_N18AVCRTPAudioSessionD0Ev
__ZN13AVCRTPSessionI13AVCTextStreamED1Ev
__ZN13AVCRTPSessionI13AVCTextStreamED0Ev
__ZN13AVCRTPSessionI13AVCTextStreamE9terminateEb
__ZN13AVCRTPSessionI13AVCTextStreamE5startEb
__ZN13AVCRTPSessionI13AVCTextStreamE4stopEb
__ZN13AVCRTPSessionI13AVCTextStreamE12setDirectionERK14MediaDirectionb
__ZN13AVCRTPSessionI13AVCTextStreamE9configureEb
__ZNK13AVCRTPSessionI13AVCTextStreamE6activeEv
__ZNK13AVCRTPSessionI13AVCTextStreamE6pausedEv
__ZN13AVCRTPSessionI13AVCTextStreamE15toTimerIdStringEj
__ZThn24_N13AVCRTPSessionI13AVCTextStreamED1Ev
__ZThn24_N13AVCRTPSessionI13AVCTextStreamED0Ev
__ZThn24_N13AVCRTPSessionI13AVCTextStreamE9terminateEb
__ZThn24_N13AVCRTPSessionI13AVCTextStreamE5startEb
__ZThn24_N13AVCRTPSessionI13AVCTextStreamE4stopEb
__ZThn24_N13AVCRTPSessionI13AVCTextStreamE12setDirectionERK14MediaDirectionb
__ZThn24_N13AVCRTPSessionI13AVCTextStreamE16setConfigurationENSt3__18weak_ptrI10SDPSessionEE
__ZThn24_N13AVCRTPSessionI13AVCTextStreamE9configureEb
__ZThn24_NK13AVCRTPSessionI13AVCTextStreamE6activeEv
__ZThn24_NK13AVCRTPSessionI13AVCTextStreamE6pausedEv
__ZThn24_N13AVCRTPSessionI13AVCTextStreamE15toTimerIdStringEj
__ZThn112_N13AVCRTPSessionI13AVCTextStreamED1Ev
__ZThn112_N13AVCRTPSessionI13AVCTextStreamED0Ev
__ZN16AVCRTPRTTSessionD1Ev
__ZN16AVCRTPRTTSessionD0Ev
__ZN16AVCRTPRTTSession25configureMediaLinkMonitorEtt
__ZN16AVCRTPRTTSession18configureLocalRTCPEbt
__ZN16AVCRTPRTTSession16startSendingDTMFEh
__ZN16AVCRTPRTTSession15stopSendingDTMFEv
__ZN16AVCRTPRTTSession14sendDTMFDigitsERKNSt3__16vectorIhNS0_9allocatorIhEEEE
__ZN16AVCRTPRTTSession9mediaTypeEv
__ZN16AVCRTPRTTSession19mediaSupportEnabledEN8SDPMedia9MediaTypeE
__ZThn24_N16AVCRTPRTTSessionD1Ev
__ZThn24_N16AVCRTPRTTSessionD0Ev
__ZThn24_N16AVCRTPRTTSession9mediaTypeEv
__ZThn24_N16AVCRTPRTTSession19mediaSupportEnabledEN8SDPMedia9MediaTypeE
__ZThn24_N16AVCRTPRTTSession16startSendingDTMFEh
__ZThn24_N16AVCRTPRTTSession15stopSendingDTMFEv
__ZThn24_N16AVCRTPRTTSession14sendDTMFDigitsERKNSt3__16vectorIhNS0_9allocatorIhEEEE
__ZThn24_N16AVCRTPRTTSession25configureMediaLinkMonitorEtt
__ZThn24_N16AVCRTPRTTSession18configureLocalRTCPEbt
__ZThn112_N16AVCRTPRTTSessionD1Ev
__ZThn112_N16AVCRTPRTTSessionD0Ev
__ZThn248_N16AVCRTPRTTSessionD1Ev
__ZThn248_N16AVCRTPRTTSessionD0Ev
__ZN3ims6detail14to_string_implIjNSt3__117integral_constantIbLb0EEEEclERKj
__ZN18AVCRTPAudioSessionD2Ev
__ZN13AVCRTPSessionI14AVCAudioStreamED2Ev
__ZThn248_N13AVCRTPSessionI14AVCAudioStreamED1Ev
__ZThn248_N13AVCRTPSessionI14AVCAudioStreamED0Ev
__ZN16AVCRTPRTTSessionD2Ev
__ZN13AVCRTPSessionI13AVCTextStreamED2Ev
__ZThn248_N13AVCRTPSessionI13AVCTextStreamED1Ev
__ZThn248_N13AVCRTPSessionI13AVCTextStreamED0Ev
__ZNSt3__110shared_ptrI21MediaSessionInterfaceED2B6v15006Ev
__ZNSt3__110shared_ptrI10SDPSessionED2B6v15006Ev
__ZNSt3__110shared_ptrI21AVCRTPStackControllerED2B6v15006Ev
__ZNSt3__110shared_ptrI20MediaSessionDelegateED2B6v15006Ev
__ZNSt3__110shared_ptrI20RTPSharedPointerBaseEC2B6v15006IS1_vEERKNS_8weak_ptrIT_EE
__ZNSt3__120__throw_bad_weak_ptrB6v15006Ev
__ZNSt3__110shared_ptrI18AVCRTPAudioSessionED2B6v15006Ev
__ZNSt3__110shared_ptrI30MediaSessionQueuedStateMachineED2B6v15006Ev
__ZNSt3__110shared_ptrI16AVCRTPRTTSessionED2B6v15006Ev
__ZN20RTPSharedPointerBase9getSharedI13AVCRTPSessionI14AVCAudioStreamEEENSt3__110shared_ptrIT_EEv
____ZN13AVCRTPSessionI14AVCAudioStreamE9terminateEb_block_invoke
___copy_helper_block_e8_40c49_ZTSNSt3__110shared_ptrI21MediaSessionInterfaceEE
___destroy_helper_block_e8_40c49_ZTSNSt3__110shared_ptrI21MediaSessionInterfaceEE
__ZNSt3__110shared_ptrI13AVCRTPSessionI14AVCAudioStreamEED2B6v15006Ev
____ZN13AVCRTPSessionI14AVCAudioStreamE5startEb_block_invoke
____ZN13AVCRTPSessionI14AVCAudioStreamE5startEb_block_invoke_2
____ZN13AVCRTPSessionI14AVCAudioStreamE4stopEb_block_invoke
____ZN13AVCRTPSessionI14AVCAudioStreamE12setDirectionERK14MediaDirectionb_block_invoke
____ZN13AVCRTPSessionI14AVCAudioStreamE12setDirectionERK14MediaDirectionb_block_invoke_2
____ZN13AVCRTPSessionI14AVCAudioStreamE12setDirectionERK14MediaDirectionb_block_invoke_3
____ZN13AVCRTPSessionI14AVCAudioStreamE9configureEb_block_invoke
__ZN20RTPSharedPointerBase9getSharedI13AVCRTPSessionI13AVCTextStreamEEENSt3__110shared_ptrIT_EEv
____ZN13AVCRTPSessionI13AVCTextStreamE9terminateEb_block_invoke
__ZNSt3__110shared_ptrI13AVCRTPSessionI13AVCTextStreamEED2B6v15006Ev
____ZN13AVCRTPSessionI13AVCTextStreamE5startEb_block_invoke
____ZN13AVCRTPSessionI13AVCTextStreamE5startEb_block_invoke_2
____ZN13AVCRTPSessionI13AVCTextStreamE4stopEb_block_invoke
____ZN13AVCRTPSessionI13AVCTextStreamE12setDirectionERK14MediaDirectionb_block_invoke
____ZN13AVCRTPSessionI13AVCTextStreamE12setDirectionERK14MediaDirectionb_block_invoke_2
____ZN13AVCRTPSessionI13AVCTextStreamE12setDirectionERK14MediaDirectionb_block_invoke_3
____ZN13AVCRTPSessionI13AVCTextStreamE9configureEb_block_invoke
__ZN21SipProxyRequireHeaderD1Ev
__ZN21SipProxyRequireHeaderD0Ev
__ZNK21SipProxyRequireHeader5cloneEv
__ZN16SipWarningHeaderD1Ev
__ZN16SipWarningHeaderD0Ev
__ZNK16SipWarningHeader5cloneEv
__ZNK15SipVectorHeaderI10SipWarningE11encodeValueER12ImsOutStream
__ZN15SipVectorHeaderI10SipWarningE18setValueFromStringERKNSt3__112basic_stringIcNS2_11char_traitsIcEENS2_9allocatorIcEEEE
__ZNK15SipVectorHeaderI10SipWarningE16allowsDuplicatesEv
__ZNK15SipVectorHeaderI10SipWarningE13allowsMergingEv
__ZN15SipVectorHeaderI10SipWarningE11mergeHeaderERK9SipHeader
__ZNK16SipWarningHeader12itemToStreamERK10SipWarningR12ImsOutStream
__ZNK16SipWarningHeader14itemFromStringERKNSt3__112basic_stringIcNS0_11char_traitsIcEENS0_9allocatorIcEEEEP10SipWarning
__ZN15SipVectorHeaderI10SipWarningE9nextTokenERKNSt3__112basic_stringIcNS2_11char_traitsIcEENS2_9allocatorIcEEEEmPS8_c
__ZN15SipVectorHeaderI10SipWarningED1Ev
__ZN15SipVectorHeaderI10SipWarningED0Ev
__ZNKSt3__16vectorI10SipWarningNS_9allocatorIS1_EEE20__throw_length_errorB6v15006Ev
__ZNSt3__119__allocate_at_leastB6v15006INS_9allocatorI10SipWarningEEEENS_19__allocation_resultINS_16allocator_traitsIT_E7pointerEEERS6_m
__ZNSt3__19allocatorI10SipWarningE7destroyB6v15006EPS1_
__ZN10SipWarningD1Ev
__ZNSt3__16vectorI10SipWarningNS_9allocatorIS1_EEED2B6v15006Ev
__ZN15SipVectorHeaderI10SipWarningE7addItemERKS0_
__ZNSt3__19allocatorI10SipWarningE9constructB6v15006IS1_JRKS1_EEEvPT_DpOT0_
__ZNSt3__114__split_bufferI10SipWarningRNS_9allocatorIS1_EEED2Ev
__ZN24SipLocationDiscoveryBodyC2Ev
__ZNK24SipLocationDiscoveryBody11generateXmlEv
__ZN24SipLocationDiscoveryBodyD1Ev
__ZN24SipLocationDiscoveryBodyD0Ev
__ZNK24SipLocationDiscoveryBody5cloneEv
__ZNK24SipLocationDiscoveryBody11contentTypeEv
__ZN24SipLocationDiscoveryBody8rootItemEv
__ZN24SipLocationDiscoveryBodyD2Ev
__GLOBAL__sub_I_SipLocationDiscoveryBody.cpp
__ZN21SipServiceRouteHeaderD1Ev
__ZN21SipServiceRouteHeaderD0Ev
__ZNK21SipServiceRouteHeader5cloneEv
__ZNK17SipRouteSetHeader16allowsDuplicatesEv
__ZNK17SipRouteSetHeader13allowsMergingEv
__ZN20SipClientTransactionD2Ev
__ZN20SipClientTransactionD1Ev
__ZThn64_N20SipClientTransactionD1Ev
__ZThn80_N20SipClientTransactionD1Ev
__ZThn152_N20SipClientTransactionD1Ev
__ZThn232_N20SipClientTransactionD1Ev
__ZN20SipClientTransactionD0Ev
__ZThn64_N20SipClientTransactionD0Ev
__ZThn80_N20SipClientTransactionD0Ev
__ZThn152_N20SipClientTransactionD0Ev
__ZThn232_N20SipClientTransactionD0Ev
__ZNK20SipClientTransaction12loggableNameEv
__ZThn80_NK20SipClientTransaction12loggableNameEv
__ZN20SipClientTransaction17resendLastMessageEv
__ZN20SipClientTransaction11handleErrorERK9ImsResult
__ZNK10SipMessage6headerI19SipRetryAfterHeaderEEPKT_v
__ZThn64_N20SipClientTransaction11handleErrorERK9ImsResult
__ZNK10SipMessage6headerI26SipPAssertedIdentityHeaderEEPKT_v
__ZN20SipClientTransaction21handleConnectionErrorEv
__ZThn64_N20SipClientTransaction21handleConnectionErrorEv
__ZN20SipClientTransaction14handleResponseERK11SipResponse
__ZN26SipClientInviteTransactionC1EP19SipTransactionLayerP10SipRequestRK16IpAddressWrapperRKNSt3__112basic_stringIcNS7_11char_traitsIcEENS7_9allocatorIcEEEE
__ZN26SipClientInviteTransactionD2Ev
__ZN26SipClientInviteTransactionD1Ev
__ZThn64_N26SipClientInviteTransactionD1Ev
__ZThn80_N26SipClientInviteTransactionD1Ev
__ZThn152_N26SipClientInviteTransactionD1Ev
__ZThn232_N26SipClientInviteTransactionD1Ev
__ZN26SipClientInviteTransactionD0Ev
__ZThn64_N26SipClientInviteTransactionD0Ev
__ZThn80_N26SipClientInviteTransactionD0Ev
__ZThn152_N26SipClientInviteTransactionD0Ev
__ZThn232_N26SipClientInviteTransactionD0Ev
__ZN26SipClientInviteTransaction10initializeEv
__ZN26SipClientInviteTransaction18sendAckForResponseERK11SipResponse
__ZN29SipClientNonInviteTransactionC1EP19SipTransactionLayerP10SipRequestRK16IpAddressWrapperRKNSt3__112basic_stringIcNS7_11char_traitsIcEENS7_9allocatorIcEEEE
__ZN29SipClientNonInviteTransaction10initializeEv
__ZN29SipClientNonInviteTransaction11handleTimerEP17SipTimerContainerRKNSt3__112basic_stringIcNS2_11char_traitsIcEENS2_9allocatorIcEEEE
__ZThn232_N29SipClientNonInviteTransaction11handleTimerEP17SipTimerContainerRKNSt3__112basic_stringIcNS2_11char_traitsIcEENS2_9allocatorIcEEEE
__ZN29SipClientNonInviteTransactionD1Ev
__ZN29SipClientNonInviteTransactionD0Ev
__ZThn64_N29SipClientNonInviteTransactionD1Ev
__ZThn64_N29SipClientNonInviteTransactionD0Ev
__ZThn80_N29SipClientNonInviteTransactionD1Ev
__ZThn80_N29SipClientNonInviteTransactionD0Ev
__ZThn152_N29SipClientNonInviteTransactionD1Ev
__ZThn152_N29SipClientNonInviteTransactionD0Ev
__ZThn232_N29SipClientNonInviteTransactionD1Ev
__ZThn232_N29SipClientNonInviteTransactionD0Ev
__ZN17SipRouteSetHeaderC2ERKS_
__ZNK17SipRouteSetHeader11encodeValueER12ImsOutStream
__ZN17SipRouteSetHeader18setValueFromStringERKNSt3__112basic_stringIcNS0_11char_traitsIcEENS0_9allocatorIcEEEE
__ZN17SipRouteSetHeader11mergeHeaderERK9SipHeader
__ZNK17SipRouteSetHeader19findParameterMarkerERKNSt3__112basic_stringIcNS0_11char_traitsIcEENS0_9allocatorIcEEEE
__ZN17SipRouteSetHeaderD1Ev
__ZN17SipRouteSetHeaderD0Ev
__ZN14LoggableStringD1Ev
__ZN21SipTransportInterfaceC2Ev
__ZN23SipTypedTerminationLockI17SipTransportGroupED1Ev
__ZN16SipTcpConnectionC1EP23SipTcpConnectionManagerP21ImsTcpSocketInterfaceb
__ZN16SipTcpConnectionD2Ev
__ZN16SipTcpConnection21removeAllTransactionsEPK9ImsResult
__ZN16SipTcpConnectionD1Ev
__ZThn72_N16SipTcpConnectionD1Ev
__ZThn152_N16SipTcpConnectionD1Ev
__ZThn160_N16SipTcpConnectionD1Ev
__ZThn168_N16SipTcpConnectionD1Ev
__ZN16SipTcpConnectionD0Ev
__ZThn72_N16SipTcpConnectionD0Ev
__ZThn152_N16SipTcpConnectionD0Ev
__ZThn160_N16SipTcpConnectionD0Ev
__ZThn168_N16SipTcpConnectionD0Ev
__ZNK16SipTcpConnection12loggableNameEv
__ZN16SipTcpConnection7addUserEP17SipConnectionUser
__ZN23SipTypedTerminationLockI17SipTransportGroupE3setEPS0_RK14LoggableString
__ZN16SipTcpConnection10removeUserEP17SipConnectionUser
____ZN16SipTcpConnection10removeUserEP17SipConnectionUser_block_invoke
__ZN16SipTcpConnection19transactionTimedOutEv
__ZN16SipTcpConnection13closeIfUnusedEv
__ZN16SipTcpConnection16stopTlsKeepAliveEv
__ZN16SipTcpConnection8shutdownEv
__ZN16SipTcpConnection11handleTimerEP17SipTimerContainerRKNSt3__112basic_stringIcNS2_11char_traitsIcEENS2_9allocatorIcEEEE
__ZN16SipTcpConnection11resetSocketEv
__ZThn152_N16SipTcpConnection11handleTimerEP17SipTimerContainerRKNSt3__112basic_stringIcNS2_11char_traitsIcEENS2_9allocatorIcEEEE
__ZN16SipTcpConnection19removeFromTransportEv
__ZN16SipTcpConnection13decodeMessageERKNSt3__112basic_stringIcNS0_11char_traitsIcEENS0_9allocatorIcEEEE
__ZN16SipTcpConnection21processDataFromSocketEPKhmRK9IpAddressP21ImsTcpSocketInterface
__ZThn160_N16SipTcpConnection21processDataFromSocketEPKhmRK9IpAddressP21ImsTcpSocketInterface
__ZN16SipTcpConnection17handleSocketErrorEP21ImsTcpSocketInterfaceRK9ImsResult
__ZThn160_N16SipTcpConnection17handleSocketErrorEP21ImsTcpSocketInterfaceRK9ImsResult
__ZN16SipTcpConnection18handleConnectErrorEP21ImsTcpSocketInterfaceRK9ImsResult
__ZThn160_N16SipTcpConnection18handleConnectErrorEP21ImsTcpSocketInterfaceRK9ImsResult
__ZN16SipTcpConnection22connectionClosedByPeerEP21ImsTcpSocketInterface
__ZThn160_N16SipTcpConnection22connectionClosedByPeerEP21ImsTcpSocketInterface
__ZN16SipTcpConnection21connectionResetByPeerEP21ImsTcpSocketInterface
__ZThn160_N16SipTcpConnection21connectionResetByPeerEP21ImsTcpSocketInterface
__ZN16SipTcpConnection8sendDataEPKhm
__ZN9ImsResultlsIA33_cEERS_RKT_
__ZN16SipTcpConnection18initializeOutgoingERK9IpAddressS2_RKNSt3__112basic_stringIcNS3_11char_traitsIcEENS3_9allocatorIcEEEEbi
__ZN9ImsResultlsIA51_cEERS_RKT_
__ZNK16SipTcpConnection14printDebugInfoER12ImsOutStream
__ZNK16SipTcpConnection9logPrefixER12ImsOutStream
__ZThn72_NK16SipTcpConnection9logPrefixER12ImsOutStream
__ZNK16SipTcpConnection8toStreamER12ImsOutStream
__ZN16SipTcpConnection14transportGroupEv
__ZN16SipTcpConnection8sendPingEv
__ZN16SipTcpConnection11sendMessageEP10SipMessagePP21SipTransportInterface
__ZN16SipTcpConnection27handleKeepAliveNotificationEv
____ZN16SipTcpConnection27handleKeepAliveNotificationEv_block_invoke
__ZThn168_N16SipTcpConnection27handleKeepAliveNotificationEv
__ZN16SipTcpConnection10isReliableEv
__ZNK16SipTcpConnection11initializedEv
__ZNK16SipTcpConnection12shuttingDownEv
__ZN29ImsTcpSocketInterfaceDelegate7setPortEt
__ZThn72_N21SipTransportInterfaceD1Ev
__ZThn72_N21SipTransportInterfaceD0Ev
__ZNK15ImsLogContainer9logPrefixER12ImsOutStream
__ZN23SipTypedTerminationLockI17SipTransportGroupED0Ev
__ZN23SipTypedTerminationLockI17SipTransportGroupED2Ev
__ZNSt3__112__hash_tableIP17SipConnectionUserNS_4hashIS2_EENS_8equal_toIS2_EENS_9allocatorIS2_EEED2Ev
__ZNSt3__112__hash_tableIP17SipConnectionUserNS_4hashIS2_EENS_8equal_toIS2_EENS_9allocatorIS2_EEE8__rehashILb1EEEvm
__ZNSt3__112__hash_tableIP17SipConnectionUserNS_4hashIS2_EENS_8equal_toIS2_EENS_9allocatorIS2_EEE25__emplace_unique_key_argsIS2_JRKS2_EEENS_4pairINS_15__hash_iteratorIPNS_11__hash_nodeIS2_PvEEEEbEERKT_DpOT0_
__ZN23SipTypedTerminationLockI11SipLockableE3setEPS0_RK14LoggableString
__GLOBAL__sub_I_SipTcpConnection.cpp
__ZN20SipHeaderTemplateMap18initializeFromPrefERK8ImsPrefsRK15ImsPrefsKeyDict
__ZNK20SipHeaderTemplateMap23matchingHeaderTemplatesERKNSt3__112basic_stringIcNS0_11char_traitsIcEENS0_9allocatorIcEEEEjbbNS_11MatchDeviceEjPNS0_6vectorIS6_NS4_IS6_EEEE
__ZNK20SipHeaderTemplateMap22matchingHeaderTemplateERKNSt3__112basic_stringIcNS0_11char_traitsIcEENS0_9allocatorIcEEEEjbbNS_11MatchDeviceEj
__ZN23SipSecurityVerifyHeaderC2ERK23SipSecurityServerHeader
__ZN23SipSecurityVerifyHeaderD1Ev
__ZN23SipSecurityVerifyHeaderD0Ev
__ZNK23SipSecurityVerifyHeader5cloneEv
__ZNK15SipVectorHeaderIP20SipSecurityMechanismE11encodeValueER12ImsOutStream
__ZN15SipVectorHeaderIP20SipSecurityMechanismE18setValueFromStringERKNSt3__112basic_stringIcNS3_11char_traitsIcEENS3_9allocatorIcEEEE
__ZNK15SipVectorHeaderIP20SipSecurityMechanismE16allowsDuplicatesEv
__ZNK15SipVectorHeaderIP20SipSecurityMechanismE13allowsMergingEv
__ZN26SipPolymorphicVectorHeaderI20SipSecurityMechanismE11mergeHeaderERK9SipHeader
__ZNK26SipSecurityAgreementHeader12itemToStreamERKP20SipSecurityMechanismR12ImsOutStream
__ZN15SipVectorHeaderIP20SipSecurityMechanismE9nextTokenERKNSt3__112basic_stringIcNS3_11char_traitsIcEENS3_9allocatorIcEEEEmPS9_c
__ZN18SDPTemplateBuilder19generateEVSSDPMediaEtPK11ImsDictPrefR18SDPMediaFormatInfo
__ZN18SDPTemplateBuilder21generateAMRWBSDPMediaEtPK11ImsDictPrefR18SDPMediaFormatInfo
__ZN18SDPTemplateBuilder21generateAMRNBSDPMediaEtPK11ImsDictPrefR18SDPMediaFormatInfo
__ZN18SDPTemplateBuilder20generatePCMUSDPMediaEtPK11ImsDictPrefR18SDPMediaFormatInfo
__ZN18SDPTemplateBuilder20generatePCMASDPMediaEtPK11ImsDictPrefR18SDPMediaFormatInfo
__ZN18SDPTemplateBuilder20generateDTMFSDPMediaEtPK11ImsDictPrefR18SDPMediaFormatInfo
__ZNSt3__13mapINS_12basic_stringIcNS_11char_traitsIcEENS_9allocatorIcEEEEPFbtPK11ImsDictPrefR18SDPMediaFormatInfoENS_4lessIS6_EENS4_INS_4pairIKS6_SD_EEEEED1B6v15006Ev
__ZN18SDPTemplateBuilder17createSDPTemplateERK8ImsPrefs
__ZN8SDPModel9setOriginERK9SDPOrigin
__ZNSt3__14listI9SDPTimingNS_9allocatorIS1_EEE12emplace_backIJS1_EEERS1_DpOT_
__ZL29extractCodecsWithEncodingNameP8SDPMediaRNSt3__13mapINS1_12basic_stringIcNS1_11char_traitsIcEENS1_9allocatorIcEEEENS1_6vectorI18SDPMediaFormatInfoNS6_ISA_EEEENS1_4lessIS8_EENS6_INS1_4pairIKS8_SC_EEEEEES8_
__ZN18SDPTemplateBuilder18createSDPTextMediaENSt3__110shared_ptrI8SDPModelEEbbRK8ImsPrefs
__ZN8SDPMedia12setDirectionE14MediaDirection
__ZNSt3__14listI18SDPMediaFormatInfoNS_9allocatorIS1_EEE9push_backERKS1_
__ZN18SDPTemplateBuilder22addBandwidthSpecifiersER8SDPMediaNSt3__110shared_ptrI8SDPModelEEbbbRK8ImsPrefs
__ZN18SDPTemplateBuilder21createInitialSettingsENSt3__110shared_ptrI8SDPModelEERKNS0_12basic_stringIcNS0_11char_traitsIcEENS0_9allocatorIcEEEEbRK8ImsPrefs
__ZN18SDPTemplateBuilder24createInitialTTYSettingsERK8ImsPrefs
__ZN18SDPTemplateBuilder32createInitialSecondAudioSettingsENSt3__110shared_ptrI8SDPModelEEtbRK8ImsPrefs
__ZL17extractRTPMapInfoPK11ImsDictPrefPtS2_
__ZN18SDPTemplateBuilder26generateGenericAMRSDPMediaEtNSt3__112basic_stringIcNS0_11char_traitsIcEENS0_9allocatorIcEEEEPK11ImsDictPrefR18SDPMediaFormatInfo
__ZN9SDPOriginC2ERK13SDPConnectionNSt3__112basic_stringIcNS3_11char_traitsIcEENS3_9allocatorIcEEEEyy
__ZN9SDPOriginD2Ev
__ZNSt3__110__list_impI13SDPRepeatTimeNS_9allocatorIS1_EEE5clearEv
__ZN27SDPMediaFormatUnknownParamsD1Ev
__ZN27SDPMediaFormatUnknownParamsD0Ev
__ZNK27SDPMediaFormatUnknownParams16formatParametersEv
__ZNK20SDPMediaFormatParams9printableEv
__ZNK20SDPMediaFormatParams11isOpenOfferEv
__ZNK20SDPMediaFormatParams11bandwidthASEb
__ZN27SDPMediaFormatUnknownParamsD2Ev
__ZNSt3__116__variant_detail18__copy_constructorINS0_8__traitsIJ27SDPMediaFormatUnknownParams23SDPMediaFormatAMRParams23SDPMediaFormatEVSParams24SDPMediaFormatDTMFParams23SDPMediaFormatTTYParams26SDPMediaFormatTTYRedParamsEEELNS0_6_TraitE1EEC2ERKSB_
__ZNSt3__116__variant_detail12__visitation6__base12__dispatcherIJLm0EEE10__dispatchB6v15006IOZNS0_6__dtorINS0_8__traitsIJ27SDPMediaFormatUnknownParams23SDPMediaFormatAMRParams23SDPMediaFormatEVSParams24SDPMediaFormatDTMFParams23SDPMediaFormatTTYParams26SDPMediaFormatTTYRedParamsEEELNS0_6_TraitE1EE9__destroyB6v15006EvEUlRT_E_JRNS0_6__baseILSF_1EJS8_S9_SA_SB_SC_SD_EEEEEEDcSH_DpT0_
__ZNSt3__116__variant_detail12__visitation6__base12__dispatcherIJLm1EEE10__dispatchB6v15006IOZNS0_6__dtorINS0_8__traitsIJ27SDPMediaFormatUnknownParams23SDPMediaFormatAMRParams23SDPMediaFormatEVSParams24SDPMediaFormatDTMFParams23SDPMediaFormatTTYParams26SDPMediaFormatTTYRedParamsEEELNS0_6_TraitE1EE9__destroyB6v15006EvEUlRT_E_JRNS0_6__baseILSF_1EJS8_S9_SA_SB_SC_SD_EEEEEEDcSH_DpT0_
__ZNSt3__116__variant_detail12__visitation6__base12__dispatcherIJLm2EEE10__dispatchB6v15006IOZNS0_6__dtorINS0_8__traitsIJ27SDPMediaFormatUnknownParams23SDPMediaFormatAMRParams23SDPMediaFormatEVSParams24SDPMediaFormatDTMFParams23SDPMediaFormatTTYParams26SDPMediaFormatTTYRedParamsEEELNS0_6_TraitE1EE9__destroyB6v15006EvEUlRT_E_JRNS0_6__baseILSF_1EJS8_S9_SA_SB_SC_SD_EEEEEEDcSH_DpT0_
__ZNSt3__116__variant_detail12__visitation6__base12__dispatcherIJLm3EEE10__dispatchB6v15006IOZNS0_6__dtorINS0_8__traitsIJ27SDPMediaFormatUnknownParams23SDPMediaFormatAMRParams23SDPMediaFormatEVSParams24SDPMediaFormatDTMFParams23SDPMediaFormatTTYParams26SDPMediaFormatTTYRedParamsEEELNS0_6_TraitE1EE9__destroyB6v15006EvEUlRT_E_JRNS0_6__baseILSF_1EJS8_S9_SA_SB_SC_SD_EEEEEEDcSH_DpT0_
__ZNSt3__116__variant_detail12__visitation6__base12__dispatcherIJLm4EEE10__dispatchB6v15006IOZNS0_6__dtorINS0_8__traitsIJ27SDPMediaFormatUnknownParams23SDPMediaFormatAMRParams23SDPMediaFormatEVSParams24SDPMediaFormatDTMFParams23SDPMediaFormatTTYParams26SDPMediaFormatTTYRedParamsEEELNS0_6_TraitE1EE9__destroyB6v15006EvEUlRT_E_JRNS0_6__baseILSF_1EJS8_S9_SA_SB_SC_SD_EEEEEEDcSH_DpT0_
__ZNSt3__116__variant_detail12__visitation6__base12__dispatcherIJLm5EEE10__dispatchB6v15006IOZNS0_6__dtorINS0_8__traitsIJ27SDPMediaFormatUnknownParams23SDPMediaFormatAMRParams23SDPMediaFormatEVSParams24SDPMediaFormatDTMFParams23SDPMediaFormatTTYParams26SDPMediaFormatTTYRedParamsEEELNS0_6_TraitE1EE9__destroyB6v15006EvEUlRT_E_JRNS0_6__baseILSF_1EJS8_S9_SA_SB_SC_SD_EEEEEEDcSH_DpT0_
__ZN24SDPMediaFormatDTMFParamsD1Ev
__ZNSt3__116__variant_detail12__visitation6__base12__dispatcherIJLm0ELm0EEE10__dispatchB6v15006IOZNS0_6__ctorINS0_8__traitsIJ27SDPMediaFormatUnknownParams23SDPMediaFormatAMRParams23SDPMediaFormatEVSParams24SDPMediaFormatDTMFParams23SDPMediaFormatTTYParams26SDPMediaFormatTTYRedParamsEEEE19__generic_constructB6v15006IRKNS0_18__copy_constructorISE_LNS0_6_TraitE1EEEEEvRSF_OT_EUlRSN_OT0_E_JRNS0_6__baseILSI_1EJS8_S9_SA_SB_SC_SD_EEERKSV_EEEDcSN_DpT0_
__ZNSt3__116__variant_detail12__visitation6__base12__dispatcherIJLm1ELm1EEE10__dispatchB6v15006IOZNS0_6__ctorINS0_8__traitsIJ27SDPMediaFormatUnknownParams23SDPMediaFormatAMRParams23SDPMediaFormatEVSParams24SDPMediaFormatDTMFParams23SDPMediaFormatTTYParams26SDPMediaFormatTTYRedParamsEEEE19__generic_constructB6v15006IRKNS0_18__copy_constructorISE_LNS0_6_TraitE1EEEEEvRSF_OT_EUlRSN_OT0_E_JRNS0_6__baseILSI_1EJS8_S9_SA_SB_SC_SD_EEERKSV_EEEDcSN_DpT0_
__ZNSt3__116__variant_detail12__visitation6__base12__dispatcherIJLm2ELm2EEE10__dispatchB6v15006IOZNS0_6__ctorINS0_8__traitsIJ27SDPMediaFormatUnknownParams23SDPMediaFormatAMRParams23SDPMediaFormatEVSParams24SDPMediaFormatDTMFParams23SDPMediaFormatTTYParams26SDPMediaFormatTTYRedParamsEEEE19__generic_constructB6v15006IRKNS0_18__copy_constructorISE_LNS0_6_TraitE1EEEEEvRSF_OT_EUlRSN_OT0_E_JRNS0_6__baseILSI_1EJS8_S9_SA_SB_SC_SD_EEERKSV_EEEDcSN_DpT0_
__ZNSt3__116__variant_detail12__visitation6__base12__dispatcherIJLm3ELm3EEE10__dispatchB6v15006IOZNS0_6__ctorINS0_8__traitsIJ27SDPMediaFormatUnknownParams23SDPMediaFormatAMRParams23SDPMediaFormatEVSParams24SDPMediaFormatDTMFParams23SDPMediaFormatTTYParams26SDPMediaFormatTTYRedParamsEEEE19__generic_constructB6v15006IRKNS0_18__copy_constructorISE_LNS0_6_TraitE1EEEEEvRSF_OT_EUlRSN_OT0_E_JRNS0_6__baseILSI_1EJS8_S9_SA_SB_SC_SD_EEERKSV_EEEDcSN_DpT0_
__ZNSt3__116__variant_detail12__visitation6__base12__dispatcherIJLm4ELm4EEE10__dispatchB6v15006IOZNS0_6__ctorINS0_8__traitsIJ27SDPMediaFormatUnknownParams23SDPMediaFormatAMRParams23SDPMediaFormatEVSParams24SDPMediaFormatDTMFParams23SDPMediaFormatTTYParams26SDPMediaFormatTTYRedParamsEEEE19__generic_constructB6v15006IRKNS0_18__copy_constructorISE_LNS0_6_TraitE1EEEEEvRSF_OT_EUlRSN_OT0_E_JRNS0_6__baseILSI_1EJS8_S9_SA_SB_SC_SD_EEERKSV_EEEDcSN_DpT0_
__ZNSt3__116__variant_detail12__visitation6__base12__dispatcherIJLm5ELm5EEE10__dispatchB6v15006IOZNS0_6__ctorINS0_8__traitsIJ27SDPMediaFormatUnknownParams23SDPMediaFormatAMRParams23SDPMediaFormatEVSParams24SDPMediaFormatDTMFParams23SDPMediaFormatTTYParams26SDPMediaFormatTTYRedParamsEEEE19__generic_constructB6v15006IRKNS0_18__copy_constructorISE_LNS0_6_TraitE1EEEEEvRSF_OT_EUlRSN_OT0_E_JRNS0_6__baseILSI_1EJS8_S9_SA_SB_SC_SD_EEERKSV_EEEDcSN_DpT0_
__ZN27SDPMediaFormatUnknownParamsC2ERKS_
__ZN20SDPMediaFormatParamsC2Et
__ZN23SDPMediaFormatAMRParamsC2ERKS_
__ZN23SDPMediaFormatEVSParamsC2ERKS_
__ZN24SDPMediaFormatDTMFParamsD0Ev
__ZNK24SDPMediaFormatDTMFParams16formatParametersEv
__ZNSt3__116__variant_detail6__dtorINS0_8__traitsIJ27SDPMediaFormatUnknownParams23SDPMediaFormatAMRParams23SDPMediaFormatEVSParams24SDPMediaFormatDTMFParams23SDPMediaFormatTTYParams26SDPMediaFormatTTYRedParamsEEELNS0_6_TraitE1EED2Ev
__ZNSt3__14listINS_7variantIJ9SDPRTCPXR23SDPUnsupportedAttribute17SDPMediaCandidate14SDPMediaCrypto17SDPMediaDirection33SDPMediaEndToAccessEdgeProtection27SDPMediaFormatUnknownParams23SDPMediaFormatAMRParams23SDPMediaFormatEVSParams24SDPMediaFormatDTMFParams23SDPMediaFormatTTYParams26SDPMediaFormatTTYRedParams14SDPMediaRTPMap29SDPPacketizationTimeAttributeEEENS_9allocatorISG_EEE12emplace_backIJS6_EEERSG_DpOT_
__ZN17SDPMediaDirectionC2E14MediaDirection
__ZN14SDPMediaRTPMapC2EtNSt3__112basic_stringIcNS0_11char_traitsIcEENS0_9allocatorIcEEEEtt
__ZN14SDPMediaRTPMapD2Ev
__ZN19SDPMediaAMRSettingsD1Ev
__ZN19SDPMediaAMRSettingsD0Ev
__ZN21SDPMediaAudioSettingsC2ERKS_
__ZN16SDPMediaSettingsC2ERKS_
__ZNSt3__120__optional_copy_baseI14SDPMediaCryptoLb0EEC2B6v15006ERKS2_
__ZN14SDPMediaCryptoC2ERKS_
__ZN14SDPMediaCryptoD2Ev
__ZN14SDPMediaRTPMapC2ERKS_
__ZN23SDPMediaFormatEVSParamsC2Et
__ZNSt3__115allocate_sharedB6v15006I8SDPModelNS_9allocatorIS1_EEJEvEENS_10shared_ptrIT_EERKT0_DpOT1_
__ZNSt3__120__shared_ptr_emplaceI8SDPModelNS_9allocatorIS1_EEED1Ev
__ZNSt3__120__shared_ptr_emplaceI8SDPModelNS_9allocatorIS1_EEED0Ev
__ZNSt3__120__shared_ptr_emplaceI8SDPModelNS_9allocatorIS1_EEE16__on_zero_sharedEv
__ZNSt3__120__shared_ptr_emplaceI8SDPModelNS_9allocatorIS1_EEE21__on_zero_shared_weakEv
__ZN8SDPModelC2Ev
__ZNSt3__110shared_ptrI8SDPModelE18__enable_weak_thisB6v15006IS1_S1_vEEvPKNS_23enable_shared_from_thisIT_EEPT0_
__ZNSt3__16__treeINS_12__value_typeINS_12basic_stringIcNS_11char_traitsIcEENS_9allocatorIcEEEEPFbtPK11ImsDictPrefR18SDPMediaFormatInfoEEENS_19__map_value_compareIS7_SF_NS_4lessIS7_EELb1EEENS5_ISF_EEE16__insert_node_atEPNS_15__tree_end_nodeIPNS_16__tree_node_baseIPvEEEERSQ_SQ_
__ZNSt3__16__treeINS_12__value_typeINS_12basic_stringIcNS_11char_traitsIcEENS_9allocatorIcEEEEPFbtPK11ImsDictPrefR18SDPMediaFormatInfoEEENS_19__map_value_compareIS7_SF_NS_4lessIS7_EELb1EEENS5_ISF_EEE12__find_equalIS7_EERPNS_16__tree_node_baseIPvEERPNS_15__tree_end_nodeISQ_EERKT_
__ZNSt3__16__treeINS_12__value_typeINS_12basic_stringIcNS_11char_traitsIcEENS_9allocatorIcEEEEPFbtPK11ImsDictPrefR18SDPMediaFormatInfoEEENS_19__map_value_compareIS7_SF_NS_4lessIS7_EELb1EEENS5_ISF_EEE7destroyEPNS_11__tree_nodeISF_PvEE
__ZNSt3__16__treeINS_12__value_typeINS_12basic_stringIcNS_11char_traitsIcEENS_9allocatorIcEEEENS_6vectorI18SDPMediaFormatInfoNS5_IS9_EEEEEENS_19__map_value_compareIS7_SC_NS_4lessIS7_EELb1EEENS5_ISC_EEE25__emplace_unique_key_argsIS7_JRKNS_21piecewise_construct_tENS_5tupleIJRKS7_EEENSN_IJEEEEEENS_4pairINS_15__tree_iteratorISC_PNS_11__tree_nodeISC_PvEElEEbEERKT_DpOT0_
__ZNSt3__16__treeINS_12__value_typeINS_12basic_stringIcNS_11char_traitsIcEENS_9allocatorIcEEEENS_6vectorI18SDPMediaFormatInfoNS5_IS9_EEEEEENS_19__map_value_compareIS7_SC_NS_4lessIS7_EELb1EEENS5_ISC_EEE12__find_equalIS7_EERPNS_16__tree_node_baseIPvEERPNS_15__tree_end_nodeISN_EERKT_
__ZNSt3__16__treeINS_12__value_typeINS_12basic_stringIcNS_11char_traitsIcEENS_9allocatorIcEEEENS_6vectorI18SDPMediaFormatInfoNS5_IS9_EEEEEENS_19__map_value_compareIS7_SC_NS_4lessIS7_EELb1EEENS5_ISC_EEE16__insert_node_atEPNS_15__tree_end_nodeIPNS_16__tree_node_baseIPvEEEERSN_SN_
__ZN9SDPTimingC2ERKS_
__ZNSt3__14listI13SDPRepeatTimeNS_9allocatorIS1_EEE9push_backERKS1_
__ZNSt3__14listIyNS_9allocatorIyEEEC2ERKS3_
__ZNSt3__110__list_impIyNS_9allocatorIyEEE5clearEv
__ZNSt3__16vectorI8SDPMediaNS_9allocatorIS1_EEE26__swap_out_circular_bufferERNS_14__split_bufferIS1_RS3_EE
__ZNKSt3__16vectorI8SDPMediaNS_9allocatorIS1_EEE20__throw_length_errorB6v15006Ev
__ZNSt3__119__allocate_at_leastB6v15006INS_9allocatorI8SDPMediaEEEENS_19__allocation_resultINS_16allocator_traitsIT_E7pointerEEERS6_m
__ZNSt3__142__uninitialized_allocator_move_if_noexceptB6v15006INS_9allocatorI8SDPMediaEENS_16reverse_iteratorIPS2_EES6_S6_EET2_RT_T0_T1_S7_
__ZNSt3__114__split_bufferI8SDPMediaRNS_9allocatorIS1_EEED2Ev
__ZNSt3__16__treeINS_12__value_typeI13EVSConfigName18SDPMediaFormatInfoEENS_19__map_value_compareIS2_S4_NS_4lessIS2_EELb1EEENS_9allocatorIS4_EEE7destroyEPNS_11__tree_nodeIS4_PvEE
__ZNSt3__16vectorI18SDPMediaFormatInfoNS_9allocatorIS1_EEED2B6v15006Ev
__ZNSt3__16__treeINS_12__value_typeINS_12basic_stringIcNS_11char_traitsIcEENS_9allocatorIcEEEENS_6vectorI18SDPMediaFormatInfoNS5_IS9_EEEEEENS_19__map_value_compareIS7_SC_NS_4lessIS7_EELb1EEENS5_ISC_EEE7destroyEPNS_11__tree_nodeISC_PvEE
__ZNSt3__16__treeINS_12__value_typeI13EVSConfigName18SDPMediaFormatInfoEENS_19__map_value_compareIS2_S4_NS_4lessIS2_EELb1EEENS_9allocatorIS4_EEE25__emplace_unique_key_argsIS2_JRKNS_21piecewise_construct_tENS_5tupleIJOS2_EEENSG_IJEEEEEENS_4pairINS_15__tree_iteratorIS4_PNS_11__tree_nodeIS4_PvEElEEbEERKT_DpOT0_
__ZNSt3__16vectorI18SDPMediaFormatInfoNS_9allocatorIS1_EEE21__push_back_slow_pathIRKS1_EEvOT_
__ZNKSt3__16vectorI18SDPMediaFormatInfoNS_9allocatorIS1_EEE20__throw_length_errorB6v15006Ev
__ZNSt3__114__split_bufferI18SDPMediaFormatInfoRNS_9allocatorIS1_EEED2Ev
__ZNSt3__16__treeINS_12__value_typeINS_12basic_stringIcNS_11char_traitsIcEENS_9allocatorIcEEEENS_6vectorI18SDPMediaFormatInfoNS5_IS9_EEEEEENS_19__map_value_compareIS7_SC_NS_4lessIS7_EELb1EEENS5_ISC_EEE25__emplace_unique_key_argsIS7_JRKNS_21piecewise_construct_tENS_5tupleIJOS7_EEENSN_IJEEEEEENS_4pairINS_15__tree_iteratorISC_PNS_11__tree_nodeISC_PvEElEEbEERKT_DpOT0_
__ZN21SDPMediaAudioSettingsaSEOS_
__ZN16SDPMediaSettingsaSEOS_
__ZNSt3__123__optional_storage_baseI14SDPMediaCryptoLb0EE13__assign_fromB6v15006INS_27__optional_move_assign_baseIS1_Lb0EEEEEvOT_
__ZN14SDPMediaCryptoaSERKS_
__ZNSt3__16vectorIhNS_9allocatorIhEEE6assignIPhEENS_9enable_ifIXaasr27__is_cpp17_forward_iteratorIT_EE5valuesr16is_constructibleIhNS_15iterator_traitsIS7_E9referenceEEE5valueEvE4typeES7_S7_
__ZNSt3__16__treeINS_12__value_typeINS_12basic_stringIcNS_11char_traitsIcEENS_9allocatorIcEEEEPFbP23SDPMediaFormatEVSParamsS7_EEENS_19__map_value_compareIS7_SC_NS_4lessIS7_EELb1EEENS5_ISC_EEE4findIS7_EENS_15__tree_iteratorISC_PNS_11__tree_nodeISC_PvEElEERKT_
__ZNSt3__16__treeINS_12__value_typeINS_12basic_stringIcNS_11char_traitsIcEENS_9allocatorIcEEEEPFbP23SDPMediaFormatEVSParamsS7_EEENS_19__map_value_compareIS7_SC_NS_4lessIS7_EELb1EEENS5_ISC_EEE25__emplace_unique_key_argsIS7_JRKNS_21piecewise_construct_tENS_5tupleIJRKS7_EEENSN_IJEEEEEENS_4pairINS_15__tree_iteratorISC_PNS_11__tree_nodeISC_PvEElEEbEERKT_DpOT0_
__ZNSt3__16__treeINS_12__value_typeINS_12basic_stringIcNS_11char_traitsIcEENS_9allocatorIcEEEEPFbP23SDPMediaFormatEVSParamsS7_EEENS_19__map_value_compareIS7_SC_NS_4lessIS7_EELb1EEENS5_ISC_EEE12__find_equalIS7_EERPNS_16__tree_node_baseIPvEERPNS_15__tree_end_nodeISN_EERKT_
__ZNSt3__16__treeINS_12__value_typeINS_12basic_stringIcNS_11char_traitsIcEENS_9allocatorIcEEEEPFbP23SDPMediaFormatEVSParamsS7_EEENS_19__map_value_compareIS7_SC_NS_4lessIS7_EELb1EEENS5_ISC_EEE16__construct_nodeIJRKNS_21piecewise_construct_tENS_5tupleIJRKS7_EEENSN_IJEEEEEENS_10unique_ptrINS_11__tree_nodeISC_PvEENS_22__tree_node_destructorINS5_ISV_EEEEEEDpOT_
__ZNSt3__16__treeINS_12__value_typeINS_12basic_stringIcNS_11char_traitsIcEENS_9allocatorIcEEEEPFbP23SDPMediaFormatEVSParamsS7_EEENS_19__map_value_compareIS7_SC_NS_4lessIS7_EELb1EEENS5_ISC_EEE16__insert_node_atEPNS_15__tree_end_nodeIPNS_16__tree_node_baseIPvEEEERSN_SN_
__ZNSt3__122__tree_node_destructorINS_9allocatorINS_11__tree_nodeINS_12__value_typeINS_12basic_stringIcNS_11char_traitsIcEENS1_IcEEEEPFbP23SDPMediaFormatEVSParamsS8_EEEPvEEEEEclB6v15006EPSF_
__ZNSt3__16__treeINS_12__value_typeINS_12basic_stringIcNS_11char_traitsIcEENS_9allocatorIcEEEEPFbP23SDPMediaFormatAMRParamsS7_EEENS_19__map_value_compareIS7_SC_NS_4lessIS7_EELb1EEENS5_ISC_EEE4findIS7_EENS_15__tree_iteratorISC_PNS_11__tree_nodeISC_PvEElEERKT_
__ZNSt3__16__treeINS_12__value_typeINS_12basic_stringIcNS_11char_traitsIcEENS_9allocatorIcEEEEPFbP23SDPMediaFormatAMRParamsS7_EEENS_19__map_value_compareIS7_SC_NS_4lessIS7_EELb1EEENS5_ISC_EEE25__emplace_unique_key_argsIS7_JRKNS_21piecewise_construct_tENS_5tupleIJRKS7_EEENSN_IJEEEEEENS_4pairINS_15__tree_iteratorISC_PNS_11__tree_nodeISC_PvEElEEbEERKT_DpOT0_
__ZNSt3__16__treeINS_12__value_typeINS_12basic_stringIcNS_11char_traitsIcEENS_9allocatorIcEEEEPFbP23SDPMediaFormatAMRParamsS7_EEENS_19__map_value_compareIS7_SC_NS_4lessIS7_EELb1EEENS5_ISC_EEE12__find_equalIS7_EERPNS_16__tree_node_baseIPvEERPNS_15__tree_end_nodeISN_EERKT_
__ZNSt3__16__treeINS_12__value_typeINS_12basic_stringIcNS_11char_traitsIcEENS_9allocatorIcEEEEPFbP23SDPMediaFormatAMRParamsS7_EEENS_19__map_value_compareIS7_SC_NS_4lessIS7_EELb1EEENS5_ISC_EEE16__construct_nodeIJRKNS_21piecewise_construct_tENS_5tupleIJRKS7_EEENSN_IJEEEEEENS_10unique_ptrINS_11__tree_nodeISC_PvEENS_22__tree_node_destructorINS5_ISV_EEEEEEDpOT_
__ZNSt3__16__treeINS_12__value_typeINS_12basic_stringIcNS_11char_traitsIcEENS_9allocatorIcEEEEPFbP23SDPMediaFormatAMRParamsS7_EEENS_19__map_value_compareIS7_SC_NS_4lessIS7_EELb1EEENS5_ISC_EEE16__insert_node_atEPNS_15__tree_end_nodeIPNS_16__tree_node_baseIPvEEEERSN_SN_
__ZNSt3__122__tree_node_destructorINS_9allocatorINS_11__tree_nodeINS_12__value_typeINS_12basic_stringIcNS_11char_traitsIcEENS1_IcEEEEPFbP23SDPMediaFormatAMRParamsS8_EEEPvEEEEEclB6v15006EPSF_
__ZNSt3__110__list_impI12SDPBandwidthNS_9allocatorIS1_EEE5clearEv
__GLOBAL__sub_I_SDPTemplateBuilder.cpp
__ZN15XpcDaemonClientC2EP13XpcConnection
__ZN15XpcDaemonClient11setHandlersEv
__ZN15XpcDaemonClientD2Ev
__ZN15XpcDaemonClientD1Ev
__ZN15XpcDaemonClientD0Ev
____ZN15XpcDaemonClient11setHandlersEv_block_invoke
____ZN15XpcDaemonClient11setHandlersEv_block_invoke_2
____ZN15XpcDaemonClient11setHandlersEv_block_invoke_3
____ZN15XpcDaemonClient11setHandlersEv_block_invoke_4
____ZN15XpcDaemonClient11setHandlersEv_block_invoke_5
____ZN15XpcDaemonClient11setHandlersEv_block_invoke_6
____ZN15XpcDaemonClient11setHandlersEv_block_invoke_7
____ZN15XpcDaemonClient11setHandlersEv_block_invoke_8
____ZN15XpcDaemonClient11setHandlersEv_block_invoke_9
____ZN15XpcDaemonClient11setHandlersEv_block_invoke_10
____ZN15XpcDaemonClient11setHandlersEv_block_invoke_11
____ZN15XpcDaemonClient11setHandlersEv_block_invoke_12
____ZN15XpcDaemonClient11setHandlersEv_block_invoke_13
____ZN15XpcDaemonClient11setHandlersEv_block_invoke_14
____ZN15XpcDaemonClient11setHandlersEv_block_invoke_15
____ZN15XpcDaemonClient11setHandlersEv_block_invoke_16
____ZN15XpcDaemonClient11setHandlersEv_block_invoke_17
____ZN15XpcDaemonClient11setHandlersEv_block_invoke_18
____ZN15XpcDaemonClient11setHandlersEv_block_invoke_19
____ZN15XpcDaemonClient11setHandlersEv_block_invoke_20
____ZN15XpcDaemonClient11setHandlersEv_block_invoke_21
____ZN15XpcDaemonClient11setHandlersEv_block_invoke_22
____ZN15XpcDaemonClient11setHandlersEv_block_invoke_23
____ZN15XpcDaemonClient11setHandlersEv_block_invoke_24
____ZN15XpcDaemonClient11setHandlersEv_block_invoke_25
____ZN15XpcDaemonClient11setHandlersEv_block_invoke_26
____ZN15XpcDaemonClient11setHandlersEv_block_invoke_27
____ZN15XpcDaemonClient11setHandlersEv_block_invoke_28
____ZN15XpcDaemonClient11setHandlersEv_block_invoke_29
____ZN15XpcDaemonClient11setHandlersEv_block_invoke_30
____ZN15XpcDaemonClient11setHandlersEv_block_invoke_31
____ZN15XpcDaemonClient11setHandlersEv_block_invoke_32
____ZN15XpcDaemonClient11setHandlersEv_block_invoke_33
____ZN15XpcDaemonClient11setHandlersEv_block_invoke_34
____ZN15XpcDaemonClient11setHandlersEv_block_invoke_35
____ZN15XpcDaemonClient11setHandlersEv_block_invoke_36
____ZN15XpcDaemonClient11setHandlersEv_block_invoke_37
__ZNK3xpc4dict12object_proxycvNS_6objectEEv
__ZNK3ctu9SharedRefIK8__CFDataNS_2cf16cfretain_functorENS3_17cfrelease_functorES2_E3getEv
__ZNSt3__16vectorIjNS_9allocatorIjEEE6resizeEm
__ZN15IMSDaemonClient20notifyClientsOfEventERK14IMSEventBundle
__ZN3ctu9SharedRefIKvNS_2cf16cfretain_functorENS2_17cfrelease_functorES1_ED2Ev
__ZN3ims10CallConfigD2Ev
__ZN3ctu9SharedRefIK8__CFDataNS_2cf16cfretain_functorENS3_17cfrelease_functorES2_ED2Ev
__ZNK3xpc4dict15to_debug_stringEv
__ZNSt3__16__treeI14IMSClientEventNS_4lessIS1_EENS_9allocatorIS1_EEE7destroyEPNS_11__tree_nodeIS1_PvEE
__ZN3ctu2cf11CFSharedRefIK14__CFDictionaryEC2IKvvEERKNS1_IT_EE
__ZN3ctu9SharedRefIK14__CFDictionaryNS_2cf16cfretain_functorENS3_17cfrelease_functorES2_EC2EPS2_
__ZN3ctu2cf11CFSharedRefIK8__CFDataEC2IKvvEERKNS1_IT_EE
__ZNSt3__16vectorIjNS_9allocatorIjEEE8__appendEm
__ZNKSt3__16vectorIjNS_9allocatorIjEEE20__throw_length_errorB6v15006Ev
__ZNSt3__119__allocate_at_leastB6v15006INS_9allocatorIjEEEENS_19__allocation_resultINS_16allocator_traitsIT_E7pointerEEERS5_m
__ZN22XcapCallWaitingManager16fetchCallWaitingEU13block_pointerFv9ImsResultPK16XcapDocumentBaseE
____ZN22XcapCallWaitingManager16fetchCallWaitingEU13block_pointerFv9ImsResultPK16XcapDocumentBaseE_block_invoke
___copy_helper_block_e8_32b
___destroy_helper_block_e8_32b
__ZN22XcapCallWaitingManager14setCallWaitingEbU13block_pointerFv9ImsResultPK16XcapDocumentBaseE
____ZN22XcapCallWaitingManager14setCallWaitingEbU13block_pointerFv9ImsResultPK16XcapDocumentBaseE_block_invoke
__ZN22XcapCallWaitingManagerD1Ev
__ZN22XcapCallWaitingManagerD0Ev
__ZN23XcapDocumentManagerBaseD1Ev
__ZN23XcapDocumentManagerBaseD0Ev
__ZN10XcapConfigD2Ev
__ZN15BambiCallActionC2EP9BambiCallP17BambiCallActivity
__ZN15BambiCallAction7enqueueEv
__ZN15BambiCallAction11handleTimerEP17SipTimerContainerRKNSt3__112basic_stringIcNS2_11char_traitsIcEENS2_9allocatorIcEEEE
__ZThn88_N15BambiCallAction11handleTimerEP17SipTimerContainerRKNSt3__112basic_stringIcNS2_11char_traitsIcEENS2_9allocatorIcEEEE
__ZN15BambiCallAction7performEv
__ZNK15BambiCallAction3logER12ImsOutStream
__ZN31BambiCallRequireCallsHeldAction19createPrerequisitesEPNSt3__16vectorIP15BambiCallActionNS0_9allocatorIS3_EEEE
__ZNK31BambiCallRequireCallsHeldAction16prerequisitesMetEv
__ZN29BambiCallRequirePrepareAction19createPrerequisitesEPNSt3__16vectorIP15BambiCallActionNS0_9allocatorIS3_EEEE
__ZNK29BambiCallRequirePrepareAction16prerequisitesMetEv
__ZN20BambiCallStartAction7performEv
__ZN21BambiCallAnswerAction7performEv
__ZNK21BambiCallResumeAction16prerequisitesMetEv
__ZN21BambiCallResumeAction7performEv
__ZNK22BambiCallPrepareAction16prerequisitesMetEv
__ZN22BambiCallPrepareAction7performEv
__ZNK19BambiCallHoldAction16prerequisitesMetEv
__ZN19BambiCallHoldAction7performEv
__ZN15BambiCallActionD1Ev
__ZN15BambiCallActionD0Ev
__ZN15BambiCallAction19createPrerequisitesEPNSt3__16vectorIPS_NS0_9allocatorIS2_EEEE
__ZNK15BambiCallAction16prerequisitesMetEv
__ZNK15BambiCallAction9logPrefixER12ImsOutStream
__ZThn8_N15BambiCallActionD1Ev
__ZThn8_N15BambiCallActionD0Ev
__ZThn8_NK15BambiCallAction9logPrefixER12ImsOutStream
__ZThn88_N15BambiCallActionD1Ev
__ZThn88_N15BambiCallActionD0Ev
__ZN20BambiCallStartActionD1Ev
__ZN20BambiCallStartActionD0Ev
__ZNK20BambiCallStartAction12loggableNameEv
__ZThn8_N20BambiCallStartActionD1Ev
__ZThn8_N20BambiCallStartActionD0Ev
__ZThn88_N20BambiCallStartActionD1Ev
__ZThn88_N20BambiCallStartActionD0Ev
__ZN21BambiCallAnswerActionD1Ev
__ZN21BambiCallAnswerActionD0Ev
__ZNK21BambiCallAnswerAction12loggableNameEv
__ZThn8_N21BambiCallAnswerActionD1Ev
__ZThn8_N21BambiCallAnswerActionD0Ev
__ZThn88_N21BambiCallAnswerActionD1Ev
__ZThn88_N21BambiCallAnswerActionD0Ev
__ZN21BambiCallResumeActionD1Ev
__ZN21BambiCallResumeActionD0Ev
__ZNK21BambiCallResumeAction12loggableNameEv
__ZThn8_N21BambiCallResumeActionD1Ev
__ZThn8_N21BambiCallResumeActionD0Ev
__ZThn88_N21BambiCallResumeActionD1Ev
__ZThn88_N21BambiCallResumeActionD0Ev
__ZN22BambiCallPrepareActionD1Ev
__ZN22BambiCallPrepareActionD0Ev
__ZNK22BambiCallPrepareAction12loggableNameEv
__ZThn8_N22BambiCallPrepareActionD1Ev
__ZThn8_N22BambiCallPrepareActionD0Ev
__ZThn88_N22BambiCallPrepareActionD1Ev
__ZThn88_N22BambiCallPrepareActionD0Ev
__ZN19BambiCallHoldActionD1Ev
__ZN19BambiCallHoldActionD0Ev
__ZNK19BambiCallHoldAction12loggableNameEv
__ZThn8_N19BambiCallHoldActionD1Ev
__ZThn8_N19BambiCallHoldActionD0Ev
__ZThn88_N19BambiCallHoldActionD1Ev
__ZThn88_N19BambiCallHoldActionD0Ev
__ZN15BambiCallActionD2Ev
__ZNKSt3__16vectorIP15BambiCallActionNS_9allocatorIS2_EEE20__throw_length_errorB6v15006Ev
__ZNSt3__119__allocate_at_leastB6v15006INS_9allocatorIP15BambiCallActionEEEENS_19__allocation_resultINS_16allocator_traitsIT_E7pointerEEERS7_m
__GLOBAL__sub_I_BambiCallAction.cpp
__ZN32SipSessionClientUnconfirmedState10enterStateEj
__ZN33BambiCallProvisionalResponseEventD1Ev
__ZN32SipSessionClientUnconfirmedState20handleInviteResponseERK11SipResponseP20SipClientTransaction
__ZN38BambiCallEmergencySessionRequiredEventD1Ev
__ZN27SipSessionClientInviteState10enterStateEj
__ZN8SipTimerD1Ev
__ZN27SipSessionClientInviteState11handleTimerEP17SipTimerContainerRKNSt3__112basic_stringIcNS2_11char_traitsIcEENS2_9allocatorIcEEEE
__ZN27SipSessionClientInviteState20handleInviteResponseERK11SipResponseP20SipClientTransaction
__ZN43SipSessionClientReceivedTryingResponseState10enterStateEj
__ZN29SipSessionClientCanceledState10enterStateEj
__ZN29SipSessionClientCanceledState16terminateSessionEN15SipSessionState14SessionStateIdE
__ZN29SipSessionClientCanceledState22handleTransactionErrorERK9ImsResultP14SipTransaction
__ZN29SipSessionClientCanceledState11handleTimerEP17SipTimerContainerRKNSt3__112basic_stringIcNS2_11char_traitsIcEENS2_9allocatorIcEEEE
__ZN29SipSessionClientCanceledState14handleResponseERK11SipResponseP20SipClientTransaction
__ZN32SipSessionClientWPSCanceledState10enterStateEj
__ZN32SipSessionClientWPSCanceledState11handleTimerEP17SipTimerContainerRKNSt3__112basic_stringIcNS2_11char_traitsIcEENS2_9allocatorIcEEEE
__ZN32SipSessionClientWPSCanceledState14handleResponseERK11SipResponseP20SipClientTransaction
__ZN41SipSessionClientWPSNetworkTerminatedState10enterStateEj
__ZN41SipSessionClientWPSNetworkTerminatedState11handleTimerEP17SipTimerContainerRKNSt3__112basic_stringIcNS2_11char_traitsIcEENS2_9allocatorIcEEEE
__ZNK15SipSessionState2idEv
__ZN15SipSessionState9exitStateEj
__ZN15SipSessionState9handleAckERK10SipRequest
__ZN15SipSessionState22handleOutgoingResponseERK11SipResponseP20SipServerTransaction
__ZN15SipSessionState27handleTransactionTerminatedEP14SipTransaction
__ZN27SipSessionClientInviteStateD1Ev
__ZN27SipSessionClientInviteStateD0Ev
__ZNK27SipSessionClientInviteState2idEv
__ZThn8_N27SipSessionClientInviteStateD1Ev
__ZThn8_N27SipSessionClientInviteStateD0Ev
__ZN43SipSessionClientReceivedTryingResponseStateD1Ev
__ZN43SipSessionClientReceivedTryingResponseStateD0Ev
__ZNK43SipSessionClientReceivedTryingResponseState2idEv
__ZThn8_N43SipSessionClientReceivedTryingResponseStateD1Ev
__ZThn8_N43SipSessionClientReceivedTryingResponseStateD0Ev
__ZN29SipSessionClientCanceledStateD1Ev
__ZN29SipSessionClientCanceledStateD0Ev
__ZNK29SipSessionClientCanceledState2idEv
__ZThn8_N29SipSessionClientCanceledStateD1Ev
__ZThn8_N29SipSessionClientCanceledStateD0Ev
__ZN41SipSessionClientWPSNetworkTerminatedStateD1Ev
__ZN41SipSessionClientWPSNetworkTerminatedStateD0Ev
__ZNK41SipSessionClientWPSNetworkTerminatedState2idEv
__ZN41SipSessionClientWPSNetworkTerminatedState11isConfirmedEv
__ZThn8_N41SipSessionClientWPSNetworkTerminatedStateD1Ev
__ZThn8_N41SipSessionClientWPSNetworkTerminatedStateD0Ev
__ZN32SipSessionClientWPSCanceledStateD1Ev
__ZN32SipSessionClientWPSCanceledStateD0Ev
__ZNK32SipSessionClientWPSCanceledState2idEv
__ZThn8_N32SipSessionClientWPSCanceledStateD1Ev
__ZThn8_N32SipSessionClientWPSCanceledStateD0Ev
__ZN33BambiCallProvisionalResponseEventD0Ev
__ZNK14BambiCallEvent5cloneEv
__ZNK14BambiCallEvent8fullNameEv
__ZN38BambiCallEmergencySessionRequiredEventD0Ev
__ZNK38BambiCallEmergencySessionRequiredEvent5cloneEv
__ZN8SipTimerD0Ev
__ZNK8SipTimer3logER12ImsOutStream
__ZNK8SipTimer12loggableNameEv
__GLOBAL__sub_I_SipSessionClientStates.cpp
__ZN26SipPAssertedIdentityHeaderD1Ev
__ZN26SipPAssertedIdentityHeaderD0Ev
__ZNK26SipPAssertedIdentityHeader5cloneEv
__ZN24SipStringParameterHeaderC2ERKNSt3__112basic_stringIcNS0_11char_traitsIcEENS0_9allocatorIcEEEES8_
__ZN18SipParameterHeaderD2Ev
__ZN24SipStringParameterHeaderC2ERKS_
__ZNK24SipStringParameterHeader11encodeValueER12ImsOutStream
__ZNK24SipStringParameterHeader13valueAsStringEPNSt3__112basic_stringIcNS0_11char_traitsIcEENS0_9allocatorIcEEEE
__ZN24SipStringParameterHeader18setValueFromStringERKNSt3__112basic_stringIcNS0_11char_traitsIcEENS0_9allocatorIcEEEE
__ZN24SipStringParameterHeaderD1Ev
__ZN24SipStringParameterHeaderD0Ev
__GLOBAL__sub_I_SipStringParameterHeader.cpp
__ZN22IMSSecurityAssociationC2EP26IMSSecurityAssociationPair
__ZN22IMSSecurityAssociationD2Ev
__ZN22IMSSecurityAssociationD1Ev
__ZN22IMSSecurityAssociationD0Ev
__ZNK22IMSSecurityAssociation9logPrefixER12ImsOutStream
__ZN22IMSSecurityAssociation25fillDictionaryWithAddressEP14__CFDictionaryRK9IpAddressbb
__ZN22IMSSecurityAssociation30fillDictionaryWithCommonFieldsEP14__CFDictionaryPK29SipIPSec3gppSecurityMechanismb
__ZN22IMSSecurityAssociation26fillDictionaryWithUniqueIdEP14__CFDictionary
__ZN22IMSSecurityAssociation35fillDictionaryWithTemporarySAFieldsEP14__CFDictionarybPK29SipIPSec3gppSecurityMechanism
__ZN22IMSSecurityAssociation35fillDictionaryWithPermanentSAFieldsEP14__CFDictionarybPK29SipIPSec3gppSecurityMechanismPA16_KhS7_
__ZN22IMSSecurityAssociation15createTemporaryEb
__ZN22IMSSecurityAssociation12createPolicyEPK29SipIPSec3gppSecurityMechanism
__ZN26IMSSecurityAssociationPairC2EP17IPSecurityManager
__ZN26IMSSecurityAssociationPairD2Ev
__ZN26IMSSecurityAssociationPair7destroyEv
__ZN26IMSSecurityAssociationPair15createTemporaryERK9IpAddressS2_RKNSt3__112basic_stringIcNS3_11char_traitsIcEENS3_9allocatorIcEEEE
__ZN26IMSSecurityAssociationPair6updateERK9IpAddressS2_PK29SipIPSec3gppSecurityMechanismPA16_KhS8_j
__ZN9ImsResultlsIA29_cEERS_RKT_
__ZN22SipAkaDigestAuthSchemeC2Ev
__ZN19SipDigestAuthSchemeD2Ev
__ZN22SipAkaDigestAuthScheme5clearEv
__ZN22SipAkaDigestAuthScheme10parseNonceERKNSt3__112basic_stringIcNS0_11char_traitsIcEENS0_9allocatorIcEEEE
__ZNK22SipAkaDigestAuthScheme11encodeNonceEPNSt3__112basic_stringIcNS0_11char_traitsIcEENS0_9allocatorIcEEEE
__ZNK22SipAkaDigestAuthScheme16encodeDirectivesEPNSt3__113unordered_mapINS0_12basic_stringIcNS0_11char_traitsIcEENS0_9allocatorIcEEEES7_NS0_4hashIS7_EENS0_8equal_toIS7_EENS5_INS0_4pairIKS7_S7_EEEEEEb
__ZNK22SipAkaDigestAuthScheme13hasValidNonceEv
__ZN22SipAkaDigestAuthScheme14parseAlgorithmERKNSt3__112basic_stringIcNS0_11char_traitsIcEENS0_9allocatorIcEEEE
__ZNK22SipAkaDigestAuthScheme15encodeAlgorithmEPNSt3__112basic_stringIcNS0_11char_traitsIcEENS0_9allocatorIcEEEE
__ZNSt3__16vectorIhNS_9allocatorIhEEE6assignIPKhEENS_9enable_ifIXaasr27__is_cpp17_forward_iteratorIT_EE5valuesr16is_constructibleIhNS_15iterator_traitsIS8_E9referenceEEE5valueEvE4typeES8_S8_
__ZN22SipAkaDigestAuthScheme6setResERKNSt3__16vectorIhNS0_9allocatorIhEEEE
__ZN22SipAkaDigestAuthScheme15computeResponseERK10SipRequest
__ZN22SipAkaDigestAuthScheme15computeResponseERKNSt3__112basic_stringIcNS0_11char_traitsIcEENS0_9allocatorIcEEEERK6SipUriPK7SipBody
__ZN22SipAkaDigestAuthScheme15computeResponseERKNSt3__112basic_stringIcNS0_11char_traitsIcEENS0_9allocatorIcEEEES8_S8_
__ZNK22SipAkaDigestAuthScheme3logER12ImsOutStream
__ZN22SipAkaDigestAuthScheme15createChallengeEv
__ZN22SipAkaDigestAuthScheme14createResponseEv
__ZN22SipAkaDigestAuthSchemeD1Ev
__ZN22SipAkaDigestAuthSchemeD0Ev
__ZNK22SipAkaDigestAuthScheme5cloneEv
__ZNK19SipDigestAuthScheme4nameEv
__ZNK19SipDigestAuthScheme7isValidEv
__ZNSt3__112__hash_tableINS_17__hash_value_typeINS_12basic_stringIcNS_11char_traitsIcEENS_9allocatorIcEEEES7_EENS_22__unordered_map_hasherIS7_S8_NS_4hashIS7_EENS_8equal_toIS7_EELb1EEENS_21__unordered_map_equalIS7_S8_SD_SB_Lb1EEENS5_IS8_EEED2Ev
__ZNSt3__112__hash_tableINS_17__hash_value_typeINS_12basic_stringIcNS_11char_traitsIcEENS_9allocatorIcEEEES7_EENS_22__unordered_map_hasherIS7_S8_NS_4hashIS7_EENS_8equal_toIS7_EELb1EEENS_21__unordered_map_equalIS7_S8_SD_SB_Lb1EEENS5_IS8_EEE17__deallocate_nodeEPNS_16__hash_node_baseIPNS_11__hash_nodeIS8_PvEEEE
__ZNSt3__116allocator_traitsINS_9allocatorINS_11__hash_nodeINS_17__hash_value_typeINS_12basic_stringIcNS_11char_traitsIcEENS1_IcEEEES8_EEPvEEEEE7destroyB6v15006INS_4pairIKS8_S8_EEvvEEvRSC_PT_
__ZN22SipAkaDigestAuthSchemeD2Ev
__ZNSt3__16vectorIhNS_9allocatorIhEEE8__appendEm
__ZNSt3__112__hash_tableINS_17__hash_value_typeINS_12basic_stringIcNS_11char_traitsIcEENS_9allocatorIcEEEES7_EENS_22__unordered_map_hasherIS7_S8_NS_4hashIS7_EENS_8equal_toIS7_EELb1EEENS_21__unordered_map_equalIS7_S8_SD_SB_Lb1EEENS5_IS8_EEE25__emplace_unique_key_argsIS7_JRKNS_21piecewise_construct_tENS_5tupleIJRKS7_EEENSN_IJEEEEEENS_4pairINS_15__hash_iteratorIPNS_11__hash_nodeIS8_PvEEEEbEERKT_DpOT0_
__ZNSt3__112__hash_tableINS_17__hash_value_typeINS_12basic_stringIcNS_11char_traitsIcEENS_9allocatorIcEEEES7_EENS_22__unordered_map_hasherIS7_S8_NS_4hashIS7_EENS_8equal_toIS7_EELb1EEENS_21__unordered_map_equalIS7_S8_SD_SB_Lb1EEENS5_IS8_EEE21__construct_node_hashIRKNS_21piecewise_construct_tEJNS_5tupleIJRKS7_EEENSN_IJEEEEEENS_10unique_ptrINS_11__hash_nodeIS8_PvEENS_22__hash_node_destructorINS5_ISV_EEEEEEmOT_DpOT0_
__ZNSt3__112__hash_tableINS_17__hash_value_typeINS_12basic_stringIcNS_11char_traitsIcEENS_9allocatorIcEEEES7_EENS_22__unordered_map_hasherIS7_S8_NS_4hashIS7_EENS_8equal_toIS7_EELb1EEENS_21__unordered_map_equalIS7_S8_SD_SB_Lb1EEENS5_IS8_EEE8__rehashILb1EEEvm
__ZNSt3__112__hash_tableINS_17__hash_value_typeINS_12basic_stringIcNS_11char_traitsIcEENS_9allocatorIcEEEES7_EENS_22__unordered_map_hasherIS7_S8_NS_4hashIS7_EENS_8equal_toIS7_EELb1EEENS_21__unordered_map_equalIS7_S8_SD_SB_Lb1EEENS5_IS8_EEE11__do_rehashILb1EEEvm
__ZNSt3__122__hash_node_destructorINS_9allocatorINS_11__hash_nodeINS_17__hash_value_typeINS_12basic_stringIcNS_11char_traitsIcEENS1_IcEEEES8_EEPvEEEEEclB6v15006EPSB_
__GLOBAL__sub_I_SipAkaDigestAuthScheme.cpp
__ZN3ims24osVersionFromProcessInfoEv
__ZN3ims9localtimeEPKlP2tm
__ZN12SipTransportD1Ev
__ZN12SipTransportD0Ev
__GLOBAL__sub_I_SipTransport.cpp
__ZN19IMSVirtualInterfaceC2Ev
__ZN19IMSVirtualInterfaceD2Ev
__ZN19IMSVirtualInterface12deinitializeEv
__ZN19IMSVirtualInterfaceD1Ev
__ZN19IMSVirtualInterfaceD0Ev
__ZN19IMSVirtualInterface10initializeERK9IpAddressRKNSt3__112basic_stringIcNS3_11char_traitsIcEENS3_9allocatorIcEEEE
__ZN9ImsResultlsIA46_cEERS_RKT_
__ZNK19IMSVirtualInterface9logPrefixER12ImsOutStream
__ZN19IMSVirtualInterface6setMTUEi
__ZN9ImsResultlsIiEERS_RKT_
__ZN12HttpResponseD1Ev
__ZN11HttpRequestD1Ev
__ZN11HttpMessageD2Ev
__ZNSt3__16__treeINS_12__value_typeINS_12basic_stringIcNS_11char_traitsIcEENS_9allocatorIcEEEES7_EENS_19__map_value_compareIS7_S8_N11HttpMessage6ciLessELb1EEENS5_IS8_EEE7destroyEPNS_11__tree_nodeIS8_PvEE
__ZNK9SDPTiming8toStreamER12ImsOutStream
__ZNK13SDPRepeatTime8toStreamER12ImsOutStream
__ZNK11SDPTimeZone8toStreamER12ImsOutStream
__ZN13SDPRepeatTimeD1Ev
__ZN13SDPRepeatTimeD0Ev
__ZN9SDPTimingD1Ev
__ZN9SDPTimingD0Ev
__ZN11SDPTimeZoneD1Ev
__ZN11SDPTimeZoneD0Ev
__ZNSt3__110__list_impINS_4pairIylEENS_9allocatorIS2_EEE5clearEv
__ZN26BambiConferenceParticipantC2EP9BambiCallP19BambiConferenceCallRK6SipUri
__ZN23SipTypedTerminationLockI10SipSessionED1Ev
__ZN26BambiConferenceParticipantD2Ev
__ZN26BambiConferenceParticipantD1Ev
__ZThn8_N26BambiConferenceParticipantD1Ev
__ZThn16_N26BambiConferenceParticipantD1Ev
__ZThn24_N26BambiConferenceParticipantD1Ev
__ZN26BambiConferenceParticipantD0Ev
__ZThn8_N26BambiConferenceParticipantD0Ev
__ZThn16_N26BambiConferenceParticipantD0Ev
__ZThn24_N26BambiConferenceParticipantD0Ev
__ZN26BambiConferenceParticipant5startEv
__ZN26BambiConferenceParticipant31handleParticipantLeftConferenceEb
__ZN26BambiConferenceParticipant17handleReferFailedEv
__ZN26BambiConferenceParticipant23handleReferNotificationERK10SipMessage
__ZN26BambiConferenceParticipant18joinedSuccessfullyEv
__ZN26BambiConferenceParticipant33handleReferSubscriptionTerminatedEv
__ZN26BambiConferenceParticipant11handleEventEP14BambiCallEvent
__ZThn8_N26BambiConferenceParticipant11handleEventEP14BambiCallEvent
__ZN26BambiConferenceParticipant14joinConferenceEv
__ZN26BambiConferenceParticipant30handleDisconnectedNotificationEv
__ZN26BambiConferenceParticipant28handleConferenceNotificationEN21SipConferenceEndpoint6StatusERK6SipUri
__ZN26BambiConferenceParticipant11handleTimerEP17SipTimerContainerRKNSt3__112basic_stringIcNS2_11char_traitsIcEENS2_9allocatorIcEEEE
__ZThn16_N26BambiConferenceParticipant11handleTimerEP17SipTimerContainerRKNSt3__112basic_stringIcNS2_11char_traitsIcEENS2_9allocatorIcEEEE
__ZNK26BambiConferenceParticipant9logPrefixER12ImsOutStream
__ZThn24_NK26BambiConferenceParticipant9logPrefixER12ImsOutStream
__ZN20BambiCallParticipant29handleSessionTerminationEventEP36BambiCallSessionTerminationBaseEvent
__ZN17BambiCallDelegate27handleSessionConfirmedEventEP30BambiCallSessionConfirmedEvent
__ZN17BambiCallDelegate28handleSessionTerminatedEventEP31BambiCallSessionTerminatedEvent
__ZN17BambiCallDelegate27handleSessionActivatedEventEP14BambiCallEvent
__ZN17BambiCallDelegate27handleSessionLocalHeldEventEP14BambiCallEvent
__ZN17BambiCallDelegate28handleSessionHoldFailedEventEP14BambiCallEvent
__ZN17BambiCallDelegate30handleSessionResumeFailedEventEP14BambiCallEvent
__ZN17BambiCallDelegate30handleSessionAcknowledgedEventEP14BambiCallEvent
__ZN17BambiCallDelegate30handleInputFrequencyLevelEventEPK9BambiCallPK8__CFData
__ZN17BambiCallDelegate31handleOutputFrequencyLevelEventEPK9BambiCallPK8__CFData
__ZN17BambiCallDelegate23handleCallFallbackEventERKNSt3__112basic_stringIcNS0_11char_traitsIcEENS0_9allocatorIcEEEERKN3ims13AccessNetworkE
__ZN17BambiCallDelegate26handleMediaActivationEventEP14BambiCallEventb
__ZN23SipTypedTerminationLockI10SipSessionED0Ev
__ZN23SipTypedTerminationLockI10SipSessionED2Ev
__GLOBAL__sub_I_BambiConferenceParticipant.cpp
__ZN18BambiTransferState28handleParticipantStateChangeEP20BambiCallParticipantNS0_16ParticipantStateES2_
__ZN18BambiTransferState12stateMachineEv
__ZNK18BambiTransferState12stateMachineEv
__ZN32BambiTransferWaitingForHoldStateC1EP20BambiTransferHandler
__ZN32BambiTransferWaitingForHoldState24checkForHeldParticipantsEv
__ZN32BambiTransferWaitingForHoldState11handleTimerEP17SipTimerContainerRKNSt3__112basic_stringIcNS2_11char_traitsIcEENS2_9allocatorIcEEEE
__ZN32BambiTransferWaitingForHoldState10enterStateEj
__ZN32BambiTransferWaitingForHoldState28handleParticipantStateChangeEP20BambiCallParticipantNS0_16ParticipantStateES2_
__ZN35BambiTransferTransferRequestedStateC1EP20BambiTransferHandler
__ZN35BambiTransferTransferRequestedState11handleTimerEP17SipTimerContainerRKNSt3__112basic_stringIcNS2_11char_traitsIcEENS2_9allocatorIcEEEE
__ZN35BambiTransferTransferRequestedState10enterStateEj
__ZN35BambiTransferTransferRequestedState28handleParticipantStateChangeEP20BambiCallParticipantNS0_16ParticipantStateES2_
__ZN34BambiTransferTransferCompleteStateC1EP20BambiTransferHandler
__ZN34BambiTransferTransferCompleteState10enterStateEj
__ZN18BambiTransferState9exitStateEj
__ZN32BambiTransferWaitingForHoldStateD1Ev
__ZN32BambiTransferWaitingForHoldStateD0Ev
__ZNK32BambiTransferWaitingForHoldState2idEv
__ZThn8_N32BambiTransferWaitingForHoldStateD1Ev
__ZThn8_N32BambiTransferWaitingForHoldStateD0Ev
__ZN35BambiTransferTransferRequestedStateD1Ev
__ZN35BambiTransferTransferRequestedStateD0Ev
__ZNK35BambiTransferTransferRequestedState2idEv
__ZThn8_N35BambiTransferTransferRequestedStateD1Ev
__ZThn8_N35BambiTransferTransferRequestedStateD0Ev
__ZN34BambiTransferTransferCompleteStateD1Ev
__ZN34BambiTransferTransferCompleteStateD0Ev
__ZNK34BambiTransferTransferCompleteState2idEv
__ZThn8_N34BambiTransferTransferCompleteStateD1Ev
__ZThn8_N34BambiTransferTransferCompleteStateD0Ev
__ZNKSt3__16vectorINS_10shared_ptrI20BambiCallParticipantEENS_9allocatorIS3_EEE20__throw_out_of_rangeB6v15006Ev
__ZNSt3__110shared_ptrI20BambiCallParticipantED2B6v15006Ev
____ZN16XpcClientManager8instanceEv_block_invoke
____ZN16XpcClientManagerC2Ev_block_invoke
____ZN16XpcClientManagerC2Ev_block_invoke_2
__ZNK3xpc4dict12object_proxyaSENS_6objectE
__ZN16XpcClientManager20notifyClientsOfEventE14IMSClientEventPK14__CFDictionary
__ZN17_IMSClientManager20notifyClientsOfEventERK14IMSEventBundle
__ZN17_IMSClientManager21notifyClientsOfBundleERK14IMSEventBundle
__ZNSt3__16__treeINS_12__value_typeIP13XpcConnectionP15IMSDaemonClientEENS_19__map_value_compareIS3_S6_NS_4lessIS3_EELb1EEENS_9allocatorIS6_EEE7destroyEPNS_11__tree_nodeIS6_PvEE
__ZNK3xpc12dict_creatorclIPKcEES0_S3_T_
__ZN3xpc12dict_creatorC2Ev
__ZNSt3__16__treeIP15IMSDaemonClientNS_4lessIS2_EENS_9allocatorIS2_EEE7destroyEPNS_11__tree_nodeIS2_PvEE
__ZN8SDPModelC2ENSt3__110shared_ptrIS_EE
__ZNSt3__14listI13SDPConnectionNS_9allocatorIS1_EEE12emplace_backIJRKS1_EEERS1_DpOT_
__ZNSt3__18optionalI11SDPTimeZoneEaSB6v15006IS1_vEERS2_OT_
__ZN8SDPModelD2Ev
__ZN8SDPModelD1Ev
__ZN8SDPModelD0Ev
__ZNK8SDPModel8toStreamER12ImsOutStream
__ZNK8SDPModel6isHeldEv
__ZNK8SDPModel5validEv
__ZN8SDPModel18preferredDirectionEN8SDPMedia9MediaTypeEb
__ZN8SDPModel4holdEv
__ZN8SDPModel16resumeAllStreamsEb
__ZN8SDPModel30setDirectionForSessionAndMediaE14MediaDirection
__ZN8SDPModel33updateWithLocalAddressAndUsernameERK9IpAddressRKNSt3__112basic_stringIcNS3_11char_traitsIcEENS3_9allocatorIcEEEE
__ZN8SDPModel17removeTextSessionEv
__ZN8SDPModel19setMasterKeyAndSaltEN8SDPMedia9MediaTypeERKNSt3__16vectorIhNS2_9allocatorIhEEEE
__ZNK8SDPModel16hasPreconditionsEv
__ZNK8SDPModel21containsPreconditionsE22PreconditionStatusType20PreconditionStrength
__ZN8SDPModel15setPreconditionE22PreconditionStatusType20PreconditionStrength21PreconditionDirectionS2_b
__ZN8SDPModel22setDesiredPreconditionE22PreconditionStatusType20PreconditionStrength21PreconditionDirection
__ZN8SDPModel28transactionPreconditionTableER20SDPPreconditionTable
__ZN8SDPModel16addSDPConnectionERK13SDPConnection
__ZNSt3__14listI13SDPConnectionNS_9allocatorIS1_EEE12emplace_backIJS1_EEERS1_DpOT_
__ZN8SDPModel15validConnectionEv
__ZN8SDPModel20setConnectionAddressENSt3__112basic_stringIcNS0_11char_traitsIcEENS0_9allocatorIcEEEES6_
__ZN8SDPModel20setConnectionAddressENSt3__112basic_stringIcNS0_11char_traitsIcEENS0_9allocatorIcEEEEN13SDPConnection11AddressTypeE
__ZN8SDPModel21validateRemoteAddressENSt3__112basic_stringIcNS0_11char_traitsIcEENS0_9allocatorIcEEEE
__ZNSt3__14listINS_4pairIylEENS_9allocatorIS2_EEEC2ERKS5_
__ZNSt3__126__throw_bad_variant_accessB6v15006Ev
__ZNSt18bad_variant_accessD1Ev
__ZNSt3__116__variant_detail12__visitation6__base12__dispatcherIJLm0EEE10__dispatchB6v15006IONS1_9__variant15__value_visitorI10overloadedIJZN8SDPModelC1ENS_10shared_ptrIS9_EEE3$_0ZNS9_C1ESB_E3$_1ZNS9_C1ESB_E3$_2EEEEJRNS0_6__baseILNS0_6_TraitE1EJ9SDPRTCPXR23SDPUnsupportedAttribute17SDPMediaCandidate14SDPMediaCrypto17SDPMediaDirection33SDPMediaEndToAccessEdgeProtection27SDPMediaFormatUnknownParams23SDPMediaFormatAMRParams23SDPMediaFormatEVSParams24SDPMediaFormatDTMFParams23SDPMediaFormatTTYParams26SDPMediaFormatTTYRedParams14SDPMediaRTPMap29SDPPacketizationTimeAttributeEEEEEEDcT_DpT0_
__ZNSt3__116__variant_detail12__visitation6__base12__dispatcherIJLm1EEE10__dispatchB6v15006IONS1_9__variant15__value_visitorI10overloadedIJZN8SDPModelC1ENS_10shared_ptrIS9_EEE3$_0ZNS9_C1ESB_E3$_1ZNS9_C1ESB_E3$_2EEEEJRNS0_6__baseILNS0_6_TraitE1EJ9SDPRTCPXR23SDPUnsupportedAttribute17SDPMediaCandidate14SDPMediaCrypto17SDPMediaDirection33SDPMediaEndToAccessEdgeProtection27SDPMediaFormatUnknownParams23SDPMediaFormatAMRParams23SDPMediaFormatEVSParams24SDPMediaFormatDTMFParams23SDPMediaFormatTTYParams26SDPMediaFormatTTYRedParams14SDPMediaRTPMap29SDPPacketizationTimeAttributeEEEEEEDcT_DpT0_
__ZNSt3__116__variant_detail12__visitation6__base12__dispatcherIJLm2EEE10__dispatchB6v15006IONS1_9__variant15__value_visitorI10overloadedIJZN8SDPModelC1ENS_10shared_ptrIS9_EEE3$_0ZNS9_C1ESB_E3$_1ZNS9_C1ESB_E3$_2EEEEJRNS0_6__baseILNS0_6_TraitE1EJ9SDPRTCPXR23SDPUnsupportedAttribute17SDPMediaCandidate14SDPMediaCrypto17SDPMediaDirection33SDPMediaEndToAccessEdgeProtection27SDPMediaFormatUnknownParams23SDPMediaFormatAMRParams23SDPMediaFormatEVSParams24SDPMediaFormatDTMFParams23SDPMediaFormatTTYParams26SDPMediaFormatTTYRedParams14SDPMediaRTPMap29SDPPacketizationTimeAttributeEEEEEEDcT_DpT0_
__ZNSt3__116__variant_detail12__visitation6__base12__dispatcherIJLm3EEE10__dispatchB6v15006IONS1_9__variant15__value_visitorI10overloadedIJZN8SDPModelC1ENS_10shared_ptrIS9_EEE3$_0ZNS9_C1ESB_E3$_1ZNS9_C1ESB_E3$_2EEEEJRNS0_6__baseILNS0_6_TraitE1EJ9SDPRTCPXR23SDPUnsupportedAttribute17SDPMediaCandidate14SDPMediaCrypto17SDPMediaDirection33SDPMediaEndToAccessEdgeProtection27SDPMediaFormatUnknownParams23SDPMediaFormatAMRParams23SDPMediaFormatEVSParams24SDPMediaFormatDTMFParams23SDPMediaFormatTTYParams26SDPMediaFormatTTYRedParams14SDPMediaRTPMap29SDPPacketizationTimeAttributeEEEEEEDcT_DpT0_
__ZNSt3__116__variant_detail12__visitation6__base12__dispatcherIJLm4EEE10__dispatchB6v15006IONS1_9__variant15__value_visitorI10overloadedIJZN8SDPModelC1ENS_10shared_ptrIS9_EEE3$_0ZNS9_C1ESB_E3$_1ZNS9_C1ESB_E3$_2EEEEJRNS0_6__baseILNS0_6_TraitE1EJ9SDPRTCPXR23SDPUnsupportedAttribute17SDPMediaCandidate14SDPMediaCrypto17SDPMediaDirection33SDPMediaEndToAccessEdgeProtection27SDPMediaFormatUnknownParams23SDPMediaFormatAMRParams23SDPMediaFormatEVSParams24SDPMediaFormatDTMFParams23SDPMediaFormatTTYParams26SDPMediaFormatTTYRedParams14SDPMediaRTPMap29SDPPacketizationTimeAttributeEEEEEEDcT_DpT0_
__ZNSt3__116__variant_detail12__visitation6__base12__dispatcherIJLm5EEE10__dispatchB6v15006IONS1_9__variant15__value_visitorI10overloadedIJZN8SDPModelC1ENS_10shared_ptrIS9_EEE3$_0ZNS9_C1ESB_E3$_1ZNS9_C1ESB_E3$_2EEEEJRNS0_6__baseILNS0_6_TraitE1EJ9SDPRTCPXR23SDPUnsupportedAttribute17SDPMediaCandidate14SDPMediaCrypto17SDPMediaDirection33SDPMediaEndToAccessEdgeProtection27SDPMediaFormatUnknownParams23SDPMediaFormatAMRParams23SDPMediaFormatEVSParams24SDPMediaFormatDTMFParams23SDPMediaFormatTTYParams26SDPMediaFormatTTYRedParams14SDPMediaRTPMap29SDPPacketizationTimeAttributeEEEEEEDcT_DpT0_
__ZNSt3__116__variant_detail12__visitation6__base12__dispatcherIJLm6EEE10__dispatchB6v15006IONS1_9__variant15__value_visitorI10overloadedIJZN8SDPModelC1ENS_10shared_ptrIS9_EEE3$_0ZNS9_C1ESB_E3$_1ZNS9_C1ESB_E3$_2EEEEJRNS0_6__baseILNS0_6_TraitE1EJ9SDPRTCPXR23SDPUnsupportedAttribute17SDPMediaCandidate14SDPMediaCrypto17SDPMediaDirection33SDPMediaEndToAccessEdgeProtection27SDPMediaFormatUnknownParams23SDPMediaFormatAMRParams23SDPMediaFormatEVSParams24SDPMediaFormatDTMFParams23SDPMediaFormatTTYParams26SDPMediaFormatTTYRedParams14SDPMediaRTPMap29SDPPacketizationTimeAttributeEEEEEEDcT_DpT0_
__ZNSt3__116__variant_detail12__visitation6__base12__dispatcherIJLm7EEE10__dispatchB6v15006IONS1_9__variant15__value_visitorI10overloadedIJZN8SDPModelC1ENS_10shared_ptrIS9_EEE3$_0ZNS9_C1ESB_E3$_1ZNS9_C1ESB_E3$_2EEEEJRNS0_6__baseILNS0_6_TraitE1EJ9SDPRTCPXR23SDPUnsupportedAttribute17SDPMediaCandidate14SDPMediaCrypto17SDPMediaDirection33SDPMediaEndToAccessEdgeProtection27SDPMediaFormatUnknownParams23SDPMediaFormatAMRParams23SDPMediaFormatEVSParams24SDPMediaFormatDTMFParams23SDPMediaFormatTTYParams26SDPMediaFormatTTYRedParams14SDPMediaRTPMap29SDPPacketizationTimeAttributeEEEEEEDcT_DpT0_
__ZNSt3__116__variant_detail12__visitation6__base12__dispatcherIJLm8EEE10__dispatchB6v15006IONS1_9__variant15__value_visitorI10overloadedIJZN8SDPModelC1ENS_10shared_ptrIS9_EEE3$_0ZNS9_C1ESB_E3$_1ZNS9_C1ESB_E3$_2EEEEJRNS0_6__baseILNS0_6_TraitE1EJ9SDPRTCPXR23SDPUnsupportedAttribute17SDPMediaCandidate14SDPMediaCrypto17SDPMediaDirection33SDPMediaEndToAccessEdgeProtection27SDPMediaFormatUnknownParams23SDPMediaFormatAMRParams23SDPMediaFormatEVSParams24SDPMediaFormatDTMFParams23SDPMediaFormatTTYParams26SDPMediaFormatTTYRedParams14SDPMediaRTPMap29SDPPacketizationTimeAttributeEEEEEEDcT_DpT0_
__ZNSt3__116__variant_detail12__visitation6__base12__dispatcherIJLm9EEE10__dispatchB6v15006IONS1_9__variant15__value_visitorI10overloadedIJZN8SDPModelC1ENS_10shared_ptrIS9_EEE3$_0ZNS9_C1ESB_E3$_1ZNS9_C1ESB_E3$_2EEEEJRNS0_6__baseILNS0_6_TraitE1EJ9SDPRTCPXR23SDPUnsupportedAttribute17SDPMediaCandidate14SDPMediaCrypto17SDPMediaDirection33SDPMediaEndToAccessEdgeProtection27SDPMediaFormatUnknownParams23SDPMediaFormatAMRParams23SDPMediaFormatEVSParams24SDPMediaFormatDTMFParams23SDPMediaFormatTTYParams26SDPMediaFormatTTYRedParams14SDPMediaRTPMap29SDPPacketizationTimeAttributeEEEEEEDcT_DpT0_
__ZNSt3__116__variant_detail12__visitation6__base12__dispatcherIJLm10EEE10__dispatchB6v15006IONS1_9__variant15__value_visitorI10overloadedIJZN8SDPModelC1ENS_10shared_ptrIS9_EEE3$_0ZNS9_C1ESB_E3$_1ZNS9_C1ESB_E3$_2EEEEJRNS0_6__baseILNS0_6_TraitE1EJ9SDPRTCPXR23SDPUnsupportedAttribute17SDPMediaCandidate14SDPMediaCrypto17SDPMediaDirection33SDPMediaEndToAccessEdgeProtection27SDPMediaFormatUnknownParams23SDPMediaFormatAMRParams23SDPMediaFormatEVSParams24SDPMediaFormatDTMFParams23SDPMediaFormatTTYParams26SDPMediaFormatTTYRedParams14SDPMediaRTPMap29SDPPacketizationTimeAttributeEEEEEEDcT_DpT0_
__ZNSt3__116__variant_detail12__visitation6__base12__dispatcherIJLm11EEE10__dispatchB6v15006IONS1_9__variant15__value_visitorI10overloadedIJZN8SDPModelC1ENS_10shared_ptrIS9_EEE3$_0ZNS9_C1ESB_E3$_1ZNS9_C1ESB_E3$_2EEEEJRNS0_6__baseILNS0_6_TraitE1EJ9SDPRTCPXR23SDPUnsupportedAttribute17SDPMediaCandidate14SDPMediaCrypto17SDPMediaDirection33SDPMediaEndToAccessEdgeProtection27SDPMediaFormatUnknownParams23SDPMediaFormatAMRParams23SDPMediaFormatEVSParams24SDPMediaFormatDTMFParams23SDPMediaFormatTTYParams26SDPMediaFormatTTYRedParams14SDPMediaRTPMap29SDPPacketizationTimeAttributeEEEEEEDcT_DpT0_
__ZNSt3__116__variant_detail12__visitation6__base12__dispatcherIJLm12EEE10__dispatchB6v15006IONS1_9__variant15__value_visitorI10overloadedIJZN8SDPModelC1ENS_10shared_ptrIS9_EEE3$_0ZNS9_C1ESB_E3$_1ZNS9_C1ESB_E3$_2EEEEJRNS0_6__baseILNS0_6_TraitE1EJ9SDPRTCPXR23SDPUnsupportedAttribute17SDPMediaCandidate14SDPMediaCrypto17SDPMediaDirection33SDPMediaEndToAccessEdgeProtection27SDPMediaFormatUnknownParams23SDPMediaFormatAMRParams23SDPMediaFormatEVSParams24SDPMediaFormatDTMFParams23SDPMediaFormatTTYParams26SDPMediaFormatTTYRedParams14SDPMediaRTPMap29SDPPacketizationTimeAttributeEEEEEEDcT_DpT0_
__ZNSt3__116__variant_detail12__visitation6__base12__dispatcherIJLm13EEE10__dispatchB6v15006IONS1_9__variant15__value_visitorI10overloadedIJZN8SDPModelC1ENS_10shared_ptrIS9_EEE3$_0ZNS9_C1ESB_E3$_1ZNS9_C1ESB_E3$_2EEEEJRNS0_6__baseILNS0_6_TraitE1EJ9SDPRTCPXR23SDPUnsupportedAttribute17SDPMediaCandidate14SDPMediaCrypto17SDPMediaDirection33SDPMediaEndToAccessEdgeProtection27SDPMediaFormatUnknownParams23SDPMediaFormatAMRParams23SDPMediaFormatEVSParams24SDPMediaFormatDTMFParams23SDPMediaFormatTTYParams26SDPMediaFormatTTYRedParams14SDPMediaRTPMap29SDPPacketizationTimeAttributeEEEEEEDcT_DpT0_
__ZN9SDPRTCPXRC2ERKS_
__ZN9SDPRTCPXRD2Ev
__ZN23SDPUnsupportedAttributeD1Ev
__ZN23SDPUnsupportedAttributeD0Ev
__ZNK23SDPUnsupportedAttribute5valueEv
__ZN23SDPUnsupportedAttributeD2Ev
__ZN17SDPMediaCandidateC2ERKS_
__ZN33SDPMediaEndToAccessEdgeProtectionD1Ev
__ZN33SDPMediaEndToAccessEdgeProtectionC2ERKS_
__ZN33SDPMediaEndToAccessEdgeProtectionD0Ev
__ZNK33SDPMediaEndToAccessEdgeProtection5valueEv
__ZN29SDPPacketizationTimeAttributeD1Ev
__ZN29SDPPacketizationTimeAttributeC2ERKS_
__ZN29SDPPacketizationTimeAttributeD0Ev
__ZNK29SDPPacketizationTimeAttribute5valueEv
__ZNSt3__110__list_impINS_7variantIJ9SDPRTCPXR23SDPUnsupportedAttribute17SDPMediaCandidate14SDPMediaCrypto17SDPMediaDirection33SDPMediaEndToAccessEdgeProtection27SDPMediaFormatUnknownParams23SDPMediaFormatAMRParams23SDPMediaFormatEVSParams24SDPMediaFormatDTMFParams23SDPMediaFormatTTYParams26SDPMediaFormatTTYRedParams14SDPMediaRTPMap29SDPPacketizationTimeAttributeEEENS_9allocatorISG_EEE5clearEv
__ZNSt3__116__variant_detail6__dtorINS0_8__traitsIJ9SDPRTCPXR23SDPUnsupportedAttribute17SDPMediaCandidate14SDPMediaCrypto17SDPMediaDirection33SDPMediaEndToAccessEdgeProtection27SDPMediaFormatUnknownParams23SDPMediaFormatAMRParams23SDPMediaFormatEVSParams24SDPMediaFormatDTMFParams23SDPMediaFormatTTYParams26SDPMediaFormatTTYRedParams14SDPMediaRTPMap29SDPPacketizationTimeAttributeEEELNS0_6_TraitE1EED2Ev
__ZNSt3__116__variant_detail12__visitation6__base12__dispatcherIJLm0EEE10__dispatchB6v15006IOZNS0_6__dtorINS0_8__traitsIJ9SDPRTCPXR23SDPUnsupportedAttribute17SDPMediaCandidate14SDPMediaCrypto17SDPMediaDirection33SDPMediaEndToAccessEdgeProtection27SDPMediaFormatUnknownParams23SDPMediaFormatAMRParams23SDPMediaFormatEVSParams24SDPMediaFormatDTMFParams23SDPMediaFormatTTYParams26SDPMediaFormatTTYRedParams14SDPMediaRTPMap29SDPPacketizationTimeAttributeEEELNS0_6_TraitE1EE9__destroyB6v15006EvEUlRT_E_JRNS0_6__baseILSN_1EJS8_S9_SA_SB_SC_SD_SE_SF_SG_SH_SI_SJ_SK_SL_EEEEEEDcSP_DpT0_
__ZNSt3__116__variant_detail12__visitation6__base12__dispatcherIJLm1EEE10__dispatchB6v15006IOZNS0_6__dtorINS0_8__traitsIJ9SDPRTCPXR23SDPUnsupportedAttribute17SDPMediaCandidate14SDPMediaCrypto17SDPMediaDirection33SDPMediaEndToAccessEdgeProtection27SDPMediaFormatUnknownParams23SDPMediaFormatAMRParams23SDPMediaFormatEVSParams24SDPMediaFormatDTMFParams23SDPMediaFormatTTYParams26SDPMediaFormatTTYRedParams14SDPMediaRTPMap29SDPPacketizationTimeAttributeEEELNS0_6_TraitE1EE9__destroyB6v15006EvEUlRT_E_JRNS0_6__baseILSN_1EJS8_S9_SA_SB_SC_SD_SE_SF_SG_SH_SI_SJ_SK_SL_EEEEEEDcSP_DpT0_
__ZNSt3__116__variant_detail12__visitation6__base12__dispatcherIJLm2EEE10__dispatchB6v15006IOZNS0_6__dtorINS0_8__traitsIJ9SDPRTCPXR23SDPUnsupportedAttribute17SDPMediaCandidate14SDPMediaCrypto17SDPMediaDirection33SDPMediaEndToAccessEdgeProtection27SDPMediaFormatUnknownParams23SDPMediaFormatAMRParams23SDPMediaFormatEVSParams24SDPMediaFormatDTMFParams23SDPMediaFormatTTYParams26SDPMediaFormatTTYRedParams14SDPMediaRTPMap29SDPPacketizationTimeAttributeEEELNS0_6_TraitE1EE9__destroyB6v15006EvEUlRT_E_JRNS0_6__baseILSN_1EJS8_S9_SA_SB_SC_SD_SE_SF_SG_SH_SI_SJ_SK_SL_EEEEEEDcSP_DpT0_
__ZNSt3__116__variant_detail12__visitation6__base12__dispatcherIJLm3EEE10__dispatchB6v15006IOZNS0_6__dtorINS0_8__traitsIJ9SDPRTCPXR23SDPUnsupportedAttribute17SDPMediaCandidate14SDPMediaCrypto17SDPMediaDirection33SDPMediaEndToAccessEdgeProtection27SDPMediaFormatUnknownParams23SDPMediaFormatAMRParams23SDPMediaFormatEVSParams24SDPMediaFormatDTMFParams23SDPMediaFormatTTYParams26SDPMediaFormatTTYRedParams14SDPMediaRTPMap29SDPPacketizationTimeAttributeEEELNS0_6_TraitE1EE9__destroyB6v15006EvEUlRT_E_JRNS0_6__baseILSN_1EJS8_S9_SA_SB_SC_SD_SE_SF_SG_SH_SI_SJ_SK_SL_EEEEEEDcSP_DpT0_
__ZNSt3__116__variant_detail12__visitation6__base12__dispatcherIJLm4EEE10__dispatchB6v15006IOZNS0_6__dtorINS0_8__traitsIJ9SDPRTCPXR23SDPUnsupportedAttribute17SDPMediaCandidate14SDPMediaCrypto17SDPMediaDirection33SDPMediaEndToAccessEdgeProtection27SDPMediaFormatUnknownParams23SDPMediaFormatAMRParams23SDPMediaFormatEVSParams24SDPMediaFormatDTMFParams23SDPMediaFormatTTYParams26SDPMediaFormatTTYRedParams14SDPMediaRTPMap29SDPPacketizationTimeAttributeEEELNS0_6_TraitE1EE9__destroyB6v15006EvEUlRT_E_JRNS0_6__baseILSN_1EJS8_S9_SA_SB_SC_SD_SE_SF_SG_SH_SI_SJ_SK_SL_EEEEEEDcSP_DpT0_
__ZNSt3__116__variant_detail12__visitation6__base12__dispatcherIJLm5EEE10__dispatchB6v15006IOZNS0_6__dtorINS0_8__traitsIJ9SDPRTCPXR23SDPUnsupportedAttribute17SDPMediaCandidate14SDPMediaCrypto17SDPMediaDirection33SDPMediaEndToAccessEdgeProtection27SDPMediaFormatUnknownParams23SDPMediaFormatAMRParams23SDPMediaFormatEVSParams24SDPMediaFormatDTMFParams23SDPMediaFormatTTYParams26SDPMediaFormatTTYRedParams14SDPMediaRTPMap29SDPPacketizationTimeAttributeEEELNS0_6_TraitE1EE9__destroyB6v15006EvEUlRT_E_JRNS0_6__baseILSN_1EJS8_S9_SA_SB_SC_SD_SE_SF_SG_SH_SI_SJ_SK_SL_EEEEEEDcSP_DpT0_
__ZNSt3__116__variant_detail12__visitation6__base12__dispatcherIJLm6EEE10__dispatchB6v15006IOZNS0_6__dtorINS0_8__traitsIJ9SDPRTCPXR23SDPUnsupportedAttribute17SDPMediaCandidate14SDPMediaCrypto17SDPMediaDirection33SDPMediaEndToAccessEdgeProtection27SDPMediaFormatUnknownParams23SDPMediaFormatAMRParams23SDPMediaFormatEVSParams24SDPMediaFormatDTMFParams23SDPMediaFormatTTYParams26SDPMediaFormatTTYRedParams14SDPMediaRTPMap29SDPPacketizationTimeAttributeEEELNS0_6_TraitE1EE9__destroyB6v15006EvEUlRT_E_JRNS0_6__baseILSN_1EJS8_S9_SA_SB_SC_SD_SE_SF_SG_SH_SI_SJ_SK_SL_EEEEEEDcSP_DpT0_
__ZNSt3__116__variant_detail12__visitation6__base12__dispatcherIJLm7EEE10__dispatchB6v15006IOZNS0_6__dtorINS0_8__traitsIJ9SDPRTCPXR23SDPUnsupportedAttribute17SDPMediaCandidate14SDPMediaCrypto17SDPMediaDirection33SDPMediaEndToAccessEdgeProtection27SDPMediaFormatUnknownParams23SDPMediaFormatAMRParams23SDPMediaFormatEVSParams24SDPMediaFormatDTMFParams23SDPMediaFormatTTYParams26SDPMediaFormatTTYRedParams14SDPMediaRTPMap29SDPPacketizationTimeAttributeEEELNS0_6_TraitE1EE9__destroyB6v15006EvEUlRT_E_JRNS0_6__baseILSN_1EJS8_S9_SA_SB_SC_SD_SE_SF_SG_SH_SI_SJ_SK_SL_EEEEEEDcSP_DpT0_
__ZNSt3__116__variant_detail12__visitation6__base12__dispatcherIJLm8EEE10__dispatchB6v15006IOZNS0_6__dtorINS0_8__traitsIJ9SDPRTCPXR23SDPUnsupportedAttribute17SDPMediaCandidate14SDPMediaCrypto17SDPMediaDirection33SDPMediaEndToAccessEdgeProtection27SDPMediaFormatUnknownParams23SDPMediaFormatAMRParams23SDPMediaFormatEVSParams24SDPMediaFormatDTMFParams23SDPMediaFormatTTYParams26SDPMediaFormatTTYRedParams14SDPMediaRTPMap29SDPPacketizationTimeAttributeEEELNS0_6_TraitE1EE9__destroyB6v15006EvEUlRT_E_JRNS0_6__baseILSN_1EJS8_S9_SA_SB_SC_SD_SE_SF_SG_SH_SI_SJ_SK_SL_EEEEEEDcSP_DpT0_
__ZNSt3__116__variant_detail12__visitation6__base12__dispatcherIJLm9EEE10__dispatchB6v15006IOZNS0_6__dtorINS0_8__traitsIJ9SDPRTCPXR23SDPUnsupportedAttribute17SDPMediaCandidate14SDPMediaCrypto17SDPMediaDirection33SDPMediaEndToAccessEdgeProtection27SDPMediaFormatUnknownParams23SDPMediaFormatAMRParams23SDPMediaFormatEVSParams24SDPMediaFormatDTMFParams23SDPMediaFormatTTYParams26SDPMediaFormatTTYRedParams14SDPMediaRTPMap29SDPPacketizationTimeAttributeEEELNS0_6_TraitE1EE9__destroyB6v15006EvEUlRT_E_JRNS0_6__baseILSN_1EJS8_S9_SA_SB_SC_SD_SE_SF_SG_SH_SI_SJ_SK_SL_EEEEEEDcSP_DpT0_
__ZNSt3__116__variant_detail12__visitation6__base12__dispatcherIJLm10EEE10__dispatchB6v15006IOZNS0_6__dtorINS0_8__traitsIJ9SDPRTCPXR23SDPUnsupportedAttribute17SDPMediaCandidate14SDPMediaCrypto17SDPMediaDirection33SDPMediaEndToAccessEdgeProtection27SDPMediaFormatUnknownParams23SDPMediaFormatAMRParams23SDPMediaFormatEVSParams24SDPMediaFormatDTMFParams23SDPMediaFormatTTYParams26SDPMediaFormatTTYRedParams14SDPMediaRTPMap29SDPPacketizationTimeAttributeEEELNS0_6_TraitE1EE9__destroyB6v15006EvEUlRT_E_JRNS0_6__baseILSN_1EJS8_S9_SA_SB_SC_SD_SE_SF_SG_SH_SI_SJ_SK_SL_EEEEEEDcSP_DpT0_
__ZNSt3__116__variant_detail12__visitation6__base12__dispatcherIJLm11EEE10__dispatchB6v15006IOZNS0_6__dtorINS0_8__traitsIJ9SDPRTCPXR23SDPUnsupportedAttribute17SDPMediaCandidate14SDPMediaCrypto17SDPMediaDirection33SDPMediaEndToAccessEdgeProtection27SDPMediaFormatUnknownParams23SDPMediaFormatAMRParams23SDPMediaFormatEVSParams24SDPMediaFormatDTMFParams23SDPMediaFormatTTYParams26SDPMediaFormatTTYRedParams14SDPMediaRTPMap29SDPPacketizationTimeAttributeEEELNS0_6_TraitE1EE9__destroyB6v15006EvEUlRT_E_JRNS0_6__baseILSN_1EJS8_S9_SA_SB_SC_SD_SE_SF_SG_SH_SI_SJ_SK_SL_EEEEEEDcSP_DpT0_
__ZNSt3__116__variant_detail12__visitation6__base12__dispatcherIJLm12EEE10__dispatchB6v15006IOZNS0_6__dtorINS0_8__traitsIJ9SDPRTCPXR23SDPUnsupportedAttribute17SDPMediaCandidate14SDPMediaCrypto17SDPMediaDirection33SDPMediaEndToAccessEdgeProtection27SDPMediaFormatUnknownParams23SDPMediaFormatAMRParams23SDPMediaFormatEVSParams24SDPMediaFormatDTMFParams23SDPMediaFormatTTYParams26SDPMediaFormatTTYRedParams14SDPMediaRTPMap29SDPPacketizationTimeAttributeEEELNS0_6_TraitE1EE9__destroyB6v15006EvEUlRT_E_JRNS0_6__baseILSN_1EJS8_S9_SA_SB_SC_SD_SE_SF_SG_SH_SI_SJ_SK_SL_EEEEEEDcSP_DpT0_
__ZNSt3__116__variant_detail12__visitation6__base12__dispatcherIJLm13EEE10__dispatchB6v15006IOZNS0_6__dtorINS0_8__traitsIJ9SDPRTCPXR23SDPUnsupportedAttribute17SDPMediaCandidate14SDPMediaCrypto17SDPMediaDirection33SDPMediaEndToAccessEdgeProtection27SDPMediaFormatUnknownParams23SDPMediaFormatAMRParams23SDPMediaFormatEVSParams24SDPMediaFormatDTMFParams23SDPMediaFormatTTYParams26SDPMediaFormatTTYRedParams14SDPMediaRTPMap29SDPPacketizationTimeAttributeEEELNS0_6_TraitE1EE9__destroyB6v15006EvEUlRT_E_JRNS0_6__baseILSN_1EJS8_S9_SA_SB_SC_SD_SE_SF_SG_SH_SI_SJ_SK_SL_EEEEEEDcSP_DpT0_
__ZNSt3__110__list_impI9SDPTimingNS_9allocatorIS1_EEE5clearEv
__ZNSt3__110__list_impI13SDPConnectionNS_9allocatorIS1_EEE5clearEv
__ZNSt3__110__list_impINS_12basic_stringIcNS_11char_traitsIcEENS_9allocatorIcEEEENS4_IS6_EEE5clearEv
__ZNSt3__116__variant_detail12__visitation6__base12__dispatcherIJLm0EEE10__dispatchB6v15006IONS1_9__variant15__value_visitorI10overloadedIJZNK8SDPModel8toStreamER12ImsOutStreamE3$_3ZNKS9_8toStreamESB_E3$_4EEEEJRKNS0_6__baseILNS0_6_TraitE1EJ9SDPRTCPXR23SDPUnsupportedAttribute17SDPMediaCandidate14SDPMediaCrypto17SDPMediaDirection33SDPMediaEndToAccessEdgeProtection27SDPMediaFormatUnknownParams23SDPMediaFormatAMRParams23SDPMediaFormatEVSParams24SDPMediaFormatDTMFParams23SDPMediaFormatTTYParams26SDPMediaFormatTTYRedParams14SDPMediaRTPMap29SDPPacketizationTimeAttributeEEEEEEDcT_DpT0_
__ZNSt3__116__variant_detail12__visitation6__base12__dispatcherIJLm1EEE10__dispatchB6v15006IONS1_9__variant15__value_visitorI10overloadedIJZNK8SDPModel8toStreamER12ImsOutStreamE3$_3ZNKS9_8toStreamESB_E3$_4EEEEJRKNS0_6__baseILNS0_6_TraitE1EJ9SDPRTCPXR23SDPUnsupportedAttribute17SDPMediaCandidate14SDPMediaCrypto17SDPMediaDirection33SDPMediaEndToAccessEdgeProtection27SDPMediaFormatUnknownParams23SDPMediaFormatAMRParams23SDPMediaFormatEVSParams24SDPMediaFormatDTMFParams23SDPMediaFormatTTYParams26SDPMediaFormatTTYRedParams14SDPMediaRTPMap29SDPPacketizationTimeAttributeEEEEEEDcT_DpT0_
__ZNSt3__116__variant_detail12__visitation6__base12__dispatcherIJLm2EEE10__dispatchB6v15006IONS1_9__variant15__value_visitorI10overloadedIJZNK8SDPModel8toStreamER12ImsOutStreamE3$_3ZNKS9_8toStreamESB_E3$_4EEEEJRKNS0_6__baseILNS0_6_TraitE1EJ9SDPRTCPXR23SDPUnsupportedAttribute17SDPMediaCandidate14SDPMediaCrypto17SDPMediaDirection33SDPMediaEndToAccessEdgeProtection27SDPMediaFormatUnknownParams23SDPMediaFormatAMRParams23SDPMediaFormatEVSParams24SDPMediaFormatDTMFParams23SDPMediaFormatTTYParams26SDPMediaFormatTTYRedParams14SDPMediaRTPMap29SDPPacketizationTimeAttributeEEEEEEDcT_DpT0_
__ZNSt3__116__variant_detail12__visitation6__base12__dispatcherIJLm3EEE10__dispatchB6v15006IONS1_9__variant15__value_visitorI10overloadedIJZNK8SDPModel8toStreamER12ImsOutStreamE3$_3ZNKS9_8toStreamESB_E3$_4EEEEJRKNS0_6__baseILNS0_6_TraitE1EJ9SDPRTCPXR23SDPUnsupportedAttribute17SDPMediaCandidate14SDPMediaCrypto17SDPMediaDirection33SDPMediaEndToAccessEdgeProtection27SDPMediaFormatUnknownParams23SDPMediaFormatAMRParams23SDPMediaFormatEVSParams24SDPMediaFormatDTMFParams23SDPMediaFormatTTYParams26SDPMediaFormatTTYRedParams14SDPMediaRTPMap29SDPPacketizationTimeAttributeEEEEEEDcT_DpT0_
__ZNSt3__116__variant_detail12__visitation6__base12__dispatcherIJLm4EEE10__dispatchB6v15006IONS1_9__variant15__value_visitorI10overloadedIJZNK8SDPModel8toStreamER12ImsOutStreamE3$_3ZNKS9_8toStreamESB_E3$_4EEEEJRKNS0_6__baseILNS0_6_TraitE1EJ9SDPRTCPXR23SDPUnsupportedAttribute17SDPMediaCandidate14SDPMediaCrypto17SDPMediaDirection33SDPMediaEndToAccessEdgeProtection27SDPMediaFormatUnknownParams23SDPMediaFormatAMRParams23SDPMediaFormatEVSParams24SDPMediaFormatDTMFParams23SDPMediaFormatTTYParams26SDPMediaFormatTTYRedParams14SDPMediaRTPMap29SDPPacketizationTimeAttributeEEEEEEDcT_DpT0_
__ZNSt3__116__variant_detail12__visitation6__base12__dispatcherIJLm5EEE10__dispatchB6v15006IONS1_9__variant15__value_visitorI10overloadedIJZNK8SDPModel8toStreamER12ImsOutStreamE3$_3ZNKS9_8toStreamESB_E3$_4EEEEJRKNS0_6__baseILNS0_6_TraitE1EJ9SDPRTCPXR23SDPUnsupportedAttribute17SDPMediaCandidate14SDPMediaCrypto17SDPMediaDirection33SDPMediaEndToAccessEdgeProtection27SDPMediaFormatUnknownParams23SDPMediaFormatAMRParams23SDPMediaFormatEVSParams24SDPMediaFormatDTMFParams23SDPMediaFormatTTYParams26SDPMediaFormatTTYRedParams14SDPMediaRTPMap29SDPPacketizationTimeAttributeEEEEEEDcT_DpT0_
__ZNSt3__116__variant_detail12__visitation6__base12__dispatcherIJLm6EEE10__dispatchB6v15006IONS1_9__variant15__value_visitorI10overloadedIJZNK8SDPModel8toStreamER12ImsOutStreamE3$_3ZNKS9_8toStreamESB_E3$_4EEEEJRKNS0_6__baseILNS0_6_TraitE1EJ9SDPRTCPXR23SDPUnsupportedAttribute17SDPMediaCandidate14SDPMediaCrypto17SDPMediaDirection33SDPMediaEndToAccessEdgeProtection27SDPMediaFormatUnknownParams23SDPMediaFormatAMRParams23SDPMediaFormatEVSParams24SDPMediaFormatDTMFParams23SDPMediaFormatTTYParams26SDPMediaFormatTTYRedParams14SDPMediaRTPMap29SDPPacketizationTimeAttributeEEEEEEDcT_DpT0_
__ZNSt3__116__variant_detail12__visitation6__base12__dispatcherIJLm7EEE10__dispatchB6v15006IONS1_9__variant15__value_visitorI10overloadedIJZNK8SDPModel8toStreamER12ImsOutStreamE3$_3ZNKS9_8toStreamESB_E3$_4EEEEJRKNS0_6__baseILNS0_6_TraitE1EJ9SDPRTCPXR23SDPUnsupportedAttribute17SDPMediaCandidate14SDPMediaCrypto17SDPMediaDirection33SDPMediaEndToAccessEdgeProtection27SDPMediaFormatUnknownParams23SDPMediaFormatAMRParams23SDPMediaFormatEVSParams24SDPMediaFormatDTMFParams23SDPMediaFormatTTYParams26SDPMediaFormatTTYRedParams14SDPMediaRTPMap29SDPPacketizationTimeAttributeEEEEEEDcT_DpT0_
__ZNSt3__116__variant_detail12__visitation6__base12__dispatcherIJLm8EEE10__dispatchB6v15006IONS1_9__variant15__value_visitorI10overloadedIJZNK8SDPModel8toStreamER12ImsOutStreamE3$_3ZNKS9_8toStreamESB_E3$_4EEEEJRKNS0_6__baseILNS0_6_TraitE1EJ9SDPRTCPXR23SDPUnsupportedAttribute17SDPMediaCandidate14SDPMediaCrypto17SDPMediaDirection33SDPMediaEndToAccessEdgeProtection27SDPMediaFormatUnknownParams23SDPMediaFormatAMRParams23SDPMediaFormatEVSParams24SDPMediaFormatDTMFParams23SDPMediaFormatTTYParams26SDPMediaFormatTTYRedParams14SDPMediaRTPMap29SDPPacketizationTimeAttributeEEEEEEDcT_DpT0_
__ZNSt3__116__variant_detail12__visitation6__base12__dispatcherIJLm9EEE10__dispatchB6v15006IONS1_9__variant15__value_visitorI10overloadedIJZNK8SDPModel8toStreamER12ImsOutStreamE3$_3ZNKS9_8toStreamESB_E3$_4EEEEJRKNS0_6__baseILNS0_6_TraitE1EJ9SDPRTCPXR23SDPUnsupportedAttribute17SDPMediaCandidate14SDPMediaCrypto17SDPMediaDirection33SDPMediaEndToAccessEdgeProtection27SDPMediaFormatUnknownParams23SDPMediaFormatAMRParams23SDPMediaFormatEVSParams24SDPMediaFormatDTMFParams23SDPMediaFormatTTYParams26SDPMediaFormatTTYRedParams14SDPMediaRTPMap29SDPPacketizationTimeAttributeEEEEEEDcT_DpT0_
__ZNSt3__116__variant_detail12__visitation6__base12__dispatcherIJLm10EEE10__dispatchB6v15006IONS1_9__variant15__value_visitorI10overloadedIJZNK8SDPModel8toStreamER12ImsOutStreamE3$_3ZNKS9_8toStreamESB_E3$_4EEEEJRKNS0_6__baseILNS0_6_TraitE1EJ9SDPRTCPXR23SDPUnsupportedAttribute17SDPMediaCandidate14SDPMediaCrypto17SDPMediaDirection33SDPMediaEndToAccessEdgeProtection27SDPMediaFormatUnknownParams23SDPMediaFormatAMRParams23SDPMediaFormatEVSParams24SDPMediaFormatDTMFParams23SDPMediaFormatTTYParams26SDPMediaFormatTTYRedParams14SDPMediaRTPMap29SDPPacketizationTimeAttributeEEEEEEDcT_DpT0_
__ZNSt3__116__variant_detail12__visitation6__base12__dispatcherIJLm11EEE10__dispatchB6v15006IONS1_9__variant15__value_visitorI10overloadedIJZNK8SDPModel8toStreamER12ImsOutStreamE3$_3ZNKS9_8toStreamESB_E3$_4EEEEJRKNS0_6__baseILNS0_6_TraitE1EJ9SDPRTCPXR23SDPUnsupportedAttribute17SDPMediaCandidate14SDPMediaCrypto17SDPMediaDirection33SDPMediaEndToAccessEdgeProtection27SDPMediaFormatUnknownParams23SDPMediaFormatAMRParams23SDPMediaFormatEVSParams24SDPMediaFormatDTMFParams23SDPMediaFormatTTYParams26SDPMediaFormatTTYRedParams14SDPMediaRTPMap29SDPPacketizationTimeAttributeEEEEEEDcT_DpT0_
__ZNSt3__116__variant_detail12__visitation6__base12__dispatcherIJLm12EEE10__dispatchB6v15006IONS1_9__variant15__value_visitorI10overloadedIJZNK8SDPModel8toStreamER12ImsOutStreamE3$_3ZNKS9_8toStreamESB_E3$_4EEEEJRKNS0_6__baseILNS0_6_TraitE1EJ9SDPRTCPXR23SDPUnsupportedAttribute17SDPMediaCandidate14SDPMediaCrypto17SDPMediaDirection33SDPMediaEndToAccessEdgeProtection27SDPMediaFormatUnknownParams23SDPMediaFormatAMRParams23SDPMediaFormatEVSParams24SDPMediaFormatDTMFParams23SDPMediaFormatTTYParams26SDPMediaFormatTTYRedParams14SDPMediaRTPMap29SDPPacketizationTimeAttributeEEEEEEDcT_DpT0_
__ZNSt3__116__variant_detail12__visitation6__base12__dispatcherIJLm13EEE10__dispatchB6v15006IONS1_9__variant15__value_visitorI10overloadedIJZNK8SDPModel8toStreamER12ImsOutStreamE3$_3ZNKS9_8toStreamESB_E3$_4EEEEJRKNS0_6__baseILNS0_6_TraitE1EJ9SDPRTCPXR23SDPUnsupportedAttribute17SDPMediaCandidate14SDPMediaCrypto17SDPMediaDirection33SDPMediaEndToAccessEdgeProtection27SDPMediaFormatUnknownParams23SDPMediaFormatAMRParams23SDPMediaFormatEVSParams24SDPMediaFormatDTMFParams23SDPMediaFormatTTYParams26SDPMediaFormatTTYRedParams14SDPMediaRTPMap29SDPPacketizationTimeAttributeEEEEEEDcT_DpT0_
__ZNSt3__110__list_impIP14SDPMediaCryptoNS_9allocatorIS2_EEE5clearEv
__ZNSt3__16vectorI18SDPPreconditionRowNS_9allocatorIS1_EEE6assignIPS1_EENS_9enable_ifIXaasr27__is_cpp17_forward_iteratorIT_EE5valuesr16is_constructibleIS1_NS_15iterator_traitsIS8_E9referenceEEE5valueEvE4typeES8_S8_
__ZNSt3__16vectorI18SDPPreconditionRowNS_9allocatorIS1_EEE11__vallocateB6v15006Em
__ZNKSt3__16vectorI18SDPPreconditionRowNS_9allocatorIS1_EEE20__throw_length_errorB6v15006Ev
__ZNSt3__119__allocate_at_leastB6v15006INS_9allocatorI18SDPPreconditionRowEEEENS_19__allocation_resultINS_16allocator_traitsIT_E7pointerEEERS6_m
__ZNSt3__14listINS_4pairIylEENS_9allocatorIS2_EEE6assignINS_21__list_const_iteratorIS2_PvEEEEvT_SA_PNS_9enable_ifIXsr25__is_cpp17_input_iteratorISA_EE5valueEvE4typeE
__ZNSt3__14listINS_4pairIylEENS_9allocatorIS2_EEE6insertINS_21__list_const_iteratorIS2_PvEEEENS_15__list_iteratorIS2_S8_EES9_T_SC_PNS_9enable_ifIXsr25__is_cpp17_input_iteratorISC_EE5valueEvE4typeE
__ZNSt3__14listINS_4pairIylEENS_9allocatorIS2_EEE5eraseENS_21__list_const_iteratorIS2_PvEES8_
__ZNSt3__14listINS_12basic_stringIcNS_11char_traitsIcEENS_9allocatorIcEEEENS4_IS6_EEEC2ERKS8_
__ZNSt3__14listINS_12basic_stringIcNS_11char_traitsIcEENS_9allocatorIcEEEENS4_IS6_EEE9push_backERKS6_
__ZNSt3__16vectorI8SDPMediaNS_9allocatorIS1_EEED2B6v15006Ev
__ZN19SipContactParamListD1Ev
__ZN19SipContactParamList10addContactERK15SipContactParam
__ZNK16SipContactHeader11encodeValueER12ImsOutStream
__ZN16SipContactHeader18setValueFromStringERKNSt3__112basic_stringIcNS0_11char_traitsIcEENS0_9allocatorIcEEEE
__ZN16SipContactHeader11mergeHeaderERK9SipHeader
__ZN16SipContactHeaderD1Ev
__ZN16SipContactHeaderD0Ev
__ZNK16SipContactHeader5cloneEv
__ZNK16SipContactHeader16allowsDuplicatesEv
__ZNK16SipContactHeader13allowsMergingEv
__ZN15SipContactParamD1Ev
__ZNSt3__19allocatorI15SipContactParamE9constructB6v15006IS1_JS1_EEEvPT_DpOT0_
__ZN15SipContactParamD0Ev
__ZNK15SipContactParam3logER12ImsOutStream
__ZNK15SipContactParam12loggableNameEv
__ZNSt3__16vectorI15SipContactParamNS_9allocatorIS1_EEE26__swap_out_circular_bufferERNS_14__split_bufferIS1_RS3_EE
__ZNKSt3__16vectorI15SipContactParamNS_9allocatorIS1_EEE20__throw_length_errorB6v15006Ev
__ZNSt3__119__allocate_at_leastB6v15006INS_9allocatorI15SipContactParamEEEENS_19__allocation_resultINS_16allocator_traitsIT_E7pointerEEERS6_m
__ZNSt3__142__uninitialized_allocator_move_if_noexceptB6v15006INS_9allocatorI15SipContactParamEENS_16reverse_iteratorIPS2_EES6_S6_EET2_RT_T0_T1_S7_
__ZNSt3__19allocatorI15SipContactParamE9constructB6v15006IS1_JRKS1_EEEvPT_DpOT0_
__ZNSt3__13mapINS_12basic_stringIcNS_11char_traitsIcEENS_9allocatorIcEEEENS0_IS6_S6_NS_4lessIS6_EENS4_INS_4pairIKS6_S6_EEEEEES8_NS4_INS9_ISA_SD_EEEEEC2B6v15006ERKSG_
__ZNSt3__13mapINS_12basic_stringIcNS_11char_traitsIcEENS_9allocatorIcEEEENS0_IS6_S6_NS_4lessIS6_EENS4_INS_4pairIKS6_S6_EEEEEES8_NS4_INS9_ISA_SD_EEEEE6insertB6v15006INS_20__map_const_iteratorINS_21__tree_const_iteratorINS_12__value_typeIS6_SD_EEPNS_11__tree_nodeISL_PvEElEEEEEEvT_SS_
__ZNSt3__16__treeINS_12__value_typeINS_12basic_stringIcNS_11char_traitsIcEENS_9allocatorIcEEEENS_3mapIS7_S7_NS_4lessIS7_EENS5_INS_4pairIKS7_S7_EEEEEEEENS_19__map_value_compareIS7_SG_SA_Lb1EEENS5_ISG_EEE30__emplace_hint_unique_key_argsIS7_JRKNSB_ISC_SF_EEEEENSB_INS_15__tree_iteratorISG_PNS_11__tree_nodeISG_PvEElEEbEENS_21__tree_const_iteratorISG_ST_lEERKT_DpOT0_
__ZNSt3__16__treeINS_12__value_typeINS_12basic_stringIcNS_11char_traitsIcEENS_9allocatorIcEEEENS_3mapIS7_S7_NS_4lessIS7_EENS5_INS_4pairIKS7_S7_EEEEEEEENS_19__map_value_compareIS7_SG_SA_Lb1EEENS5_ISG_EEE12__find_equalIS7_EERPNS_16__tree_node_baseIPvEENS_21__tree_const_iteratorISG_PNS_11__tree_nodeISG_SN_EElEERPNS_15__tree_end_nodeISP_EESQ_RKT_
__ZNSt3__16__treeINS_12__value_typeINS_12basic_stringIcNS_11char_traitsIcEENS_9allocatorIcEEEENS_3mapIS7_S7_NS_4lessIS7_EENS5_INS_4pairIKS7_S7_EEEEEEEENS_19__map_value_compareIS7_SG_SA_Lb1EEENS5_ISG_EEE16__construct_nodeIJRKNSB_ISC_SF_EEEEENS_10unique_ptrINS_11__tree_nodeISG_PvEENS_22__tree_node_destructorINS5_ISS_EEEEEEDpOT_
__ZNSt3__14pairIKNS_12basic_stringIcNS_11char_traitsIcEENS_9allocatorIcEEEENS_3mapIS6_S6_NS_4lessIS6_EENS4_INS0_IS7_S6_EEEEEEEC2ERKSE_
__ZNSt3__122__tree_node_destructorINS_9allocatorINS_11__tree_nodeINS_12__value_typeINS_12basic_stringIcNS_11char_traitsIcEENS1_IcEEEENS_3mapIS8_S8_NS_4lessIS8_EENS1_INS_4pairIKS8_S8_EEEEEEEEPvEEEEEclB6v15006EPSJ_
__ZNSt3__114__split_bufferI15SipContactParamRNS_9allocatorIS1_EEED2Ev
__ZN19SipContactParamListD0Ev
__ZNK19SipContactParamList3logER12ImsOutStream
__ZNK19SipContactParamList12loggableNameEv
__ZNSt3__16vectorI15SipContactParamNS_9allocatorIS1_EEED2B6v15006Ev
__ZNSt3__16vectorI15SipContactParamNS_9allocatorIS1_EEE21__push_back_slow_pathIRKS1_EEvOT_
__ZNSt3__16__treeINS_12__value_typeINS_12basic_stringIcNS_11char_traitsIcEENS_9allocatorIcEEEENS_3mapIS7_S7_NS_4lessIS7_EENS5_INS_4pairIKS7_S7_EEEEEEEENS_19__map_value_compareIS7_SG_SA_Lb1EEENS5_ISG_EEE14__assign_multiINS_21__tree_const_iteratorISG_PNS_11__tree_nodeISG_PvEElEEEEvT_SS_
__ZNSt3__14pairIRNS_12basic_stringIcNS_11char_traitsIcEENS_9allocatorIcEEEERNS_3mapIS6_S6_NS_4lessIS6_EENS4_INS0_IKS6_S6_EEEEEEEaSB6v15006IRKNS0_ISB_SE_EELPv0EEERSG_OT_
__ZNSt3__16__treeINS_12__value_typeINS_12basic_stringIcNS_11char_traitsIcEENS_9allocatorIcEEEENS_3mapIS7_S7_NS_4lessIS7_EENS5_INS_4pairIKS7_S7_EEEEEEEENS_19__map_value_compareIS7_SG_SA_Lb1EEENS5_ISG_EEE16__find_leaf_highERPNS_15__tree_end_nodeIPNS_16__tree_node_baseIPvEEEERSC_
__ZNSt3__16__treeINS_12__value_typeINS_12basic_stringIcNS_11char_traitsIcEENS_9allocatorIcEEEENS_3mapIS7_S7_NS_4lessIS7_EENS5_INS_4pairIKS7_S7_EEEEEEEENS_19__map_value_compareIS7_SG_SA_Lb1EEENS5_ISG_EEE18_DetachedTreeCache13__detach_nextEPNS_11__tree_nodeISG_PvEE
__ZNSt3__16__treeINS_12__value_typeINS_12basic_stringIcNS_11char_traitsIcEENS_9allocatorIcEEEENS_3mapIS7_S7_NS_4lessIS7_EENS5_INS_4pairIKS7_S7_EEEEEEEENS_19__map_value_compareIS7_SG_SA_Lb1EEENS5_ISG_EEE18_DetachedTreeCacheD2B6v15006Ev
__ZNSt3__16__treeINS_12__value_typeINS_12basic_stringIcNS_11char_traitsIcEENS_9allocatorIcEEEENS_3mapIS7_S7_NS_4lessIS7_EENS5_INS_4pairIKS7_S7_EEEEEEEENS_19__map_value_compareIS7_SG_SA_Lb1EEENS5_ISG_EEE15__emplace_multiIJRKNSB_ISC_SF_EEEEENS_15__tree_iteratorISG_PNS_11__tree_nodeISG_PvEElEEDpOT_
__ZN20SipRecipientListBodyC2Ev
__ZN17SipGenericXmlBodyD2Ev
__ZN20SipRecipientListBody12addRecipientEPK9SipDialog
__ZN9ImsResultlsImEERS_RKT_
__ZN20SipRecipientListBody11addedToPartEP11SipBodyPart
__ZN20SipRecipientListBodyD1Ev
__ZN20SipRecipientListBodyD0Ev
__ZNK17SipGenericXmlBody5cloneEv
__ZNK17SipGenericXmlBody11contentTypeEv
__ZN17SipGenericXmlBody8rootItemEv
__ZN20SipRecipientListBodyD2Ev
__GLOBAL__sub_I_SipRecipientListBody.cpp
__ZNK17SDPMediaDirection3keyEv
__ZN17SDPMediaDirectionD1Ev
__ZN17SDPMediaDirectionD0Ev
__ZNK17SDPMediaDirection5valueEv
__ZNSt3__118basic_stringstreamIcNS_11char_traitsIcEENS_9allocatorIcEEEC1B6v15006Ev
__ZNK14SipDialogState8stateStrEv
__ZNSt3__118basic_stringstreamIcNS_11char_traitsIcEENS_9allocatorIcEEED1Ev
__ZNK24SipDialogParticipantInfo15participantNameEv
__ZNK24SipDialogParticipantInfo3uriEv
__ZNK24SipDialogParticipantInfo3strERKNSt3__112basic_stringIcNS0_11char_traitsIcEENS0_9allocatorIcEEEE
__ZN24SipDialogParticipantInfo8copyFromERKS_
__ZNK18SipDialogDirection3strEv
__ZN13SipDialogInfo8copyFromERKS_
__ZN13SipDialogInfo8setLocalERK24SipDialogParticipantInfo
__ZN13SipDialogInfo9setRemoteERK24SipDialogParticipantInfo
__ZN13SipDialogInfo11setReplacesERK21SipDialogReplacesInfo
__ZNK13SipDialogInfo5eventEv
__ZNK14SipDialogTable3strEv
__ZNK14SipDialogTable22fillReplacesHeaderDataERKNSt3__112basic_stringIcNS0_11char_traitsIcEENS0_9allocatorIcEEEER18ReplacesHeaderData
__ZN14SipDialogTable6updateERKS_PNSt3__16vectorI18SipDialogEventDataNS2_9allocatorIS4_EEEE
__ZN13SipDialogInfoaSERKS_
__ZN14SipDialogTableD1Ev
__ZNSt3__16vectorI18SipDialogEventDataNS_9allocatorIS1_EEE6insertENS_11__wrap_iterIPKS1_EEOS1_
__ZNSt3__16vectorI34SipDialogParticipantMediaAttributeNS_9allocatorIS1_EEE6assignIPS1_EENS_9enable_ifIXaasr27__is_cpp17_forward_iteratorIT_EE5valuesr16is_constructibleIS1_NS_15iterator_traitsIS8_E9referenceEEE5valueEvE4typeES8_S8_
__ZN14SipDialogStateC2ERKNSt3__112basic_stringIcNS0_11char_traitsIcEENS0_9allocatorIcEEEES8_S8_
__ZN18SipDialogEventDataD2Ev
__ZNSt3__13mapINS_12basic_stringIcNS_11char_traitsIcEENS_9allocatorIcEEEE13SipDialogInfoNS_4lessIS6_EENS4_INS_4pairIKS6_S7_EEEEEC2B6v15006ERKSE_
__ZNSt3__13mapINS_12basic_stringIcNS_11char_traitsIcEENS_9allocatorIcEEEE13SipDialogInfoNS_4lessIS6_EENS4_INS_4pairIKS6_S7_EEEEE6insertB6v15006INS_20__map_const_iteratorINS_21__tree_const_iteratorINS_12__value_typeIS6_S7_EEPNS_11__tree_nodeISJ_PvEElEEEEEEvT_SQ_
__ZNSt3__16__treeINS_12__value_typeINS_12basic_stringIcNS_11char_traitsIcEENS_9allocatorIcEEEE13SipDialogInfoEENS_19__map_value_compareIS7_S9_NS_4lessIS7_EELb1EEENS5_IS9_EEE30__emplace_hint_unique_key_argsIS7_JRKNS_4pairIKS7_S8_EEEEENSH_INS_15__tree_iteratorIS9_PNS_11__tree_nodeIS9_PvEElEEbEENS_21__tree_const_iteratorIS9_SQ_lEERKT_DpOT0_
__ZNSt3__16__treeINS_12__value_typeINS_12basic_stringIcNS_11char_traitsIcEENS_9allocatorIcEEEE13SipDialogInfoEENS_19__map_value_compareIS7_S9_NS_4lessIS7_EELb1EEENS5_IS9_EEE12__find_equalIS7_EERPNS_16__tree_node_baseIPvEENS_21__tree_const_iteratorIS9_PNS_11__tree_nodeIS9_SI_EElEERPNS_15__tree_end_nodeISK_EESL_RKT_
__ZNSt3__16__treeINS_12__value_typeINS_12basic_stringIcNS_11char_traitsIcEENS_9allocatorIcEEEE13SipDialogInfoEENS_19__map_value_compareIS7_S9_NS_4lessIS7_EELb1EEENS5_IS9_EEE16__construct_nodeIJRKNS_4pairIKS7_S8_EEEEENS_10unique_ptrINS_11__tree_nodeIS9_PvEENS_22__tree_node_destructorINS5_ISP_EEEEEEDpOT_
__ZNSt3__16__treeINS_12__value_typeINS_12basic_stringIcNS_11char_traitsIcEENS_9allocatorIcEEEE13SipDialogInfoEENS_19__map_value_compareIS7_S9_NS_4lessIS7_EELb1EEENS5_IS9_EEE16__insert_node_atEPNS_15__tree_end_nodeIPNS_16__tree_node_baseIPvEEEERSK_SK_
__ZNSt3__16__treeINS_12__value_typeINS_12basic_stringIcNS_11char_traitsIcEENS_9allocatorIcEEEE13SipDialogInfoEENS_19__map_value_compareIS7_S9_NS_4lessIS7_EELb1EEENS5_IS9_EEE12__find_equalIS7_EERPNS_16__tree_node_baseIPvEERPNS_15__tree_end_nodeISK_EERKT_
__ZNSt3__14pairIKNS_12basic_stringIcNS_11char_traitsIcEENS_9allocatorIcEEEE13SipDialogInfoEC2ERKS9_
__ZNSt3__122__tree_node_destructorINS_9allocatorINS_11__tree_nodeINS_12__value_typeINS_12basic_stringIcNS_11char_traitsIcEENS1_IcEEEE13SipDialogInfoEEPvEEEEEclB6v15006EPSC_
__ZNSt3__116allocator_traitsINS_9allocatorINS_11__tree_nodeINS_12__value_typeINS_12basic_stringIcNS_11char_traitsIcEENS1_IcEEEE13SipDialogInfoEEPvEEEEE7destroyB6v15006INS_4pairIKS8_S9_EEvvEEvRSD_PT_
__ZNSt3__16__treeINS_12__value_typeINS_12basic_stringIcNS_11char_traitsIcEENS_9allocatorIcEEEE13SipDialogInfoEENS_19__map_value_compareIS7_S9_NS_4lessIS7_EELb1EEENS5_IS9_EEE7destroyEPNS_11__tree_nodeIS9_PvEE
__ZN13SipDialogInfoC2ERKS_
__ZN24SipDialogParticipantInfoD1Ev
__ZN23SipDialogReferredByInfoD1Ev
__ZN21SipDialogReplacesInfoD1Ev
__ZN13SipDialogInfoD2Ev
__ZN14SipDialogStateC2E12SipDialogFSMRKNSt3__112basic_stringIcNS1_11char_traitsIcEENS1_9allocatorIcEEEES9_
__ZNSt3__16vectorI28SipDialogParticipantIdentityNS_9allocatorIS1_EEE6assignIPS1_EENS_9enable_ifIXaasr27__is_cpp17_forward_iteratorIT_EE5valuesr16is_constructibleIS1_NS_15iterator_traitsIS8_E9referenceEEE5valueEvE4typeES8_S8_
__ZNSt3__16vectorI28SipDialogParticipantIdentityNS_9allocatorIS1_EEE13__vdeallocateEv
__ZNSt3__16__treeINS_12__value_typeINS_12basic_stringIcNS_11char_traitsIcEENS_9allocatorIcEEEE13SipDialogInfoEENS_19__map_value_compareIS7_S9_NS_4lessIS7_EELb1EEENS5_IS9_EEE4findIS7_EENS_15__tree_iteratorIS9_PNS_11__tree_nodeIS9_PvEElEERKT_
__ZNSt3__16__treeINS_12__value_typeINS_12basic_stringIcNS_11char_traitsIcEENS_9allocatorIcEEEE13SipDialogInfoEENS_19__map_value_compareIS7_S9_NS_4lessIS7_EELb1EEENS5_IS9_EEE25__emplace_unique_key_argsIS7_JRKNS_21piecewise_construct_tENS_5tupleIJRKS7_EEENSK_IJEEEEEENS_4pairINS_15__tree_iteratorIS9_PNS_11__tree_nodeIS9_PvEElEEbEERKT_DpOT0_
__ZNSt3__16__treeINS_12__value_typeINS_12basic_stringIcNS_11char_traitsIcEENS_9allocatorIcEEEE13SipDialogInfoEENS_19__map_value_compareIS7_S9_NS_4lessIS7_EELb1EEENS5_IS9_EEE16__construct_nodeIJRKNS_21piecewise_construct_tENS_5tupleIJRKS7_EEENSK_IJEEEEEENS_10unique_ptrINS_11__tree_nodeIS9_PvEENS_22__tree_node_destructorINS5_ISS_EEEEEEDpOT_
__ZNSt3__14pairIKNS_12basic_stringIcNS_11char_traitsIcEENS_9allocatorIcEEEE13SipDialogInfoEC1B6v15006IJRS7_EJEEENS_21piecewise_construct_tENS_5tupleIJDpT_EEENSD_IJDpT0_EEE
__ZN13SipDialogInfoC2Ev
__ZNSt3__16__treeINS_12__value_typeINS_12basic_stringIcNS_11char_traitsIcEENS_9allocatorIcEEEE13SipDialogInfoEENS_19__map_value_compareIS7_S9_NS_4lessIS7_EELb1EEENS5_IS9_EEE14__erase_uniqueIS7_EEmRKT_
__ZNSt3__16__treeINS_12__value_typeINS_12basic_stringIcNS_11char_traitsIcEENS_9allocatorIcEEEE13SipDialogInfoEENS_19__map_value_compareIS7_S9_NS_4lessIS7_EELb1EEENS5_IS9_EEE5eraseENS_21__tree_const_iteratorIS9_PNS_11__tree_nodeIS9_PvEElEE
__ZNSt3__16__treeINS_12__value_typeINS_12basic_stringIcNS_11char_traitsIcEENS_9allocatorIcEEEE13SipDialogInfoEENS_19__map_value_compareIS7_S9_NS_4lessIS7_EELb1EEENS5_IS9_EEE21__remove_node_pointerEPNS_11__tree_nodeIS9_PvEE
__ZNSt3__16__treeINS_12__value_typeINS_12basic_stringIcNS_11char_traitsIcEENS_9allocatorIcEEEES7_EENS_19__map_value_compareIS7_S8_NS_4lessIS7_EELb1EEENS5_IS8_EEE4findIS7_EENS_15__tree_iteratorIS8_PNS_11__tree_nodeIS8_PvEElEERKT_
__ZNSt3__16__treeINS_12__value_typeINS_12basic_stringIcNS_11char_traitsIcEENS_9allocatorIcEEEE13SipDialogInfoEENS_19__map_value_compareIS7_S9_NS_4lessIS7_EELb1EEENS5_IS9_EEE14__assign_multiINS_21__tree_const_iteratorIS9_PNS_11__tree_nodeIS9_PvEElEEEEvT_SN_
__ZNSt3__16__treeINS_12__value_typeINS_12basic_stringIcNS_11char_traitsIcEENS_9allocatorIcEEEE13SipDialogInfoEENS_19__map_value_compareIS7_S9_NS_4lessIS7_EELb1EEENS5_IS9_EEE16__find_leaf_highERPNS_15__tree_end_nodeIPNS_16__tree_node_baseIPvEEEERKS7_
__ZNSt3__16__treeINS_12__value_typeINS_12basic_stringIcNS_11char_traitsIcEENS_9allocatorIcEEEE13SipDialogInfoEENS_19__map_value_compareIS7_S9_NS_4lessIS7_EELb1EEENS5_IS9_EEE18_DetachedTreeCache13__detach_nextEPNS_11__tree_nodeIS9_PvEE
__ZNSt3__16__treeINS_12__value_typeINS_12basic_stringIcNS_11char_traitsIcEENS_9allocatorIcEEEE13SipDialogInfoEENS_19__map_value_compareIS7_S9_NS_4lessIS7_EELb1EEENS5_IS9_EEE18_DetachedTreeCacheD2B6v15006Ev
__ZN18SipDialogEventDataaSEOS_
__ZN18SipDialogEventDataC2EOS_
__ZNKSt3__16vectorI18SipDialogEventDataNS_9allocatorIS1_EEE20__throw_length_errorB6v15006Ev
__ZNSt3__119__allocate_at_leastB6v15006INS_9allocatorI18SipDialogEventDataEEEENS_19__allocation_resultINS_16allocator_traitsIT_E7pointerEEERS6_m
__ZN18SipDialogEventDataC2ERKS_
__ZNSt3__114__split_bufferI18SipDialogEventDataRNS_9allocatorIS1_EEED2Ev
__ZN13XpcConnectionC2ENSt3__112basic_stringIcNS0_11char_traitsIcEENS0_9allocatorIcEEEEP16dispatch_queue_s
__ZN13XpcConnection23initializeConnection_nlEb
__ZN13XpcConnectionC2EP17_xpc_connection_sb
__ZN13XpcConnectionD2Ev
___Block_byref_object_copy_
___Block_byref_object_dispose_
___Block_byref_object_copy_.1
___Block_byref_object_dispose_.2
____ZN13XpcConnectionD2Ev_block_invoke
___copy_helper_block_e8_32r40r
___destroy_helper_block_e8_32r40r
____ZN13XpcConnection23initializeConnection_nlEb_block_invoke
____ZN13XpcConnection23initializeConnection_nlEb_block_invoke_2
____ZN13XpcConnection23initializeConnection_nlEb_block_invoke_3
__ZN13XpcConnection23setDisconnectionHandlerEU13block_pointerFvvE
__ZN13XpcConnection22setInterruptionHandlerEU13block_pointerFvvE
__ZN13XpcConnection20setHandlerForMessageENSt3__112basic_stringIcNS0_11char_traitsIcEENS0_9allocatorIcEEEEU13block_pointerFvRKN3xpc4dictEE
__ZN13XpcConnection20setHandlerForMessageENSt3__112basic_stringIcNS0_11char_traitsIcEENS0_9allocatorIcEEEEU13block_pointerFvRKN3xpc4dictERS8_E
__ZN13XpcConnection24setDefaultMessageHandlerEU13block_pointerFvRKN3xpc4dictEE
__ZNK13XpcConnection23sendXpcMessageWithReplyERKN3xpc4dictEU13block_pointerFvS3_E
____ZNK13XpcConnection23sendXpcMessageWithReplyERKN3xpc4dictEU13block_pointerFvS3_E_block_invoke
____ZL15setEventHandlerP17_xpc_connection_sU13block_pointerFvRKN3xpc4dictEEU13block_pointerFvvES8_PS8__block_invoke
___copy_helper_block_e8_32b40b48b56r
___destroy_helper_block_e8_32b40b48b56r
____ZL15setEventHandlerP17_xpc_connection_sU13block_pointerFvRKN3xpc4dictEEU13block_pointerFvvES8_PS8__block_invoke.17
___copy_helper_block_e8_32r
___destroy_helper_block_e8_32r
__ZNSt3__16__treeINS_12__value_typeINS_12basic_stringIcNS_11char_traitsIcEENS_9allocatorIcEEEEU13block_pointerFvRKN3xpc4dictEEEENS_19__map_value_compareIS7_SE_NS_4lessIS7_EELb1EEENS5_ISE_EEE7destroyEPNS_11__tree_nodeISE_PvEE
__ZNSt3__16__treeINS_12__value_typeINS_12basic_stringIcNS_11char_traitsIcEENS_9allocatorIcEEEEU13block_pointerFvRKN3xpc4dictERS9_EEENS_19__map_value_compareIS7_SF_NS_4lessIS7_EELb1EEENS5_ISF_EEE7destroyEPNS_11__tree_nodeISF_PvEE
__ZNKSt3__16vectorIU13block_pointerFvvENS_9allocatorIS2_EEE20__throw_length_errorB6v15006Ev
__ZNKSt3__16vectorIU13block_pointerFvRKN3xpc4dictEENS_9allocatorIS6_EEE20__throw_length_errorB6v15006Ev
__ZNSt3__119__allocate_at_leastB6v15006INS_9allocatorIU13block_pointerFvRKN3xpc4dictEEEEEENS_19__allocation_resultINS_16allocator_traitsIT_E7pointerEEERSB_m
__ZNSt3__16__treeINS_12__value_typeINS_12basic_stringIcNS_11char_traitsIcEENS_9allocatorIcEEEEU13block_pointerFvRKN3xpc4dictERS9_EEENS_19__map_value_compareIS7_SF_NS_4lessIS7_EELb1EEENS5_ISF_EEE4findIS7_EENS_15__tree_iteratorISF_PNS_11__tree_nodeISF_PvEElEERKT_
__ZNSt3__16__treeINS_12__value_typeINS_12basic_stringIcNS_11char_traitsIcEENS_9allocatorIcEEEEU13block_pointerFvRKN3xpc4dictEEEENS_19__map_value_compareIS7_SE_NS_4lessIS7_EELb1EEENS5_ISE_EEE4findIS7_EENS_15__tree_iteratorISE_PNS_11__tree_nodeISE_PvEElEERKT_
__ZNSt3__16__treeINS_12__value_typeINS_12basic_stringIcNS_11char_traitsIcEENS_9allocatorIcEEEEU13block_pointerFvRKN3xpc4dictEEEENS_19__map_value_compareIS7_SE_NS_4lessIS7_EELb1EEENS5_ISE_EEE25__emplace_unique_key_argsIS7_JRKNS_21piecewise_construct_tENS_5tupleIJRKS7_EEENSP_IJEEEEEENS_4pairINS_15__tree_iteratorISE_PNS_11__tree_nodeISE_PvEElEEbEERKT_DpOT0_
__ZNSt3__16__treeINS_12__value_typeINS_12basic_stringIcNS_11char_traitsIcEENS_9allocatorIcEEEEU13block_pointerFvRKN3xpc4dictEEEENS_19__map_value_compareIS7_SE_NS_4lessIS7_EELb1EEENS5_ISE_EEE12__find_equalIS7_EERPNS_16__tree_node_baseIPvEERPNS_15__tree_end_nodeISP_EERKT_
__ZNSt3__16__treeINS_12__value_typeINS_12basic_stringIcNS_11char_traitsIcEENS_9allocatorIcEEEEU13block_pointerFvRKN3xpc4dictEEEENS_19__map_value_compareIS7_SE_NS_4lessIS7_EELb1EEENS5_ISE_EEE16__construct_nodeIJRKNS_21piecewise_construct_tENS_5tupleIJRKS7_EEENSP_IJEEEEEENS_10unique_ptrINS_11__tree_nodeISE_PvEENS_22__tree_node_destructorINS5_ISX_EEEEEEDpOT_
__ZNSt3__16__treeINS_12__value_typeINS_12basic_stringIcNS_11char_traitsIcEENS_9allocatorIcEEEEU13block_pointerFvRKN3xpc4dictEEEENS_19__map_value_compareIS7_SE_NS_4lessIS7_EELb1EEENS5_ISE_EEE16__insert_node_atEPNS_15__tree_end_nodeIPNS_16__tree_node_baseIPvEEEERSP_SP_
__ZNSt3__122__tree_node_destructorINS_9allocatorINS_11__tree_nodeINS_12__value_typeINS_12basic_stringIcNS_11char_traitsIcEENS1_IcEEEEU13block_pointerFvRKN3xpc4dictEEEEPvEEEEEclB6v15006EPSH_
__ZNSt3__16__treeINS_12__value_typeINS_12basic_stringIcNS_11char_traitsIcEENS_9allocatorIcEEEEU13block_pointerFvRKN3xpc4dictERS9_EEENS_19__map_value_compareIS7_SF_NS_4lessIS7_EELb1EEENS5_ISF_EEE25__emplace_unique_key_argsIS7_JRKNS_21piecewise_construct_tENS_5tupleIJRKS7_EEENSQ_IJEEEEEENS_4pairINS_15__tree_iteratorISF_PNS_11__tree_nodeISF_PvEElEEbEERKT_DpOT0_
__ZNSt3__16__treeINS_12__value_typeINS_12basic_stringIcNS_11char_traitsIcEENS_9allocatorIcEEEEU13block_pointerFvRKN3xpc4dictERS9_EEENS_19__map_value_compareIS7_SF_NS_4lessIS7_EELb1EEENS5_ISF_EEE12__find_equalIS7_EERPNS_16__tree_node_baseIPvEERPNS_15__tree_end_nodeISQ_EERKT_
__ZNSt3__16__treeINS_12__value_typeINS_12basic_stringIcNS_11char_traitsIcEENS_9allocatorIcEEEEU13block_pointerFvRKN3xpc4dictERS9_EEENS_19__map_value_compareIS7_SF_NS_4lessIS7_EELb1EEENS5_ISF_EEE16__construct_nodeIJRKNS_21piecewise_construct_tENS_5tupleIJRKS7_EEENSQ_IJEEEEEENS_10unique_ptrINS_11__tree_nodeISF_PvEENS_22__tree_node_destructorINS5_ISY_EEEEEEDpOT_
__ZNSt3__16__treeINS_12__value_typeINS_12basic_stringIcNS_11char_traitsIcEENS_9allocatorIcEEEEU13block_pointerFvRKN3xpc4dictERS9_EEENS_19__map_value_compareIS7_SF_NS_4lessIS7_EELb1EEENS5_ISF_EEE16__insert_node_atEPNS_15__tree_end_nodeIPNS_16__tree_node_baseIPvEEEERSQ_SQ_
__ZNSt3__122__tree_node_destructorINS_9allocatorINS_11__tree_nodeINS_12__value_typeINS_12basic_stringIcNS_11char_traitsIcEENS1_IcEEEEU13block_pointerFvRKN3xpc4dictERSA_EEEPvEEEEEclB6v15006EPSI_
__ZNSt3__16vectorINS_12basic_stringIcNS_11char_traitsIcEENS_9allocatorIcEEEENS4_IS6_EEED1B6v15006Ev
__ZNK19BambiCallNamedEvent8fullNameEv
__ZN30BambiCallSessionRequestedEventD1Ev
__ZN30BambiCallSessionRequestedEventD0Ev
__ZN33BambiCallProvisionalResponseEventC2ERK11SipResponse
__ZN36BambiCallPreconditionsSatisfiedEventC2ERKNSt3__112basic_stringIcNS0_11char_traitsIcEENS0_9allocatorIcEEEE
__ZN36BambiCallPreconditionsSatisfiedEventC2ERKS_
__ZN29SessionTerminatedResultDomainD1Ev
__ZN36BambiCallSessionTerminationBaseEventC2EN14BambiCallEvent9EventCodeERK26BambiCallTerminationReason
__ZN36BambiCallSessionTerminationBaseEventC2EN14BambiCallEvent9EventCodeERKS_
__ZN36BambiCallSessionTerminationBaseEventD2Ev
__ZN36BambiCallSessionTerminationBaseEventD1Ev
__ZN36BambiCallSessionTerminationBaseEventD0Ev
__ZN36BambiCallSessionTerminationBaseEvent29setReasonFromOutgoingResponseERK11SipResponse
__ZN36BambiCallSessionTerminationBaseEvent29setReasonFromIncomingResponseERK11SipResponseRK35BambiCallIncomingTerminationReasons
__ZN36BambiCallSessionTerminationBaseEvent39setReasonFromIncomingByeOrCancelRequestERK10SipRequestRK35BambiCallIncomingTerminationReasons
__ZN36BambiCallSessionTerminationBaseEvent13reasonForNameERKNSt3__112basic_stringIcNS0_11char_traitsIcEENS0_9allocatorIcEEEE
__ZNK36BambiCallSessionTerminationBaseEvent8fullNameEv
__ZN24BambiCallConferenceEventC2ENS_19ConferenceEventCodeENSt3__16vectorIP26BambiConferenceParticipantNS1_9allocatorIS4_EEEE
__ZNK24BambiCallConferenceEvent8fullNameEv
__ZN19BambiCallNamedEventD1Ev
__ZN19BambiCallNamedEventD0Ev
__ZNK30BambiCallSessionRequestedEvent5cloneEv
__ZN24BambiCallConferenceEventD1Ev
__ZN24BambiCallConferenceEventD0Ev
__ZNK24BambiCallConferenceEvent5cloneEv
__ZN14BambiCallEventD1Ev
__ZN14BambiCallEventD0Ev
__ZN30BambiCallSessionConfirmedEventD1Ev
__ZN30BambiCallSessionConfirmedEventD0Ev
__ZNK30BambiCallSessionConfirmedEvent5cloneEv
__ZN36BambiCallPreconditionsSatisfiedEventD1Ev
__ZN36BambiCallPreconditionsSatisfiedEventD0Ev
__ZNK36BambiCallPreconditionsSatisfiedEvent5cloneEv
__ZN30BambiCallJoinedConferenceEventD1Ev
__ZN30BambiCallJoinedConferenceEventD0Ev
__ZNK30BambiCallJoinedConferenceEvent5cloneEv
__ZN37BambiCallSessionIntervalTooSmallEventD1Ev
__ZN37BambiCallSessionIntervalTooSmallEventD0Ev
__ZNK37BambiCallSessionIntervalTooSmallEvent5cloneEv
__ZN26BambiCallSessionMovedEventD1Ev
__ZN26BambiCallSessionMovedEventD0Ev
__ZNK26BambiCallSessionMovedEvent5cloneEv
__ZN34BambiCallHoldResumeIndicationEventD1Ev
__ZN34BambiCallHoldResumeIndicationEventD0Ev
__ZNK34BambiCallHoldResumeIndicationEvent5cloneEv
__ZN29SessionTerminatedResultDomainD0Ev
__ZNK29SessionTerminatedResultDomain17textForResultCodeEi
__ZNK29SessionTerminatedResultDomain7isErrorEi
__ZNSt3__16vectorIP26BambiConferenceParticipantNS_9allocatorIS2_EEE6assignIPS2_EENS_9enable_ifIXaasr27__is_cpp17_forward_iteratorIT_EE5valuesr16is_constructibleIS2_NS_15iterator_traitsIS9_E9referenceEEE5valueEvE4typeES9_S9_
___cxx_global_array_dtor
__GLOBAL__sub_I_BambiCallEvent.cpp
__ZN19SipDigestAuthSchemeC2ERKS_
__ZN19SipDigestAuthScheme5clearEv
__ZNK19SipDigestAuthScheme16encodeNonceCountER12ImsOutStream
__ZNK19SipDigestAuthScheme16encodeDirectivesEPNSt3__113unordered_mapINS0_12basic_stringIcNS0_11char_traitsIcEENS0_9allocatorIcEEEES7_NS0_4hashIS7_EENS0_8equal_toIS7_EENS5_INS0_4pairIKS7_S7_EEEEEEb
__ZN19SipDigestAuthScheme14parseDirectiveERKNSt3__112basic_stringIcNS0_11char_traitsIcEENS0_9allocatorIcEEEES8_
__ZN19SipDigestAuthScheme16_computeResponseERKNSt3__112basic_stringIcNS0_11char_traitsIcEENS0_9allocatorIcEEEERK6SipUriPK7SipBodyPKhm
__ZN19SipDigestAuthScheme16_computeResponseERKNSt3__112basic_stringIcNS0_11char_traitsIcEENS0_9allocatorIcEEEES8_S8_PKhm
__ZN19SipDigestAuthSchemeD1Ev
__ZN19SipDigestAuthSchemeD0Ev
__ZNSt3__112__hash_tableINS_17__hash_value_typeINS_12basic_stringIcNS_11char_traitsIcEENS_9allocatorIcEEEES7_EENS_22__unordered_map_hasherIS7_S8_NS_4hashIS7_EENS_8equal_toIS7_EELb1EEENS_21__unordered_map_equalIS7_S8_SD_SB_Lb1EEENS5_IS8_EEE25__emplace_unique_key_argsIS7_JRKNS_21piecewise_construct_tENS_5tupleIJOS7_EEENSN_IJEEEEEENS_4pairINS_15__hash_iteratorIPNS_11__hash_nodeIS8_PvEEEEbEERKT_DpOT0_
__GLOBAL__sub_I_SipDigestAuthScheme.cpp
__ZN22MediaSessionMultiStackC2ENSt3__110shared_ptrI30MediaSessionQueuedStateMachineEE
__ZN21MediaSessionInterfaceC2ENSt3__18weak_ptrI20MediaSessionDelegateEEyNS0_10shared_ptrI10RTPManagerEERKNS0_12basic_stringIcNS0_11char_traitsIcEENS0_9allocatorIcEEEERKN3ims8DispatchE
__ZN21MediaSessionInterfaceD2Ev
__ZN22MediaSessionMultiStack19registerForHandoverEv
__ZN22MediaSessionMultiStackD2Ev
__ZN22MediaSessionMultiStackD1Ev
__ZThn24_N22MediaSessionMultiStackD1Ev
__ZThn120_N22MediaSessionMultiStackD1Ev
__ZThn128_N22MediaSessionMultiStackD1Ev
__ZN22MediaSessionMultiStackD0Ev
__ZThn24_N22MediaSessionMultiStackD0Ev
__ZThn120_N22MediaSessionMultiStackD0Ev
__ZThn128_N22MediaSessionMultiStackD0Ev
__ZN22MediaSessionMultiStack12switchStacksENSt3__110shared_ptrI18RTPStackControllerEEU13block_pointerFv9ImsResultE
__ZNSt3__110shared_ptrIN22MediaSessionMultiStack16RTPStackSwitcherEEaSB6v15006EOS3_
__ZN22MediaSessionMultiStack16RTPStackSwitcher5startEv
__ZThn112_N22MediaSessionMultiStack12switchStacksENSt3__110shared_ptrI18RTPStackControllerEEU13block_pointerFv9ImsResultE
__ZN22MediaSessionMultiStack17stackSwitcherDoneENSt3__110shared_ptrINS_16RTPStackSwitcherEEE
__ZN22MediaSessionMultiStack16RTPStackSwitcherD2Ev
__ZN22MediaSessionMultiStack16RTPStackSwitcherD1Ev
__ZN22MediaSessionMultiStack16RTPStackSwitcherD0Ev
__ZN22MediaSessionMultiStack16RTPStackSwitcher16createNewSessionEv
__ZNSt3__110shared_ptrI30MediaSessionQueuedStateMachineEaSB6v15006EOS2_
__ZN22MediaSessionMultiStack16RTPStackSwitcher15newSessionReadyERK9ImsResult
__ZN22MediaSessionMultiStack16RTPStackSwitcher16setHandoverStateENS0_13HandoverStateE
__ZN22MediaSessionMultiStack16RTPStackSwitcher29handleMediaSessionInitializedENSt3__110shared_ptrI21MediaSessionInterfaceEE8RTPErrno
__ZThn24_N22MediaSessionMultiStack16RTPStackSwitcher29handleMediaSessionInitializedENSt3__110shared_ptrI21MediaSessionInterfaceEE8RTPErrno
__ZN22MediaSessionMultiStack16RTPStackSwitcher28handleMediaSessionTerminatedENSt3__110shared_ptrI21MediaSessionInterfaceEE8RTPErrno
__ZThn24_N22MediaSessionMultiStack16RTPStackSwitcher28handleMediaSessionTerminatedENSt3__110shared_ptrI21MediaSessionInterfaceEE8RTPErrno
__ZN22MediaSessionMultiStack16RTPStackSwitcher28handleMediaSessionConfiguredENSt3__110shared_ptrI21MediaSessionInterfaceEE8RTPErrno
__ZThn24_N22MediaSessionMultiStack16RTPStackSwitcher28handleMediaSessionConfiguredENSt3__110shared_ptrI21MediaSessionInterfaceEE8RTPErrno
__ZN22MediaSessionMultiStack16RTPStackSwitcher27handleMediaSessionActivatedENSt3__110shared_ptrI21MediaSessionInterfaceEE8RTPErrno
__ZThn24_N22MediaSessionMultiStack16RTPStackSwitcher27handleMediaSessionActivatedENSt3__110shared_ptrI21MediaSessionInterfaceEE8RTPErrno
__ZN22MediaSessionMultiStack16RTPStackSwitcher29handleMediaSessionDeactivatedENSt3__110shared_ptrI21MediaSessionInterfaceEE8RTPErrno
__ZThn24_N22MediaSessionMultiStack16RTPStackSwitcher29handleMediaSessionDeactivatedENSt3__110shared_ptrI21MediaSessionInterfaceEE8RTPErrno
__ZN22MediaSessionMultiStack16RTPStackSwitcher28handleMediaSessionMediaErrorENSt3__110shared_ptrI21MediaSessionInterfaceEE8RTPErrno
__ZThn24_N22MediaSessionMultiStack16RTPStackSwitcher28handleMediaSessionMediaErrorENSt3__110shared_ptrI21MediaSessionInterfaceEE8RTPErrno
__ZN22MediaSessionMultiStack31startTimerForDelayedStackSwitchEy14MediaDirectionbj
__ZN22MediaSessionMultiStack32cancelTimerForDelayedStackSwitchEb
__ZN22MediaSessionMultiStack26completeDelayedStackSwitchEv
__ZN22MediaSessionMultiStack11handleTimerEP17SipTimerContainerRKNSt3__112basic_stringIcNS2_11char_traitsIcEENS2_9allocatorIcEEEE
__ZThn120_N22MediaSessionMultiStack11handleTimerEP17SipTimerContainerRKNSt3__112basic_stringIcNS2_11char_traitsIcEENS2_9allocatorIcEEEE
__ZN22MediaSessionMultiStack16RTPStackSwitcher20nameForHandoverStateENS0_13HandoverStateE
__ZN22MediaSessionMultiStack10initializeERK9IpAddressbRKNSt3__112basic_stringIcNS3_11char_traitsIcEENS3_9allocatorIcEEEESB_14MediaDirectionNS3_8weak_ptrI10SDPSessionEE
__ZN22MediaSessionMultiStack9terminateEb
__ZN22MediaSessionMultiStack5startEb
__ZN22MediaSessionMultiStack4stopEb
__ZN22MediaSessionMultiStack12setDirectionERK14MediaDirectionb
__ZN22MediaSessionMultiStack16setConfigurationENSt3__18weak_ptrI10SDPSessionEE
__ZN22MediaSessionMultiStack9configureEb
__ZNK22MediaSessionMultiStack18transactionPendingEv
__ZNK22MediaSessionMultiStack6activeEv
__ZNK22MediaSessionMultiStack6pausedEv
__ZN22MediaSessionMultiStack9directionEv
__ZN22MediaSessionMultiStack9mediaTypeEv
__ZN22MediaSessionMultiStack19mediaSupportEnabledEN8SDPMedia9MediaTypeE
__ZN22MediaSessionMultiStack16startSendingDTMFEh
__ZN22MediaSessionMultiStack15stopSendingDTMFEv
__ZN22MediaSessionMultiStack14sendDTMFDigitsERKNSt3__16vectorIhNS0_9allocatorIhEEEE
__ZN22MediaSessionMultiStack11setDelegateENSt3__18weak_ptrI20MediaSessionDelegateEE
__ZN22MediaSessionMultiStack13clearDelegateEv
__ZNK22MediaSessionMultiStack12loggableNameEv
__ZThn24_N22MediaSessionMultiStack10initializeERK9IpAddressbRKNSt3__112basic_stringIcNS3_11char_traitsIcEENS3_9allocatorIcEEEESB_14MediaDirectionNS3_8weak_ptrI10SDPSessionEE
__ZThn24_N22MediaSessionMultiStack9terminateEb
__ZThn24_N22MediaSessionMultiStack5startEb
__ZThn24_N22MediaSessionMultiStack4stopEb
__ZThn24_N22MediaSessionMultiStack12setDirectionERK14MediaDirectionb
__ZThn24_N22MediaSessionMultiStack16setConfigurationENSt3__18weak_ptrI10SDPSessionEE
__ZThn24_N22MediaSessionMultiStack9configureEb
__ZThn24_NK22MediaSessionMultiStack18transactionPendingEv
__ZThn24_NK22MediaSessionMultiStack6activeEv
__ZThn24_NK22MediaSessionMultiStack6pausedEv
__ZThn24_N22MediaSessionMultiStack9directionEv
__ZThn24_N22MediaSessionMultiStack9mediaTypeEv
__ZThn24_N22MediaSessionMultiStack19mediaSupportEnabledEN8SDPMedia9MediaTypeE
__ZThn24_N22MediaSessionMultiStack16startSendingDTMFEh
__ZThn24_N22MediaSessionMultiStack15stopSendingDTMFEv
__ZThn24_N22MediaSessionMultiStack14sendDTMFDigitsERKNSt3__16vectorIhNS0_9allocatorIhEEEE
__ZThn24_N22MediaSessionMultiStack11setDelegateENSt3__18weak_ptrI20MediaSessionDelegateEE
__ZThn24_N22MediaSessionMultiStack13clearDelegateEv
__ZThn128_NK22MediaSessionMultiStack12loggableNameEv
__ZN20RTPSharedPointerBaseD1Ev
__ZN20RTPSharedPointerBaseD0Ev
__ZN21MediaSessionInterfaceD1Ev
__ZN21MediaSessionInterfaceD0Ev
__ZN20RTPSharedPointerBase9getSharedI22MediaSessionMultiStackEENSt3__110shared_ptrIT_EEv
__ZN20RTPSharedPointerBase9getSharedIN22MediaSessionMultiStack16RTPStackSwitcherEEENSt3__110shared_ptrIT_EEv
__ZNSt3__110shared_ptrI18RTPStackControllerED2B6v15006Ev
__ZNSt3__110shared_ptrIN22MediaSessionMultiStack16RTPStackSwitcherEED2B6v15006Ev
__ZNSt3__110shared_ptrI22MediaSessionMultiStackED2B6v15006Ev
__ZNSt3__110shared_ptrI25MediaSessionStackSwitcherED2B6v15006Ev
__ZNSt3__120__shared_ptr_emplaceIN22MediaSessionMultiStack16RTPStackSwitcherENS_9allocatorIS2_EEED1Ev
__ZNSt3__120__shared_ptr_emplaceIN22MediaSessionMultiStack16RTPStackSwitcherENS_9allocatorIS2_EEED0Ev
__ZNSt3__120__shared_ptr_emplaceIN22MediaSessionMultiStack16RTPStackSwitcherENS_9allocatorIS2_EEE16__on_zero_sharedEv
__ZNSt3__120__shared_ptr_emplaceIN22MediaSessionMultiStack16RTPStackSwitcherENS_9allocatorIS2_EEE21__on_zero_shared_weakEv
__ZN3ims6detail14to_string_implIyNSt3__117integral_constantIbLb0EEEEclERKy
____ZN15IMSClientRecord17callOnClientQueueEU13block_pointerFvPS_E_block_invoke
____ZN15IMSClientRecord17callOnClientQueueEU13block_pointerFvPS_E_block_invoke.8
__ZN15IMSClientRecordC2ERKNSt3__112basic_stringIcNS0_11char_traitsIcEENS0_9allocatorIcEEEEP16dispatch_queue_s
__ZN15IMSClientRecordD2Ev
__ZN15IMSClientRecord11updateQueueEP16dispatch_queue_s
____ZN16IMSClientManager12createClientERKNSt3__112basic_stringIcNS0_11char_traitsIcEENS0_9allocatorIcEEEEP16dispatch_queue_s_block_invoke
___copy_helper_block_e8_32c66_ZTSNSt3__112basic_stringIcNS_11char_traitsIcEENS_9allocatorIcEEEE
___destroy_helper_block_e8_32c66_ZTSNSt3__112basic_stringIcNS_11char_traitsIcEENS_9allocatorIcEEEE
____ZN16IMSClientManager12removeClientERKNSt3__112basic_stringIcNS0_11char_traitsIcEENS0_9allocatorIcEEEE_block_invoke
__ZN13ImsBlockQueue8addBlockIP11SipLockableEEvRK14LoggableStringT_U13block_pointerFvvE
__ZN13ImsBlockQueue8addBlockIN3ims7PhantomEEEvRK14LoggableStringT_U13block_pointerFvvE
__ZN13ImsBlockQueue8addBlockINSt3__110shared_ptrI21MediaSessionInterfaceEEEEvRK14LoggableStringT_U13block_pointerFvvE
____ZN16IMSClientManager18updateCallDelegateERKNSt3__112basic_stringIcNS0_11char_traitsIcEENS0_9allocatorIcEEEES8_NS0_10shared_ptrIN3ims17CallEventDelegateEEEP16dispatch_queue_s_block_invoke
___copy_helper_block_e8_32c66_ZTSNSt3__112basic_stringIcNS_11char_traitsIcEENS_9allocatorIcEEEE56c51_ZTSNSt3__110shared_ptrIN3ims17CallEventDelegateEEE72c66_ZTSNSt3__112basic_stringIcNS_11char_traitsIcEENS_9allocatorIcEEEE96c19_ZTSN3ims8DispatchE
___destroy_helper_block_e8_32c66_ZTSNSt3__112basic_stringIcNS_11char_traitsIcEENS_9allocatorIcEEEE56c51_ZTSNSt3__110shared_ptrIN3ims17CallEventDelegateEEE72c66_ZTSNSt3__112basic_stringIcNS_11char_traitsIcEENS_9allocatorIcEEEE96c19_ZTSN3ims8DispatchE
____ZN16IMSClientManager19updateStackDelegateERKNSt3__112basic_stringIcNS0_11char_traitsIcEENS0_9allocatorIcEEEES8_NS0_10shared_ptrIN3ims18StackEventDelegateEEEP16dispatch_queue_s_block_invoke
___copy_helper_block_e8_32c66_ZTSNSt3__112basic_stringIcNS_11char_traitsIcEENS_9allocatorIcEEEE56c52_ZTSNSt3__110shared_ptrIN3ims18StackEventDelegateEEE72c66_ZTSNSt3__112basic_stringIcNS_11char_traitsIcEENS_9allocatorIcEEEE96c19_ZTSN3ims8DispatchE
___destroy_helper_block_e8_32c66_ZTSNSt3__112basic_stringIcNS_11char_traitsIcEENS_9allocatorIcEEEE56c52_ZTSNSt3__110shared_ptrIN3ims18StackEventDelegateEEE72c66_ZTSNSt3__112basic_stringIcNS_11char_traitsIcEENS_9allocatorIcEEEE96c19_ZTSN3ims8DispatchE
____ZN16IMSClientManager21updateManagerDelegateERKNSt3__112basic_stringIcNS0_11char_traitsIcEENS0_9allocatorIcEEEES8_NS0_10shared_ptrIN3ims24CallManagerEventDelegateEEEP16dispatch_queue_s_block_invoke
___copy_helper_block_e8_32c66_ZTSNSt3__112basic_stringIcNS_11char_traitsIcEENS_9allocatorIcEEEE56c58_ZTSNSt3__110shared_ptrIN3ims24CallManagerEventDelegateEEE72c66_ZTSNSt3__112basic_stringIcNS_11char_traitsIcEENS_9allocatorIcEEEE96c19_ZTSN3ims8DispatchE
___destroy_helper_block_e8_32c66_ZTSNSt3__112basic_stringIcNS_11char_traitsIcEENS_9allocatorIcEEEE56c58_ZTSNSt3__110shared_ptrIN3ims24CallManagerEventDelegateEEE72c66_ZTSNSt3__112basic_stringIcNS_11char_traitsIcEENS_9allocatorIcEEEE96c19_ZTSN3ims8DispatchE
____ZN16IMSClientManager21updateMessageDelegateERKNSt3__112basic_stringIcNS0_11char_traitsIcEENS0_9allocatorIcEEEES8_NS0_10shared_ptrIN3ims20MessageEventDelegateEEEP16dispatch_queue_s_block_invoke
___copy_helper_block_e8_32c66_ZTSNSt3__112basic_stringIcNS_11char_traitsIcEENS_9allocatorIcEEEE56c54_ZTSNSt3__110shared_ptrIN3ims20MessageEventDelegateEEE72c66_ZTSNSt3__112basic_stringIcNS_11char_traitsIcEENS_9allocatorIcEEEE96c19_ZTSN3ims8DispatchE
___destroy_helper_block_e8_32c66_ZTSNSt3__112basic_stringIcNS_11char_traitsIcEENS_9allocatorIcEEEE56c54_ZTSNSt3__110shared_ptrIN3ims20MessageEventDelegateEEE72c66_ZTSNSt3__112basic_stringIcNS_11char_traitsIcEENS_9allocatorIcEEEE96c19_ZTSN3ims8DispatchE
____ZN16IMSClientManager18updateXcapDelegateERKNSt3__112basic_stringIcNS0_11char_traitsIcEENS0_9allocatorIcEEEES8_NS0_10shared_ptrIN3ims17XcapEventDelegateEEEP16dispatch_queue_s_block_invoke
___copy_helper_block_e8_32c66_ZTSNSt3__112basic_stringIcNS_11char_traitsIcEENS_9allocatorIcEEEE56c51_ZTSNSt3__110shared_ptrIN3ims17XcapEventDelegateEEE72c66_ZTSNSt3__112basic_stringIcNS_11char_traitsIcEENS_9allocatorIcEEEE96c19_ZTSN3ims8DispatchE
___destroy_helper_block_e8_32c66_ZTSNSt3__112basic_stringIcNS_11char_traitsIcEENS_9allocatorIcEEEE56c51_ZTSNSt3__110shared_ptrIN3ims17XcapEventDelegateEEE72c66_ZTSNSt3__112basic_stringIcNS_11char_traitsIcEENS_9allocatorIcEEEE96c19_ZTSN3ims8DispatchE
__ZN3ims17CallEventDelegate17handleActiveEventERKNSt3__112basic_stringIcNS1_11char_traitsIcEENS1_9allocatorIcEEEE
__ZN3ims17CallEventDelegate19handleInactiveEventERKNSt3__112basic_stringIcNS1_11char_traitsIcEENS1_9allocatorIcEEEE
__ZN3ims17CallEventDelegate17handleTryingEventERKNSt3__112basic_stringIcNS1_11char_traitsIcEENS1_9allocatorIcEEEE
__ZN3ims17CallEventDelegate18handleRingingEventERKNSt3__112basic_stringIcNS1_11char_traitsIcEENS1_9allocatorIcEEEE
__ZN3ims17CallEventDelegate17handleJoinedEventERKNSt3__112basic_stringIcNS1_11char_traitsIcEENS1_9allocatorIcEEEE
__ZN3ims17CallEventDelegate21handleInProgressEventERKNSt3__112basic_stringIcNS1_11char_traitsIcEENS1_9allocatorIcEEEE
__ZN3ims17CallEventDelegate21handleProceedingEventERKNSt3__112basic_stringIcNS1_11char_traitsIcEENS1_9allocatorIcEEEES9_
__ZN3ims17CallEventDelegate22handleMediaStatusEventERKNSt3__112basic_stringIcNS1_11char_traitsIcEENS1_9allocatorIcEEEEb
__ZN3ims17CallEventDelegate23handleRingbackToneEventERKNSt3__112basic_stringIcNS1_11char_traitsIcEENS1_9allocatorIcEEEEb
__ZN3ims17CallEventDelegate16handleHoldFailedERKNSt3__112basic_stringIcNS1_11char_traitsIcEENS1_9allocatorIcEEEE
__ZN3ims17CallEventDelegate18handleResumeFailedERKNSt3__112basic_stringIcNS1_11char_traitsIcEENS1_9allocatorIcEEEE
__ZN3ims17CallEventDelegate28handleTextMediaDetectedEventERKNSt3__112basic_stringIcNS1_11char_traitsIcEENS1_9allocatorIcEEEE
__ZN3ims17CallEventDelegate31handleTextMediaDeactivatedEventERKNSt3__112basic_stringIcNS1_11char_traitsIcEENS1_9allocatorIcEEEE
__ZN3ims17CallEventDelegate35handleTextMediaRemoteDirectionEventERKNSt3__112basic_stringIcNS1_11char_traitsIcEENS1_9allocatorIcEEEEb
__ZN3ims17CallEventDelegate23handleAcknowledgedEventERKNSt3__112basic_stringIcNS1_11char_traitsIcEENS1_9allocatorIcEEEE
__ZN3ims17CallEventDelegate27handleMediaInitializedEventERKNSt3__112basic_stringIcNS1_11char_traitsIcEENS1_9allocatorIcEEEE
__ZN3ims17CallEventDelegate25handleThumperCallRegisterERKNSt3__112basic_stringIcNS1_11char_traitsIcEENS1_9allocatorIcEEEE
__ZN3ims17CallEventDelegate27handleThumperCallDeregisterERKNSt3__112basic_stringIcNS1_11char_traitsIcEENS1_9allocatorIcEEEE
__ZN3ims17CallEventDelegate26handleTextStreamTokenEventERKNSt3__112basic_stringIcNS1_11char_traitsIcEENS1_9allocatorIcEEEEN3ctu2cf11CFSharedRefIK10__CFNumberEE
__ZN3ims17CallEventDelegate22handleResumeIndicationERKNSt3__112basic_stringIcNS1_11char_traitsIcEENS1_9allocatorIcEEEENS_13FlowDirectionENS_9MediaTypeE
__ZN3ims17CallEventDelegate20handleHoldIndicationERKNSt3__112basic_stringIcNS1_11char_traitsIcEENS1_9allocatorIcEEEENS_13FlowDirectionENS_9MediaTypeE
__ZN20IMSDelegateInterface9dumpStateER12ImsOutStream
__ZN3ims18StackEventDelegate24handleRegistrationActiveERKNS_22RegistrationActiveInfoE
__ZN3ims18StackEventDelegate23handleRegistrationEventERKNS_16RegistrationInfoE
__ZN3ims18StackEventDelegate17handleInitializedEv
__ZN3ims18StackEventDelegate19handleUninitializedEv
__ZN3ims18StackEventDelegate17handleInitializedEj
__ZN3ims18StackEventDelegate19handleUninitializedEj
__ZN3ims18StackEventDelegate14handlePdnResetEv
__ZN3ims18StackEventDelegate15handleStateDumpERKNSt3__112basic_stringIcNS1_11char_traitsIcEENS1_9allocatorIcEEEE
__ZN3ims18StackEventDelegate18handleAuthenticateERKNS_3aka7RequestE
__ZN3ims18StackEventDelegate25handleRegistrationAllowedEv
__ZN3ims18StackEventDelegate17handleClientErrorERKNSt3__112basic_stringIcNS1_11char_traitsIcEENS1_9allocatorIcEEEEj
__ZN3ims18StackEventDelegate28handleRegistrationIdentitiesERKNSt3__16vectorINS_20RegistrationIdentityENS1_9allocatorIS3_EEEE
__ZN3ims18StackEventDelegate28handleNewInitialRegistrationEv
__ZN3ims24CallManagerEventDelegate18handleMergeSuccessEv
__ZN3ims24CallManagerEventDelegate18handleMergeFailureEv
__ZN3ims24CallManagerEventDelegate30handleConferenceSubscribeEventEb
__ZN3ims24CallManagerEventDelegate30handleEmergencySessionFinishedEv
__ZN3ims24CallManagerEventDelegate22handleThumperCallErrorEb
__ZN3ims24CallManagerEventDelegate30handleMediaStackSwitchCompleteEbRKNS_10MediaStackERKNSt3__112basic_stringIcNS4_11char_traitsIcEENS4_9allocatorIcEEEE
__ZN3ims24CallManagerEventDelegate18handleMergeEnabledEb
__ZN3ims24CallManagerEventDelegate14handleUssdDataERKNSt3__112basic_stringIcNS1_11char_traitsIcEENS1_9allocatorIcEEEEb
__ZN3ims24CallManagerEventDelegate15handleUssdErrorERKNSt3__112basic_stringIcNS1_11char_traitsIcEENS1_9allocatorIcEEEEj
__ZN3ims24CallManagerEventDelegate26handleFallbackTimeoutEventERKNS_13AccessNetworkE
__ZN3ims24CallManagerEventDelegate19handleTransferEventEb
__ZN3ims20MessageEventDelegate24handleMessageSendFailureEb
__ZN3ims20MessageEventDelegate24handleMessageSendFailureERKNS_13MessageResultE
__ZN3ims20MessageEventDelegate24handleMessageSendSuccessEv
__ZN3ims20MessageEventDelegate24handleMessageSendSuccessERKNS_13MessageResultE
__ZN3ims17XcapEventDelegate27handleXcapRequestCompletionEN3ctu2cf11CFSharedRefIK14__CFDictionaryEE
__ZN3ims24CallManagerEventDelegateD1Ev
__ZN3ims24CallManagerEventDelegateD0Ev
__ZNSt3__16__treeINS_12__value_typeINS_12basic_stringIcNS_11char_traitsIcEENS_9allocatorIcEEEE14DelegateRecordINS_10shared_ptrIN3ims17XcapEventDelegateEEEEEENS_19__map_value_compareIS7_SE_NS_4lessIS7_EELb1EEENS5_ISE_EEE7destroyEPNS_11__tree_nodeISE_PvEE
__ZNSt3__116allocator_traitsINS_9allocatorINS_11__tree_nodeINS_12__value_typeINS_12basic_stringIcNS_11char_traitsIcEENS1_IcEEEE14DelegateRecordINS_10shared_ptrIN3ims17XcapEventDelegateEEEEEEPvEEEEE7destroyB6v15006INS_4pairIKS8_SE_EEvvEEvRSI_PT_
__ZNSt3__16__treeINS_12__value_typeINS_12basic_stringIcNS_11char_traitsIcEENS_9allocatorIcEEEE14DelegateRecordINS_10shared_ptrIN3ims17CallEventDelegateEEEEEENS_19__map_value_compareIS7_SE_NS_4lessIS7_EELb1EEENS5_ISE_EEE7destroyEPNS_11__tree_nodeISE_PvEE
__ZNSt3__116allocator_traitsINS_9allocatorINS_11__tree_nodeINS_12__value_typeINS_12basic_stringIcNS_11char_traitsIcEENS1_IcEEEE14DelegateRecordINS_10shared_ptrIN3ims17CallEventDelegateEEEEEEPvEEEEE7destroyB6v15006INS_4pairIKS8_SE_EEvvEEvRSI_PT_
__ZNSt3__16__treeINS_12__value_typeINS_12basic_stringIcNS_11char_traitsIcEENS_9allocatorIcEEEE14DelegateRecordINS_10shared_ptrIN3ims20MessageEventDelegateEEEEEENS_19__map_value_compareIS7_SE_NS_4lessIS7_EELb1EEENS5_ISE_EEE7destroyEPNS_11__tree_nodeISE_PvEE
__ZNSt3__116allocator_traitsINS_9allocatorINS_11__tree_nodeINS_12__value_typeINS_12basic_stringIcNS_11char_traitsIcEENS1_IcEEEE14DelegateRecordINS_10shared_ptrIN3ims20MessageEventDelegateEEEEEEPvEEEEE7destroyB6v15006INS_4pairIKS8_SE_EEvvEEvRSI_PT_
__ZNSt3__16__treeINS_12__value_typeINS_12basic_stringIcNS_11char_traitsIcEENS_9allocatorIcEEEE14DelegateRecordINS_10shared_ptrIN3ims24CallManagerEventDelegateEEEEEENS_19__map_value_compareIS7_SE_NS_4lessIS7_EELb1EEENS5_ISE_EEE7destroyEPNS_11__tree_nodeISE_PvEE
__ZNSt3__116allocator_traitsINS_9allocatorINS_11__tree_nodeINS_12__value_typeINS_12basic_stringIcNS_11char_traitsIcEENS1_IcEEEE14DelegateRecordINS_10shared_ptrIN3ims24CallManagerEventDelegateEEEEEEPvEEEEE7destroyB6v15006INS_4pairIKS8_SE_EEvvEEvRSI_PT_
__ZNSt3__16__treeINS_12__value_typeINS_12basic_stringIcNS_11char_traitsIcEENS_9allocatorIcEEEE14DelegateRecordINS_10shared_ptrIN3ims18StackEventDelegateEEEEEENS_19__map_value_compareIS7_SE_NS_4lessIS7_EELb1EEENS5_ISE_EEE7destroyEPNS_11__tree_nodeISE_PvEE
__ZNSt3__116allocator_traitsINS_9allocatorINS_11__tree_nodeINS_12__value_typeINS_12basic_stringIcNS_11char_traitsIcEENS1_IcEEEE14DelegateRecordINS_10shared_ptrIN3ims18StackEventDelegateEEEEEEPvEEEEE7destroyB6v15006INS_4pairIKS8_SE_EEvvEEvRSI_PT_
__ZN18IMSWrapperDelegateD2Ev
__ZN3ims12SharedHolderD2Ev
__ZNSt3__16__treeINS_12__value_typeINS_12basic_stringIcNS_11char_traitsIcEENS_9allocatorIcEEEENS_10shared_ptrIN3ims18StackEventDelegateEEEEENS_19__map_value_compareIS7_SC_NS_4lessIS7_EELb1EEENS5_ISC_EEE7destroyEPNS_11__tree_nodeISC_PvEE
__ZNSt3__16__treeINS_12__value_typeINS_12basic_stringIcNS_11char_traitsIcEENS_9allocatorIcEEEENS_10shared_ptrIN3ims17CallEventDelegateEEEEENS_19__map_value_compareIS7_SC_NS_4lessIS7_EELb1EEENS5_ISC_EEE7destroyEPNS_11__tree_nodeISC_PvEE
__ZNSt3__16__treeINS_12__value_typeINS_12basic_stringIcNS_11char_traitsIcEENS_9allocatorIcEEEENS_10shared_ptrIN3ims24CallManagerEventDelegateEEEEENS_19__map_value_compareIS7_SC_NS_4lessIS7_EELb1EEENS5_ISC_EEE7destroyEPNS_11__tree_nodeISC_PvEE
__ZNSt3__16__treeINS_12__value_typeINS_12basic_stringIcNS_11char_traitsIcEENS_9allocatorIcEEEENS_10shared_ptrIN3ims20MessageEventDelegateEEEEENS_19__map_value_compareIS7_SC_NS_4lessIS7_EELb1EEENS5_ISC_EEE7destroyEPNS_11__tree_nodeISC_PvEE
__ZNSt3__16__treeINS_12__value_typeINS_12basic_stringIcNS_11char_traitsIcEENS_9allocatorIcEEEENS_10shared_ptrIN3ims17XcapEventDelegateEEEEENS_19__map_value_compareIS7_SC_NS_4lessIS7_EELb1EEENS5_ISC_EEE7destroyEPNS_11__tree_nodeISC_PvEE
__ZN21IMSNullClientDelegateD1Ev
__ZN21IMSNullClientDelegateD0Ev
__ZN21IMSNullClientDelegate21handleDisconnectEventERKNSt3__112basic_stringIcNS0_11char_traitsIcEENS0_9allocatorIcEEEES8_RKN3ims14DisconnectInfoE
__ZN21IMSNullClientDelegate30handleEmergencySessionRequiredERKNSt3__112basic_stringIcNS0_11char_traitsIcEENS0_9allocatorIcEEEES8_b
__ZN21IMSNullClientDelegate19handleIncomingEventEPN3ims10CallHandleERKNS0_16CallIncomingInfoE
__ZN21IMSNullClientDelegate30handleRegistrationStateChangedERKN3ims17RegistrationStateE
__ZN21IMSNullClientDelegate21handleMessageReceivedERKN3ims11MessageInfoE
__ZThn8_N21IMSNullClientDelegateD1Ev
__ZThn8_N21IMSNullClientDelegateD0Ev
__ZThn8_N21IMSNullClientDelegate30handleRegistrationStateChangedERKN3ims17RegistrationStateE
__ZThn16_N21IMSNullClientDelegateD1Ev
__ZThn16_N21IMSNullClientDelegateD0Ev
__ZThn16_N21IMSNullClientDelegate19handleIncomingEventEPN3ims10CallHandleERKNS0_16CallIncomingInfoE
__ZThn48_N21IMSNullClientDelegateD1Ev
__ZThn48_N21IMSNullClientDelegateD0Ev
__ZThn48_N21IMSNullClientDelegate21handleMessageReceivedERKN3ims11MessageInfoE
__ZThn56_N21IMSNullClientDelegateD1Ev
__ZThn56_N21IMSNullClientDelegateD0Ev
__ZN7ImsLockD2Ev
__ZNSt3__110__list_impIP8ImsBlockNS_9allocatorIS2_EEE5clearEv
__ZNSt3__14pairINS_12basic_stringIcNS_11char_traitsIcEENS_9allocatorIcEEEENS_10shared_ptrIN3ims17CallEventDelegateEEEED1Ev
__ZNSt3__14pairINS_12basic_stringIcNS_11char_traitsIcEENS_9allocatorIcEEEENS_10shared_ptrIN3ims18StackEventDelegateEEEED1Ev
__ZNSt3__14pairINS_12basic_stringIcNS_11char_traitsIcEENS_9allocatorIcEEEENS_10shared_ptrIN3ims24CallManagerEventDelegateEEEED1Ev
__ZNSt3__14pairINS_12basic_stringIcNS_11char_traitsIcEENS_9allocatorIcEEEENS_10shared_ptrIN3ims20MessageEventDelegateEEEED1Ev
__ZNSt3__14pairINS_12basic_stringIcNS_11char_traitsIcEENS_9allocatorIcEEEENS_10shared_ptrIN3ims17XcapEventDelegateEEEED1Ev
__ZNSt3__110shared_ptrIN3ims18StackEventDelegateEED2B6v15006Ev
__ZNSt3__110shared_ptrIN3ims17CallEventDelegateEED2B6v15006Ev
__ZNSt3__110shared_ptrIN3ims24CallManagerEventDelegateEED2B6v15006Ev
__ZNSt3__110shared_ptrIN3ims20MessageEventDelegateEED2B6v15006Ev
__ZNSt3__110shared_ptrIN3ims17XcapEventDelegateEED2B6v15006Ev
__ZNSt3__16__treeINS_12__value_typeINS_12basic_stringIcNS_11char_traitsIcEENS_9allocatorIcEEEEP15IMSClientRecordEENS_19__map_value_compareIS7_SA_NS_4lessIS7_EELb1EEENS5_ISA_EEE7destroyEPNS_11__tree_nodeISA_PvEE
__ZNSt3__16__treeINS_12__value_typeINS_12basic_stringIcNS_11char_traitsIcEENS_9allocatorIcEEEEP15IMSClientRecordEENS_19__map_value_compareIS7_SA_NS_4lessIS7_EELb1EEENS5_ISA_EEE25__emplace_unique_key_argsIS7_JRKNS_21piecewise_construct_tENS_5tupleIJRKS7_EEENSL_IJEEEEEENS_4pairINS_15__tree_iteratorISA_PNS_11__tree_nodeISA_PvEElEEbEERKT_DpOT0_
__ZNSt3__16__treeINS_12__value_typeINS_12basic_stringIcNS_11char_traitsIcEENS_9allocatorIcEEEEP15IMSClientRecordEENS_19__map_value_compareIS7_SA_NS_4lessIS7_EELb1EEENS5_ISA_EEE12__find_equalIS7_EERPNS_16__tree_node_baseIPvEERPNS_15__tree_end_nodeISL_EERKT_
__ZNSt3__16__treeINS_12__value_typeINS_12basic_stringIcNS_11char_traitsIcEENS_9allocatorIcEEEEP15IMSClientRecordEENS_19__map_value_compareIS7_SA_NS_4lessIS7_EELb1EEENS5_ISA_EEE16__construct_nodeIJRKNS_21piecewise_construct_tENS_5tupleIJRKS7_EEENSL_IJEEEEEENS_10unique_ptrINS_11__tree_nodeISA_PvEENS_22__tree_node_destructorINS5_IST_EEEEEEDpOT_
__ZNSt3__16__treeINS_12__value_typeINS_12basic_stringIcNS_11char_traitsIcEENS_9allocatorIcEEEEP15IMSClientRecordEENS_19__map_value_compareIS7_SA_NS_4lessIS7_EELb1EEENS5_ISA_EEE16__insert_node_atEPNS_15__tree_end_nodeIPNS_16__tree_node_baseIPvEEEERSL_SL_
__ZNSt3__122__tree_node_destructorINS_9allocatorINS_11__tree_nodeINS_12__value_typeINS_12basic_stringIcNS_11char_traitsIcEENS1_IcEEEEP15IMSClientRecordEEPvEEEEEclB6v15006EPSD_
__ZNSt3__16__treeINS_12__value_typeINS_12basic_stringIcNS_11char_traitsIcEENS_9allocatorIcEEEEP15IMSClientRecordEENS_19__map_value_compareIS7_SA_NS_4lessIS7_EELb1EEENS5_ISA_EEE4findIS7_EENS_15__tree_iteratorISA_PNS_11__tree_nodeISA_PvEElEERKT_
__ZNSt3__16__treeINS_12__value_typeINS_12basic_stringIcNS_11char_traitsIcEENS_9allocatorIcEEEEP15IMSClientRecordEENS_19__map_value_compareIS7_SA_NS_4lessIS7_EELb1EEENS5_ISA_EEE5eraseENS_21__tree_const_iteratorISA_PNS_11__tree_nodeISA_PvEElEE
__ZNSt3__16__treeINS_12__value_typeINS_12basic_stringIcNS_11char_traitsIcEENS_9allocatorIcEEEEP15IMSClientRecordEENS_19__map_value_compareIS7_SA_NS_4lessIS7_EELb1EEENS5_ISA_EEE21__remove_node_pointerEPNS_11__tree_nodeISA_PvEE
____ZN13ImsBlockQueue8addBlockIP11SipLockableEEvRK14LoggableStringT_U13block_pointerFvvE_block_invoke
__ZN18ImsCapturableBlockIP11SipLockableEC2ERK14LoggableStringS1_U13block_pointerFvvE
__ZN18ImsCapturableBlockIP11SipLockableED1Ev
__ZN18ImsCapturableBlockIP11SipLockableED0Ev
__ZNK8ImsBlock12loggableNameEv
__ZN18ImsCapturableBlockIP11SipLockableE7performEv
__ZN23SipTypedTerminationLockI11SipLockableEC2IS0_vEEPS0_
____ZN13ImsBlockQueue8addBlockIN3ims7PhantomEEEvRK14LoggableStringT_U13block_pointerFvvE_block_invoke
__ZN18ImsCapturableBlockIN3ims7PhantomEED1Ev
__ZN18ImsCapturableBlockIN3ims7PhantomEED0Ev
__ZN18ImsCapturableBlockIN3ims7PhantomEE7performEv
__ZN3ims16PhantomReferenceC2ERKNS_7PhantomE
__ZN18ImsCapturableBlockIN3ims7PhantomEED2Ev
____ZN13ImsBlockQueue8addBlockINSt3__110shared_ptrI21MediaSessionInterfaceEEEEvRK14LoggableStringT_U13block_pointerFvvE_block_invoke
__ZN18ImsCapturableBlockINSt3__110shared_ptrI21MediaSessionInterfaceEEED1Ev
__ZN18ImsCapturableBlockINSt3__110shared_ptrI21MediaSessionInterfaceEEED0Ev
__ZN18ImsCapturableBlockINSt3__110shared_ptrI21MediaSessionInterfaceEEE7performEv
__ZNSt3__14listIP8ImsBlockNS_9allocatorIS2_EEE6assignINS_21__list_const_iteratorIS2_PvEEEEvT_SA_PNS_9enable_ifIXsr25__is_cpp17_input_iteratorISA_EE5valueEvE4typeE
__ZNSt3__14listIP8ImsBlockNS_9allocatorIS2_EEE6insertINS_21__list_const_iteratorIS2_PvEEEENS_15__list_iteratorIS2_S8_EES9_T_SC_PNS_9enable_ifIXsr25__is_cpp17_input_iteratorISC_EE5valueEvE4typeE
__ZNSt3__14listIP8ImsBlockNS_9allocatorIS2_EEE5eraseENS_21__list_const_iteratorIS2_PvEES8_
__ZNKSt3__16__treeINS_12__value_typeINS_12basic_stringIcNS_11char_traitsIcEENS_9allocatorIcEEEEP15IMSClientRecordEENS_19__map_value_compareIS7_SA_NS_4lessIS7_EELb1EEENS5_ISA_EEE4findIS7_EENS_21__tree_const_iteratorISA_PNS_11__tree_nodeISA_PvEElEERKT_
__GLOBAL__sub_I_IMSClientManager.cpp
__ZN8SipState9exitStateEj
__ZNK8SipState13timersEnabledEv
__ZNK8SipState12loggableNameEv
__ZThn8_NK8SipState12loggableNameEv
__ZN8SipStateD1Ev
__ZN8SipStateD0Ev
__ZN8SipState12stateMachineEv
__ZNK8SipState12stateMachineEv
__ZNK8SipState2idEv
__ZThn8_N8SipStateD1Ev
__ZThn8_N8SipStateD0Ev
__ZN13BambiServices19serviceMaskForNamesERKNSt3__112basic_stringIcNS0_11char_traitsIcEENS0_9allocatorIcEEEE
__ZN13BambiServices23nameArrayForServiceMaskEjPNSt3__16vectorINS0_12basic_stringIcNS0_11char_traitsIcEENS0_9allocatorIcEEEENS5_IS7_EEEE
__ZN13BambiServices19namesForServiceMaskEjRKNSt3__112basic_stringIcNS0_11char_traitsIcEENS0_9allocatorIcEEEE
__ZN13BambiServices20addServiceParametersEjP15SipParameterMap
__ZN13BambiServices19serviceFromKeyValueERKNSt3__112basic_stringIcNS0_11char_traitsIcEENS0_9allocatorIcEEEES8_
__ZN13BambiServices25serviceMaskFromParametersERK15SipParameterMap
__GLOBAL__sub_I_BambiServices.cpp
__ZNK21SDPTTYSettingsBuilder25createTTYSettingsForOfferENSt3__110shared_ptrI8SDPModelEERK8ImsPrefs
__ZNK21SDPTTYSettingsBuilder17createTTYSettingsENSt3__110shared_ptrI8SDPModelEES3_RK8ImsPrefs
__ZNK21SDPTTYSettingsBuilder31createTTYSettingsForOfferAnswerENSt3__110shared_ptrI8SDPModelEES3_RK8ImsPrefs
___Block_byref_object_copy_
___Block_byref_object_dispose_
__ZNSt3__18optionalI19SDPMediaTTYSettingsEaSB6v15006IS1_vEERS2_OT_
____ZNK21SDPTTYSettingsBuilder17createTTYSettingsENSt3__110shared_ptrI8SDPModelEES3_RK8ImsPrefs_block_invoke
___copy_helper_block_e8_32rc
____ZNK21SDPTTYSettingsBuilder17createTTYSettingsENSt3__110shared_ptrI8SDPModelEES3_RK8ImsPrefs_block_invoke.3
__ZNSt3__127__throw_bad_optional_accessB6v15006Ev
__ZNSt3__120__optional_copy_baseI19SDPMediaTTYSettingsLb0EEC2B6v15006ERKS2_
__ZNSt3__123__optional_storage_baseI19SDPMediaTTYSettingsLb0EE16__construct_fromB6v15006IRKNS_20__optional_copy_baseIS1_Lb0EEEEEvOT_
__ZNK22SipCallWaitingInfoBody11generateXmlEv
__ZN22SipCallWaitingInfoBodyD1Ev
__ZN22SipCallWaitingInfoBodyD0Ev
__ZNK22SipCallWaitingInfoBody5cloneEv
__ZNK22SipCallWaitingInfoBody11contentTypeEv
__ZN22SipCallWaitingInfoBody8rootItemEv
__GLOBAL__sub_I_SipCallWaitingInfoBody.cpp
__ZN18SipSupportedHeaderD1Ev
__ZN18SipSupportedHeaderD0Ev
__ZNK18SipSupportedHeader5cloneEv
__ZN29SipPComNameIdReputationHeader15parseParametersERK15SipParameterMap
__ZN29SipPComNameIdReputationHeaderD1Ev
__ZN29SipPComNameIdReputationHeaderD0Ev
__ZNK29SipPComNameIdReputationHeader5cloneEv
__GLOBAL__sub_I_SipPComNameIdReputationHeader.cpp
__ZN11SipUssdDataC2Ev
__ZN11SipUssdDataC2ERKS_
__ZN11SipUssdDataC2ERKNSt3__112basic_stringIcNS0_11char_traitsIcEENS0_9allocatorIcEEEES8_
__ZN11SipUssdData11createChildERKNSt3__112basic_stringIcNS0_11char_traitsIcEENS0_9allocatorIcEEEE
__ZN11SipUssdData7setTextERKNSt3__112basic_stringIcNS0_11char_traitsIcEENS0_9allocatorIcEEEES8_
__ZNK11SipUssdData13constructTreeEv
__ZThn8_NK11SipUssdData13constructTreeEv
__ZN11SipUssdDataD0Ev
__ZThn8_N11SipUssdDataD1Ev
__ZThn8_N11SipUssdDataD0Ev
__ZN17BambiCallActivityC2EP9BambiCallP22BambiStrictCallHandler
__ZN17BambiCallActivityD2Ev
__ZN17BambiCallActivityD1Ev
__ZThn8_N17BambiCallActivityD1Ev
__ZN17BambiCallActivityD0Ev
__ZThn8_N17BambiCallActivityD0Ev
__ZN17BambiCallActivity7performEv
__ZN17BambiCallActivity14invalidateCallEP9BambiCall
__ZN17BambiCallActivity16removeCallActionEP15BambiCallAction
__ZNSt3__14listIP15BambiCallActionNS_9allocatorIS2_EEE6removeERKS2_
__ZNK17BambiCallActivity3logER12ImsOutStream
__ZNK17BambiCallActivity12loggableNameEv
__ZNK17BambiCallActivity9logPrefixER12ImsOutStream
__ZThn8_NK17BambiCallActivity9logPrefixER12ImsOutStream
__ZNSt3__110__list_impIP15BambiCallActionNS_9allocatorIS2_EEE5clearEv
__ZNSt3__14listIP15BambiCallActionNS_9allocatorIS2_EEE6spliceENS_21__list_const_iteratorIS2_PvEERS5_S8_S8_
__ZN16KeepAliveWrapperC2ENSt3__112basic_stringIcNS0_11char_traitsIcEENS0_9allocatorIcEEEEjbP20ImsKeepAliveDelegate
__ZN18KeepAliveInterfaceC2ENSt3__112basic_stringIcNS0_11char_traitsIcEENS0_9allocatorIcEEEEjbP20ImsKeepAliveDelegate
__ZN18KeepAliveInterfaceD2Ev
__ZN18KeepAliveInterface13stopKeepAliveEv
__ZN18KeepAliveInterfaceD1Ev
__ZN18KeepAliveInterfaceD0Ev
__ZN18KeepAliveInterface14startKeepAliveEv
__ZNK22SipSessionStateMachine16stateMachineNameEv
__ZN22SipSessionStateMachineD1Ev
__ZN10SipSessionC1Ev
__ZN10SipSessionD2Ev
__ZN10SipSessionD1Ev
__ZThn80_N10SipSessionD1Ev
__ZThn152_N10SipSessionD1Ev
__ZThn544_N10SipSessionD1Ev
__ZThn552_N10SipSessionD1Ev
__ZN10SipSessionD0Ev
__ZThn80_N10SipSessionD0Ev
__ZThn152_N10SipSessionD0Ev
__ZThn544_N10SipSessionD0Ev
__ZThn552_N10SipSessionD0Ev
__ZNK10SipSession23requireQosBeforeRingingEv
__ZN10SipSession20removeAllAckHandlersEv
__ZN10SipSession18removePrackHandlerEj
__ZN10SipSession21initializeWithOptionsEP9SipDialogPK16BambiCallOptions
__ZN10SipSession10initializeEP9SipDialog
__ZN20SipTypedStateMachineI15SipSessionStateE8addStateEPS0_
__ZN20SipTypedStateMachineI15SipSessionStateE17transitionToStateEj
__ZN10SipSession13replaceDialogEP9SipDialogRK10SipRequestRK26BambiCallTerminationReason
__ZN10SipSession11sendRequestEP10SipRequestRKNSt3__112basic_stringIcNS2_11char_traitsIcEENS2_9allocatorIcEEEE
__ZN10SipSession21handleStateTransitionEjj
__ZThn544_N10SipSession21handleStateTransitionEjj
__ZN10SipSession13fireCallEventEP14BambiCallEvent
__ZN10SipSession25performPendingTerminationEN15SipSessionState14SessionStateIdEb
__ZN10SipSession18terminateWithEventEP14BambiCallEventN15SipSessionState14SessionStateIdE
__ZNK20SipTypedStateMachineI15SipSessionStateE14currentStateIdEv
__ZN10SipSession24reportSetupTimeoutToIRatEv
__ZN10SipSession27handleInitializationFailureEv
__ZNK10SipSession12loggableNameEv
__ZNK10SipSession9emergencyEv
__ZThn80_NK10SipSession12loggableNameEv
__ZN10SipSession24terminationLocksReleasedEv
__ZThn80_N10SipSession24terminationLocksReleasedEv
__ZN10SipSession14startPingTimerEv
__ZN10SipSession23clientInviteTransactionEv
__ZN10SipSession23serverInviteTransactionEv
__ZN10SipSession11handleTimerEP17SipTimerContainerRKNSt3__112basic_stringIcNS2_11char_traitsIcEENS2_9allocatorIcEEEE
__ZN10SipSession16rejectWithReasonERKNSt3__112basic_stringIcNS0_11char_traitsIcEENS0_9allocatorIcEEEE
__ZN10SipSession6hangUpERKNSt3__112basic_stringIcNS0_11char_traitsIcEENS0_9allocatorIcEEEEPNS_18SessionObjectValidE
__ZN10SipSession17sendPendingInviteEv
__ZN10SipSession10sendInviteERKNSt3__112basic_stringIcNS0_11char_traitsIcEENS0_9allocatorIcEEEE
__ZN10SipSession24handlePrackErrorResponseEj
__ZThn152_N10SipSession11handleTimerEP17SipTimerContainerRKNSt3__112basic_stringIcNS2_11char_traitsIcEENS2_9allocatorIcEEEE
__ZN10SipSession5referEPK9SipDialogRKNSt3__112basic_stringIcNS3_11char_traitsIcEENS3_9allocatorIcEEEEP28SipReferEventPackageDelegatePP20SipReferEventPackage
__ZN10SipSession5referERK6SipUriRKNSt3__112basic_stringIcNS3_11char_traitsIcEENS3_9allocatorIcEEEEP28SipReferEventPackageDelegatePP20SipReferEventPackageSB_SB_SB_
__ZN10SipSession5referERK6SipUriRKNSt3__112basic_stringIcNS3_11char_traitsIcEENS3_9allocatorIcEEEEP28SipReferEventPackageDelegatePP20SipReferEventPackage
__ZN10SipSession28createReplacesHeaderAsStringERKNSt3__112basic_stringIcNS0_11char_traitsIcEENS0_9allocatorIcEEEES8_S8_PS6_
__ZN9ImsResultlsIA42_cEERS_RKT_
__ZN10SipSession18makeLocalResumeSdpENSt3__110shared_ptrI8SDPModelEEb
__ZN10SipSession15addBodyToInviteEP10SipRequestRKNSt3__112basic_stringIcNS2_11char_traitsIcEENS2_9allocatorIcEEEE
__ZN10SipSession20addLocationToMessageEP10SipMessage
__ZN10SipSession20startLocalQosTimerMOEv
__ZN9ImsResultlsIA45_cEERS_RKT_
__ZN9ImsResultlsIA65_cEERS_RKT_
__ZN9ImsResultlsIA52_cEERS_RKT_
__ZN10SipMessage6headerI22SipAcceptContactHeaderEEPT_b
__ZN10SipMessage6headerI20SipPEarlyMediaHeaderEEPT_b
____ZN10SipSession10sendInviteEP10SipRequestRKNSt3__112basic_stringIcNS2_11char_traitsIcEENS2_9allocatorIcEEEE_block_invoke
__ZN10SipSession33handleQualityOfServiceEstablishedEjbRKNSt3__16vectorItNS0_9allocatorItEEEEb
__ZNK20SipTypedStateMachineI15SipSessionStateE12currentStateEv
__ZN10SipSession23sendRingingNotificationEv
__ZN10SipSession35sendResponseToInviteOrUpdateRequestEP11SipResponseP20SipServerTransaction
__ZN10SipSession16acceptInvitationEv
__ZN9ImsResultlsIA55_cEERS_RKT_
__ZN9ImsResultlsIP9BambiCallEERS_RKT_
__ZN10SipSession22handleSessionConfirmedEv
____ZN10SipSession22handleSessionConfirmedEv_block_invoke
__ZN10SipSession9handleAckERK10SipRequest
__ZN10SipSession3byeERKNSt3__112basic_stringIcNS0_11char_traitsIcEENS0_9allocatorIcEEEEb
__ZN10SipSession11handlePrackERK10SipRequestP20SipServerTransaction
__ZNK10SipMessage6headerI13SipRAckHeaderEEPKT_v
__ZN10SipSession12handleCancelERK10SipRequestP20SipServerTransaction
__ZN10SipSession29handleSessionProgressResponseERK11SipResponseP20SipClientTransaction
__ZN10SipSession21schedulePendingInviteEP20SipClientTransaction
__ZN10SipSession29schedulePendingReinviteForTTYEv
__ZN10SipSession12upgradeToRttEb
__ZN10SipSession23answerRttUpgradeRequestEv
__ZN10SipSession6hangUpERK26BambiCallTerminationReasonPNS_18SessionObjectValidE
__ZN10SipSession40generateResponseForInviteOrUpdateRequestERK10SipRequestP20SipServerTransactionP11SipResponse
__ZN10SipSession27handleInviteOrUpdateRequestERK10SipRequestP20SipServerTransaction
____ZN10SipSession27handleInviteOrUpdateRequestERK10SipRequestP20SipServerTransaction_block_invoke
__ZN9ImsResultlsIA39_cEERS_RKT_
__ZN10SipSession27generateTerminationResponseERK26BambiCallTerminationReasonP11SipResponse
__ZN10SipSession27generateTerminationResponseERK9ImsResultP11SipResponse
__ZN10SipSession18parseVerstatParamsERK10SipRequest
__ZN10SipSession26parseBrandedCallingHeadersERK10SipRequest
__ZN10SipSession16parseSpamHeadersERK10SipRequest
__ZNK10SipMessage6headerI21SipPBambiCallIdHeaderEEPKT_v
__ZN10SipSession19setVerstatValueFromERKNSt3__112basic_stringIcNS0_11char_traitsIcEENS0_9allocatorIcEEEES8_
__ZNK10SipMessage6headerI17SipCallInfoHeaderEEPKT_v
__ZNK10SipMessage6headerI13SipFromHeaderEEPKT_v
__ZN10SipSession10sendUpdateERKNSt3__112basic_stringIcNS0_11char_traitsIcEENS0_9allocatorIcEEEE
__ZN10SipSession26handleSessionMovedResponseERK11SipResponseP20SipClientTransaction
__ZNK10SipMessage6headerI16SipContactHeaderEEPKT_v
__ZN10SDPSession14applyOnStreamsIZN10SipSession33handleInviteOrUpdateErrorResponseERK11SipResponseP20SipClientTransactionP13SipDialogForkE3$_0EE9ImsResultOT_
__ZN10SipSession28handleInviteResponseToCancelERK11SipResponseP20SipClientTransaction
__ZNK10SipMessage6headerI20SipPEarlyMediaHeaderEEPKT_v
__ZN10SipSession23processEarlyMediaHeaderEPK20SipPEarlyMediaHeaderRKNSt3__112basic_stringIcNS3_11char_traitsIcEENS3_9allocatorIcEEEE
__ZN10SipSession28handleInviteOrUpdateResponseERK11SipResponseP20SipClientTransaction
__ZN10SipSession9handleByeERK10SipRequestP20SipServerTransaction
__ZN10SipSession13handleOptionsERK10SipRequestP20SipServerTransaction
__ZN10SipSession10handleInfoERK10SipRequestP20SipServerTransaction
__ZN10SipSession13handleRequestERK10SipRequestP20SipServerTransaction
__ZN10SipSession14handleResponseERK11SipResponseP20SipClientTransaction
__ZN10SipSession22handleTransactionErrorERK9ImsResultP14SipTransaction
__ZN10SipSession22handleOutgoingResponseEP11SipResponseP20SipServerTransaction
__ZNK10SipSession26prackHandlerForTransactionEPK26SipServerInviteTransaction
__ZNK10SipSession19currentPrackHandlerEv
__ZNK10SipSession23serverInviteTransactionEv
__ZNK10SipSession25hasOutstandingResponseSdpEv
__ZN10SipSession23removeClientTransactionEP20SipClientTransaction
__ZN10SipSession23removeServerTransactionEP20SipServerTransaction
__ZN10SipSession20addServerTransactionEP20SipServerTransaction
__ZN10SipSession25sendResponseInTransactionEP11SipResponseP20SipServerTransaction
__ZN9ImsResultlsIA34_cEERS_RKT_
__ZN10SipSession6cancelERK26BambiCallTerminationReason
__ZN10SipSession16rejectWithReasonERK26BambiCallTerminationReason
__ZN10SipSession12silentHangUpEN3ims16DisconnectReason10ReasonCodeE
__ZNK10SipSession26addTerminationSdpToMessageERK26BambiCallTerminationReasonP10SipMessageNSt3__110shared_ptrI8SDPModelEE
__ZN10SipSession14sendPendingByeEv
__ZN32BambiCallSessionTerminatingEventD1Ev
__ZN10SipSession3byeERK26BambiCallTerminationReasonb
__ZN10SipSession18sendSessionRefreshEv
__ZN10SipSession11sendPublishERKNSt3__112basic_stringIcNS0_11char_traitsIcEENS0_9allocatorIcEEEE
__ZN10SipSession23sendUpdateWithSdpInForkENSt3__110shared_ptrI8SDPModelEEP13SipDialogForkRKNS0_12basic_stringIcNS0_11char_traitsIcEENS0_9allocatorIcEEEE9SipReason
__ZN9SipReasonD1Ev
__ZN9ImsResultlsIA11_cEERS_RKT_
__ZN10SipSession32sendUpdateWithLocalSdpInAllForksERKNSt3__112basic_stringIcNS0_11char_traitsIcEENS0_9allocatorIcEEEE9SipReason
__ZN10SipSession14exitWPSCleanupEv
__ZNK10SipSession16printSessionInfoER12ImsOutStream
__ZNK10SipSession14nameForStateIdEj
__ZThn544_NK10SipSession14nameForStateIdEj
__ZNK10SipSession10terminatedEv
__ZN10SipSession26handleAuthChallengeTimeoutEv
__ZN10SipSession13handleNewForkEP13SipDialogFork
__ZN10SipSession20updateBearerForPortsEjbRKNSt3__16vectorItNS0_9allocatorItEEEEb
__ZN10SipSession26handleRemoteQoSEstablishedEjbRKNSt3__16vectorItNS0_9allocatorItEEEEb
__ZN10SipSession25handleLocalQoSEstablishedEb
____ZN10SipSession33handleQualityOfServiceEstablishedEjbRKNSt3__16vectorItNS0_9allocatorItEEEEb_block_invoke
____ZN10SipSession33handleQualityOfServiceEstablishedEjbRKNSt3__16vectorItNS0_9allocatorItEEEEb_block_invoke_2
__ZN10SipSession22sendPreconditionEventsERKNSt3__112basic_stringIcNS0_11char_traitsIcEENS0_9allocatorIcEEEE
__ZNK10SipSession8localSdpEv
__ZNK10SipSession21createLocalSdpForForkENSt3__110shared_ptrI8SDPModelEE
__ZN10SipSession33handleLocalPreconditionsSatisfiedERKNSt3__112basic_stringIcNS0_11char_traitsIcEENS0_9allocatorIcEEEE
__ZThn552_N10SipSession33handleLocalPreconditionsSatisfiedERKNSt3__112basic_stringIcNS0_11char_traitsIcEENS0_9allocatorIcEEEE
__ZN10SipSession34handlePreconditionsSatisfiedInForkERKNSt3__112basic_stringIcNS0_11char_traitsIcEENS0_9allocatorIcEEEE
____ZN10SipSession34handlePreconditionsSatisfiedInForkERKNSt3__112basic_stringIcNS0_11char_traitsIcEENS0_9allocatorIcEEEE_block_invoke
___copy_helper_block_e8_40c66_ZTSNSt3__112basic_stringIcNS_11char_traitsIcEENS_9allocatorIcEEEE
___destroy_helper_block_e8_40c66_ZTSNSt3__112basic_stringIcNS_11char_traitsIcEENS_9allocatorIcEEEE
__ZThn552_N10SipSession34handlePreconditionsSatisfiedInForkERKNSt3__112basic_stringIcNS0_11char_traitsIcEENS0_9allocatorIcEEEE
__ZNK10SipSession34isLocalQualityOfServiceEstablishedERKNSt3__112basic_stringIcNS0_11char_traitsIcEENS0_9allocatorIcEEEE
__ZThn552_NK10SipSession34isLocalQualityOfServiceEstablishedERKNSt3__112basic_stringIcNS0_11char_traitsIcEENS0_9allocatorIcEEEE
__ZN10SipSession24fillCommonRequestHeadersEP10SipRequest
__ZN10SipMessage6headerI16SipPrivacyHeaderEEPT_b
__ZN10SipSession7sendAckEP10SipRequestP26SipClientInviteTransactionb
____ZN10SipSession7sendAckEP10SipRequestP26SipClientInviteTransactionb_block_invoke
__ZN22SipSessionStateMachineD0Ev
__ZNK21SipSimpleStateMachineI15SipSessionStateE14nameForStateIdEj
__ZN21SipSimpleStateMachineI15SipSessionStateE21handleStateTransitionEPS0_S2_
__ZNK10SipSession15desiredServicesEv
__ZN29SipSimpleStateMachineDelegateD1Ev
__ZN29SipSimpleStateMachineDelegateD0Ev
__ZNK15SipStateMachine16stateMachineNameEv
__ZN20SipTypedStateMachineI15SipSessionStateED1Ev
__ZN20SipTypedStateMachineI15SipSessionStateED0Ev
__ZNK15SipStateMachine14nameForStateIdEj
__ZN20SipTypedStateMachineI15SipSessionStateED2Ev
__ZN26SipSessionClientEarlyStateD1Ev
__ZN26SipSessionClientEarlyStateD0Ev
__ZNK26SipSessionClientEarlyState2idEv
__ZThn8_N26SipSessionClientEarlyStateD1Ev
__ZThn8_N26SipSessionClientEarlyStateD0Ev
__ZN26SipSessionServerEarlyStateD1Ev
__ZN26SipSessionServerEarlyStateD0Ev
__ZNK26SipSessionServerEarlyState2idEv
__ZN15SipSessionState10enterStateEj
__ZThn8_N26SipSessionServerEarlyStateD1Ev
__ZThn8_N26SipSessionServerEarlyStateD0Ev
__ZN22SipCallWaitingInfoBodyC2Eb
__ZN26BambiCallTerminationReasonC2ERKS_
__ZN32BambiCallSessionTerminatingEventD0Ev
__ZNK32BambiCallSessionTerminatingEvent5cloneEv
__ZNSt3__16__treeINS_12__value_typeIjP15SipPrackHandlerEENS_19__map_value_compareIjS4_NS_4lessIjEELb1EEENS_9allocatorIS4_EEE7destroyEPNS_11__tree_nodeIS4_PvEE
__ZNSt3__112__hash_tableINS_17__hash_value_typeIjP15SipSessionStateEENS_22__unordered_map_hasherIjS4_NS_4hashIjEENS_8equal_toIjEELb1EEENS_21__unordered_map_equalIjS4_S9_S7_Lb1EEENS_9allocatorIS4_EEE4findIjEENS_15__hash_iteratorIPNS_11__hash_nodeIS4_PvEEEERKT_
__ZNK21SipMessageEncodingMap15headerPrototypeI17SipReplacesHeaderEEPKT_v
__ZNSt3__115allocate_sharedB6v15006I8SDPModelNS_9allocatorIS1_EEJRKNS_10shared_ptrIS1_EEEvEENS4_IT_EERKT0_DpOT1_
__ZNSt3__120__shared_ptr_emplaceI8SDPModelNS_9allocatorIS1_EEEC2B6v15006IJRKNS_10shared_ptrIS1_EEEEES3_DpOT_
__ZNSt3__16vectorItNS_9allocatorItEEE11__vallocateB6v15006Em
__ZNSt3__16vectorItNS_9allocatorItEEE6assignIPtEENS_9enable_ifIXaasr27__is_cpp17_forward_iteratorIT_EE5valuesr16is_constructibleItNS_15iterator_traitsIS7_E9referenceEEE5valueEvE4typeES7_S7_
___cxx_global_array_dtor
__GLOBAL__sub_I_SipSession.cpp
__ZN25XcapDocumentCommDiversionC2Ev
__ZN25XcapDocumentCommDiversionD2Ev
__ZN25XcapDocumentCommDiversionD1Ev
__ZThn8_N25XcapDocumentCommDiversionD1Ev
__ZN25XcapDocumentCommDiversionD0Ev
__ZThn8_N25XcapDocumentCommDiversionD0Ev
__ZN25XcapDocumentCommDiversion11createChildERKNSt3__112basic_stringIcNS0_11char_traitsIcEENS0_9allocatorIcEEEE
__ZN25XcapDocumentCommDiversion10parseChildERKNSt3__112basic_stringIcNS0_11char_traitsIcEENS0_9allocatorIcEEEERKN5bambi13XmlParserNodeE
__ZNK25XcapDocumentCommDiversion13constructTreeEv
__ZThn8_NK25XcapDocumentCommDiversion13constructTreeEv
__ZNK25XcapDocumentCommDiversion8asStringEv
__ZNK25XcapDocumentCommDiversion12findRuleByIdERKNSt3__112basic_stringIcNS0_11char_traitsIcEENS0_9allocatorIcEEEE
__ZNK25XcapDocumentCommDiversion20findRuleForConditionEN15XcapCDCondition9ConditionE
__ZN25XcapDocumentCommDiversion7addRuleERK10XcapCDRule
__ZN25XcapDocumentCommDiversion10deleteRuleEP10XcapCDRule
__ZNK25XcapDocumentCommDiversion14getItemForPathERKNSt3__16vectorINS0_12basic_stringIcNS0_11char_traitsIcEENS0_9allocatorIcEEEENS5_IS7_EEEE
__ZN25XcapDocumentCommDiversion14setItemForPathERKNSt3__16vectorINS0_12basic_stringIcNS0_11char_traitsIcEENS0_9allocatorIcEEEENS5_IS7_EEEERKS7_
__ZN10XcapCDRuleD1Ev
__ZNSt3__110shared_ptrI15XcapCDConditionE5resetB6v15006IS1_vEEvPT_
__ZNK25XcapDocumentCommDiversion5cloneEv
__ZNKSt3__16vectorIP10XcapCDRuleNS_9allocatorIS2_EEE20__throw_length_errorB6v15006Ev
__ZNSt3__119__allocate_at_leastB6v15006INS_9allocatorIP10XcapCDRuleEEEENS_19__allocation_resultINS_16allocator_traitsIT_E7pointerEEERS7_m
__ZNSt3__110shared_ptrI15XcapCDConditionED2B6v15006Ev
__ZNSt3__115allocate_sharedB6v15006I15XcapCDConditionNS_9allocatorIS1_EEJEvEENS_10shared_ptrIT_EERKT0_DpOT1_
__ZNSt3__120__shared_ptr_emplaceI15XcapCDConditionNS_9allocatorIS1_EEEC2B6v15006IJEEES3_DpOT_
__ZNSt3__120__shared_ptr_emplaceI15XcapCDConditionNS_9allocatorIS1_EEED1Ev
__ZNSt3__120__shared_ptr_emplaceI15XcapCDConditionNS_9allocatorIS1_EEED0Ev
__ZNSt3__120__shared_ptr_emplaceI15XcapCDConditionNS_9allocatorIS1_EEE16__on_zero_sharedEv
__ZNSt3__120__shared_ptr_emplaceI15XcapCDConditionNS_9allocatorIS1_EEE21__on_zero_shared_weakEv
__ZNSt3__120__shared_ptr_pointerIP15XcapCDConditionNS_10shared_ptrIS1_E27__shared_ptr_default_deleteIS1_S1_EENS_9allocatorIS1_EEED1Ev
__ZNSt3__120__shared_ptr_pointerIP15XcapCDConditionNS_10shared_ptrIS1_E27__shared_ptr_default_deleteIS1_S1_EENS_9allocatorIS1_EEED0Ev
__ZNSt3__120__shared_ptr_pointerIP15XcapCDConditionNS_10shared_ptrIS1_E27__shared_ptr_default_deleteIS1_S1_EENS_9allocatorIS1_EEE16__on_zero_sharedEv
__ZNKSt3__120__shared_ptr_pointerIP15XcapCDConditionNS_10shared_ptrIS1_E27__shared_ptr_default_deleteIS1_S1_EENS_9allocatorIS1_EEE13__get_deleterERKSt9type_info
__ZNSt3__120__shared_ptr_pointerIP15XcapCDConditionNS_10shared_ptrIS1_E27__shared_ptr_default_deleteIS1_S1_EENS_9allocatorIS1_EEE21__on_zero_shared_weakEv
__GLOBAL__sub_I_XcapDocumentCommDiversion.cpp
__ZN18RTCPReceiverReport9packetizeEv
__ZNK18RTCPReceiverReport8toStreamER12ImsOutStream
__ZN19RTCPReceiverReports9addReportE18RTCPReceiverReport
__ZN19RTCPReceiverReports9packetizeEv
__ZNSt3__16vectorIjNS_9allocatorIjEEE6insertINS_11__wrap_iterIPjEEEENS_9enable_ifIXaasr27__is_cpp17_forward_iteratorIT_EE5valuesr16is_constructibleIjNS_15iterator_traitsIS9_E9referenceEEE5valueES7_E4typeENS5_IPKjEES9_S9_
__ZNK19RTCPReceiverReports8toStreamER12ImsOutStream
__ZNKSt3__16vectorI18RTCPReceiverReportNS_9allocatorIS1_EEE20__throw_length_errorB6v15006Ev
__ZNSt3__119__allocate_at_leastB6v15006INS_9allocatorI18RTCPReceiverReportEEEENS_19__allocation_resultINS_16allocator_traitsIT_E7pointerEEERS6_m
__ZN3ims8Dispatch5resetEP16dispatch_queue_s
__ZN23SipSecurityClientHeaderD1Ev
__ZN23SipSecurityClientHeaderD0Ev
__ZNK23SipSecurityClientHeader5cloneEv
__ZNSt3__13mapIN15XcapCDCondition9ConditionEKNS_12basic_stringIcNS_11char_traitsIcEENS_9allocatorIcEEEENS_4lessIS2_EENS6_INS_4pairIKS2_S9_EEEEED1B6v15006Ev
__ZNSt3__13mapINS_4pairIN15XcapCDCondition9ConditionENS2_5MediaEEEKNS_12basic_stringIcNS_11char_traitsIcEENS_9allocatorIcEEEENS_4lessIS5_EENS9_INS1_IKS5_SC_EEEEED1B6v15006Ev
__ZNSt3__13mapIN15XcapCDCondition5MediaEKNS_12basic_stringIcNS_11char_traitsIcEENS_9allocatorIcEEEENS_4lessIS2_EENS6_INS_4pairIKS2_S9_EEEEED1B6v15006Ev
__ZN15XcapCDConditionC2Ev
__ZNK15XcapCDCondition5cloneEv
__ZNK15XcapCDCondition8asStringEv
__ZN15XcapCDCondition10parseChildERKNSt3__112basic_stringIcNS0_11char_traitsIcEENS0_9allocatorIcEEEERKN5bambi13XmlParserNodeE
__ZNK15XcapCDCondition13constructTreeEv
__ZThn8_NK15XcapCDCondition13constructTreeEv
__ZN15XcapCDConditionD1Ev
__ZN15XcapCDConditionD0Ev
__ZThn8_N15XcapCDConditionD1Ev
__ZThn8_N15XcapCDConditionD0Ev
__ZNSt3__16__treeINS_12__value_typeIN15XcapCDCondition9ConditionEKNS_12basic_stringIcNS_11char_traitsIcEENS_9allocatorIcEEEEEENS_19__map_value_compareIS3_SB_NS_4lessIS3_EELb1EEENS7_ISB_EEE16__insert_node_atEPNS_15__tree_end_nodeIPNS_16__tree_node_baseIPvEEEERSM_SM_
__ZNSt3__16__treeINS_12__value_typeIN15XcapCDCondition9ConditionEKNS_12basic_stringIcNS_11char_traitsIcEENS_9allocatorIcEEEEEENS_19__map_value_compareIS3_SB_NS_4lessIS3_EELb1EEENS7_ISB_EEE7destroyEPNS_11__tree_nodeISB_PvEE
__ZNSt3__16__treeINS_12__value_typeINS_4pairIN15XcapCDCondition9ConditionENS3_5MediaEEEKNS_12basic_stringIcNS_11char_traitsIcEENS_9allocatorIcEEEEEENS_19__map_value_compareIS6_SE_NS_4lessIS6_EELb1EEENSA_ISE_EEE7destroyEPNS_11__tree_nodeISE_PvEE
__ZNSt3__16__treeINS_12__value_typeIN15XcapCDCondition5MediaEKNS_12basic_stringIcNS_11char_traitsIcEENS_9allocatorIcEEEEEENS_19__map_value_compareIS3_SB_NS_4lessIS3_EELb1EEENS7_ISB_EEE16__insert_node_atEPNS_15__tree_end_nodeIPNS_16__tree_node_baseIPvEEEERSM_SM_
__ZNSt3__16__treeINS_12__value_typeIN15XcapCDCondition5MediaEKNS_12basic_stringIcNS_11char_traitsIcEENS_9allocatorIcEEEEEENS_19__map_value_compareIS3_SB_NS_4lessIS3_EELb1EEENS7_ISB_EEE7destroyEPNS_11__tree_nodeISB_PvEE
__ZNSt3__16__treeINS_12__value_typeIN15XcapCDCondition9ConditionEKNS_12basic_stringIcNS_11char_traitsIcEENS_9allocatorIcEEEEEENS_19__map_value_compareIS3_SB_NS_4lessIS3_EELb1EEENS7_ISB_EEE25__emplace_unique_key_argsIS3_JRKNS_21piecewise_construct_tENS_5tupleIJRKS3_EEENSM_IJEEEEEENS_4pairINS_15__tree_iteratorISB_PNS_11__tree_nodeISB_PvEElEEbEERKT_DpOT0_
__ZNSt3__16__treeINS_12__value_typeIN15XcapCDCondition9ConditionEKNS_12basic_stringIcNS_11char_traitsIcEENS_9allocatorIcEEEEEENS_19__map_value_compareIS3_SB_NS_4lessIS3_EELb1EEENS7_ISB_EEE25__emplace_unique_key_argsIS3_JRKNS_21piecewise_construct_tENS_5tupleIJOS3_EEENSM_IJEEEEEENS_4pairINS_15__tree_iteratorISB_PNS_11__tree_nodeISB_PvEElEEbEERKT_DpOT0_
__GLOBAL__sub_I_XcapCDCondition.cpp
__ZNSt3__16vectorIjNS_9allocatorIjEEED1B6v15006Ev
__ZN17SipTransportLayer5StateD1Ev
__ZN17SipTransportLayer19IncomingMessageList3addEP18IncomingSipMessage
__ZNK17SipTransportLayer11isEmergencyEv
__ZN17SipTransportLayer15messageEncodingEv
__ZN17SipTransportLayer11dumpMessageERK10SipMessagePKhmbRKNSt3__112basic_stringIcNS5_11char_traitsIcEENS5_9allocatorIcEEEERK9IpAddressSG_bb
__ZN17SipTransportLayerC2EP8SipStack
__ZN17SipTransportLayerD2Ev
__ZN17SipTransportLayer28dropDeferredIncomingMessagesEv
__ZN17SipTransportLayer15closeTransportsEv
__ZN17SipTransportLayerD1Ev
__ZThn16_N17SipTransportLayerD1Ev
__ZThn24_N17SipTransportLayerD1Ev
__ZThn32_N17SipTransportLayerD1Ev
__ZThn40_N17SipTransportLayerD1Ev
__ZThn120_N17SipTransportLayerD1Ev
__ZThn128_N17SipTransportLayerD1Ev
__ZN17SipTransportLayerD0Ev
__ZThn16_N17SipTransportLayerD0Ev
__ZThn24_N17SipTransportLayerD0Ev
__ZThn32_N17SipTransportLayerD0Ev
__ZThn40_N17SipTransportLayerD0Ev
__ZThn120_N17SipTransportLayerD0Ev
__ZThn128_N17SipTransportLayerD0Ev
__ZN17SipTransportLayer12setInterfaceEP16NetworkInterface
__ZN17SipTransportLayer8setStateERKNS_5StateE
__ZNK17SipTransportLayer5StateeqERKS0_
__ZN17SipTransportLayer10initializeEv
__ZN17SipTransportLayer12deinitializeEv
__ZN17SipTransportLayer20resetTransportErrorsERKNSt3__112basic_stringIcNS0_11char_traitsIcEENS0_9allocatorIcEEEE
__ZN17SipTransportLayer19cancelTransportInitEv
__ZNK17SipTransportLayer18localClientAddressEv
__ZN17SipTransportLayer26initializeTransportToProxyERKNSt3__14listI6SipUriNS0_9allocatorIS2_EEEEmP24SipTransportInitDelegate
__ZN17SipTransportLayer14notifyDelegateERK9ImsResultP24SipTransportInitDelegate
__ZN17SipTransportLayer24initializeTransportGroupEv
__ZN17SipTransportLayer40waitUntilProxyIsReachableViaLocalAddressEv
__ZN17SipTransportLayer11handleTimerEP17SipTimerContainerRKNSt3__112basic_stringIcNS2_11char_traitsIcEENS2_9allocatorIcEEEE
__ZN17SipTransportLayer31processDeferredIncomingMessagesEv
__ZThn16_N17SipTransportLayer11handleTimerEP17SipTimerContainerRKNSt3__112basic_stringIcNS2_11char_traitsIcEENS2_9allocatorIcEEEE
__ZN17SipTransportLayer30resolveLocalAddressFromProxiesEb
__ZN17SipTransportLayer19reachabilityChangedERK29ImsNetworkReachabilityMonitorRK26ImsNetworkReachabilityInfo
__ZThn32_N17SipTransportLayer19reachabilityChangedERK29ImsNetworkReachabilityMonitorRK26ImsNetworkReachabilityInfo
__ZN17SipTransportLayer23networkInterfaceChangedERKNSt3__112basic_stringIcNS0_11char_traitsIcEENS0_9allocatorIcEEEEONS0_10unique_ptrI16NetworkInterfaceNS0_14default_deleteISA_EEEE
__ZThn24_N17SipTransportLayer23networkInterfaceChangedERKNSt3__112basic_stringIcNS0_11char_traitsIcEENS0_9allocatorIcEEEEONS0_10unique_ptrI16NetworkInterfaceNS0_14default_deleteISA_EEEE
__ZNK17SipTransportLayer17maxUdpMessageSizeEv
__ZNK17SipTransportLayer15fillContactHostEP6SipUri
__ZN17SipTransportLayer11sendMessageEP10SipMessagePP21SipTransportInterface
__ZN17SipTransportLayer17logMessageMetricsEP10SipMessagebRKNSt3__112basic_stringIcNS2_11char_traitsIcEENS2_9allocatorIcEEEE
__ZN17SipTransportLayer26setServiceRouteFromMessageERK10SipMessage
__ZNK17SipTransportLayer18printTransportInfoER12ImsOutStream
__ZNK17SipTransportLayer17dropInfoForMethodERKNSt3__112basic_stringIcNS0_11char_traitsIcEENS0_9allocatorIcEEEEb
__ZNK17SipTransportLayer17shouldDropMessageERK10SipMessageb
__ZN17SipTransportLayer27processMessageFromTransportEP10SipMessagePKhmbRK9IpAddressP17SipTransportGroupP16SipTcpConnection
__ZN17SipTransportLayer20createIPSecTransportEP9ImsResultb
__ZN17SipTransportLayer17setIPSecTransportEP22SipIPSecTransportGroup
__ZN17SipTransportLayer20handleTransportErrorERK9ImsResult
__ZNK17SipTransportLayer9logPrefixER12ImsOutStream
__ZThn40_NK17SipTransportLayer9logPrefixER12ImsOutStream
__ZNK17SipTransportLayer12loggableNameEv
__ZThn120_NK17SipTransportLayer12loggableNameEv
__ZN17SipTransportLayer21ipsecTransportExpiredEP22SipIPSecTransportGroup
__ZThn128_N17SipTransportLayer21ipsecTransportExpiredEP22SipIPSecTransportGroup
__ZN17SipTransportLayer17removeConnectionsEbb
__ZN17SipTransportLayer18updateServiceClassEv
__ZNK17SipTransportLayer6configEv
__ZN17SipTransportLayer6configEv
__ZN17SipTransportLayer21setDropMaskFromStringERKNSt3__112basic_stringIcNS0_11char_traitsIcEENS0_9allocatorIcEEEEb
__ZN17SipTransportLayer16keepAliveManagerEv
__ZN17SipTransportLayer14networkManagerEv
__ZNK17SipTransportLayer5prefsEv
__ZN17SipTransportLayer16handleSystemWakeEv
__ZN17SipTransportLayer21terminateRegistrationE29RegistrationTerminationReasonl
__ZNK17SipTransportLayer12addUAHeadersEP10SipMessage
__ZNK17SipTransportLayer20currentAccessNetworkEv
__ZNK17SipTransportLayer14accessNetworksEv
__ZNK17SipTransportLayer20countryOfOriginationEv
__ZNK17SipTransportLayer20routableLocalAddressEv
__ZNK17SipTransportLayer20lastRegistrationTimeEv
__ZNK17SipTransportLayer8uaConfigEv
__ZN17SipTransportLayer12performBlockERK14LoggableStringP11SipLockableU13block_pointerFvvE
__ZN17SipTransportLayer14performBlockOrERK14LoggableStringP11SipLockableU13block_pointerFvvES6_
__ZNK17SipTransportLayer20preferredSeviceClassEv
__ZNK17SipTransportLayer12serviceRouteEv
__ZNK17SipTransportLayer16registrationPathEv
__ZNK17SipTransportLayer5proxyEv
__ZN17SipTransportLayer16securityDelegateEv
__ZN17SipTransportLayer14localInterfaceEv
__ZN17SipTransportLayer5StateC2ERKNSt3__112basic_stringIcNS1_11char_traitsIcEENS1_9allocatorIcEEEE
__ZN17SipTransportLayer5StateD0Ev
__ZNK17SipTransportLayer5State12loggableNameEv
__ZNSt3__110__list_impIP18IncomingSipMessageNS_9allocatorIS2_EEE5clearEv
__ZN26SipTransportLayerInterfaceD1Ev
__ZN26SipTransportLayerInterfaceD0Ev
__ZN31NetworkInterfaceMonitorDelegateD1Ev
__ZN31NetworkInterfaceMonitorDelegateD0Ev
__ZN30ImsNetworkReachabilityDelegateD1Ev
__ZN30ImsNetworkReachabilityDelegateD0Ev
__ZN18IncomingSipMessageC2ERK10SipMessageRK9IpAddressP17SipTransportGroupP16SipTcpConnection
__ZNSt3__14listIP18IncomingSipMessageNS_9allocatorIS2_EEEC2ERKS5_
__ZN18IncomingSipMessageD2Ev
__ZNSt3__16__treeINS_12__value_typeINS_12basic_stringIcNS_11char_traitsIcEENS_9allocatorIcEEEEN17SipTransportLayer15DropMessageInfoEEENS_19__map_value_compareIS7_SA_NS_4lessIS7_EELb1EEENS5_ISA_EEE7destroyEPNS_11__tree_nodeISA_PvEE
__ZNSt3__116allocator_traitsINS_9allocatorINS_11__tree_nodeINS_12__value_typeINS_12basic_stringIcNS_11char_traitsIcEENS1_IcEEEEN17SipTransportLayer15DropMessageInfoEEEPvEEEEE7destroyB6v15006INS_4pairIKS8_SA_EEvvEEvRSE_PT_
__ZNKSt3__16vectorIPK21SipServiceRouteHeaderNS_9allocatorIS3_EEE20__throw_length_errorB6v15006Ev
__ZNKSt3__16__treeINS_12__value_typeINS_12basic_stringIcNS_11char_traitsIcEENS_9allocatorIcEEEEN17SipTransportLayer15DropMessageInfoEEENS_19__map_value_compareIS7_SA_NS_4lessIS7_EELb1EEENS5_ISA_EEE4findIS7_EENS_21__tree_const_iteratorISA_PNS_11__tree_nodeISA_PvEElEERKT_
__GLOBAL__sub_I_SipTransportLayer.cpp
__ZN16BambiCallOptions19initializeFromPrefsERK8ImsPrefs
__ZN9BambiCallC2EP8SipStackNSt3__110shared_ptrI10RTPManagerEEP25BambiEmergencyCallOptions
__ZNSt3__110shared_ptrI10SDPSessionEaSB6v15006EOS2_
__ZNSt3__110shared_ptrI10RTPManagerEaSB6v15006ERKS2_
__ZN9BambiCallC1EP8SipStackNSt3__110shared_ptrI10RTPManagerEEP25BambiEmergencyCallOptions
__ZN9BambiCallD2Ev
__ZN9BambiCallD1Ev
__ZThn72_N9BambiCallD1Ev
__ZThn152_N9BambiCallD1Ev
__ZN9BambiCallD0Ev
__ZThn72_N9BambiCallD0Ev
__ZThn152_N9BambiCallD0Ev
__ZN9BambiCall17setMediaDirectionEP20BambiCallMediaStream14MediaDirectionb
__ZN9BambiCall33activateMediaSessionIfAppropriateEP20BambiCallMediaStreamRKNSt3__112basic_stringIcNS2_11char_traitsIcEENS2_9allocatorIcEEEE
__ZN9BambiCall13checkForPauseEP20BambiCallMediaStream14MediaDirectionb
__ZNK9BambiCall29shouldContinueUpdatingSessionEv
__ZN9BambiCall20handleSdpOfferInForkENSt3__110shared_ptrI8SDPModelEEP13SipDialogFork
__ZN9BambiCall29checkRemoteSdpForValidAddressENSt3__110shared_ptrI8SDPModelEE
__ZN9BambiCall27initializeMediaForMTSessionENSt3__110shared_ptrI8SDPModelEE
__ZN9BambiCall14handleRttInSDPENSt3__110shared_ptrI8SDPModelEE
__ZN9BambiCall21handleSdpAnswerInForkENSt3__110shared_ptrI8SDPModelEES3_P13SipDialogFork
__ZN9BambiCall19textSessionDetectedEv
__ZN9BambiCall24sendHoldResumeIndicationEb
____ZN9BambiCall18localHoldCompletedEv_block_invoke
____ZN9BambiCall20localResumeCompletedEv_block_invoke
__ZN9BambiCall26initializeMobileOriginatedERK6SipUriPK16BambiCallOptions
__ZN9BambiCall16attachSipSessionEP10SipSession
__ZN9BambiCall25initializeMediaForSessionENSt3__110shared_ptrI8SDPModelEE
__ZN9BambiCall27initializeMediaForMOSessionEv
__ZN9BambiCall26initializeMobileTerminatedEP10SipSession
__ZN3ims13AccessNetworkaSERKS0_
__ZN9BambiCall27fakeNetworkBasedCallWaitingEv
__ZNK10SipMessage6headerI14SipMinSEHeaderEEPKT_v
__ZN9BambiCall16processCallEventEP14BambiCallEvent
__ZN9BambiCall36activateAllMediaSessionIfAppropriateERKNSt3__112basic_stringIcNS0_11char_traitsIcEENS0_9allocatorIcEEEE
____ZN9BambiCall16processCallEventEP14BambiCallEvent_block_invoke
____ZN9BambiCall16processCallEventEP14BambiCallEvent_block_invoke_2
___copy_helper_block_e8_40c41_ZTS23SipTypedTerminationLockI9BambiCallE
___destroy_helper_block_e8_40c41_ZTS23SipTypedTerminationLockI9BambiCallE
__ZN23SipTypedTerminationLockI9BambiCallED1Ev
__ZN9BambiCall13internalStartEv
__ZN9ImsResultlsIA26_cEERS_RKT_
__ZN9BambiCall16detachSipSessionEv
__ZNK9BambiCall18shouldFakeLocalQOSEv
__ZN9BambiCall4ringEv
__ZN9BambiCall17answerFromHandlerEv
__ZN9BambiCall13endWithReasonERKNSt3__112basic_stringIcNS0_11char_traitsIcEENS0_9allocatorIcEEEE
__ZN9BambiCall13endWithReasonERK26BambiCallTerminationReason
__ZN9BambiCall17terminationReasonERKNSt3__112basic_stringIcNS0_11char_traitsIcEENS0_9allocatorIcEEEE
__ZN9BambiCall12silentHangUpEN3ims16DisconnectReason10ReasonCodeE
__ZN9BambiCall21suspendWithMediaErrorERKNSt3__112basic_stringIcNS0_11char_traitsIcEENS0_9allocatorIcEEEE
__ZN9BambiCall21deferredEndWithReasonERKNSt3__112basic_stringIcNS0_11char_traitsIcEENS0_9allocatorIcEEEE
___Block_byref_object_copy_
___Block_byref_object_dispose_
____ZN9BambiCall21deferredEndWithReasonERKNSt3__112basic_stringIcNS0_11char_traitsIcEENS0_9allocatorIcEEEE_block_invoke
__ZNK9BambiCall13printCallInfoER12ImsOutStreamb
__ZNK9BambiCall13isTerminatingEv
__ZNK9BambiCall16checkForActivateEbb
__ZN9BambiCall16performLocalHoldEv
__ZN9BambiCall18performLocalResumeEv
__ZN9BambiCall27performLocalHoldFromHandlerEv
____ZN9BambiCall27performLocalHoldFromHandlerEv_block_invoke
__ZN9BambiCall29performLocalResumeFromHandlerEv
____ZN9BambiCall29performLocalResumeFromHandlerEv_block_invoke
__ZN9BambiCall15localHoldFailedEv
__ZN9BambiCall17localResumeFailedEv
__ZN9BambiCall11prepareCallEv
__ZN9BambiCall5referEPS_RKNSt3__112basic_stringIcNS1_11char_traitsIcEENS1_9allocatorIcEEEEP28SipReferEventPackageDelegatePP20SipReferEventPackage
__ZNK9BambiCall9isWPSCallEv
__ZN9BambiCall22setMediaSessionCreatedEv
__ZNK9BambiCall8localSdpEv
__ZN10SDPSession14applyOnStreamsIZN9BambiCall22setMediaSessionCreatedEvE4$_11EE9ImsResultOT_
__ZN9BambiCall25setMediaSessionConfiguredEv
__ZN9BambiCall27handleMediaSessionActivatedEv
__ZN9BambiCall37applyMediaSettingsUsingForkIfRequiredEP20BambiCallMediaStreamPK13SipDialogForkb
__ZN9BambiCall19updateMediaSettingsEP20BambiCallMediaStream
__ZN9BambiCall23handleActiveForkChangedEP13SipDialogForkb
__ZN9BambiCall24terminationLocksReleasedEv
__ZNK9BambiCall12loggableNameEv
__ZNK9BambiCall9logPrefixER12ImsOutStream
__ZThn72_NK9BambiCall9logPrefixER12ImsOutStream
__ZN9BambiCall27handleInitializationFailureEv
__ZNK9BambiCall21createLocalSdpForForkENSt3__110shared_ptrI8SDPModelEE
__ZNK9BambiCall34setDirectionForSdpBasedOnHoldStateENSt3__110shared_ptrI8SDPModelEE
__ZNK9BambiCall7addressEv
__ZN9BambiCall26setQualityOfServiceRevokedEj
__ZN9BambiCall30setQualityOfServiceEstablishedEjbRKNSt3__16vectorItNS0_9allocatorItEEEE
__ZN9BambiCall23setTextMediaSessionModeEN3ims20TextMediaSessionModeE
__ZNK9BambiCall19remoteDisplayNumberEv
__ZNK9BambiCall17remoteDisplayNameEv
__ZNK9BambiCall24remoteDisplayCountryCodeEv
__ZN9BambiCall27sendEmergencyLocationUpdateEN3ims12LocationInfoE
__ZN9BambiCall28sendEmergencyLocationPublishEN3ims12LocationInfoE
__ZN9BambiCall12sendReinviteERKNSt3__112basic_stringIcNS0_11char_traitsIcEENS0_9allocatorIcEEEE
__ZN9BambiCall18handleSRVCCFailureEb
__ZN9SipReasonC1ERKS_
__ZN9BambiCall25handleAccessNetworkChangeERKN3ims13AccessNetworkEb
__ZN9BambiCall13prepareInviteERKNSt3__112basic_stringIcNS0_11char_traitsIcEENS0_9allocatorIcEEEEP10SipRequest
__ZN9BambiCall21terminateMediaSessionEv
__ZN9BambiCall11handleTimerEP17SipTimerContainerRKNSt3__112basic_stringIcNS2_11char_traitsIcEENS2_9allocatorIcEEEE
__ZThn152_N9BambiCall11handleTimerEP17SipTimerContainerRKNSt3__112basic_stringIcNS2_11char_traitsIcEENS2_9allocatorIcEEEE
__ZNK9BambiCall15sipSessionStateEv
__ZN9BambiCall21handleTextStreamTokenEN3ims8CFNumberE
____ZN9BambiCall21handleTextStreamTokenEN3ims8CFNumberE_block_invoke
___copy_helper_block_e8_40c41_ZTS23SipTypedTerminationLockI9BambiCallE80c19_ZTSN3ims8CFNumberE
___destroy_helper_block_e8_40c41_ZTS23SipTypedTerminationLockI9BambiCallE80c19_ZTSN3ims8CFNumberE
__ZN9BambiCall12setRelayModeEb
__ZN9BambiCall17handleEmptyInviteEv
__ZNK9BambiCall17remoteCompanyNameEv
__ZNK9BambiCall14remoteImageUrlEv
__ZN9BambiCall21startEPSWatchdogTimerEv
__ZNK9BambiCall16isConferenceCallEv
__ZN9BambiCall13isParticipantEv
__ZNSt3__120__shared_ptr_emplaceI10SDPSessionNS_9allocatorIS1_EEED1Ev
__ZNSt3__120__shared_ptr_emplaceI10SDPSessionNS_9allocatorIS1_EEED0Ev
__ZNSt3__120__shared_ptr_emplaceI10SDPSessionNS_9allocatorIS1_EEE16__on_zero_sharedEv
__ZNSt3__120__shared_ptr_emplaceI10SDPSessionNS_9allocatorIS1_EEE21__on_zero_shared_weakEv
__ZN23SipTypedTerminationLockI9BambiCallEC2EPS0_RK14LoggableString
__ZN23SipTypedTerminationLockI9BambiCallED0Ev
__ZN23SipTypedTerminationLockI9BambiCallED2Ev
__ZN23SipTypedTerminationLockI9BambiCallEC2ERKS1_
__GLOBAL__sub_I_BambiCall.cpp
__ZN22SipAuthorizationHeaderC2ERKS_
__ZN22SipAuthorizationHeaderC2ERK21SipAuthenticateHeader
__ZN22SipAuthorizationHeaderD1Ev
__ZN22SipAuthorizationHeaderD0Ev
__ZNK22SipAuthorizationHeader11encodeValueER12ImsOutStream
__ZN22SipAuthorizationHeader18setValueFromStringERKNSt3__112basic_stringIcNS0_11char_traitsIcEENS0_9allocatorIcEEEE
__ZNK22SipAuthorizationHeader5cloneEv
__ZN31SipClientInviteTransactionState18sendAckForResponseERK11SipResponse
__ZN38SipClientInviteCallingTransactionState10enterStateEj
__ZN38SipClientInviteCallingTransactionState11handleTimerEP17SipTimerContainerRKNSt3__112basic_stringIcNS2_11char_traitsIcEENS2_9allocatorIcEEEE
__ZN38SipClientInviteCallingTransactionState14handleResponseERK11SipResponse
__ZN38SipClientInviteCallingTransactionState21handleConnectionErrorEv
__ZN41SipClientInviteProceedingTransactionState10enterStateEj
__ZN41SipClientInviteProceedingTransactionState11handleTimerEP17SipTimerContainerRKNSt3__112basic_stringIcNS2_11char_traitsIcEENS2_9allocatorIcEEEE
__ZN41SipClientInviteProceedingTransactionState14handleResponseERK11SipResponse
__ZN40SipClientInviteCompletedTransactionState10enterStateEj
__ZN40SipClientInviteCompletedTransactionState11handleTimerEP17SipTimerContainerRKNSt3__112basic_stringIcNS2_11char_traitsIcEENS2_9allocatorIcEEEE
__ZN40SipClientInviteCompletedTransactionState14handleResponseERK11SipResponse
__ZN49SipClientInviteTerminationPendingTransactionState14handleResponseERK11SipResponse
__ZN38SipClientInviteCallingTransactionStateD1Ev
__ZN38SipClientInviteCallingTransactionStateD0Ev
__ZNK38SipClientInviteCallingTransactionState2idEv
__ZN19SipTransactionState13handleRequestERK10SipRequest
__ZThn8_N38SipClientInviteCallingTransactionStateD1Ev
__ZThn8_N38SipClientInviteCallingTransactionStateD0Ev
__ZN41SipClientInviteProceedingTransactionStateD1Ev
__ZN41SipClientInviteProceedingTransactionStateD0Ev
__ZNK41SipClientInviteProceedingTransactionState2idEv
__ZThn8_N41SipClientInviteProceedingTransactionStateD1Ev
__ZThn8_N41SipClientInviteProceedingTransactionStateD0Ev
__ZN40SipClientInviteCompletedTransactionStateD1Ev
__ZN40SipClientInviteCompletedTransactionStateD0Ev
__ZNK40SipClientInviteCompletedTransactionState2idEv
__ZThn8_N40SipClientInviteCompletedTransactionStateD1Ev
__ZThn8_N40SipClientInviteCompletedTransactionStateD0Ev
__ZN49SipClientInviteTerminationPendingTransactionStateD1Ev
__ZN49SipClientInviteTerminationPendingTransactionStateD0Ev
__ZNK49SipClientInviteTerminationPendingTransactionState2idEv
__ZThn8_N49SipClientInviteTerminationPendingTransactionStateD1Ev
__ZThn8_N49SipClientInviteTerminationPendingTransactionStateD0Ev
__ZNK19SipTransactionState2idEv
__ZN7XcapUriC2ERK20XcapDocumentSelectorRK16XcapNodeSelector
__ZNK16XcapNodeSelector5cloneEv
__ZN7XcapUri12constructUriEv
__ZN7XcapUriD2Ev
__ZNK7XcapUri3logER12ImsOutStream
__Z12base64EncodePKhmPNSt3__112basic_stringIcNS1_11char_traitsIcEENS1_9allocatorIcEEEE
__Z12base64DecodeRKNSt3__112basic_stringIcNS_11char_traitsIcEENS_9allocatorIcEEEEPNS_6vectorIhNS3_IhEEEE
__ZN15ImsListenSocket10initializeERK16IpAddressWrapperRKN3ims8DispatchERKNSt3__112basic_stringIcNS7_11char_traitsIcEENS7_9allocatorIcEEEEb
__ZN15ImsListenSocket10initializeEiRKN3ims8DispatchE
__ZN15ImsListenSocket18socketReadCallbackEv
__ZN15ImsListenSocket16initializeSocketERK16IpAddressWrapperRKN3ims8DispatchERKNSt3__112basic_stringIcNS7_11char_traitsIcEENS7_9allocatorIcEEEEb
__ZThn72_N15ImsListenSocket16initializeSocketERK16IpAddressWrapperRKN3ims8DispatchERKNSt3__112basic_stringIcNS7_11char_traitsIcEENS7_9allocatorIcEEEEb
__ZN15ImsListenSocket16initializeSocketEiRKN3ims8DispatchE
__ZThn72_N15ImsListenSocket16initializeSocketEiRKN3ims8DispatchE
__ZN15ImsListenSocket19socketInterfaceTypeEv
__ZThn72_N15ImsListenSocket19socketInterfaceTypeEv
__ZN15ImsListenSocket11setDelegateEP32ImsListenSocketInterfaceDelegate
__ZThn72_N15ImsListenSocket11setDelegateEP32ImsListenSocketInterfaceDelegate
__ZN15ImsListenSocket26setMaxSegmentSizeForSocketEi
__ZThn72_N15ImsListenSocket26setMaxSegmentSizeForSocketEi
__ZNK15ImsListenSocket18socketLocalAddressEv
__ZThn72_NK15ImsListenSocket18socketLocalAddressEv
__ZN15ImsListenSocket11closeSocketEv
__ZThn72_N15ImsListenSocket11closeSocketEv
__ZN15ImsListenSocket10socketTypeEv
__ZN15ImsListenSocketD1Ev
__ZN15ImsListenSocketD0Ev
__ZThn72_N15ImsListenSocketD1Ev
__ZThn72_N15ImsListenSocketD0Ev
__ZN26BambiUnlistedEmergencyCallC1EP8SipStackNSt3__110shared_ptrI10RTPManagerEEP25BambiEmergencyCallOptions
__ZN26BambiUnlistedEmergencyCallD2Ev
__ZN26BambiUnlistedEmergencyCall13clearLocationEv
__ZN26BambiUnlistedEmergencyCallD1Ev
__ZThn72_N26BambiUnlistedEmergencyCallD1Ev
__ZThn152_N26BambiUnlistedEmergencyCallD1Ev
__ZThn1712_N26BambiUnlistedEmergencyCallD1Ev
__ZN26BambiUnlistedEmergencyCallD0Ev
__ZThn72_N26BambiUnlistedEmergencyCallD0Ev
__ZThn152_N26BambiUnlistedEmergencyCallD0Ev
__ZThn1712_N26BambiUnlistedEmergencyCallD0Ev
__ZN26BambiUnlistedEmergencyCall20handleLocationUpdateEN3ims12LocationInfoE
__ZThn1712_N26BambiUnlistedEmergencyCall20handleLocationUpdateEN3ims12LocationInfoE
__ZN26BambiUnlistedEmergencyCall11prepareCallEv
__ZN5bambi13XmlParserItem10parseChildERKNSt3__112basic_stringIcNS1_11char_traitsIcEENS1_9allocatorIcEEEERKNS_13XmlParserNodeE
__ZN5bambi9XmlParser9parseNodeEPNS_13XmlParserItemERKNS_13XmlParserNodeES2_
__ZN5bambi13XmlParserItem20parseSimpleTextChildERKNSt3__112basic_stringIcNS1_11char_traitsIcEENS1_9allocatorIcEEEERKNS_13XmlParserNodeEPS7_
__ZN5bambi17XmlParserTextItemD1Ev
__ZN5bambi13XmlParserItem20parseSimpleUintChildERKNSt3__112basic_stringIcNS1_11char_traitsIcEENS1_9allocatorIcEEEERKNS_13XmlParserNodeEPj
__ZN5bambi17XmlParserUintItemD1Ev
__ZN5bambi13XmlParserItem19parseSimpleUriChildERKNSt3__112basic_stringIcNS1_11char_traitsIcEENS1_9allocatorIcEEEERKNS_13XmlParserNodeEP6SipUri
__ZN5bambi16XmlParserUriItemD1Ev
__ZN5bambi17XmlParserTextItem7setTextERKNSt3__112basic_stringIcNS1_11char_traitsIcEENS1_9allocatorIcEEEES9_
__ZN5bambi17XmlParserUintItem7setTextERKNSt3__112basic_stringIcNS1_11char_traitsIcEENS1_9allocatorIcEEEES9_
__ZN5bambi16XmlParserUriItem7setTextERKNSt3__112basic_stringIcNS1_11char_traitsIcEENS1_9allocatorIcEEEES9_
__ZNSt3__16vectorIN5bambi18XmlParserNamespaceENS_9allocatorIS2_EEE9push_backB6v15006EOS2_
__ZN5bambi18XmlParserNamespaceD1Ev
__ZN5bambi9XmlParser8parseXmlEPKcmPNS_13XmlParserItemE
__ZN5bambi9XmlParser8parseXmlERKNSt3__112basic_stringIcNS1_11char_traitsIcEENS1_9allocatorIcEEEEPNS_13XmlParserItemE
__ZN5bambi13XmlParserItemD1Ev
__ZN5bambi13XmlParserItemD0Ev
__ZN5bambi17XmlParserTextItemD0Ev
__ZN5bambi17XmlParserUintItemD0Ev
__ZN5bambi16XmlParserUriItemD0Ev
__ZN5bambi18XmlParserNamespaceC2ERKNSt3__112basic_stringIcNS1_11char_traitsIcEENS1_9allocatorIcEEEES9_
__ZNSt3__16vectorIN5bambi18XmlParserNamespaceENS_9allocatorIS2_EEED2B6v15006Ev
__ZNSt3__19allocatorIN5bambi18XmlParserNamespaceEE7destroyB6v15006EPS2_
__ZNKSt3__16vectorIN5bambi18XmlParserNamespaceENS_9allocatorIS2_EEE20__throw_length_errorB6v15006Ev
__ZNSt3__119__allocate_at_leastB6v15006INS_9allocatorIN5bambi18XmlParserNamespaceEEEEENS_19__allocation_resultINS_16allocator_traitsIT_E7pointerEEERS7_m
__ZNK14SDPMediaCrypto5valueEv
__ZN14SDPMediaCryptoD1Ev
__ZN14SDPMediaCryptoD0Ev
__ZNK14SDPMediaCrypto5validEv
__ZNSt3__16vectorIjNS_9allocatorIjEEE6insertENS_11__wrap_iterIPKjEEOj
__ZNSt3__16vectorIjNS_9allocatorIjEEEC2ERKS3_
__ZNSt3__16vectorIjNS_9allocatorIjEEE11__vallocateB6v15006Em
__ZNSt3__114__split_bufferIjRNS_9allocatorIjEEE9push_backEOj
__ZN20SipMaxForwardsHeaderD1Ev
__ZN20SipMaxForwardsHeaderD0Ev
__ZNK20SipMaxForwardsHeader5cloneEv
__ZN21IMSDialogEventManagerC2EP18IPTelephonyManager
__ZN21IMSDialogEventManagerD1Ev
__ZThn8_N21IMSDialogEventManagerD1Ev
__ZThn16_N21IMSDialogEventManagerD1Ev
__ZN21IMSDialogEventManagerD0Ev
__ZThn8_N21IMSDialogEventManagerD0Ev
__ZThn16_N21IMSDialogEventManagerD0Ev
__ZN21IMSDialogEventManager19sipStackInitializedERKNSt3__112basic_stringIcNS0_11char_traitsIcEENS0_9allocatorIcEEEE
__ZN21IMSDialogEventManager19sipStackInvalidatedERKNSt3__112basic_stringIcNS0_11char_traitsIcEENS0_9allocatorIcEEEE
__ZN21IMSDialogEventManager17handleDialogEventERKNSt3__112basic_stringIcNS0_11char_traitsIcEENS0_9allocatorIcEEEEPK18SipDialogEventData
__ZThn8_N21IMSDialogEventManager17handleDialogEventERKNSt3__112basic_stringIcNS0_11char_traitsIcEENS0_9allocatorIcEEEEPK18SipDialogEventData
__ZNK21IMSDialogEventManager9logPrefixER12ImsOutStream
__ZThn16_NK21IMSDialogEventManager9logPrefixER12ImsOutStream
__ZN24BambiDialogEventDelegateD1Ev
__ZN24BambiDialogEventDelegateD0Ev
__ZN24BambiDialogEventDelegate17handleDialogEventERKNSt3__112basic_stringIcNS0_11char_traitsIcEENS0_9allocatorIcEEEEPK18SipDialogEventData
__ZN23SipSessionExpiresHeaderD1Ev
__ZN23SipSessionExpiresHeaderD0Ev
__ZNK23SipSessionExpiresHeader5cloneEv
__ZN16NetworkInterfaceC2ERKNSt3__112basic_stringIcNS0_11char_traitsIcEENS0_9allocatorIcEEEE
__ZN16NetworkInterfaceC2ERKS_
__ZN16NetworkInterface10addAddressEP9IpAddress
__ZN16NetworkInterfaceD2Ev
__ZN16NetworkInterfaceD1Ev
__ZN16NetworkInterfaceD0Ev
__ZNK16NetworkInterface12matchAddressEP9IpAddressjj
__ZNK16NetworkInterface12allAddressesEPNSt3__16vectorIPK9IpAddressNS0_9allocatorIS4_EEEEjj
__ZNK16NetworkInterface12firstAddressEjRKNSt3__16vectorIjNS0_9allocatorIjEEEE
__ZNK16NetworkInterface3logER12ImsOutStream
__ZNK16NetworkInterface12loggableNameEv
__ZNKSt3__16vectorIP9IpAddressNS_9allocatorIS2_EEE20__throw_length_errorB6v15006Ev
__ZNSt3__119__allocate_at_leastB6v15006INS_9allocatorIP9IpAddressEEEENS_19__allocation_resultINS_16allocator_traitsIT_E7pointerEEERS7_m
__ZNKSt3__16vectorIPK9IpAddressNS_9allocatorIS3_EEE20__throw_length_errorB6v15006Ev
__ZNSt3__119__allocate_at_leastB6v15006INS_9allocatorIPK9IpAddressEEEENS_19__allocation_resultINS_16allocator_traitsIT_E7pointerEEERS8_m
__ZN20SipMultiStringHeaderC2ERKS_
__ZNK20SipMultiStringHeader11encodeValueER12ImsOutStream
__ZN20SipMultiStringHeader18setValueFromStringERKNSt3__112basic_stringIcNS0_11char_traitsIcEENS0_9allocatorIcEEEE
__ZN20SipMultiStringHeader11mergeHeaderERK9SipHeader
__ZN20SipMultiStringHeaderD1Ev
__ZN20SipMultiStringHeaderD0Ev
__ZN21SipMessageEncodingMapC2Ev
__ZN21SipMessageEncodingMap18addHeaderPrototypeEP9SipHeaderRKNSt3__112basic_stringIcNS2_11char_traitsIcEENS2_9allocatorIcEEEE
__ZN21SipMessageEncodingMapD2Ev
__ZN21SipMessageEncodingMap14clearHeaderMapEv
__ZN21SipMessageEncodingMap12clearBodyMapEv
__ZNK21SipMessageEncodingMap23headerPrototypeWithNameERKNSt3__112basic_stringIcNS0_11char_traitsIcEENS0_9allocatorIcEEEE
__ZN21SipMessageEncodingMap16addBodyPrototypeERKNSt3__112basic_stringIcNS0_11char_traitsIcEENS0_9allocatorIcEEEEP7SipBody
__ZNK21SipMessageEncodingMap12createHeaderERKNSt3__112basic_stringIcNS0_11char_traitsIcEENS0_9allocatorIcEEEES8_
__ZNK21SipMessageEncodingMap10createBodyERKNSt3__112basic_stringIcNS0_11char_traitsIcEENS0_9allocatorIcEEEE
__ZNK21SipMessageEncodingMap10createBodyERK20SipContentTypeHeader
__ZN20SipContentTypeHeaderD1Ev
__ZNK21SipMessageEncodingMap30initializeResponseFromTemplateEP11SipResponse
__ZNK21SipMessageEncodingMap30initializeResponseFromTemplateEP11SipResponsebb
__ZNK21SipMessageEncodingMap12decodeHeaderERKNSt3__112basic_stringIcNS0_11char_traitsIcEENS0_9allocatorIcEEEE
__ZNK21SipMessageEncodingMap29initializeRequestFromTemplateEP10SipRequestbb
__ZNK21SipMessageEncodingMap25createRequestFromTemplateERKNSt3__112basic_stringIcNS0_11char_traitsIcEENS0_9allocatorIcEEEEbb
__ZNK21SipMessageEncodingMap32copyHeadersFromRequestToResponseERK10SipRequestP11SipResponseb
__ZN21SipMessageEncodingMap19initializeFromPrefsERK8ImsPrefs
__ZN21SipConferenceInfoBodyD1Ev
__ZN21SipConferenceInfoBodyD0Ev
__ZNK21SipConferenceInfoBody5cloneEv
__ZNK21SipConferenceInfoBody11contentTypeEv
__ZN21SipConferenceInfoBody8rootItemEv
__ZNK10SipXmlBody11generateXmlEv
__ZN17SipConferenceInfoD2Ev
__ZN23SipRegistrationInfoBodyD1Ev
__ZN23SipRegistrationInfoBodyD0Ev
__ZNK23SipRegistrationInfoBody5cloneEv
__ZNK23SipRegistrationInfoBody11contentTypeEv
__ZN23SipRegistrationInfoBody8rootItemEv
__ZN18Sip3gppImsInfoBodyD1Ev
__ZN18Sip3gppImsInfoBodyD0Ev
__ZNK18Sip3gppImsInfoBody5cloneEv
__ZNK18Sip3gppImsInfoBody11contentTypeEv
__ZN18Sip3gppImsInfoBody8rootItemEv
__ZNSt3__112__hash_tableINS_17__hash_value_typeINS_12basic_stringIcNS_11char_traitsIcEENS_9allocatorIcEEEEP9SipHeaderEENS_22__unordered_map_hasherIS7_SA_NS_4hashIS7_EENS_8equal_toIS7_EELb1EEENS_21__unordered_map_equalIS7_SA_SF_SD_Lb1EEENS5_ISA_EEED2Ev
__ZNSt3__112__hash_tableINS_17__hash_value_typeINS_12basic_stringIcNS_11char_traitsIcEENS_9allocatorIcEEEEP9SipHeaderEENS_22__unordered_map_hasherIS7_SA_NS_4hashIS7_EENS_8equal_toIS7_EELb1EEENS_21__unordered_map_equalIS7_SA_SF_SD_Lb1EEENS5_ISA_EEE17__deallocate_nodeEPNS_16__hash_node_baseIPNS_11__hash_nodeISA_PvEEEE
__ZNSt3__112__hash_tableINS_17__hash_value_typeINS_12basic_stringIcNS_11char_traitsIcEENS_9allocatorIcEEEEP7SipBodyEENS_22__unordered_map_hasherIS7_SA_NS_4hashIS7_EENS_8equal_toIS7_EELb1EEENS_21__unordered_map_equalIS7_SA_SF_SD_Lb1EEENS5_ISA_EEED2Ev
__ZNSt3__112__hash_tableINS_17__hash_value_typeINS_12basic_stringIcNS_11char_traitsIcEENS_9allocatorIcEEEEP7SipBodyEENS_22__unordered_map_hasherIS7_SA_NS_4hashIS7_EENS_8equal_toIS7_EELb1EEENS_21__unordered_map_equalIS7_SA_SF_SD_Lb1EEENS5_ISA_EEE17__deallocate_nodeEPNS_16__hash_node_baseIPNS_11__hash_nodeISA_PvEEEE
__ZNSt3__112__hash_tableINS_12basic_stringIcNS_11char_traitsIcEENS_9allocatorIcEEEENS_4hashIS6_EENS_8equal_toIS6_EENS4_IS6_EEED2Ev
__ZNSt3__112__hash_tableINS_12basic_stringIcNS_11char_traitsIcEENS_9allocatorIcEEEENS_4hashIS6_EENS_8equal_toIS6_EENS4_IS6_EEE17__deallocate_nodeEPNS_16__hash_node_baseIPNS_11__hash_nodeIS6_PvEEEE
__ZNSt3__112__hash_tableINS_12basic_stringIcNS_11char_traitsIcEENS_9allocatorIcEEEENS_4hashIS6_EENS_8equal_toIS6_EENS4_IS6_EEE25__emplace_unique_key_argsIS6_JRKS6_EEENS_4pairINS_15__hash_iteratorIPNS_11__hash_nodeIS6_PvEEEEbEERKT_DpOT0_
__ZNSt3__122__hash_node_destructorINS_9allocatorINS_11__hash_nodeINS_12basic_stringIcNS_11char_traitsIcEENS1_IcEEEEPvEEEEEclB6v15006EPS9_
__ZNSt3__112__hash_tableINS_17__hash_value_typeINS_12basic_stringIcNS_11char_traitsIcEENS_9allocatorIcEEEEP9SipHeaderEENS_22__unordered_map_hasherIS7_SA_NS_4hashIS7_EENS_8equal_toIS7_EELb1EEENS_21__unordered_map_equalIS7_SA_SF_SD_Lb1EEENS5_ISA_EEE5clearEv
__ZNSt3__112__hash_tableINS_17__hash_value_typeINS_12basic_stringIcNS_11char_traitsIcEENS_9allocatorIcEEEEP7SipBodyEENS_22__unordered_map_hasherIS7_SA_NS_4hashIS7_EENS_8equal_toIS7_EELb1EEENS_21__unordered_map_equalIS7_SA_SF_SD_Lb1EEENS5_ISA_EEE5clearEv
__ZNKSt3__112__hash_tableINS_17__hash_value_typeINS_12basic_stringIcNS_11char_traitsIcEENS_9allocatorIcEEEEP9SipHeaderEENS_22__unordered_map_hasherIS7_SA_NS_4hashIS7_EENS_8equal_toIS7_EELb1EEENS_21__unordered_map_equalIS7_SA_SF_SD_Lb1EEENS5_ISA_EEE4findIS7_EENS_21__hash_const_iteratorIPNS_11__hash_nodeISA_PvEEEERKT_
__ZNSt3__112__hash_tableINS_17__hash_value_typeINS_12basic_stringIcNS_11char_traitsIcEENS_9allocatorIcEEEEP9SipHeaderEENS_22__unordered_map_hasherIS7_SA_NS_4hashIS7_EENS_8equal_toIS7_EELb1EEENS_21__unordered_map_equalIS7_SA_SF_SD_Lb1EEENS5_ISA_EEE25__emplace_unique_key_argsIS7_JRKNS_21piecewise_construct_tENS_5tupleIJRKS7_EEENSP_IJEEEEEENS_4pairINS_15__hash_iteratorIPNS_11__hash_nodeISA_PvEEEEbEERKT_DpOT0_
__ZNSt3__112__hash_tableINS_17__hash_value_typeINS_12basic_stringIcNS_11char_traitsIcEENS_9allocatorIcEEEEP9SipHeaderEENS_22__unordered_map_hasherIS7_SA_NS_4hashIS7_EENS_8equal_toIS7_EELb1EEENS_21__unordered_map_equalIS7_SA_SF_SD_Lb1EEENS5_ISA_EEE21__construct_node_hashIRKNS_21piecewise_construct_tEJNS_5tupleIJRKS7_EEENSP_IJEEEEEENS_10unique_ptrINS_11__hash_nodeISA_PvEENS_22__hash_node_destructorINS5_ISX_EEEEEEmOT_DpOT0_
__ZNSt3__112__hash_tableINS_17__hash_value_typeINS_12basic_stringIcNS_11char_traitsIcEENS_9allocatorIcEEEEP9SipHeaderEENS_22__unordered_map_hasherIS7_SA_NS_4hashIS7_EENS_8equal_toIS7_EELb1EEENS_21__unordered_map_equalIS7_SA_SF_SD_Lb1EEENS5_ISA_EEE8__rehashILb1EEEvm
__ZNSt3__112__hash_tableINS_17__hash_value_typeINS_12basic_stringIcNS_11char_traitsIcEENS_9allocatorIcEEEEP9SipHeaderEENS_22__unordered_map_hasherIS7_SA_NS_4hashIS7_EENS_8equal_toIS7_EELb1EEENS_21__unordered_map_equalIS7_SA_SF_SD_Lb1EEENS5_ISA_EEE11__do_rehashILb1EEEvm
__ZNSt3__122__hash_node_destructorINS_9allocatorINS_11__hash_nodeINS_17__hash_value_typeINS_12basic_stringIcNS_11char_traitsIcEENS1_IcEEEEP9SipHeaderEEPvEEEEEclB6v15006EPSD_
__ZNKSt3__16vectorIP9SipHeaderNS_9allocatorIS2_EEE20__throw_length_errorB6v15006Ev
__ZNSt3__119__allocate_at_leastB6v15006INS_9allocatorIP9SipHeaderEEEENS_19__allocation_resultINS_16allocator_traitsIT_E7pointerEEERS7_m
__ZNKSt3__112__hash_tableINS_17__hash_value_typeINS_12basic_stringIcNS_11char_traitsIcEENS_9allocatorIcEEEEP7SipBodyEENS_22__unordered_map_hasherIS7_SA_NS_4hashIS7_EENS_8equal_toIS7_EELb1EEENS_21__unordered_map_equalIS7_SA_SF_SD_Lb1EEENS5_ISA_EEE4findIS7_EENS_21__hash_const_iteratorIPNS_11__hash_nodeISA_PvEEEERKT_
__ZNKSt3__112__hash_tableINS_12basic_stringIcNS_11char_traitsIcEENS_9allocatorIcEEEENS_4hashIS6_EENS_8equal_toIS6_EENS4_IS6_EEE4findIS6_EENS_21__hash_const_iteratorIPNS_11__hash_nodeIS6_PvEEEERKT_
__ZN15SipUdpTransportD2Ev
__ZN15SipUdpTransportD1Ev
__ZThn24_N15SipUdpTransportD1Ev
__ZN15SipUdpTransportD0Ev
__ZThn24_N15SipUdpTransportD0Ev
__ZN15SipUdpTransport10initializeERK16IpAddressWrapperRKNSt3__112basic_stringIcNS3_11char_traitsIcEENS3_9allocatorIcEEEE
__ZN15SipUdpTransport10initializeEPS_
__ZN15SipUdpTransport24setRemoteOutboundAddressERK9IpAddress
__ZN20SipSocketMultiplexerI29ImsUdpSocketInterfaceDelegateE27addDelegateForRemoteAddressEPS0_RK9IpAddress
__ZN15SipUdpTransport4sendEPKhmRK16IpAddressWrapperPP16SipTcpConnection
__ZN15SipUdpTransport21processDataFromSocketEPKhmRK9IpAddressP21ImsUdpSocketInterface
__ZThn24_N15SipUdpTransport21processDataFromSocketEPKhmRK9IpAddressP21ImsUdpSocketInterface
__ZN15SipUdpTransport15setServiceClassE9DscpClass
__ZNK15SipUdpTransport12localAddressEv
__ZNK15SipUdpTransport4nameEv
__ZN20SipSocketMultiplexerI29ImsUdpSocketInterfaceDelegateE24delegateForRemoteAddressERK9IpAddress
__ZNSt3__16__treeINS_12__value_typeINS_12basic_stringIcNS_11char_traitsIcEENS_9allocatorIcEEEEP29ImsUdpSocketInterfaceDelegateEENS_19__map_value_compareIS7_SA_NS_4lessIS7_EELb1EEENS5_ISA_EEE4findIS7_EENS_15__tree_iteratorISA_PNS_11__tree_nodeISA_PvEElEERKT_
__ZN26SipSubscriptionStateHeaderD1Ev
__ZN26SipSubscriptionStateHeaderD0Ev
__ZNK26SipSubscriptionStateHeader5cloneEv
__GLOBAL__sub_I_SipSubscriptionStateHeader.cpp
__ZN16BambiUssdSessionD1Ev
__ZN16BambiUssdSessionD0Ev
__ZN16BambiUssdSession10initializeERKNSt3__112basic_stringIcNS0_11char_traitsIcEENS0_9allocatorIcEEEES8_P17BambiUssdDelegate
__ZN16BambiUssdSession14handleUssdDataERKNSt3__112basic_stringIcNS0_11char_traitsIcEENS0_9allocatorIcEEEEb
__ZN16BambiUssdSession20handleLegacyUssdDataERKNSt3__16vectorIhNS0_9allocatorIhEEEEb
__ZN16BambiUssdSession15handleUssdErrorERKNSt3__112basic_stringIcNS0_11char_traitsIcEENS0_9allocatorIcEEEEj
__ZN16BambiUssdSession24handleSessionInvalidatedEP14SipUssdSession
__ZN16XcapDocumentBase12setAttributeERKNSt3__112basic_stringIcNS0_11char_traitsIcEENS0_9allocatorIcEEEES8_
__ZNK16XcapDocumentBase13constructTreeEv
__ZThn8_NK16XcapDocumentBase13constructTreeEv
__ZNK16XcapDocumentBase14getItemForPathERKNSt3__16vectorINS0_12basic_stringIcNS0_11char_traitsIcEENS0_9allocatorIcEEEENS5_IS7_EEEE
__ZN16XcapDocumentBase14setItemForPathERKNSt3__16vectorINS0_12basic_stringIcNS0_11char_traitsIcEENS0_9allocatorIcEEEENS5_IS7_EEEERKS7_
__GLOBAL__sub_I_XcapDocumentBase.cpp
__ZN18SipSessionIdHeaderD1Ev
__ZN18SipSessionIdHeaderD0Ev
__ZNK18SipSessionIdHeader5cloneEv
__ZN18BambiAccessBarringC2EP26BambiAccessBarringDelegate
__ZN18BambiAccessBarringD2Ev
__ZN18BambiAccessBarringD1Ev
__ZN18BambiAccessBarringD0Ev
__ZN18BambiAccessBarring14registerForUacEv
__ZN18BambiAccessBarring8setStackEP8SipStack
__ZNK18BambiAccessBarring12alwaysListenEv
__ZN18BambiAccessBarring28updateRegistrationForBarringEv
__ZN18BambiAccessBarring15updateVoiceInfoENS_4InfoE
__ZN18BambiAccessBarring15isServiceBarredEN3ims8Services11ServiceTypeE
__ZN18BambiAccessBarring25isVoiceRegistrationBarredEv
__ZN18BambiAccessBarring5clearEv
__ZN18BambiAccessBarring5resetEv
__ZN18BambiAccessBarring10checkFlagsEv
__ZN18BambiAccessBarring24registrationStateChangedEb
__ZN18BambiAccessBarring13allCallsEndedEv
__ZN18BambiAccessBarring20accessNetworkChangedEb
__ZN18BambiAccessBarring10setEnabledEb
__ZN18BambiAccessBarring20updateSimAccessClassERKj
__ZN18BambiAccessBarring13setUacBarringEN3ims8Services11ServiceTypeEj
__ZNK18BambiAccessBarring9logPrefixER12ImsOutStream
__ZNSt3__16__treeINS_12__value_typeIN3ims8Services11ServiceTypeEN18BambiAccessBarring10UacBackoffEEENS_19__map_value_compareIS4_S7_NS_4lessIS4_EELb1EEENS_9allocatorIS7_EEE7destroyEPNS_11__tree_nodeIS7_PvEE
__ZNSt3__16__treeINS_12__value_typeIN3ims8Services11ServiceTypeEN18BambiAccessBarring10UacBackoffEEENS_19__map_value_compareIS4_S7_NS_4lessIS4_EELb1EEENS_9allocatorIS7_EEE21__remove_node_pointerEPNS_11__tree_nodeIS7_PvEE
__ZNSt3__16__treeINS_12__value_typeIN3ims8Services11ServiceTypeEN18BambiAccessBarring10UacBackoffEEENS_19__map_value_compareIS4_S7_NS_4lessIS4_EELb1EEENS_9allocatorIS7_EEE14__erase_uniqueIS4_EEmRKT_
__ZNSt3__16__treeINS_12__value_typeIN3ims8Services11ServiceTypeEN18BambiAccessBarring10UacBackoffEEENS_19__map_value_compareIS4_S7_NS_4lessIS4_EELb1EEENS_9allocatorIS7_EEE25__emplace_unique_key_argsIS4_JRKNS_21piecewise_construct_tENS_5tupleIJRKS4_EEENSJ_IJEEEEEENS_4pairINS_15__tree_iteratorIS7_PNS_11__tree_nodeIS7_PvEElEEbEERKT_DpOT0_
__ZNSt3__16__treeINS_12__value_typeIN3ims8Services11ServiceTypeEN18BambiAccessBarring10UacBackoffEEENS_19__map_value_compareIS4_S7_NS_4lessIS4_EELb1EEENS_9allocatorIS7_EEE16__insert_node_atEPNS_15__tree_end_nodeIPNS_16__tree_node_baseIPvEEEERSJ_SJ_
__ZN11SipImpuRankC2Ev
__ZN11SipImpuRank25resetNormalRanksToDefaultEv
__ZN11SipImpuRank28resetEmergencyRanksToDefaultEv
__ZN11SipImpuRank19_setRanksFromStringEPNSt3__16vectorI8ImpuTypeNS0_9allocatorIS2_EEEERKNS0_12basic_stringIcNS0_11char_traitsIcEENS3_IcEEEE
__ZL8mdnMatchNSt3__112basic_stringIcNS_11char_traitsIcEENS_9allocatorIcEEEES5_
__ZNK11SipImpuRank13preferredImpuERKNSt3__16vectorI8ImpuTypeNS0_9allocatorIS2_EEEERKNS1_INS0_12basic_stringIcNS0_11char_traitsIcEENS3_IcEEEENS3_ISC_EEEERKSC_SI_SI_
__ZNK11SipImpuRank8logRanksER12ImsOutStreamPKNSt3__16vectorI8ImpuTypeNS2_9allocatorIS4_EEEEb
__ZNKSt3__16vectorI8ImpuTypeNS_9allocatorIS1_EEE20__throw_length_errorB6v15006Ev
__ZNSt3__119__allocate_at_leastB6v15006INS_9allocatorI8ImpuTypeEEEENS_19__allocation_resultINS_16allocator_traitsIT_E7pointerEEERS6_m
__ZN3ims13NetworkConfigaSERKS0_
____ZN3ims6Client10initializeERKNSt3__112basic_stringIcNS1_11char_traitsIcEENS1_9allocatorIcEEEERKNS_11StackConfigE_block_invoke
___copy_helper_block_e8_32c66_ZTSNSt3__112basic_stringIcNS_11char_traitsIcEENS_9allocatorIcEEEE56c66_ZTSNSt3__112basic_stringIcNS_11char_traitsIcEENS_9allocatorIcEEEE80c23_ZTSN3ims11StackConfigE784c24_ZTSN3ims12CFDictionaryE
___destroy_helper_block_e8_32c66_ZTSNSt3__112basic_stringIcNS_11char_traitsIcEENS_9allocatorIcEEEE56c66_ZTSNSt3__112basic_stringIcNS_11char_traitsIcEENS_9allocatorIcEEEE80c23_ZTSN3ims11StackConfigE784c24_ZTSN3ims12CFDictionaryE
____ZN3ims6Client10initializeERKNSt3__112basic_stringIcNS1_11char_traitsIcEENS1_9allocatorIcEEEERKNS_11StackConfigE_block_invoke.6
___copy_helper_block_e8_32c66_ZTSNSt3__112basic_stringIcNS_11char_traitsIcEENS_9allocatorIcEEEE56c66_ZTSNSt3__112basic_stringIcNS_11char_traitsIcEENS_9allocatorIcEEEE80c23_ZTSN3ims11StackConfigE784c24_ZTSN3ims12CFDictionaryE800c24_ZTSN3ims12CFDictionaryE
___destroy_helper_block_e8_32c66_ZTSNSt3__112basic_stringIcNS_11char_traitsIcEENS_9allocatorIcEEEE56c66_ZTSNSt3__112basic_stringIcNS_11char_traitsIcEENS_9allocatorIcEEEE80c23_ZTSN3ims11StackConfigE784c24_ZTSN3ims12CFDictionaryE800c24_ZTSN3ims12CFDictionaryE
____ZN3ims6Client10initializeERKNSt3__112basic_stringIcNS1_11char_traitsIcEENS1_9allocatorIcEEEERKNS_11StackConfigE_block_invoke.8
____ZN3ims6Client10initializeERKNSt3__112basic_stringIcNS1_11char_traitsIcEENS1_9allocatorIcEEEERKNS_11StackConfigE_block_invoke.10
___copy_helper_block_e8_32c66_ZTSNSt3__112basic_stringIcNS_11char_traitsIcEENS_9allocatorIcEEEE56c66_ZTSNSt3__112basic_stringIcNS_11char_traitsIcEENS_9allocatorIcEEEE80c23_ZTSN3ims11StackConfigE
___destroy_helper_block_e8_32c66_ZTSNSt3__112basic_stringIcNS_11char_traitsIcEENS_9allocatorIcEEEE56c66_ZTSNSt3__112basic_stringIcNS_11char_traitsIcEENS_9allocatorIcEEEE80c23_ZTSN3ims11StackConfigE
____ZN3ims6Client23initializeLimitedAccessERKNS_13NetworkConfigE_block_invoke
___copy_helper_block_e8_32c66_ZTSNSt3__112basic_stringIcNS_11char_traitsIcEENS_9allocatorIcEEEE56c66_ZTSNSt3__112basic_stringIcNS_11char_traitsIcEENS_9allocatorIcEEEE80c89_ZTSNSt3__16vectorINS_12basic_stringIcNS_11char_traitsIcEENS_9allocatorIcEEEENS4_IS6_EEEE
___destroy_helper_block_e8_32c66_ZTSNSt3__112basic_stringIcNS_11char_traitsIcEENS_9allocatorIcEEEE56c66_ZTSNSt3__112basic_stringIcNS_11char_traitsIcEENS_9allocatorIcEEEE80c89_ZTSNSt3__16vectorINS_12basic_stringIcNS_11char_traitsIcEENS_9allocatorIcEEEENS4_IS6_EEEE
____ZN3ims6Client12deinitializeEb_block_invoke
____ZNK3ims12ClientHandle9dumpStateERKNSt3__112basic_stringIcNS1_11char_traitsIcEENS1_9allocatorIcEEEES9__block_invoke
___copy_helper_block_e8_32c66_ZTSNSt3__112basic_stringIcNS_11char_traitsIcEENS_9allocatorIcEEEE56c66_ZTSNSt3__112basic_stringIcNS_11char_traitsIcEENS_9allocatorIcEEEE
___destroy_helper_block_e8_32c66_ZTSNSt3__112basic_stringIcNS_11char_traitsIcEENS_9allocatorIcEEEE56c66_ZTSNSt3__112basic_stringIcNS_11char_traitsIcEENS_9allocatorIcEEEE
____ZNK3ims12ClientHandle14qosEstablishedERKNSt3__16vectorIjNS1_9allocatorIjEEEE_block_invoke
___copy_helper_block_e8_32c39_ZTSNSt3__16vectorIjNS_9allocatorIjEEEE
___destroy_helper_block_e8_32c39_ZTSNSt3__16vectorIjNS_9allocatorIjEEEE
____ZN3ims12ClientHandle23qosEstablishedForBearerEjbRKNSt3__16vectorItNS1_9allocatorItEEEE_block_invoke
___copy_helper_block_e8_40c39_ZTSNSt3__16vectorItNS_9allocatorItEEEE
___destroy_helper_block_e8_40c39_ZTSNSt3__16vectorItNS_9allocatorItEEEE
____ZN3ims12ClientHandle10qosRevokedEj_block_invoke
____ZNK3ims6Client13mergeAllCallsEv_block_invoke
____ZNK3ims6Client17endConferenceCallEv_block_invoke
____ZNK3ims6Client7sendSMSERKNSt3__112basic_stringIcNS1_11char_traitsIcEENS1_9allocatorIcEEEES9_RKNS1_6vectorIhNS5_IhEEEES9_b_block_invoke
___copy_helper_block_e8_32c66_ZTSNSt3__112basic_stringIcNS_11char_traitsIcEENS_9allocatorIcEEEE56c66_ZTSNSt3__112basic_stringIcNS_11char_traitsIcEENS_9allocatorIcEEEE80c66_ZTSNSt3__112basic_stringIcNS_11char_traitsIcEENS_9allocatorIcEEEE104c39_ZTSNSt3__16vectorIhNS_9allocatorIhEEEE128c66_ZTSNSt3__112basic_stringIcNS_11char_traitsIcEENS_9allocatorIcEEEE
___destroy_helper_block_e8_32c66_ZTSNSt3__112basic_stringIcNS_11char_traitsIcEENS_9allocatorIcEEEE56c66_ZTSNSt3__112basic_stringIcNS_11char_traitsIcEENS_9allocatorIcEEEE80c66_ZTSNSt3__112basic_stringIcNS_11char_traitsIcEENS_9allocatorIcEEEE104c39_ZTSNSt3__16vectorIhNS_9allocatorIhEEEE128c66_ZTSNSt3__112basic_stringIcNS_11char_traitsIcEENS_9allocatorIcEEEE
____ZNK3ims6Client8sendUssdERKNSt3__112basic_stringIcNS1_11char_traitsIcEENS1_9allocatorIcEEEE_block_invoke
____ZNK3ims6Client10cancelUssdEv_block_invoke
____ZN3ims6Client21updateNetworkServicesERKNS_15NetworkServicesE_block_invoke
___copy_helper_block_e8_32c66_ZTSNSt3__112basic_stringIcNS_11char_traitsIcEENS_9allocatorIcEEEE56c27_ZTSN3ims15NetworkServicesE
___destroy_helper_block_e8_32c66_ZTSNSt3__112basic_stringIcNS_11char_traitsIcEENS_9allocatorIcEEEE56c27_ZTSN3ims15NetworkServicesE
__ZN3ims15NetworkServicesD1Ev
____ZN3ims6Client20updateSimAccessClassERKj_block_invoke
____ZN3ims6Client17setThumperEnabledEb_block_invoke
____ZN3ims6Client13transferCallsERKNSt3__112basic_stringIcNS1_11char_traitsIcEENS1_9allocatorIcEEEES9__block_invoke
____ZN3ims6Client13transferCallsEv_block_invoke
____ZN3ims12ClientHandle21authChallengeResponseERKNS_21AuthChallengeResponseE_block_invoke
____ZN3ims15EmergencyClient18exitEmergencyStateEv_block_invoke
____ZN3ims15EmergencyClient21updateNetworkServicesERKNS_15NetworkServicesE_block_invoke
____ZNK3ims12ClientHandle17reportDeviceEventERKj_block_invoke
____ZNK3ims12ClientHandle27reportConnectivityAvailableEb_block_invoke
____ZNK3ims12ClientHandle13setCapabilityERKNS_12CapabilitiesEb_block_invoke
____ZNK3ims12ClientHandle13setCapabilityERKNS_12CapabilitiesEb_block_invoke.37
____ZNK3ims12ClientHandle13setCapabilityERKNS_12CapabilitiesEb_block_invoke_2
____ZNK3ims12ClientHandle13setCapabilityERKNS_12CapabilitiesEb_block_invoke.40
____ZN3ims12ClientHandle11setTextModeENS_20TextMediaSessionModeEb_block_invoke
____ZN3ims12ClientHandle26sendSuppServicesConfigInfoEPK14__CFDictionaryS3__block_invoke
___copy_helper_block_e8_32c66_ZTSNSt3__112basic_stringIcNS_11char_traitsIcEENS_9allocatorIcEEEE56c16_ZTS10XcapConfig416c24_ZTSN3ims12CFDictionaryE
___destroy_helper_block_e8_32c66_ZTSNSt3__112basic_stringIcNS_11char_traitsIcEENS_9allocatorIcEEEE56c16_ZTS10XcapConfig416c24_ZTSN3ims12CFDictionaryE
____ZN3ims12ClientHandle24sendSuppServicesProvInfoEPK14__CFDictionary_block_invoke
___copy_helper_block_e8_32c66_ZTSNSt3__112basic_stringIcNS_11char_traitsIcEENS_9allocatorIcEEEE56c24_ZTSN3ims12CFDictionaryE
___destroy_helper_block_e8_32c66_ZTSNSt3__112basic_stringIcNS_11char_traitsIcEENS_9allocatorIcEEEE56c24_ZTSN3ims12CFDictionaryE
____ZNK3ims12ClientHandle7setMuteEb_block_invoke
____ZNK3ims10CallHandle8playDtmfEh_block_invoke
____ZNK3ims10CallHandle8playDtmfERKNSt3__16vectorIhNS1_9allocatorIhEEEE_block_invoke
___copy_helper_block_e8_32c66_ZTSNSt3__112basic_stringIcNS_11char_traitsIcEENS_9allocatorIcEEEE56c39_ZTSNSt3__16vectorIhNS_9allocatorIhEEEE
___destroy_helper_block_e8_32c66_ZTSNSt3__112basic_stringIcNS_11char_traitsIcEENS_9allocatorIcEEEE56c39_ZTSNSt3__16vectorIhNS_9allocatorIhEEEE
____ZNK3ims10CallHandle8stopDtmfEv_block_invoke
____ZNK3ims10CallHandle40reportBrandedCallingImageFetchingFailureEv_block_invoke
____ZN3ims4Call4dialERKNSt3__112basic_stringIcNS1_11char_traitsIcEENS1_9allocatorIcEEEERKNS_10CallConfigES9_b_block_invoke
__ZN14IMSCallOptionsC1ERKS_
___copy_helper_block_e8_32c66_ZTSNSt3__112basic_stringIcNS_11char_traitsIcEENS_9allocatorIcEEEE56c20_ZTS14IMSCallOptions
___destroy_helper_block_e8_32c66_ZTSNSt3__112basic_stringIcNS_11char_traitsIcEENS_9allocatorIcEEEE56c20_ZTS14IMSCallOptions
____ZN3ims13EmergencyCall4dialERKNSt3__112basic_stringIcNS1_11char_traitsIcEENS1_9allocatorIcEEEES9_RKNS_10CallConfigERKNS_11StackConfigE_block_invoke
___copy_helper_block_e8_32c66_ZTSNSt3__112basic_stringIcNS_11char_traitsIcEENS_9allocatorIcEEEE56c20_ZTS14IMSCallOptions5080c23_ZTSN3ims11StackConfigE5784c66_ZTSNSt3__112basic_stringIcNS_11char_traitsIcEENS_9allocatorIcEEEE5808c24_ZTSN3ims12CFDictionaryE5824c24_ZTSN3ims12CFDictionaryE
___destroy_helper_block_e8_32c66_ZTSNSt3__112basic_stringIcNS_11char_traitsIcEENS_9allocatorIcEEEE56c20_ZTS14IMSCallOptions5080c23_ZTSN3ims11StackConfigE5784c66_ZTSNSt3__112basic_stringIcNS_11char_traitsIcEENS_9allocatorIcEEEE5808c24_ZTSN3ims12CFDictionaryE5824c24_ZTSN3ims12CFDictionaryE
____ZN3ims13EmergencyCall4dialERKNSt3__112basic_stringIcNS1_11char_traitsIcEENS1_9allocatorIcEEEES9_RKNS_10CallConfigERKNS_11StackConfigE_block_invoke.52
___copy_helper_block_e8_32c66_ZTSNSt3__112basic_stringIcNS_11char_traitsIcEENS_9allocatorIcEEEE56c20_ZTS14IMSCallOptions5080c23_ZTSN3ims11StackConfigE5784c66_ZTSNSt3__112basic_stringIcNS_11char_traitsIcEENS_9allocatorIcEEEE5808c24_ZTSN3ims12CFDictionaryE
___destroy_helper_block_e8_32c66_ZTSNSt3__112basic_stringIcNS_11char_traitsIcEENS_9allocatorIcEEEE56c20_ZTS14IMSCallOptions5080c23_ZTSN3ims11StackConfigE5784c66_ZTSNSt3__112basic_stringIcNS_11char_traitsIcEENS_9allocatorIcEEEE5808c24_ZTSN3ims12CFDictionaryE
____ZN3ims13EmergencyCall4dialERKNSt3__112basic_stringIcNS1_11char_traitsIcEENS1_9allocatorIcEEEES9_RKNS_10CallConfigERKNS_11StackConfigE_block_invoke.54
___copy_helper_block_e8_32c66_ZTSNSt3__112basic_stringIcNS_11char_traitsIcEENS_9allocatorIcEEEE56c20_ZTS14IMSCallOptions5080c23_ZTSN3ims11StackConfigE5784c66_ZTSNSt3__112basic_stringIcNS_11char_traitsIcEENS_9allocatorIcEEEE
___destroy_helper_block_e8_32c66_ZTSNSt3__112basic_stringIcNS_11char_traitsIcEENS_9allocatorIcEEEE56c20_ZTS14IMSCallOptions5080c23_ZTSN3ims11StackConfigE5784c66_ZTSNSt3__112basic_stringIcNS_11char_traitsIcEENS_9allocatorIcEEEE
____ZN3ims4Call4pullERKNSt3__112basic_stringIcNS1_11char_traitsIcEENS1_9allocatorIcEEEERKNS_10CallConfigE_block_invoke
___copy_helper_block_e8_32c20_ZTS14IMSCallOptions
___destroy_helper_block_e8_32c20_ZTS14IMSCallOptions
____ZNK3ims4Call4ringEv_block_invoke
____ZNK3ims4Call7refreshEb_block_invoke
____ZNK3ims4Call4holdEv_block_invoke
____ZNK3ims4Call6resumeEv_block_invoke
____ZN3ims10CallHandle23setTextMediaSessionModeENS_20TextMediaSessionModeE_block_invoke
____ZNK3ims10CallHandle6hangupERKNS_13CallEndReasonE_block_invoke
____ZNK3ims10CallHandle6answerERKNSt3__112basic_stringIcNS1_11char_traitsIcEENS1_9allocatorIcEEEE_block_invoke
____ZN3ims10CallHandle12setRelayCallEb_block_invoke
__ZNK3ims10CallHandle4ringEv
__ZNK3ims10CallHandle4muteEb
__ZN3ims4CallD1Ev
__ZN3ims4CallD0Ev
__ZN3ims13EmergencyCallD1Ev
__ZN3ims13EmergencyCallD0Ev
__ZN3ims15EmergencyClientD1Ev
__ZN3ims15EmergencyClientD0Ev
__ZN3ims25StackEventDelegateWrapperD1Ev
__ZN3ims25StackEventDelegateWrapperD0Ev
__ZN3ims25StackEventDelegateWrapper30handleRegistrationStateChangedERKNS_17RegistrationStateE
__ZNSt3__120__shared_ptr_pointerIPN3ims25StackEventDelegateWrapperENS_10shared_ptrINS1_18StackEventDelegateEE27__shared_ptr_default_deleteIS5_S2_EENS_9allocatorIS2_EEED1Ev
__ZNSt3__120__shared_ptr_pointerIPN3ims25StackEventDelegateWrapperENS_10shared_ptrINS1_18StackEventDelegateEE27__shared_ptr_default_deleteIS5_S2_EENS_9allocatorIS2_EEED0Ev
__ZNSt3__120__shared_ptr_pointerIPN3ims25StackEventDelegateWrapperENS_10shared_ptrINS1_18StackEventDelegateEE27__shared_ptr_default_deleteIS5_S2_EENS_9allocatorIS2_EEE16__on_zero_sharedEv
__ZNKSt3__120__shared_ptr_pointerIPN3ims25StackEventDelegateWrapperENS_10shared_ptrINS1_18StackEventDelegateEE27__shared_ptr_default_deleteIS5_S2_EENS_9allocatorIS2_EEE13__get_deleterERKSt9type_info
__ZNSt3__120__shared_ptr_pointerIPN3ims25StackEventDelegateWrapperENS_10shared_ptrINS1_18StackEventDelegateEE27__shared_ptr_default_deleteIS5_S2_EENS_9allocatorIS2_EEE21__on_zero_shared_weakEv
__ZN3ims24CallEventDelegateWrapperD1Ev
__ZN3ims24CallEventDelegateWrapperD0Ev
__ZN3ims24CallEventDelegateWrapper21handleDisconnectEventERKNSt3__112basic_stringIcNS1_11char_traitsIcEENS1_9allocatorIcEEEES9_RKNS_14DisconnectInfoE
__ZN3ims24CallEventDelegateWrapper30handleEmergencySessionRequiredERKNSt3__112basic_stringIcNS1_11char_traitsIcEENS1_9allocatorIcEEEES9_b
__ZNSt3__120__shared_ptr_pointerIPN3ims24CallEventDelegateWrapperENS_10shared_ptrINS1_17CallEventDelegateEE27__shared_ptr_default_deleteIS5_S2_EENS_9allocatorIS2_EEED1Ev
__ZNSt3__120__shared_ptr_pointerIPN3ims24CallEventDelegateWrapperENS_10shared_ptrINS1_17CallEventDelegateEE27__shared_ptr_default_deleteIS5_S2_EENS_9allocatorIS2_EEED0Ev
__ZNSt3__120__shared_ptr_pointerIPN3ims24CallEventDelegateWrapperENS_10shared_ptrINS1_17CallEventDelegateEE27__shared_ptr_default_deleteIS5_S2_EENS_9allocatorIS2_EEE16__on_zero_sharedEv
__ZNKSt3__120__shared_ptr_pointerIPN3ims24CallEventDelegateWrapperENS_10shared_ptrINS1_17CallEventDelegateEE27__shared_ptr_default_deleteIS5_S2_EENS_9allocatorIS2_EEE13__get_deleterERKSt9type_info
__ZNSt3__120__shared_ptr_pointerIPN3ims24CallEventDelegateWrapperENS_10shared_ptrINS1_17CallEventDelegateEE27__shared_ptr_default_deleteIS5_S2_EENS_9allocatorIS2_EEE21__on_zero_shared_weakEv
__ZN3ims31CallManagerEventDelegateWrapperD1Ev
__ZN3ims31CallManagerEventDelegateWrapperD0Ev
__ZN3ims31CallManagerEventDelegateWrapper19handleIncomingEventEPNS_10CallHandleERKNS_16CallIncomingInfoE
__ZNSt3__120__shared_ptr_pointerIPN3ims31CallManagerEventDelegateWrapperENS_10shared_ptrINS1_24CallManagerEventDelegateEE27__shared_ptr_default_deleteIS5_S2_EENS_9allocatorIS2_EEED1Ev
__ZNSt3__120__shared_ptr_pointerIPN3ims31CallManagerEventDelegateWrapperENS_10shared_ptrINS1_24CallManagerEventDelegateEE27__shared_ptr_default_deleteIS5_S2_EENS_9allocatorIS2_EEED0Ev
__ZNSt3__120__shared_ptr_pointerIPN3ims31CallManagerEventDelegateWrapperENS_10shared_ptrINS1_24CallManagerEventDelegateEE27__shared_ptr_default_deleteIS5_S2_EENS_9allocatorIS2_EEE16__on_zero_sharedEv
__ZNKSt3__120__shared_ptr_pointerIPN3ims31CallManagerEventDelegateWrapperENS_10shared_ptrINS1_24CallManagerEventDelegateEE27__shared_ptr_default_deleteIS5_S2_EENS_9allocatorIS2_EEE13__get_deleterERKSt9type_info
__ZNSt3__120__shared_ptr_pointerIPN3ims31CallManagerEventDelegateWrapperENS_10shared_ptrINS1_24CallManagerEventDelegateEE27__shared_ptr_default_deleteIS5_S2_EENS_9allocatorIS2_EEE21__on_zero_shared_weakEv
__ZN3ims27MessageEventDelegateWrapperD1Ev
__ZN3ims27MessageEventDelegateWrapperD0Ev
__ZN3ims27MessageEventDelegateWrapper21handleMessageReceivedERKNS_11MessageInfoE
__ZNSt3__120__shared_ptr_pointerIPN3ims27MessageEventDelegateWrapperENS_10shared_ptrINS1_20MessageEventDelegateEE27__shared_ptr_default_deleteIS5_S2_EENS_9allocatorIS2_EEED1Ev
__ZNSt3__120__shared_ptr_pointerIPN3ims27MessageEventDelegateWrapperENS_10shared_ptrINS1_20MessageEventDelegateEE27__shared_ptr_default_deleteIS5_S2_EENS_9allocatorIS2_EEED0Ev
__ZNSt3__120__shared_ptr_pointerIPN3ims27MessageEventDelegateWrapperENS_10shared_ptrINS1_20MessageEventDelegateEE27__shared_ptr_default_deleteIS5_S2_EENS_9allocatorIS2_EEE16__on_zero_sharedEv
__ZNKSt3__120__shared_ptr_pointerIPN3ims27MessageEventDelegateWrapperENS_10shared_ptrINS1_20MessageEventDelegateEE27__shared_ptr_default_deleteIS5_S2_EENS_9allocatorIS2_EEE13__get_deleterERKSt9type_info
__ZNSt3__120__shared_ptr_pointerIPN3ims27MessageEventDelegateWrapperENS_10shared_ptrINS1_20MessageEventDelegateEE27__shared_ptr_default_deleteIS5_S2_EENS_9allocatorIS2_EEE21__on_zero_shared_weakEv
__ZN3ims24XcapEventDelegateWrapperD1Ev
__ZN3ims24XcapEventDelegateWrapperD0Ev
__ZNSt3__120__shared_ptr_pointerIPN3ims24XcapEventDelegateWrapperENS_10shared_ptrINS1_17XcapEventDelegateEE27__shared_ptr_default_deleteIS5_S2_EENS_9allocatorIS2_EEED1Ev
__ZNSt3__120__shared_ptr_pointerIPN3ims24XcapEventDelegateWrapperENS_10shared_ptrINS1_17XcapEventDelegateEE27__shared_ptr_default_deleteIS5_S2_EENS_9allocatorIS2_EEED0Ev
__ZNSt3__120__shared_ptr_pointerIPN3ims24XcapEventDelegateWrapperENS_10shared_ptrINS1_17XcapEventDelegateEE27__shared_ptr_default_deleteIS5_S2_EENS_9allocatorIS2_EEE16__on_zero_sharedEv
__ZNKSt3__120__shared_ptr_pointerIPN3ims24XcapEventDelegateWrapperENS_10shared_ptrINS1_17XcapEventDelegateEE27__shared_ptr_default_deleteIS5_S2_EENS_9allocatorIS2_EEE13__get_deleterERKSt9type_info
__ZNSt3__120__shared_ptr_pointerIPN3ims24XcapEventDelegateWrapperENS_10shared_ptrINS1_17XcapEventDelegateEE27__shared_ptr_default_deleteIS5_S2_EENS_9allocatorIS2_EEE21__on_zero_shared_weakEv
__ZN3ims15NetworkServicesaSERKS0_
__ZN3ims13NetworkConfigC2ERKS0_
__ZN3ims12DeviceConfigC2ERKS0_
__ZN10XcapConfigC2ERKS_
__ZNSt3__16vectorItNS_9allocatorItEEEC2ERKS3_
____Z32IMSClientRegisterForNotificationPN3ims12ClientHandleE14IMSClientEventbPFvS2_PK14__CFDictionaryPvES6__block_invoke
__ZNK3xpc4dict12object_proxyaSES0_
__ZL23_IMSClientRegisterClassPv
__ZL17_IMSClientDestroyP11AgentClient
__ZL18_IMSClientDescribeP11AgentClient
____ZL17_IMSClientDestroyP11AgentClient_block_invoke
__ZNSt3__120__shared_ptr_emplaceI11ClientStateNS_9allocatorIS1_EEED1Ev
__ZNSt3__120__shared_ptr_emplaceI11ClientStateNS_9allocatorIS1_EEED0Ev
__ZNSt3__120__shared_ptr_emplaceI11ClientStateNS_9allocatorIS1_EEE16__on_zero_sharedEv
__ZNSt3__120__shared_ptr_emplaceI11ClientStateNS_9allocatorIS1_EEE21__on_zero_shared_weakEv
____ZL26_IMSClientCreateConnectionNSt3__110shared_ptrI11ClientStateEE_block_invoke
___copy_helper_block_e8_32c36_ZTSNSt3__18weak_ptrI11ClientStateEE
___destroy_helper_block_e8_32c36_ZTSNSt3__18weak_ptrI11ClientStateEE
____ZL26_IMSClientCreateConnectionNSt3__110shared_ptrI11ClientStateEE_block_invoke.13
__ZL29_IMSClientInvokeCallback_syncNSt3__110shared_ptrI11ClientStateEE14IMSClientEventN3ctu2cf11CFSharedRefIK14__CFDictionaryEE
____ZL29_IMSClientInvokeCallback_syncNSt3__110shared_ptrI11ClientStateEE14IMSClientEventN3ctu2cf11CFSharedRefIK14__CFDictionaryEE_block_invoke
____ZL29_IMSClientInvokeCallback_syncNSt3__110shared_ptrI11ClientStateEE14IMSClientEventN3ctu2cf11CFSharedRefIK14__CFDictionaryEE_block_invoke_2
___copy_helper_block_e8_32c36_ZTSNSt3__18weak_ptrI11ClientStateEE64c46_ZTSKN3ctu2cf11CFSharedRefIK14__CFDictionaryEE
___destroy_helper_block_e8_32c36_ZTSNSt3__18weak_ptrI11ClientStateEE64c46_ZTSKN3ctu2cf11CFSharedRefIK14__CFDictionaryEE
____ZL18_IMSClientRegisterNSt3__110shared_ptrI11ClientStateEEPFv14IMSClientEventPK14__CFDictionaryPvES7__block_invoke
____ZL18_IMSClientRegisterNSt3__110shared_ptrI11ClientStateEEPFv14IMSClientEventPK14__CFDictionaryPvES7__block_invoke_2
___copy_helper_block_e8_32r56c39_ZTSNSt3__110shared_ptrI11ClientStateEE
___destroy_helper_block_e8_32r56c39_ZTSNSt3__110shared_ptrI11ClientStateEE
__ZNSt3__16__treeINS_12__value_typeI14IMSClientEvent23IMSClientCallBackStructEENS_19__map_value_compareIS2_S4_NS_4lessIS2_EELb1EEENS_9allocatorIS4_EEE25__emplace_unique_key_argsIS2_JRKNS_21piecewise_construct_tENS_5tupleIJRKS2_EEENSG_IJEEEEEENS_4pairINS_15__tree_iteratorIS4_PNS_11__tree_nodeIS4_PvEElEEbEERKT_DpOT0_
__ZNSt3__16__treeINS_12__value_typeI14IMSClientEvent23IMSClientCallBackStructEENS_19__map_value_compareIS2_S4_NS_4lessIS2_EELb1EEENS_9allocatorIS4_EEE25__emplace_unique_key_argsIS2_JRKNS_21piecewise_construct_tENS_5tupleIJOS2_EEENSG_IJEEEEEENS_4pairINS_15__tree_iteratorIS4_PNS_11__tree_nodeIS4_PvEElEEbEERKT_DpOT0_
__ZNSt3__16__treeINS_12__value_typeI14IMSClientEvent23IMSClientCallBackStructEENS_19__map_value_compareIS2_S4_NS_4lessIS2_EELb1EEENS_9allocatorIS4_EEE16__insert_node_atEPNS_15__tree_end_nodeIPNS_16__tree_node_baseIPvEEEERSG_SG_
__ZNSt3__16__treeINS_12__value_typeI14IMSClientEvent23IMSClientCallBackStructEENS_19__map_value_compareIS2_S4_NS_4lessIS2_EELb1EEENS_9allocatorIS4_EEE7destroyEPNS_11__tree_nodeIS4_PvEE
__ZNSt3__110shared_ptrI11ClientStateED2B6v15006Ev
__ZNSt3__16__treeINS_12__value_typeI14IMSClientEvent23IMSClientCallBackStructEENS_19__map_value_compareIS2_S4_NS_4lessIS2_EELb1EEENS_9allocatorIS4_EEE14__erase_uniqueIS2_EEmRKT_
__ZN26SipSecurityAssociationPairD2Ev
__ZN26SipSecurityAssociationPairD1Ev
__ZN26SipSecurityAssociationPairD0Ev
__ZN26SipSecurityAssociationPair15createTemporaryERK9IpAddressS2_RKNSt3__112basic_stringIcNS3_11char_traitsIcEENS3_9allocatorIcEEEEjj
__ZN26SipSecurityAssociationPair6updateERK9IpAddressS2_P29SipIPSec3gppSecurityMechanismPA16_KhS7_
__ZNK26SipSecurityAssociationPair12loggableNameEv
__ZN15SipPrackHandlerC2EP10SipSessionP26SipServerInviteTransaction
__ZN15SipPrackHandlerD2Ev
__ZN15SipPrackHandlerD1Ev
__ZThn8_N15SipPrackHandlerD1Ev
__ZThn88_N15SipPrackHandlerD1Ev
__ZN15SipPrackHandlerD0Ev
__ZThn8_N15SipPrackHandlerD0Ev
__ZThn88_N15SipPrackHandlerD0Ev
__ZNK15SipPrackHandler12loggableNameEv
__ZThn88_NK15SipPrackHandler12loggableNameEv
__ZN15SipPrackHandler11handlePrackERK10SipRequestP20SipServerTransactionP13SipDialogForkNSt3__110shared_ptrI8SDPModelEE
__ZN15SipPrackHandler14timerIdForRseqEj
__ZNK15SipPrackHandler17hasOutstandingSdpEv
__ZN15SipPrackHandler22sendNextQueuedResponseEv
__ZN15SipPrackHandler12sendResponseERK11SipResponse
__ZNK15SipPrackHandler21responseRequiresPrackERK10SipRequestRK11SipResponse
__ZN15SipPrackHandler13queueResponseERK11SipResponse
__ZN15SipPrackHandler11handleTimerEP17SipTimerContainerRKNSt3__112basic_stringIcNS2_11char_traitsIcEENS2_9allocatorIcEEEE
__ZNK15SipPrackHandler9logPrefixER12ImsOutStream
__ZThn8_NK15SipPrackHandler9logPrefixER12ImsOutStream
__ZNSt3__110__list_impIP11SipResponseNS_9allocatorIS2_EEE5clearEv
__ZNSt3__112__hash_tableINS_17__hash_value_typeIjP15SipSentResponseEENS_22__unordered_map_hasherIjS4_NS_4hashIjEENS_8equal_toIjEELb1EEENS_21__unordered_map_equalIjS4_S9_S7_Lb1EEENS_9allocatorIS4_EEED2Ev
__ZNSt3__112__hash_tableINS_17__hash_value_typeIjP15SipSentResponseEENS_22__unordered_map_hasherIjS4_NS_4hashIjEENS_8equal_toIjEELb1EEENS_21__unordered_map_equalIjS4_S9_S7_Lb1EEENS_9allocatorIS4_EEE4findIjEENS_15__hash_iteratorIPNS_11__hash_nodeIS4_PvEEEERKT_
__ZN12ImsTcpSocketD2Ev
__ZN12ImsTcpSocket5closeEv
__ZN12ImsTcpSocketD1Ev
__ZThn72_N12ImsTcpSocketD1Ev
__ZN12ImsTcpSocketD0Ev
__ZThn72_N12ImsTcpSocketD0Ev
__ZN12ImsTcpSocket14readFromSocketEiPNSt3__112basic_stringIcNS0_11char_traitsIcEENS0_9allocatorIcEEEE
__ZN12ImsTcpSocket20_handleDataAvailableEv
__ZN12ImsTcpSocket17setMaxSegmentSizeEii
__ZN12ImsTcpSocket15_sendQueuedDataEv
__ZN12ImsTcpSocket10initializeERK9IpAddressS2_RKNSt3__112basic_stringIcNS3_11char_traitsIcEENS3_9allocatorIcEEEERKN3ims8DispatchEbi
__ZN12ImsTcpSocket10initializeEiRK9IpAddressRKN3ims8DispatchE
____ZN12ImsTcpSocket10initializeEiRK9IpAddressRKN3ims8DispatchE_block_invoke
____ZN12ImsTcpSocket10initializeEiRK9IpAddressRKN3ims8DispatchE_block_invoke.40
__ZNK12ImsTcpSocket4nameEv
__ZN12ImsTcpSocket18socketReadCallbackEv
____ZN12ImsTcpSocket18socketReadCallbackEv_block_invoke
__ZN12ImsTcpSocket19_initializeIncomingEiRK9IpAddressRKN3ims8DispatchE
__ZN12ImsTcpSocket4sendEPKhm
__ZN12ImsTcpSocket14_writeToSocketEPKhm
__ZN9ImsResultlsIlEERS_RKT_
__ZN12ImsTcpSocket4sendERKNSt3__112basic_stringIcNS0_11char_traitsIcEENS0_9allocatorIcEEEE
__ZN12ImsTcpSocket8shutdownEv
__ZN12ImsTcpSocket5resetEv
__ZN12ImsTcpSocket19socketInterfaceTypeEv
__ZThn72_N12ImsTcpSocket19socketInterfaceTypeEv
__ZN12ImsTcpSocket16initializeSocketERK9IpAddressS2_RKNSt3__112basic_stringIcNS3_11char_traitsIcEENS3_9allocatorIcEEEERKN3ims8DispatchEbi
__ZThn72_N12ImsTcpSocket16initializeSocketERK9IpAddressS2_RKNSt3__112basic_stringIcNS3_11char_traitsIcEENS3_9allocatorIcEEEERKN3ims8DispatchEbi
__ZN12ImsTcpSocket16initializeSocketEiRK9IpAddressRKN3ims8DispatchE
__ZThn72_N12ImsTcpSocket16initializeSocketEiRK9IpAddressRKN3ims8DispatchE
__ZN12ImsTcpSocket14sendOverSocketEPKhm
__ZThn72_N12ImsTcpSocket14sendOverSocketEPKhm
__ZN12ImsTcpSocket14sendOverSocketERKNSt3__112basic_stringIcNS0_11char_traitsIcEENS0_9allocatorIcEEEE
__ZThn72_N12ImsTcpSocket14sendOverSocketERKNSt3__112basic_stringIcNS0_11char_traitsIcEENS0_9allocatorIcEEEE
__ZNK12ImsTcpSocket17isSocketConnectedEv
__ZThn72_NK12ImsTcpSocket17isSocketConnectedEv
__ZNK12ImsTcpSocket17didRemoteEndCloseEv
__ZThn72_NK12ImsTcpSocket17didRemoteEndCloseEv
__ZN12ImsTcpSocket14shutdownSocketEv
__ZThn72_N12ImsTcpSocket14shutdownSocketEv
__ZN12ImsTcpSocket11closeSocketEv
__ZThn72_N12ImsTcpSocket11closeSocketEv
__ZN12ImsTcpSocket11resetSocketEv
__ZThn72_N12ImsTcpSocket11resetSocketEv
__ZNK12ImsTcpSocket10socketNameEv
__ZThn72_NK12ImsTcpSocket10socketNameEv
__ZNK12ImsTcpSocket14socketProtocolEv
__ZThn72_NK12ImsTcpSocket14socketProtocolEv
__ZNK12ImsTcpSocket16remoteEndAddressEv
__ZThn72_NK12ImsTcpSocket16remoteEndAddressEv
__ZN12ImsTcpSocket24initializeIncomingSocketEiRK9IpAddressRKN3ims8DispatchE
__ZThn72_N12ImsTcpSocket24initializeIncomingSocketEiRK9IpAddressRKN3ims8DispatchE
__ZN12ImsTcpSocket18isPortReuseAllowedEv
__ZThn72_N12ImsTcpSocket18isPortReuseAllowedEv
__ZN12ImsTcpSocket26socketInterfaceInitializedEv
__ZThn72_N12ImsTcpSocket26socketInterfaceInitializedEv
__ZNK12ImsTcpSocket18socketLocalAddressEv
__ZThn72_NK12ImsTcpSocket18socketLocalAddressEv
__ZN12ImsTcpSocket21setSocketLocalAddressERK9IpAddress
__ZThn72_N12ImsTcpSocket21setSocketLocalAddressERK9IpAddress
__ZNK12ImsTcpSocket25socketInterfaceDescriptorEv
__ZThn72_NK12ImsTcpSocket25socketInterfaceDescriptorEv
__ZN12ImsTcpSocket15socketDebugMaskEv
__ZThn72_N12ImsTcpSocket15socketDebugMaskEv
__ZN12ImsTcpSocket18setSocketDebugMaskEj
__ZThn72_N12ImsTcpSocket18setSocketDebugMaskEj
__ZN12ImsTcpSocket17setSocketDelegateEP29ImsTcpSocketInterfaceDelegate
__ZThn72_N12ImsTcpSocket17setSocketDelegateEP29ImsTcpSocketInterfaceDelegate
__ZN12ImsTcpSocket12setDscpClassE9DscpClass
__ZThn72_N12ImsTcpSocket12setDscpClassE9DscpClass
__ZN12ImsTcpSocket10socketTypeEv
__ZN12ImsTcpSocket14_handshakeDoneEv
__ZNK12ImsTcpSocket11isConnectedEv
__ZNK12ImsTcpSocket8protocolEv
__ZNSt3__110__list_impINS_6vectorIhNS_9allocatorIhEEEENS2_IS4_EEE5clearEv
__ZN15ImsLogContainerC2ERKNSt3__112basic_stringIcNS0_11char_traitsIcEENS0_9allocatorIcEEEE
__ZNK15ImsLogContainer9logResultER9ImsResult
__ZNK15ImsLogContainer9logResultEO9ImsResult
__ZNK15ImsLogContainer10infoStreamEv
__ZNK15ImsLogContainer12noticeStreamEv
__ZNK15ImsLogContainer10warnStreamEv
__ZNK15ImsLogContainer11errorStreamEv
__ZNK15ImsLogContainer11debugStreamEv
__ZNK15ImsLogContainer10spamStreamEv
__ZN15ImsLogContainer8facilityEv
__ZNK22ImsLogContainerWrapper9logPrefixER12ImsOutStream
__ZNK22ImsLogContainerWrapper10infoStreamEv
__ZNK22ImsLogContainerWrapper12noticeStreamEv
__ZNK22ImsLogContainerWrapper10warnStreamEv
__ZNK22ImsLogContainerWrapper11errorStreamEv
__ZNK22ImsLogContainerWrapper11debugStreamEv
__ZNK22ImsLogContainerWrapper10spamStreamEv
__ZN22ImsLogContainerWrapper8facilityEv
__ZN15ImsLogContainerD1Ev
__ZN15ImsLogContainerD0Ev
__ZN16SipPreconditions10ForkStatusC2EPS_RKNSt3__112basic_stringIcNS2_11char_traitsIcEENS2_9allocatorIcEEEE
__ZN16SipPreconditions10ForkStatus12setSatisfiedE20PreconditionStrength21PreconditionDirectionb
__ZN16SipPreconditions10ForkStatus23setPreconditionsEnabledEb
__ZN16SipPreconditions10ForkStatus19setNeedToSendUpdateEb
__ZN16SipPreconditionsD2Ev
__ZN16SipPreconditionsD1Ev
__ZN16SipPreconditionsD0Ev
__ZNK16SipPreconditions9logPrefixER12ImsOutStream
__ZN16SipPreconditions17forkStatusWithTagERKNSt3__112basic_stringIcNS0_11char_traitsIcEENS0_9allocatorIcEEEEb
__ZN16SipPreconditions26initializeMobileOriginatedERKNS_7OptionsE
__ZN16SipPreconditions26initializeMobileTerminatedERKNS_7OptionsERK10SipRequest
__ZN16SipPreconditions20internalInitializeMTERK10SipRequest
__ZNK16SipPreconditions20preconditionsEnabledERKNSt3__112basic_stringIcNS0_11char_traitsIcEENS0_9allocatorIcEEEE
__ZN16SipPreconditions17initializeNewForkERKNSt3__112basic_stringIcNS0_11char_traitsIcEENS0_9allocatorIcEEEE
__ZN16SipPreconditions25updateFromIncomingMessageERKNSt3__112basic_stringIcNS0_11char_traitsIcEENS0_9allocatorIcEEEERK10SipMessageb
__ZN16SipPreconditions23checkPreconditionStatusERKNSt3__112basic_stringIcNS0_11char_traitsIcEENS0_9allocatorIcEEEE
__ZNK16SipPreconditions32wantsPreconditionsRequiredHeaderERKNSt3__112basic_stringIcNS0_11char_traitsIcEENS0_9allocatorIcEEEERK10SipRequest
__ZN16SipPreconditions33addPreconditionsToOutgoingRequestERKNSt3__112basic_stringIcNS0_11char_traitsIcEENS0_9allocatorIcEEEEP10SipRequestb
__ZN16SipPreconditions33addPreconditionsToOutgoingMessageEPNS_10ForkStatusEP10SipMessage
__ZN16SipPreconditions34addPreconditionsToOutgoingResponseERKNSt3__112basic_stringIcNS0_11char_traitsIcEENS0_9allocatorIcEEEERK10SipRequestP11SipResponse
__ZNK16SipPreconditions27localPreconditionsSatisfiedERKNSt3__112basic_stringIcNS0_11char_traitsIcEENS0_9allocatorIcEEEE
__ZN16SipPreconditions25handleLocalQoSEstablishedERKNSt3__112basic_stringIcNS0_11char_traitsIcEENS0_9allocatorIcEEEE
__ZN16SipPreconditions33handleLocalPreconditionsSatisfiedERKNSt3__112basic_stringIcNS0_11char_traitsIcEENS0_9allocatorIcEEEE
__ZNK16SipPreconditions22needToSendUpdateInForkERKNSt3__112basic_stringIcNS0_11char_traitsIcEENS0_9allocatorIcEEEE
__ZNK16SipPreconditions9printInfoER12ImsOutStream
__ZNK16SipPreconditions34remotePreconditionsSatisfiedInForkERKNSt3__112basic_stringIcNS0_11char_traitsIcEENS0_9allocatorIcEEEE
__ZNK16SipPreconditions28preconditionsSatisfiedInForkERKNSt3__112basic_stringIcNS0_11char_traitsIcEENS0_9allocatorIcEEEE
__ZNK16SipPreconditions31preconditionsSatisfiedInAnyForkEv
__ZNK16SipPreconditions25preconditionsActiveInForkERKNSt3__112basic_stringIcNS0_11char_traitsIcEENS0_9allocatorIcEEEE
__ZNK16SipPreconditions28preconditionsActiveInAnyForkEv
__ZN16SipPreconditions37setRemotePreconditionsSatisfiedInForkERKNSt3__112basic_stringIcNS0_11char_traitsIcEENS0_9allocatorIcEEEEb
__ZN16SipPreconditions22supportLevelFromStringERKNSt3__112basic_stringIcNS0_11char_traitsIcEENS0_9allocatorIcEEEE
__ZN16SipPreconditions18strengthFromStringERKNSt3__112basic_stringIcNS0_11char_traitsIcEENS0_9allocatorIcEEEE20PreconditionStrength
__ZN16SipPreconditions10ForkStatusD1Ev
__ZN16SipPreconditions10ForkStatusD0Ev
__ZNSt3__16__treeINS_12__value_typeINS_12basic_stringIcNS_11char_traitsIcEENS_9allocatorIcEEEEPN16SipPreconditions10ForkStatusEEENS_19__map_value_compareIS7_SB_NS_4lessIS7_EELb1EEENS5_ISB_EEE7destroyEPNS_11__tree_nodeISB_PvEE
__ZNSt3__16__treeINS_12__value_typeINS_12basic_stringIcNS_11char_traitsIcEENS_9allocatorIcEEEEPN16SipPreconditions10ForkStatusEEENS_19__map_value_compareIS7_SB_NS_4lessIS7_EELb1EEENS5_ISB_EEE4findIS7_EENS_15__tree_iteratorISB_PNS_11__tree_nodeISB_PvEElEERKT_
__ZNSt3__16__treeINS_12__value_typeINS_12basic_stringIcNS_11char_traitsIcEENS_9allocatorIcEEEEPN16SipPreconditions10ForkStatusEEENS_19__map_value_compareIS7_SB_NS_4lessIS7_EELb1EEENS5_ISB_EEE25__emplace_unique_key_argsIS7_JRKNS_21piecewise_construct_tENS_5tupleIJRKS7_EEENSM_IJEEEEEENS_4pairINS_15__tree_iteratorISB_PNS_11__tree_nodeISB_PvEElEEbEERKT_DpOT0_
__ZNSt3__16__treeINS_12__value_typeINS_12basic_stringIcNS_11char_traitsIcEENS_9allocatorIcEEEEPN16SipPreconditions10ForkStatusEEENS_19__map_value_compareIS7_SB_NS_4lessIS7_EELb1EEENS5_ISB_EEE12__find_equalIS7_EERPNS_16__tree_node_baseIPvEERPNS_15__tree_end_nodeISM_EERKT_
__ZNSt3__16__treeINS_12__value_typeINS_12basic_stringIcNS_11char_traitsIcEENS_9allocatorIcEEEEPN16SipPreconditions10ForkStatusEEENS_19__map_value_compareIS7_SB_NS_4lessIS7_EELb1EEENS5_ISB_EEE16__construct_nodeIJRKNS_21piecewise_construct_tENS_5tupleIJRKS7_EEENSM_IJEEEEEENS_10unique_ptrINS_11__tree_nodeISB_PvEENS_22__tree_node_destructorINS5_ISU_EEEEEEDpOT_
__ZNSt3__16__treeINS_12__value_typeINS_12basic_stringIcNS_11char_traitsIcEENS_9allocatorIcEEEEPN16SipPreconditions10ForkStatusEEENS_19__map_value_compareIS7_SB_NS_4lessIS7_EELb1EEENS5_ISB_EEE16__insert_node_atEPNS_15__tree_end_nodeIPNS_16__tree_node_baseIPvEEEERSM_SM_
__ZNSt3__122__tree_node_destructorINS_9allocatorINS_11__tree_nodeINS_12__value_typeINS_12basic_stringIcNS_11char_traitsIcEENS1_IcEEEEPN16SipPreconditions10ForkStatusEEEPvEEEEEclB6v15006EPSE_
__ZNKSt3__16__treeINS_12__value_typeINS_12basic_stringIcNS_11char_traitsIcEENS_9allocatorIcEEEEPN16SipPreconditions10ForkStatusEEENS_19__map_value_compareIS7_SB_NS_4lessIS7_EELb1EEENS5_ISB_EEE4findIS7_EENS_21__tree_const_iteratorISB_PNS_11__tree_nodeISB_PvEElEERKT_
__ZNKSt3__16vectorIPN16SipPreconditions10ForkStatusENS_9allocatorIS3_EEE20__throw_length_errorB6v15006Ev
__ZNSt3__119__allocate_at_leastB6v15006INS_9allocatorIPN16SipPreconditions10ForkStatusEEEEENS_19__allocation_resultINS_16allocator_traitsIT_E7pointerEEERS8_m
__ZeqRKNSt3__112basic_stringIcNS_11char_traitsIcEENS_9allocatorIcEEEERK8SipTimer
__ZN9SipTimersC2Ev
__ZN9SipTimers13resetDefaultsEv
__ZNK9SipTimers7isValidEv
__ZNK9SipTimers10timerValueERK8SipTimerj
__ZNK8SipTimereqERKS_
__ZN9SipTimers18setTimersFromPrefsERK8ImsPrefs
__ZNK9SipTimers3logER12ImsOutStream
__ZN9SipTimersD1Ev
__ZN9SipTimersD0Ev
__ZNK9SipTimers12loggableNameEv
__ZN8SipTimerC2ERKNSt3__112basic_stringIcNS0_11char_traitsIcEENS0_9allocatorIcEEEE
__ZNSt3__13mapINS_12basic_stringIcNS_11char_traitsIcEENS_9allocatorIcEEEEjNS_4lessIS6_EENS4_INS_4pairIKS6_jEEEEEC2B6v15006ERKSD_
__ZNSt3__13mapINS_12basic_stringIcNS_11char_traitsIcEENS_9allocatorIcEEEEjNS_4lessIS6_EENS4_INS_4pairIKS6_jEEEEE6insertB6v15006INS_20__map_const_iteratorINS_21__tree_const_iteratorINS_12__value_typeIS6_jEEPNS_11__tree_nodeISI_PvEElEEEEEEvT_SP_
__ZNSt3__16__treeINS_12__value_typeINS_12basic_stringIcNS_11char_traitsIcEENS_9allocatorIcEEEEjEENS_19__map_value_compareIS7_S8_NS_4lessIS7_EELb1EEENS5_IS8_EEE30__emplace_hint_unique_key_argsIS7_JRKNS_4pairIKS7_jEEEEENSG_INS_15__tree_iteratorIS8_PNS_11__tree_nodeIS8_PvEElEEbEENS_21__tree_const_iteratorIS8_SP_lEERKT_DpOT0_
__ZNSt3__16__treeINS_12__value_typeINS_12basic_stringIcNS_11char_traitsIcEENS_9allocatorIcEEEEjEENS_19__map_value_compareIS7_S8_NS_4lessIS7_EELb1EEENS5_IS8_EEE16__construct_nodeIJRKNS_4pairIKS7_jEEEEENS_10unique_ptrINS_11__tree_nodeIS8_PvEENS_22__tree_node_destructorINS5_ISO_EEEEEEDpOT_
__ZNSt3__16__treeINS_12__value_typeINS_12basic_stringIcNS_11char_traitsIcEENS_9allocatorIcEEEEjEENS_19__map_value_compareIS7_S8_NS_4lessIS7_EELb1EEENS5_IS8_EEE16__insert_node_atEPNS_15__tree_end_nodeIPNS_16__tree_node_baseIPvEEEERSJ_SJ_
__ZNSt3__16__treeINS_12__value_typeINS_12basic_stringIcNS_11char_traitsIcEENS_9allocatorIcEEEEjEENS_19__map_value_compareIS7_S8_NS_4lessIS7_EELb1EEENS5_IS8_EEE12__find_equalIS7_EERPNS_16__tree_node_baseIPvEERPNS_15__tree_end_nodeISJ_EERKT_
__ZNSt3__122__tree_node_destructorINS_9allocatorINS_11__tree_nodeINS_12__value_typeINS_12basic_stringIcNS_11char_traitsIcEENS1_IcEEEEjEEPvEEEEEclB6v15006EPSB_
__ZNSt3__16__treeINS_12__value_typeINS_12basic_stringIcNS_11char_traitsIcEENS_9allocatorIcEEEEjEENS_19__map_value_compareIS7_S8_NS_4lessIS7_EELb1EEENS5_IS8_EEE14__assign_multiINS_21__tree_const_iteratorIS8_PNS_11__tree_nodeIS8_PvEElEEEEvT_SM_
__ZNSt3__16__treeINS_12__value_typeINS_12basic_stringIcNS_11char_traitsIcEENS_9allocatorIcEEEEjEENS_19__map_value_compareIS7_S8_NS_4lessIS7_EELb1EEENS5_IS8_EEE16__find_leaf_highERPNS_15__tree_end_nodeIPNS_16__tree_node_baseIPvEEEERKS7_
__ZNSt3__16__treeINS_12__value_typeINS_12basic_stringIcNS_11char_traitsIcEENS_9allocatorIcEEEEjEENS_19__map_value_compareIS7_S8_NS_4lessIS7_EELb1EEENS5_IS8_EEE18_DetachedTreeCache13__detach_nextEPNS_11__tree_nodeIS8_PvEE
__ZNSt3__16__treeINS_12__value_typeINS_12basic_stringIcNS_11char_traitsIcEENS_9allocatorIcEEEEjEENS_19__map_value_compareIS7_S8_NS_4lessIS7_EELb1EEENS5_IS8_EEE18_DetachedTreeCacheD2B6v15006Ev
__ZNSt3__16__treeINS_12__value_typeINS_12basic_stringIcNS_11char_traitsIcEENS_9allocatorIcEEEEjEENS_19__map_value_compareIS7_S8_NS_4lessIS7_EELb1EEENS5_IS8_EEE25__emplace_unique_key_argsIS7_JRKNS_21piecewise_construct_tENS_5tupleIJRKS7_EEENSJ_IJEEEEEENS_4pairINS_15__tree_iteratorIS8_PNS_11__tree_nodeIS8_PvEElEEbEERKT_DpOT0_
__ZNSt3__16__treeINS_12__value_typeINS_12basic_stringIcNS_11char_traitsIcEENS_9allocatorIcEEEEjEENS_19__map_value_compareIS7_S8_NS_4lessIS7_EELb1EEENS5_IS8_EEE16__construct_nodeIJRKNS_21piecewise_construct_tENS_5tupleIJRKS7_EEENSJ_IJEEEEEENS_10unique_ptrINS_11__tree_nodeIS8_PvEENS_22__tree_node_destructorINS5_ISR_EEEEEEDpOT_
__ZNSt3__16__treeINS_12__value_typeINS_12basic_stringIcNS_11char_traitsIcEENS_9allocatorIcEEEEjEENS_19__map_value_compareIS7_S8_NS_4lessIS7_EELb1EEENS5_IS8_EEE14__erase_uniqueIS7_EEmRKT_
__ZNSt3__16__treeINS_12__value_typeINS_12basic_stringIcNS_11char_traitsIcEENS_9allocatorIcEEEEjEENS_19__map_value_compareIS7_S8_NS_4lessIS7_EELb1EEENS5_IS8_EEE4findIS7_EENS_15__tree_iteratorIS8_PNS_11__tree_nodeIS8_PvEElEERKT_
__ZNSt3__16__treeINS_12__value_typeINS_12basic_stringIcNS_11char_traitsIcEENS_9allocatorIcEEEEjEENS_19__map_value_compareIS7_S8_NS_4lessIS7_EELb1EEENS5_IS8_EEE5eraseENS_21__tree_const_iteratorIS8_PNS_11__tree_nodeIS8_PvEElEE
__ZNSt3__16__treeINS_12__value_typeINS_12basic_stringIcNS_11char_traitsIcEENS_9allocatorIcEEEEjEENS_19__map_value_compareIS7_S8_NS_4lessIS7_EELb1EEENS5_IS8_EEE21__remove_node_pointerEPNS_11__tree_nodeIS8_PvEE
__GLOBAL__sub_I_SipTimer.cpp
__ZN9SDPParser24parseAMRFormatParametersER18SDPMediaFormatInfotNSt3__112basic_stringIcNS2_11char_traitsIcEENS2_9allocatorIcEEEE
__ZL30parseAMRFormatParametersHelperR18SDPMediaFormatInfotbNSt3__112basic_stringIcNS1_11char_traitsIcEENS1_9allocatorIcEEEE
__ZN9SDPParser26parseAMRWBFormatParametersER18SDPMediaFormatInfotNSt3__112basic_stringIcNS2_11char_traitsIcEENS2_9allocatorIcEEEE
__ZN9SDPParser24parseEVSFormatParametersER18SDPMediaFormatInfotNSt3__112basic_stringIcNS2_11char_traitsIcEENS2_9allocatorIcEEEE
__ZN9SDPParser25parseDTMFFormatParametersER18SDPMediaFormatInfotNSt3__112basic_stringIcNS2_11char_traitsIcEENS2_9allocatorIcEEEE
__ZN9SDPParser24parseTTYFormatParametersER18SDPMediaFormatInfotNSt3__112basic_stringIcNS2_11char_traitsIcEENS2_9allocatorIcEEEE
__ZNSt3__119basic_istringstreamIcNS_11char_traitsIcEENS_9allocatorIcEEEC1B6v15006ERKNS_12basic_stringIcS2_S4_EEj
__ZNSt3__119basic_istringstreamIcNS_11char_traitsIcEENS_9allocatorIcEEED1Ev
__ZN9SDPParser27parseTTYRedFormatParametersER18SDPMediaFormatInfotNSt3__112basic_stringIcNS2_11char_traitsIcEENS2_9allocatorIcEEEE
__ZNSt3__115basic_stringbufIcNS_11char_traitsIcEENS_9allocatorIcEEEC2B6v15006ERKNS_12basic_stringIcS2_S4_EEj
__ZN12ImsTlsSocketD2Ev
__ZN12ImsTlsSocket5closeEv
__ZN12ImsTlsSocketD1Ev
__ZThn72_N12ImsTlsSocketD1Ev
__ZThn160_N12ImsTlsSocketD1Ev
__ZN12ImsTlsSocketD0Ev
__ZThn72_N12ImsTlsSocketD0Ev
__ZThn160_N12ImsTlsSocketD0Ev
__ZN12ImsTlsSocket20_handleDataAvailableEv
__ZN12ImsTlsSocket10initializeERK9IpAddressS2_RKNSt3__112basic_stringIcNS3_11char_traitsIcEENS3_9allocatorIcEEEERKN3ims8DispatchEbi
__ZN12ImsTlsSocket14_writeToSocketEPKhm
__ZN12ImsTlsSocket8shutdownEv
__ZN12ImsTlsSocket5resetEv
__ZN12ImsTlsSocket14_handshakeDoneEv
__ZN12ImsTlsSocket18readDataFromStreamEPvPm
__ZThn160_N12ImsTlsSocket18readDataFromStreamEPvPm
__ZN12ImsTlsSocket17writeDataToStreamEPKvPm
__ZThn160_N12ImsTlsSocket17writeDataToStreamEPKvPm
__ZNK12ImsTlsSocket11isConnectedEv
__ZN12ImsTlsSocket11onConnectedEv
__ZThn160_N12ImsTlsSocket11onConnectedEv
__ZN12ImsTlsSocket10socketTypeEv
__ZNK12ImsTlsSocket8protocolEv
__ZN17SDPParserSettings19initializeFromPrefsERK8ImsPrefs
__ZN9SDPParser12parseVersionERKNS_16SDPParserContextERNSt3__112basic_stringIcNS3_11char_traitsIcEENS3_9allocatorIcEEEERNS3_19basic_istringstreamIcS6_S8_EE
__ZN9SDPParser11parseOriginERKNS_16SDPParserContextERNSt3__112basic_stringIcNS3_11char_traitsIcEENS3_9allocatorIcEEEERNS3_19basic_istringstreamIcS6_S8_EE
__ZN9SDPParser16parseSessionNameERKNS_16SDPParserContextERNSt3__112basic_stringIcNS3_11char_traitsIcEENS3_9allocatorIcEEEERNS3_19basic_istringstreamIcS6_S8_EE
__ZN9SDPParser23parseSessionInformationERKNS_16SDPParserContextERNSt3__112basic_stringIcNS3_11char_traitsIcEENS3_9allocatorIcEEEERNS3_19basic_istringstreamIcS6_S8_EE
__ZN9SDPParser8parseURIERKNS_16SDPParserContextERNSt3__112basic_stringIcNS3_11char_traitsIcEENS3_9allocatorIcEEEERNS3_19basic_istringstreamIcS6_S8_EE
__ZN9SDPParser10parseEmailERKNS_16SDPParserContextERNSt3__112basic_stringIcNS3_11char_traitsIcEENS3_9allocatorIcEEEERNS3_19basic_istringstreamIcS6_S8_EE
__ZN9SDPParser16parsePhoneNumberERKNS_16SDPParserContextERNSt3__112basic_stringIcNS3_11char_traitsIcEENS3_9allocatorIcEEEERNS3_19basic_istringstreamIcS6_S8_EE
__ZN9SDPParser15parseConnectionERKNS_16SDPParserContextERNSt3__112basic_stringIcNS3_11char_traitsIcEENS3_9allocatorIcEEEERNS3_19basic_istringstreamIcS6_S8_EE
__ZN9SDPParser14parseBandwidthERKNS_16SDPParserContextERNSt3__112basic_stringIcNS3_11char_traitsIcEENS3_9allocatorIcEEEERNS3_19basic_istringstreamIcS6_S8_EE
__ZN9SDPParser9parseTimeERKNS_16SDPParserContextERNSt3__112basic_stringIcNS3_11char_traitsIcEENS3_9allocatorIcEEEERNS3_19basic_istringstreamIcS6_S8_EE
__ZN9SDPParser16parseRepeatTimesERKNS_16SDPParserContextERNSt3__112basic_stringIcNS3_11char_traitsIcEENS3_9allocatorIcEEEERNS3_19basic_istringstreamIcS6_S8_EE
__ZN9SDPParser13parseTimeZoneERKNS_16SDPParserContextERNSt3__112basic_stringIcNS3_11char_traitsIcEENS3_9allocatorIcEEEERNS3_19basic_istringstreamIcS6_S8_EE
__ZN9SDPParser18parseEncryptionKeyERKNS_16SDPParserContextERNSt3__112basic_stringIcNS3_11char_traitsIcEENS3_9allocatorIcEEEERNS3_19basic_istringstreamIcS6_S8_EE
__ZN9SDPParser14parseAttributeERKNS_16SDPParserContextERNSt3__112basic_stringIcNS3_11char_traitsIcEENS3_9allocatorIcEEEERNS3_19basic_istringstreamIcS6_S8_EE
__ZN9SDPParser10parseMediaERKNS_16SDPParserContextERNSt3__112basic_stringIcNS3_11char_traitsIcEENS3_9allocatorIcEEEERNS3_19basic_istringstreamIcS6_S8_EE
__ZNSt3__13mapI7SDPTypePFbRKN9SDPParser16SDPParserContextERNS_12basic_stringIcNS_11char_traitsIcEENS_9allocatorIcEEEERNS_19basic_istringstreamIcS8_SA_EEENS_4lessIS1_EENS9_INS_4pairIKS1_SH_EEEEED1B6v15006Ev
__ZNSt3__13mapINS_12basic_stringIcNS_11char_traitsIcEENS_9allocatorIcEEEEPFvNS_10shared_ptrI8SDPModelEERS6_ENS_4lessIS6_EENS4_INS_4pairIKS6_SC_EEEEED1B6v15006Ev
__ZNSt3__13mapI7SDPTypePFbRKN9SDPParser16SDPParserContextER8SDPMediaRNS_12basic_stringIcNS_11char_traitsIcEENS_9allocatorIcEEEEENS_4lessIS1_EENSB_INS_4pairIKS1_SG_EEEEED1B6v15006Ev
__ZNSt3__13mapINS_12basic_stringIcNS_11char_traitsIcEENS_9allocatorIcEEEEPFbR8SDPMediaRS6_ENS_4lessIS6_EENS4_INS_4pairIKS6_SB_EEEEED1B6v15006Ev
__ZNSt3__13mapINS_12basic_stringIcNS_11char_traitsIcEENS_9allocatorIcEEEEPFbR18SDPMediaFormatInfotS6_EN9SDPParser20str_caseless_compareENS4_INS_4pairIKS6_SA_EEEEED1B6v15006Ev
__ZNSt3__13mapINS_12basic_stringIcNS_11char_traitsIcEENS_9allocatorIcEEEEPFbP23SDPMediaFormatEVSParamsS6_ENS_4lessIS6_EENS4_INS_4pairIKS6_SA_EEEEED1B6v15006Ev
__ZNSt3__13mapINS_12basic_stringIcNS_11char_traitsIcEENS_9allocatorIcEEEEPFbP23SDPMediaFormatAMRParamsS6_ENS_4lessIS6_EENS4_INS_4pairIKS6_SA_EEEEED1B6v15006Ev
__ZNSt3__13mapINS_12basic_stringIcNS_11char_traitsIcEENS_9allocatorIcEEEEyNS_4lessIS6_EENS4_INS_4pairIKS6_yEEEEED1B6v15006Ev
__ZNSt3__13mapINS_12basic_stringIcNS_11char_traitsIcEENS_9allocatorIcEEEE17EVSBandwidthTypesNS_4lessIS6_EENS4_INS_4pairIKS6_S7_EEEEED1B6v15006Ev
__ZN9SDPParser5parseERKNSt3__112basic_stringIcNS0_11char_traitsIcEENS0_9allocatorIcEEEERK17SDPParserSettings
__ZN9SDPParser11parseHelperERNSt3__119basic_istringstreamIcNS0_11char_traitsIcEENS0_9allocatorIcEEEERNS0_12basic_stringIcS3_S5_EE
__ZNSt3__1rsIcNS_11char_traitsIcEENS_9allocatorIcEEEERNS_13basic_istreamIT_T0_EES9_RNS_12basic_stringIS6_S7_T1_EE
__ZN9SDPParser21parseConnectionHelperERNSt3__112basic_stringIcNS0_11char_traitsIcEENS0_9allocatorIcEEEERK17SDPParserSettings
__ZN9SDPParser16getTimeInSecondsENSt3__112basic_stringIcNS0_11char_traitsIcEENS0_9allocatorIcEEEE
__ZNSt3__1rsIcNS_11char_traitsIcEEEERNS_13basic_istreamIT_T0_EES7_RS4_
__ZNSt3__14listINS_7variantIJ9SDPRTCPXR23SDPUnsupportedAttribute17SDPMediaCandidate14SDPMediaCrypto17SDPMediaDirection33SDPMediaEndToAccessEdgeProtection27SDPMediaFormatUnknownParams23SDPMediaFormatAMRParams23SDPMediaFormatEVSParams24SDPMediaFormatDTMFParams23SDPMediaFormatTTYParams26SDPMediaFormatTTYRedParams14SDPMediaRTPMap29SDPPacketizationTimeAttributeEEENS_9allocatorISG_EEE12emplace_backIJS3_EEERSG_DpOT_
__ZN23SDPUnsupportedAttributeC2ENSt3__112basic_stringIcNS0_11char_traitsIcEENS0_9allocatorIcEEEES6_
__ZNSt3__110__list_impI18SDPMediaFormatInfoNS_9allocatorIS1_EEE5clearEv
__ZNSt3__16__treeINS_12__value_typeI7SDPTypePFbRKN9SDPParser16SDPParserContextERNS_12basic_stringIcNS_11char_traitsIcEENS_9allocatorIcEEEERNS_19basic_istringstreamIcS9_SB_EEEEENS_19__map_value_compareIS2_SJ_NS_4lessIS2_EELb1EEENSA_ISJ_EEE16__insert_node_atEPNS_15__tree_end_nodeIPNS_16__tree_node_baseIPvEEEERSU_SU_
__ZNSt3__16__treeINS_12__value_typeI7SDPTypePFbRKN9SDPParser16SDPParserContextERNS_12basic_stringIcNS_11char_traitsIcEENS_9allocatorIcEEEERNS_19basic_istringstreamIcS9_SB_EEEEENS_19__map_value_compareIS2_SJ_NS_4lessIS2_EELb1EEENSA_ISJ_EEE7destroyEPNS_11__tree_nodeISJ_PvEE
__ZNSt3__16__treeINS_12__value_typeINS_12basic_stringIcNS_11char_traitsIcEENS_9allocatorIcEEEEPFvNS_10shared_ptrI8SDPModelEERS7_EEENS_19__map_value_compareIS7_SE_NS_4lessIS7_EELb1EEENS5_ISE_EEE16__insert_node_atEPNS_15__tree_end_nodeIPNS_16__tree_node_baseIPvEEEERSP_SP_
__ZNSt3__16__treeINS_12__value_typeINS_12basic_stringIcNS_11char_traitsIcEENS_9allocatorIcEEEEPFvNS_10shared_ptrI8SDPModelEERS7_EEENS_19__map_value_compareIS7_SE_NS_4lessIS7_EELb1EEENS5_ISE_EEE12__find_equalIS7_EERPNS_16__tree_node_baseIPvEERPNS_15__tree_end_nodeISP_EERKT_
__ZNSt3__16__treeINS_12__value_typeINS_12basic_stringIcNS_11char_traitsIcEENS_9allocatorIcEEEEPFvNS_10shared_ptrI8SDPModelEERS7_EEENS_19__map_value_compareIS7_SE_NS_4lessIS7_EELb1EEENS5_ISE_EEE7destroyEPNS_11__tree_nodeISE_PvEE
__ZNSt3__16__treeINS_12__value_typeI7SDPTypePFbRKN9SDPParser16SDPParserContextER8SDPMediaRNS_12basic_stringIcNS_11char_traitsIcEENS_9allocatorIcEEEEEEENS_19__map_value_compareIS2_SI_NS_4lessIS2_EELb1EEENSC_ISI_EEE16__insert_node_atEPNS_15__tree_end_nodeIPNS_16__tree_node_baseIPvEEEERST_ST_
__ZNSt3__16__treeINS_12__value_typeI7SDPTypePFbRKN9SDPParser16SDPParserContextER8SDPMediaRNS_12basic_stringIcNS_11char_traitsIcEENS_9allocatorIcEEEEEEENS_19__map_value_compareIS2_SI_NS_4lessIS2_EELb1EEENSC_ISI_EEE7destroyEPNS_11__tree_nodeISI_PvEE
__ZNSt3__16__treeINS_12__value_typeINS_12basic_stringIcNS_11char_traitsIcEENS_9allocatorIcEEEEPFbR8SDPMediaRS7_EEENS_19__map_value_compareIS7_SD_NS_4lessIS7_EELb1EEENS5_ISD_EEE16__insert_node_atEPNS_15__tree_end_nodeIPNS_16__tree_node_baseIPvEEEERSO_SO_
__ZNSt3__16__treeINS_12__value_typeINS_12basic_stringIcNS_11char_traitsIcEENS_9allocatorIcEEEEPFbR8SDPMediaRS7_EEENS_19__map_value_compareIS7_SD_NS_4lessIS7_EELb1EEENS5_ISD_EEE12__find_equalIS7_EERPNS_16__tree_node_baseIPvEERPNS_15__tree_end_nodeISO_EERKT_
__ZNSt3__122__tree_node_destructorINS_9allocatorINS_11__tree_nodeINS_12__value_typeINS_12basic_stringIcNS_11char_traitsIcEENS1_IcEEEEPFbR8SDPMediaRS8_EEEPvEEEEEclB6v15006EPSG_
__ZNSt3__16__treeINS_12__value_typeINS_12basic_stringIcNS_11char_traitsIcEENS_9allocatorIcEEEEPFbR8SDPMediaRS7_EEENS_19__map_value_compareIS7_SD_NS_4lessIS7_EELb1EEENS5_ISD_EEE7destroyEPNS_11__tree_nodeISD_PvEE
__ZNSt3__16__treeINS_12__value_typeINS_12basic_stringIcNS_11char_traitsIcEENS_9allocatorIcEEEEPFbR18SDPMediaFormatInfotS7_EEENS_19__map_value_compareIS7_SC_N9SDPParser20str_caseless_compareELb1EEENS5_ISC_EEE16__insert_node_atEPNS_15__tree_end_nodeIPNS_16__tree_node_baseIPvEEEERSN_SN_
__ZNSt3__16__treeINS_12__value_typeINS_12basic_stringIcNS_11char_traitsIcEENS_9allocatorIcEEEEPFbR18SDPMediaFormatInfotS7_EEENS_19__map_value_compareIS7_SC_N9SDPParser20str_caseless_compareELb1EEENS5_ISC_EEE12__find_equalIS7_EERPNS_16__tree_node_baseIPvEERPNS_15__tree_end_nodeISN_EERKT_
__ZNSt3__122__tree_node_destructorINS_9allocatorINS_11__tree_nodeINS_12__value_typeINS_12basic_stringIcNS_11char_traitsIcEENS1_IcEEEEPFbR18SDPMediaFormatInfotS8_EEEPvEEEEEclB6v15006EPSF_
__ZNSt3__16__treeINS_12__value_typeINS_12basic_stringIcNS_11char_traitsIcEENS_9allocatorIcEEEEPFbR18SDPMediaFormatInfotS7_EEENS_19__map_value_compareIS7_SC_N9SDPParser20str_caseless_compareELb1EEENS5_ISC_EEE7destroyEPNS_11__tree_nodeISC_PvEE
__ZNSt3__16__treeINS_12__value_typeINS_12basic_stringIcNS_11char_traitsIcEENS_9allocatorIcEEEEPFbP23SDPMediaFormatEVSParamsS7_EEENS_19__map_value_compareIS7_SC_NS_4lessIS7_EELb1EEENS5_ISC_EEE7destroyEPNS_11__tree_nodeISC_PvEE
__ZNSt3__16__treeINS_12__value_typeINS_12basic_stringIcNS_11char_traitsIcEENS_9allocatorIcEEEEPFbP23SDPMediaFormatAMRParamsS7_EEENS_19__map_value_compareIS7_SC_NS_4lessIS7_EELb1EEENS5_ISC_EEE7destroyEPNS_11__tree_nodeISC_PvEE
__ZNSt3__16__treeINS_12__value_typeINS_12basic_stringIcNS_11char_traitsIcEENS_9allocatorIcEEEEyEENS_19__map_value_compareIS7_S8_NS_4lessIS7_EELb1EEENS5_IS8_EEE16__insert_node_atEPNS_15__tree_end_nodeIPNS_16__tree_node_baseIPvEEEERSJ_SJ_
__ZNSt3__16__treeINS_12__value_typeINS_12basic_stringIcNS_11char_traitsIcEENS_9allocatorIcEEEEyEENS_19__map_value_compareIS7_S8_NS_4lessIS7_EELb1EEENS5_IS8_EEE12__find_equalIS7_EERPNS_16__tree_node_baseIPvEERPNS_15__tree_end_nodeISJ_EERKT_
__ZNSt3__122__tree_node_destructorINS_9allocatorINS_11__tree_nodeINS_12__value_typeINS_12basic_stringIcNS_11char_traitsIcEENS1_IcEEEEyEEPvEEEEEclB6v15006EPSB_
__ZNSt3__16__treeINS_12__value_typeINS_12basic_stringIcNS_11char_traitsIcEENS_9allocatorIcEEEEyEENS_19__map_value_compareIS7_S8_NS_4lessIS7_EELb1EEENS5_IS8_EEE7destroyEPNS_11__tree_nodeIS8_PvEE
__ZNSt3__16__treeINS_12__value_typeINS_12basic_stringIcNS_11char_traitsIcEENS_9allocatorIcEEEE17EVSBandwidthTypesEENS_19__map_value_compareIS7_S9_NS_4lessIS7_EELb1EEENS5_IS9_EEE16__insert_node_atEPNS_15__tree_end_nodeIPNS_16__tree_node_baseIPvEEEERSK_SK_
__ZNSt3__16__treeINS_12__value_typeINS_12basic_stringIcNS_11char_traitsIcEENS_9allocatorIcEEEE17EVSBandwidthTypesEENS_19__map_value_compareIS7_S9_NS_4lessIS7_EELb1EEENS5_IS9_EEE12__find_equalIS7_EERPNS_16__tree_node_baseIPvEERPNS_15__tree_end_nodeISK_EERKT_
__ZNSt3__122__tree_node_destructorINS_9allocatorINS_11__tree_nodeINS_12__value_typeINS_12basic_stringIcNS_11char_traitsIcEENS1_IcEEEE17EVSBandwidthTypesEEPvEEEEEclB6v15006EPSC_
__ZNSt3__16__treeINS_12__value_typeINS_12basic_stringIcNS_11char_traitsIcEENS_9allocatorIcEEEE17EVSBandwidthTypesEENS_19__map_value_compareIS7_S9_NS_4lessIS7_EELb1EEENS5_IS9_EEE7destroyEPNS_11__tree_nodeIS9_PvEE
__ZNSt3__17getlineIcNS_11char_traitsIcEENS_9allocatorIcEEEERNS_13basic_istreamIT_T0_EES9_RNS_12basic_stringIS6_S7_T1_EES6_
__ZNSt3__19allocatorINS_11__list_nodeINS_7variantIJ9SDPRTCPXR23SDPUnsupportedAttribute17SDPMediaCandidate14SDPMediaCrypto17SDPMediaDirection33SDPMediaEndToAccessEdgeProtection27SDPMediaFormatUnknownParams23SDPMediaFormatAMRParams23SDPMediaFormatEVSParams24SDPMediaFormatDTMFParams23SDPMediaFormatTTYParams26SDPMediaFormatTTYRedParams14SDPMediaRTPMap29SDPPacketizationTimeAttributeEEEPvEEE9constructB6v15006ISH_JS4_EEEvPT_DpOT0_
__GLOBAL__sub_I_SDPParser.cpp
__ZN20SipAckReceiveHandlerC2EP19SipSessionInterfaceP20SipServerTransactionRK11SipResponse
__ZN20SipAckReceiveHandlerD2Ev
__ZN20SipAckReceiveHandlerD1Ev
__ZThn8_N20SipAckReceiveHandlerD1Ev
__ZThn16_N20SipAckReceiveHandlerD1Ev
__ZN20SipAckReceiveHandlerD0Ev
__ZThn8_N20SipAckReceiveHandlerD0Ev
__ZThn16_N20SipAckReceiveHandlerD0Ev
__ZNK20SipAckReceiveHandler12loggableNameEv
__ZThn8_NK20SipAckReceiveHandler12loggableNameEv
__ZNK20SipAckReceiveHandler9logPrefixER12ImsOutStream
__ZThn16_NK20SipAckReceiveHandler9logPrefixER12ImsOutStream
__ZN20SipAckReceiveHandler10initializeEv
__ZN20SipAckReceiveHandler11handleTimerEP17SipTimerContainerRKNSt3__112basic_stringIcNS2_11char_traitsIcEENS2_9allocatorIcEEEE
__ZN20SipAckReceiveHandler9handleAckERK10SipRequest
__ZN26SipListenSocketMultiplexerD2Ev
__ZN26SipListenSocketMultiplexerD1Ev
__ZThn8_N26SipListenSocketMultiplexerD1Ev
__ZN26SipListenSocketMultiplexerD0Ev
__ZThn8_N26SipListenSocketMultiplexerD0Ev
__ZN26SipListenSocketMultiplexer24terminationLocksReleasedEv
__ZThn8_N26SipListenSocketMultiplexer24terminationLocksReleasedEv
__ZNK26SipListenSocketMultiplexer12loggableNameEv
__ZThn8_NK26SipListenSocketMultiplexer12loggableNameEv
__ZN26SipListenSocketMultiplexer24handleIncomingConnectionEP21ImsTcpSocketInterface
__ZN20SipSocketMultiplexerI32ImsListenSocketInterfaceDelegateE24delegateForRemoteAddressERK9IpAddress
__ZN20SipSocketMultiplexerI32ImsListenSocketInterfaceDelegateED1Ev
__ZN20SipSocketMultiplexerI32ImsListenSocketInterfaceDelegateED0Ev
__ZThn8_N20SipSocketMultiplexerI32ImsListenSocketInterfaceDelegateED1Ev
__ZThn8_N20SipSocketMultiplexerI32ImsListenSocketInterfaceDelegateED0Ev
__ZN32ImsListenSocketInterfaceDelegateD1Ev
__ZN32ImsListenSocketInterfaceDelegateD0Ev
__ZNSt3__16__treeINS_12__value_typeINS_12basic_stringIcNS_11char_traitsIcEENS_9allocatorIcEEEEP32ImsListenSocketInterfaceDelegateEENS_19__map_value_compareIS7_SA_NS_4lessIS7_EELb1EEENS5_ISA_EEE7destroyEPNS_11__tree_nodeISA_PvEE
__ZNSt3__16__treeINS_12__value_typeINS_12basic_stringIcNS_11char_traitsIcEENS_9allocatorIcEEEEP32ImsListenSocketInterfaceDelegateEENS_19__map_value_compareIS7_SA_NS_4lessIS7_EELb1EEENS5_ISA_EEE4findIS7_EENS_15__tree_iteratorISA_PNS_11__tree_nodeISA_PvEElEERKT_
__ZNK21SipMD5DigestAlgorithm13computeDigestEPKhmPNSt3__112basic_stringIcNS2_11char_traitsIcEENS2_9allocatorIcEEEE
__ZNK21SipMD5DigestAlgorithm11computeHmacEPKhmS1_mPNSt3__16vectorIhNS2_9allocatorIhEEEE
__ZNK22SipSHA1DigestAlgorithm13computeDigestEPKhmPNSt3__112basic_stringIcNS2_11char_traitsIcEENS2_9allocatorIcEEEE
__ZNK22SipSHA1DigestAlgorithm11computeHmacEPKhmS1_mPNSt3__16vectorIhNS2_9allocatorIhEEEE
__ZNK24SipSHA256DigestAlgorithm11computeHmacEPKhmS1_mPNSt3__16vectorIhNS2_9allocatorIhEEEE
__ZN25SipDigestAlgorithmManagerC2Ev
__ZN25SipDigestAlgorithmManagerD2Ev
__ZN21SipMD5DigestAlgorithmD1Ev
__ZN21SipMD5DigestAlgorithmD0Ev
__ZNK21SipMD5DigestAlgorithm4nameEv
__ZN22SipSHA1DigestAlgorithmD1Ev
__ZN22SipSHA1DigestAlgorithmD0Ev
__ZNK22SipSHA1DigestAlgorithm4nameEv
__ZNSt3__112__hash_tableINS_17__hash_value_typeINS_12basic_stringIcNS_11char_traitsIcEENS_9allocatorIcEEEEP18SipDigestAlgorithmEENS_22__unordered_map_hasherIS7_SA_NS_4hashIS7_EENS_8equal_toIS7_EELb1EEENS_21__unordered_map_equalIS7_SA_SF_SD_Lb1EEENS5_ISA_EEED2Ev
__ZNSt3__112__hash_tableINS_17__hash_value_typeINS_12basic_stringIcNS_11char_traitsIcEENS_9allocatorIcEEEEP18SipDigestAlgorithmEENS_22__unordered_map_hasherIS7_SA_NS_4hashIS7_EENS_8equal_toIS7_EELb1EEENS_21__unordered_map_equalIS7_SA_SF_SD_Lb1EEENS5_ISA_EEE17__deallocate_nodeEPNS_16__hash_node_baseIPNS_11__hash_nodeISA_PvEEEE
__ZNSt3__112__hash_tableINS_17__hash_value_typeINS_12basic_stringIcNS_11char_traitsIcEENS_9allocatorIcEEEEP18SipDigestAlgorithmEENS_22__unordered_map_hasherIS7_SA_NS_4hashIS7_EENS_8equal_toIS7_EELb1EEENS_21__unordered_map_equalIS7_SA_SF_SD_Lb1EEENS5_ISA_EEE25__emplace_unique_key_argsIS7_JRKNS_21piecewise_construct_tENS_5tupleIJRKS7_EEENSP_IJEEEEEENS_4pairINS_15__hash_iteratorIPNS_11__hash_nodeISA_PvEEEEbEERKT_DpOT0_
__ZNSt3__122__hash_node_destructorINS_9allocatorINS_11__hash_nodeINS_17__hash_value_typeINS_12basic_stringIcNS_11char_traitsIcEENS1_IcEEEEP18SipDigestAlgorithmEEPvEEEEEclB6v15006EPSD_
__ZNKSt3__112__hash_tableINS_17__hash_value_typeINS_12basic_stringIcNS_11char_traitsIcEENS_9allocatorIcEEEEP18SipDigestAlgorithmEENS_22__unordered_map_hasherIS7_SA_NS_4hashIS7_EENS_8equal_toIS7_EELb1EEENS_21__unordered_map_equalIS7_SA_SF_SD_Lb1EEENS5_ISA_EEE4findIS7_EENS_21__hash_const_iteratorIPNS_11__hash_nodeISA_PvEEEERKT_
__GLOBAL__sub_I_SipDigestAlgorithm.cpp
__ZN9SDPParser29parseSessionSendRecvAttributeENSt3__110shared_ptrI8SDPModelEERNS0_12basic_stringIcNS0_11char_traitsIcEENS0_9allocatorIcEEEE
__ZN8SDPModel12setDirectionE14MediaDirection
__ZN9SDPParser29parseSessionSendOnlyAttributeENSt3__110shared_ptrI8SDPModelEERNS0_12basic_stringIcNS0_11char_traitsIcEENS0_9allocatorIcEEEE
__ZN9SDPParser29parseSessionRecvOnlyAttributeENSt3__110shared_ptrI8SDPModelEERNS0_12basic_stringIcNS0_11char_traitsIcEENS0_9allocatorIcEEEE
__ZN9SDPParser29parseSessionInactiveAttributeENSt3__110shared_ptrI8SDPModelEERNS0_12basic_stringIcNS0_11char_traitsIcEENS0_9allocatorIcEEEE
__ZN16SDPMediaSettingsD2Ev
__ZN16SDPMediaSettingsD1Ev
__ZN16SDPMediaSettingsD0Ev
__ZNSt3__18optionalI14SDPMediaCryptoEaSB6v15006IRKS1_vEERS2_OT_
__ZN16SDPMediaSettingsneERKS_
__ZneRK14SDPMediaCryptoS1_
__ZNK16SDPMediaSettings5validEv
__ZN7SipHostC2ERKNSt3__112basic_stringIcNS0_11char_traitsIcEENS0_9allocatorIcEEEE
__ZN7SipHost10fromStringERKNSt3__112basic_stringIcNS0_11char_traitsIcEENS0_9allocatorIcEEEE
__ZN7SipHostC2ERKS_
__ZN7SipHostC2ERK9IpAddress
__ZN7SipHostD2Ev
__ZN7SipHostD1Ev
__ZN7SipHostD0Ev
__ZN7SipHostaSERKS_
__ZN7SipHost5clearEv
__ZN7SipHost7resolveEb
__ZNK7SipHost8asStringEPNSt3__112basic_stringIcNS0_11char_traitsIcEENS0_9allocatorIcEEEE
__ZNK7SipHost9toAddressEv
__ZNK7SipHost8toStreamER12ImsOutStreamb
__ZN9ImsResultlsIPKcEERS_RKT_
__ZNK7SipHost6equalsERKS_b
__ZNK7SipHost21equalsWithDefaultPortERKS_s
__ZNK7SipHost8toStreamER12ImsOutStream
__ZN13IMSiRatClientC2Ev
____ZN13IMSiRatClientC2Ev_block_invoke
__ZN13IMSiRatClient19_registerIRatClientEv
__ZN13IMSiRatClientD2Ev
__ZN13IMSiRatClient16reportCallStatusERKN3ims14IRatCallStatusE
__ZN13IMSiRatClient16reportSipTimeoutERKN3ims15IRatTimeoutInfoE
__ZNK3xpc12dict_creatorclIyEES0_PKcT_
__ZN16SipMultiPartBodyC2Ev
__ZN16SipMultiPartBody7addPartEP11SipBodyPart
__ZN16SipMultiPartBodyD2Ev
__ZN16SipMultiPartBodyD1Ev
__ZN16SipMultiPartBodyD0Ev
__ZN16SipMultiPartBody25initWithContentTypeHeaderERK20SipContentTypeHeader
__ZNK16SipMultiPartBody21fillContentTypeHeaderER20SipContentTypeHeader
__ZNK16SipMultiPartBody16generateBoundaryEv
__ZNK16SipMultiPartBody13contentLengthEv
__ZNK16SipMultiPartBody6encodeER12ImsOutStreamb
__ZN16SipMultiPartBody6decodeERNSt3__113basic_istreamIcNS0_11char_traitsIcEEEEmRK21SipMessageEncodingMap
__ZN16SipMultiPartBody6decodeERKNSt3__112basic_stringIcNS0_11char_traitsIcEENS0_9allocatorIcEEEERK21SipMessageEncodingMap
__ZNK16SipMultiPartBody25encodeContentOnlyToStringEPNSt3__112basic_stringIcNS0_11char_traitsIcEENS0_9allocatorIcEEEE
__ZN16SipMultiPartBody7addPartEP7SipBody
__ZN16SipMultiPartBody19partWithContentTypeERKNSt3__112basic_stringIcNS0_11char_traitsIcEENS0_9allocatorIcEEEE
__ZNK16SipMultiPartBody5cloneEv
__ZNK16SipMultiPartBody11contentTypeEv
__ZNKSt3__16vectorIP11SipBodyPartNS_9allocatorIS2_EEE20__throw_length_errorB6v15006Ev
__ZNSt3__119__allocate_at_leastB6v15006INS_9allocatorIP11SipBodyPartEEEENS_19__allocation_resultINS_16allocator_traitsIT_E7pointerEEERS7_m
__GLOBAL__sub_I_SipMultiPartBody.cpp
__ZN3ims23getNumMatchesForPatternERKNSt3__112basic_stringIcNS0_11char_traitsIcEENS0_9allocatorIcEEEES8_b
__ZN23SipAcceptLanguageHeaderD1Ev
__ZN23SipAcceptLanguageHeaderD0Ev
__ZNK23SipAcceptLanguageHeader5cloneEv
__ZN3awd7metrics34protobuf_ShutdownFile_CATM_2eprotoEv
__ZN3awd7metrics34session_termination_reason_IsValidEi
__ZN3awd7metrics30enum_ATM_CallEndReason_IsValidEi
__ZN3awd7metrics21RESPONSE_Code_IsValidEi
__ZN3awd7metrics24ATM_Registration_Attempt10SharedCtorEv
__ZN3awd7metrics24ATM_Registration_Attempt10SharedDtorEv
__ZN3awd7metrics24ATM_Registration_AttemptD1Ev
__ZN3awd7metrics24ATM_Registration_AttemptD0Ev
__ZNK3awd7metrics24ATM_Registration_Attempt3NewEv
__ZN3awd7metrics24ATM_Registration_Attempt5ClearEv
__ZN3awd7metrics24ATM_Registration_Attempt27MergePartialFromCodedStreamEPN20wireless_diagnostics6google8protobuf2io16CodedInputStreamE
__ZNK3awd7metrics24ATM_Registration_Attempt24SerializeWithCachedSizesEPN20wireless_diagnostics6google8protobuf2io17CodedOutputStreamE
__ZNK3awd7metrics24ATM_Registration_Attempt8ByteSizeEv
__ZN3awd7metrics24ATM_Registration_Attempt21CheckTypeAndMergeFromERKN20wireless_diagnostics6google8protobuf11MessageLiteE
__ZNK3awd7metrics24ATM_Registration_Attempt13IsInitializedEv
__ZNK3awd7metrics24ATM_Registration_Attempt11GetTypeNameEv
__ZN3awd7metrics23ATM_Registration_ResultC2Ev
__ZN3awd7metrics23ATM_Registration_ResultD2Ev
__ZN3awd7metrics23ATM_Registration_Result10SharedDtorEv
__ZN3awd7metrics23ATM_Registration_ResultD1Ev
__ZN3awd7metrics23ATM_Registration_ResultD0Ev
__ZNK3awd7metrics23ATM_Registration_Result3NewEv
__ZN3awd7metrics23ATM_Registration_Result5ClearEv
__ZN3awd7metrics23ATM_Registration_Result27MergePartialFromCodedStreamEPN20wireless_diagnostics6google8protobuf2io16CodedInputStreamE
__ZNK3awd7metrics23ATM_Registration_Result24SerializeWithCachedSizesEPN20wireless_diagnostics6google8protobuf2io17CodedOutputStreamE
__ZNK3awd7metrics23ATM_Registration_Result8ByteSizeEv
__ZN3awd7metrics23ATM_Registration_Result21CheckTypeAndMergeFromERKN20wireless_diagnostics6google8protobuf11MessageLiteE
__ZNK3awd7metrics23ATM_Registration_Result13IsInitializedEv
__ZNK3awd7metrics23ATM_Registration_Result11GetTypeNameEv
__ZN3awd7metrics20ATM_CallAttemptEvent10SharedCtorEv
__ZN3awd7metrics20ATM_CallAttemptEventD2Ev
__ZN3awd7metrics20ATM_CallAttemptEventD1Ev
__ZN3awd7metrics20ATM_CallAttemptEventD0Ev
__ZNK3awd7metrics20ATM_CallAttemptEvent3NewEv
__ZN3awd7metrics20ATM_CallAttemptEvent5ClearEv
__ZN3awd7metrics20ATM_CallAttemptEvent27MergePartialFromCodedStreamEPN20wireless_diagnostics6google8protobuf2io16CodedInputStreamE
__ZNK3awd7metrics20ATM_CallAttemptEvent24SerializeWithCachedSizesEPN20wireless_diagnostics6google8protobuf2io17CodedOutputStreamE
__ZNK3awd7metrics20ATM_CallAttemptEvent8ByteSizeEv
__ZN3awd7metrics20ATM_CallAttemptEvent21CheckTypeAndMergeFromERKN20wireless_diagnostics6google8protobuf11MessageLiteE
__ZNK3awd7metrics20ATM_CallAttemptEvent13IsInitializedEv
__ZNK3awd7metrics20ATM_CallAttemptEvent11GetTypeNameEv
__ZN3awd7metrics20ATM_CallConnectEvent10SharedCtorEv
__ZN3awd7metrics20ATM_CallConnectEvent10SharedDtorEv
__ZN3awd7metrics20ATM_CallConnectEventD1Ev
__ZN3awd7metrics20ATM_CallConnectEventD0Ev
__ZNK3awd7metrics20ATM_CallConnectEvent3NewEv
__ZN3awd7metrics20ATM_CallConnectEvent5ClearEv
__ZN3awd7metrics20ATM_CallConnectEvent27MergePartialFromCodedStreamEPN20wireless_diagnostics6google8protobuf2io16CodedInputStreamE
__ZNK3awd7metrics20ATM_CallConnectEvent24SerializeWithCachedSizesEPN20wireless_diagnostics6google8protobuf2io17CodedOutputStreamE
__ZNK3awd7metrics20ATM_CallConnectEvent8ByteSizeEv
__ZN3awd7metrics20ATM_CallConnectEvent21CheckTypeAndMergeFromERKN20wireless_diagnostics6google8protobuf11MessageLiteE
__ZNK3awd7metrics20ATM_CallConnectEvent13IsInitializedEv
__ZNK3awd7metrics20ATM_CallConnectEvent11GetTypeNameEv
__ZN3awd7metrics25ATM_CallEndEvent_myreason9MergeFromERKS1_
__ZN3awd7metrics25ATM_CallEndEvent_myreason10SharedDtorEv
__ZN3awd7metrics25ATM_CallEndEvent_myreasonD1Ev
__ZN3awd7metrics25ATM_CallEndEvent_myreasonD0Ev
__ZNK3awd7metrics25ATM_CallEndEvent_myreason3NewEv
__ZN3awd7metrics25ATM_CallEndEvent_myreason5ClearEv
__ZN3awd7metrics25ATM_CallEndEvent_myreason27MergePartialFromCodedStreamEPN20wireless_diagnostics6google8protobuf2io16CodedInputStreamE
__ZNK3awd7metrics25ATM_CallEndEvent_myreason24SerializeWithCachedSizesEPN20wireless_diagnostics6google8protobuf2io17CodedOutputStreamE
__ZNK3awd7metrics25ATM_CallEndEvent_myreason8ByteSizeEv
__ZN3awd7metrics25ATM_CallEndEvent_myreason21CheckTypeAndMergeFromERKN20wireless_diagnostics6google8protobuf11MessageLiteE
__ZNK3awd7metrics25ATM_CallEndEvent_myreason13IsInitializedEv
__ZNK3awd7metrics25ATM_CallEndEvent_myreason11GetTypeNameEv
__ZN3awd7metrics25ATM_CallEndEvent_handover9MergeFromERKS1_
__ZN3awd7metrics25ATM_CallEndEvent_handoverD1Ev
__ZN3awd7metrics25ATM_CallEndEvent_handoverD0Ev
__ZNK3awd7metrics25ATM_CallEndEvent_handover3NewEv
__ZN3awd7metrics25ATM_CallEndEvent_handover5ClearEv
__ZN3awd7metrics25ATM_CallEndEvent_handover27MergePartialFromCodedStreamEPN20wireless_diagnostics6google8protobuf2io16CodedInputStreamE
__ZNK3awd7metrics25ATM_CallEndEvent_handover24SerializeWithCachedSizesEPN20wireless_diagnostics6google8protobuf2io17CodedOutputStreamE
__ZNK3awd7metrics25ATM_CallEndEvent_handover8ByteSizeEv
__ZN3awd7metrics25ATM_CallEndEvent_handover21CheckTypeAndMergeFromERKN20wireless_diagnostics6google8protobuf11MessageLiteE
__ZNK3awd7metrics25ATM_CallEndEvent_handover13IsInitializedEv
__ZNK3awd7metrics25ATM_CallEndEvent_handover11GetTypeNameEv
__ZN3awd7metrics16ATM_CallEndEvent10SharedCtorEv
__ZN3awd7metrics16ATM_CallEndEventD2Ev
__ZN3awd7metrics16ATM_CallEndEvent10SharedDtorEv
__ZN3awd7metrics16ATM_CallEndEventD1Ev
__ZN3awd7metrics16ATM_CallEndEventD0Ev
__ZNK3awd7metrics16ATM_CallEndEvent3NewEv
__ZN3awd7metrics16ATM_CallEndEvent5ClearEv
__ZN3awd7metrics16ATM_CallEndEvent27MergePartialFromCodedStreamEPN20wireless_diagnostics6google8protobuf2io16CodedInputStreamE
__ZN3awd7metrics16ATM_CallEndEvent15set_status_codeENS0_13RESPONSE_CodeE
__ZNK3awd7metrics16ATM_CallEndEvent24SerializeWithCachedSizesEPN20wireless_diagnostics6google8protobuf2io17CodedOutputStreamE
__ZNK3awd7metrics16ATM_CallEndEvent8ByteSizeEv
__ZN3awd7metrics16ATM_CallEndEvent21CheckTypeAndMergeFromERKN20wireless_diagnostics6google8protobuf11MessageLiteE
__ZNK3awd7metrics16ATM_CallEndEvent13IsInitializedEv
__ZNK3awd7metrics16ATM_CallEndEvent11GetTypeNameEv
__ZN3awd7metrics26BchannelTransmitStatistics10SharedDtorEv
__ZN3awd7metrics26BchannelTransmitStatisticsD1Ev
__ZN3awd7metrics26BchannelTransmitStatisticsD0Ev
__ZNK3awd7metrics26BchannelTransmitStatistics3NewEv
__ZN3awd7metrics26BchannelTransmitStatistics5ClearEv
__ZN3awd7metrics26BchannelTransmitStatistics27MergePartialFromCodedStreamEPN20wireless_diagnostics6google8protobuf2io16CodedInputStreamE
__ZNK3awd7metrics26BchannelTransmitStatistics24SerializeWithCachedSizesEPN20wireless_diagnostics6google8protobuf2io17CodedOutputStreamE
__ZNK3awd7metrics26BchannelTransmitStatistics8ByteSizeEv
__ZN3awd7metrics26BchannelTransmitStatistics21CheckTypeAndMergeFromERKN20wireless_diagnostics6google8protobuf11MessageLiteE
__ZNK3awd7metrics26BchannelTransmitStatistics13IsInitializedEv
__ZNK3awd7metrics26BchannelTransmitStatistics11GetTypeNameEv
__ZN3awd7metrics25BchannelReceiveStatistics10SharedDtorEv
__ZN3awd7metrics25BchannelReceiveStatisticsD1Ev
__ZN3awd7metrics25BchannelReceiveStatisticsD0Ev
__ZNK3awd7metrics25BchannelReceiveStatistics3NewEv
__ZN3awd7metrics25BchannelReceiveStatistics5ClearEv
__ZN3awd7metrics25BchannelReceiveStatistics27MergePartialFromCodedStreamEPN20wireless_diagnostics6google8protobuf2io16CodedInputStreamE
__ZNK3awd7metrics25BchannelReceiveStatistics24SerializeWithCachedSizesEPN20wireless_diagnostics6google8protobuf2io17CodedOutputStreamE
__ZNK3awd7metrics25BchannelReceiveStatistics8ByteSizeEv
__ZN3awd7metrics25BchannelReceiveStatistics21CheckTypeAndMergeFromERKN20wireless_diagnostics6google8protobuf11MessageLiteE
__ZNK3awd7metrics25BchannelReceiveStatistics13IsInitializedEv
__ZNK3awd7metrics25BchannelReceiveStatistics11GetTypeNameEv
__ZN3awd7metrics55Local_SoundUMB_Dchannel_XR_StatisticsSummaryReportBlockD1Ev
__ZN3awd7metrics55Local_SoundUMB_Dchannel_XR_StatisticsSummaryReportBlockD0Ev
__ZNK3awd7metrics55Local_SoundUMB_Dchannel_XR_StatisticsSummaryReportBlock3NewEv
__ZN3awd7metrics55Local_SoundUMB_Dchannel_XR_StatisticsSummaryReportBlock5ClearEv
__ZN3awd7metrics55Local_SoundUMB_Dchannel_XR_StatisticsSummaryReportBlock27MergePartialFromCodedStreamEPN20wireless_diagnostics6google8protobuf2io16CodedInputStreamE
__ZNK3awd7metrics55Local_SoundUMB_Dchannel_XR_StatisticsSummaryReportBlock24SerializeWithCachedSizesEPN20wireless_diagnostics6google8protobuf2io17CodedOutputStreamE
__ZNK3awd7metrics55Local_SoundUMB_Dchannel_XR_StatisticsSummaryReportBlock8ByteSizeEv
__ZN3awd7metrics55Local_SoundUMB_Dchannel_XR_StatisticsSummaryReportBlock21CheckTypeAndMergeFromERKN20wireless_diagnostics6google8protobuf11MessageLiteE
__ZNK3awd7metrics55Local_SoundUMB_Dchannel_XR_StatisticsSummaryReportBlock13IsInitializedEv
__ZNK3awd7metrics55Local_SoundUMB_Dchannel_XR_StatisticsSummaryReportBlock11GetTypeNameEv
__ZN3awd7metrics56Remote_SoundUMB_Dchannel_XR_StatisticsSummaryReportBlockD1Ev
__ZN3awd7metrics56Remote_SoundUMB_Dchannel_XR_StatisticsSummaryReportBlockD0Ev
__ZNK3awd7metrics56Remote_SoundUMB_Dchannel_XR_StatisticsSummaryReportBlock3NewEv
__ZN3awd7metrics56Remote_SoundUMB_Dchannel_XR_StatisticsSummaryReportBlock5ClearEv
__ZN3awd7metrics56Remote_SoundUMB_Dchannel_XR_StatisticsSummaryReportBlock27MergePartialFromCodedStreamEPN20wireless_diagnostics6google8protobuf2io16CodedInputStreamE
__ZNK3awd7metrics56Remote_SoundUMB_Dchannel_XR_StatisticsSummaryReportBlock24SerializeWithCachedSizesEPN20wireless_diagnostics6google8protobuf2io17CodedOutputStreamE
__ZNK3awd7metrics56Remote_SoundUMB_Dchannel_XR_StatisticsSummaryReportBlock8ByteSizeEv
__ZN3awd7metrics56Remote_SoundUMB_Dchannel_XR_StatisticsSummaryReportBlock21CheckTypeAndMergeFromERKN20wireless_diagnostics6google8protobuf11MessageLiteE
__ZNK3awd7metrics56Remote_SoundUMB_Dchannel_XR_StatisticsSummaryReportBlock13IsInitializedEv
__ZNK3awd7metrics56Remote_SoundUMB_Dchannel_XR_StatisticsSummaryReportBlock11GetTypeNameEv
__ZN3awd7metrics49Local_SoundUMB_Dchannel_XR_VoIPMetricsReportBlockD1Ev
__ZN3awd7metrics49Local_SoundUMB_Dchannel_XR_VoIPMetricsReportBlockD0Ev
__ZNK3awd7metrics49Local_SoundUMB_Dchannel_XR_VoIPMetricsReportBlock3NewEv
__ZN3awd7metrics49Local_SoundUMB_Dchannel_XR_VoIPMetricsReportBlock5ClearEv
__ZN3awd7metrics49Local_SoundUMB_Dchannel_XR_VoIPMetricsReportBlock27MergePartialFromCodedStreamEPN20wireless_diagnostics6google8protobuf2io16CodedInputStreamE
__ZNK3awd7metrics49Local_SoundUMB_Dchannel_XR_VoIPMetricsReportBlock24SerializeWithCachedSizesEPN20wireless_diagnostics6google8protobuf2io17CodedOutputStreamE
__ZNK3awd7metrics49Local_SoundUMB_Dchannel_XR_VoIPMetricsReportBlock8ByteSizeEv
__ZN3awd7metrics49Local_SoundUMB_Dchannel_XR_VoIPMetricsReportBlock21CheckTypeAndMergeFromERKN20wireless_diagnostics6google8protobuf11MessageLiteE
__ZNK3awd7metrics49Local_SoundUMB_Dchannel_XR_VoIPMetricsReportBlock13IsInitializedEv
__ZNK3awd7metrics49Local_SoundUMB_Dchannel_XR_VoIPMetricsReportBlock11GetTypeNameEv
__ZN3awd7metrics50Remote_SoundUMB_Dchannel_XR_VoIPMetricsReportBlockD1Ev
__ZN3awd7metrics50Remote_SoundUMB_Dchannel_XR_VoIPMetricsReportBlockD0Ev
__ZNK3awd7metrics50Remote_SoundUMB_Dchannel_XR_VoIPMetricsReportBlock3NewEv
__ZN3awd7metrics50Remote_SoundUMB_Dchannel_XR_VoIPMetricsReportBlock5ClearEv
__ZN3awd7metrics50Remote_SoundUMB_Dchannel_XR_VoIPMetricsReportBlock27MergePartialFromCodedStreamEPN20wireless_diagnostics6google8protobuf2io16CodedInputStreamE
__ZNK3awd7metrics50Remote_SoundUMB_Dchannel_XR_VoIPMetricsReportBlock24SerializeWithCachedSizesEPN20wireless_diagnostics6google8protobuf2io17CodedOutputStreamE
__ZNK3awd7metrics50Remote_SoundUMB_Dchannel_XR_VoIPMetricsReportBlock8ByteSizeEv
__ZN3awd7metrics50Remote_SoundUMB_Dchannel_XR_VoIPMetricsReportBlock21CheckTypeAndMergeFromERKN20wireless_diagnostics6google8protobuf11MessageLiteE
__ZNK3awd7metrics50Remote_SoundUMB_Dchannel_XR_VoIPMetricsReportBlock13IsInitializedEv
__ZNK3awd7metrics50Remote_SoundUMB_Dchannel_XR_VoIPMetricsReportBlock11GetTypeNameEv
__ZN3awd7metrics24MetricATM_SoundUMB_StateD1Ev
__ZN3awd7metrics24MetricATM_SoundUMB_StateD0Ev
__ZNK3awd7metrics24MetricATM_SoundUMB_State3NewEv
__ZN3awd7metrics24MetricATM_SoundUMB_State5ClearEv
__ZN3awd7metrics24MetricATM_SoundUMB_State27MergePartialFromCodedStreamEPN20wireless_diagnostics6google8protobuf2io16CodedInputStreamE
__ZNK3awd7metrics24MetricATM_SoundUMB_State24SerializeWithCachedSizesEPN20wireless_diagnostics6google8protobuf2io17CodedOutputStreamE
__ZNK3awd7metrics24MetricATM_SoundUMB_State8ByteSizeEv
__ZN3awd7metrics24MetricATM_SoundUMB_State21CheckTypeAndMergeFromERKN20wireless_diagnostics6google8protobuf11MessageLiteE
__ZNK3awd7metrics24MetricATM_SoundUMB_State13IsInitializedEv
__ZNK3awd7metrics24MetricATM_SoundUMB_State11GetTypeNameEv
__ZN3awd7metrics21ATM_signaling_message10SharedDtorEv
__ZN3awd7metrics21ATM_signaling_messageD1Ev
__ZN3awd7metrics21ATM_signaling_messageD0Ev
__ZNK3awd7metrics21ATM_signaling_message3NewEv
__ZN3awd7metrics21ATM_signaling_message5ClearEv
__ZN3awd7metrics21ATM_signaling_message27MergePartialFromCodedStreamEPN20wireless_diagnostics6google8protobuf2io16CodedInputStreamE
__ZNK3awd7metrics21ATM_signaling_message24SerializeWithCachedSizesEPN20wireless_diagnostics6google8protobuf2io17CodedOutputStreamE
__ZNK3awd7metrics21ATM_signaling_message8ByteSizeEv
__ZN3awd7metrics21ATM_signaling_message21CheckTypeAndMergeFromERKN20wireless_diagnostics6google8protobuf11MessageLiteE
__ZNK3awd7metrics21ATM_signaling_message13IsInitializedEv
__ZNK3awd7metrics21ATM_signaling_message11GetTypeNameEv
__ZN3awd7metrics21conference_call_event10SharedDtorEv
__ZN3awd7metrics21conference_call_eventD1Ev
__ZN3awd7metrics21conference_call_eventD0Ev
__ZNK3awd7metrics21conference_call_event3NewEv
__ZN3awd7metrics21conference_call_event5ClearEv
__ZN3awd7metrics21conference_call_event27MergePartialFromCodedStreamEPN20wireless_diagnostics6google8protobuf2io16CodedInputStreamE
__ZNK3awd7metrics21conference_call_event24SerializeWithCachedSizesEPN20wireless_diagnostics6google8protobuf2io17CodedOutputStreamE
__ZNK3awd7metrics21conference_call_event8ByteSizeEv
__ZN3awd7metrics21conference_call_event21CheckTypeAndMergeFromERKN20wireless_diagnostics6google8protobuf11MessageLiteE
__ZNK3awd7metrics21conference_call_event13IsInitializedEv
__ZNK3awd7metrics21conference_call_event11GetTypeNameEv
__ZN3awd7metrics31commCenterIMSSignallingDeferralD1Ev
__ZN3awd7metrics31commCenterIMSSignallingDeferralD0Ev
__ZNK3awd7metrics31commCenterIMSSignallingDeferral3NewEv
__ZN3awd7metrics31commCenterIMSSignallingDeferral5ClearEv
__ZN3awd7metrics31commCenterIMSSignallingDeferral27MergePartialFromCodedStreamEPN20wireless_diagnostics6google8protobuf2io16CodedInputStreamE
__ZNK3awd7metrics31commCenterIMSSignallingDeferral24SerializeWithCachedSizesEPN20wireless_diagnostics6google8protobuf2io17CodedOutputStreamE
__ZNK3awd7metrics31commCenterIMSSignallingDeferral8ByteSizeEv
__ZN3awd7metrics31commCenterIMSSignallingDeferral21CheckTypeAndMergeFromERKN20wireless_diagnostics6google8protobuf11MessageLiteE
__ZNK3awd7metrics31commCenterIMSSignallingDeferral13IsInitializedEv
__ZNK3awd7metrics31commCenterIMSSignallingDeferral11GetTypeNameEv
__ZN3awd7metrics20LBRSessionStatistics10SharedDtorEv
__ZN3awd7metrics20LBRSessionStatisticsD1Ev
__ZN3awd7metrics20LBRSessionStatisticsD0Ev
__ZNK3awd7metrics20LBRSessionStatistics3NewEv
__ZN3awd7metrics20LBRSessionStatistics5ClearEv
__ZN3awd7metrics20LBRSessionStatistics27MergePartialFromCodedStreamEPN20wireless_diagnostics6google8protobuf2io16CodedInputStreamE
__ZNK3awd7metrics20LBRSessionStatistics24SerializeWithCachedSizesEPN20wireless_diagnostics6google8protobuf2io17CodedOutputStreamE
__ZNK3awd7metrics20LBRSessionStatistics8ByteSizeEv
__ZN3awd7metrics20LBRSessionStatistics21CheckTypeAndMergeFromERKN20wireless_diagnostics6google8protobuf11MessageLiteE
__ZNK3awd7metrics20LBRSessionStatistics13IsInitializedEv
__ZNK3awd7metrics20LBRSessionStatistics11GetTypeNameEv
__ZNK3awd7metrics24ATM_Registration_Attempt13GetCachedSizeEv
__ZNK3awd7metrics23ATM_Registration_Result13GetCachedSizeEv
__ZNK3awd7metrics20ATM_CallAttemptEvent13GetCachedSizeEv
__ZNK3awd7metrics20ATM_CallConnectEvent13GetCachedSizeEv
__ZNK3awd7metrics25ATM_CallEndEvent_myreason13GetCachedSizeEv
__ZNK3awd7metrics25ATM_CallEndEvent_handover13GetCachedSizeEv
__ZNK3awd7metrics16ATM_CallEndEvent13GetCachedSizeEv
__ZNK3awd7metrics26BchannelTransmitStatistics13GetCachedSizeEv
__ZNK3awd7metrics25BchannelReceiveStatistics13GetCachedSizeEv
__ZNK3awd7metrics55Local_SoundUMB_Dchannel_XR_StatisticsSummaryReportBlock13GetCachedSizeEv
__ZNK3awd7metrics56Remote_SoundUMB_Dchannel_XR_StatisticsSummaryReportBlock13GetCachedSizeEv
__ZNK3awd7metrics49Local_SoundUMB_Dchannel_XR_VoIPMetricsReportBlock13GetCachedSizeEv
__ZNK3awd7metrics50Remote_SoundUMB_Dchannel_XR_VoIPMetricsReportBlock13GetCachedSizeEv
__ZNK3awd7metrics24MetricATM_SoundUMB_State13GetCachedSizeEv
__ZNK3awd7metrics21ATM_signaling_message13GetCachedSizeEv
__ZNK3awd7metrics21conference_call_event13GetCachedSizeEv
__ZNK3awd7metrics31commCenterIMSSignallingDeferral13GetCachedSizeEv
__ZNK3awd7metrics20LBRSessionStatistics13GetCachedSizeEv
__ZN20wireless_diagnostics6google8protobuf8internal20RepeatedPtrFieldBase5ClearINS1_16RepeatedPtrFieldINSt3__112basic_stringIcNS6_11char_traitsIcEENS6_9allocatorIcEEEEE11TypeHandlerEEEvv
__ZN20wireless_diagnostics6google8protobuf8internal20RepeatedPtrFieldBase7DestroyINS1_16RepeatedPtrFieldINSt3__112basic_stringIcNS6_11char_traitsIcEENS6_9allocatorIcEEEEE11TypeHandlerEEEvv
__ZN20wireless_diagnostics6google8protobuf8internal20RepeatedPtrFieldBase7DestroyINS1_16RepeatedPtrFieldIN3awd7metrics25ATM_CallEndEvent_myreasonEE11TypeHandlerEEEvv
__ZN20wireless_diagnostics6google8protobuf8internal20RepeatedPtrFieldBase7DestroyINS1_16RepeatedPtrFieldIN3awd7metrics25ATM_CallEndEvent_handoverEE11TypeHandlerEEEvv
__ZN20wireless_diagnostics6google8protobuf13RepeatedFieldIbE7ReserveEi
__GLOBAL__sub_I_CATM.pb.cc
__ZN11XcapSessionC2EP19XcapSessionDelegateRK10XcapConfigRKNSt3__112basic_stringIcNS5_11char_traitsIcEENS5_9allocatorIcEEEE
__ZN11XcapSessionD2Ev
__ZN11XcapSessionD1Ev
__ZThn8_N11XcapSessionD1Ev
__ZThn16_N11XcapSessionD1Ev
__ZN11XcapSessionD0Ev
__ZThn8_N11XcapSessionD0Ev
__ZThn16_N11XcapSessionD0Ev
__ZN11XcapSession13fetchDocumentERK7XcapUriU13block_pointerFvRK9ImsResultRKNSt3__112basic_stringIcNS6_11char_traitsIcEENS6_9allocatorIcEEEEE
__ZN11XcapSession11setDocumentERK7XcapUriRKNSt3__112basic_stringIcNS3_11char_traitsIcEENS3_9allocatorIcEEEEU13block_pointerFvRK9ImsResultSB_E
__ZN11XcapSession12_sendRequestEbRK7XcapUriRKNSt3__112basic_stringIcNS3_11char_traitsIcEENS3_9allocatorIcEEEEU13block_pointerFvRK9ImsResultSB_E
__ZN11XcapSession16operationFailureERK9ImsResult
__ZN11XcapSession14deleteDocumentERK7XcapUriU13block_pointerFvRK9ImsResultRKNSt3__112basic_stringIcNS6_11char_traitsIcEENS6_9allocatorIcEEEEE
__ZN11XcapSession20setDigestCredentialsERK15SipAuthResponse
__ZN11XcapSession20setGbaNafCredentialsERKNSt3__16vectorIhNS0_9allocatorIhEEEE
__ZN11XcapSession11handleTimerEP17SipTimerContainerRKNSt3__112basic_stringIcNS2_11char_traitsIcEENS2_9allocatorIcEEEE
____ZN11XcapSession11handleTimerEP17SipTimerContainerRKNSt3__112basic_stringIcNS2_11char_traitsIcEENS2_9allocatorIcEEEE_block_invoke
___copy_helper_block_e8_40c36_ZTSNSt3__18weak_ptrI11XcapSessionEE64c66_ZTSNSt3__112basic_stringIcNS_11char_traitsIcEENS_9allocatorIcEEEE
___destroy_helper_block_e8_40c36_ZTSNSt3__18weak_ptrI11XcapSessionEE64c66_ZTSNSt3__112basic_stringIcNS_11char_traitsIcEENS_9allocatorIcEEEE
__ZThn8_N11XcapSession11handleTimerEP17SipTimerContainerRKNSt3__112basic_stringIcNS2_11char_traitsIcEENS2_9allocatorIcEEEE
__ZNK11XcapSession12loggableNameEv
__ZThn16_NK11XcapSession12loggableNameEv
__ZN11XcapSession12fetchNafHostEv
__ZN11XcapSession12fetchBsfHostEv
__ZN11XcapSession12fetchNafPortEv
__ZN11XcapSession12fetchBsfPortEv
__ZN11XcapSession16operationSuccessERKNSt3__112basic_stringIcNS0_11char_traitsIcEENS0_9allocatorIcEEEE
__ZN11XcapSession18handleNafChallengeEv
__ZN11XcapSession31onBootstrappingProcedureSuccessEv
__ZNSt3__110shared_ptrI11XcapSessionED2B6v15006Ev
__GLOBAL__sub_I_XcapSession.cpp
__ZN20MediaSessionHandoverC2ENSt3__110shared_ptrI21MediaSessionInterfaceEEyNS1_I10RTPManagerEENS1_I18RTPStackControllerEERKNS0_12basic_stringIcNS0_11char_traitsIcEENS0_9allocatorIcEEEERKN3ims8DispatchEj
__ZN17MediaSessionQueueD2Ev
__ZN20MediaSessionHandoverD2Ev
__ZN20MediaSessionHandoverD1Ev
__ZThn24_N20MediaSessionHandoverD1Ev
__ZThn160_N20MediaSessionHandoverD1Ev
__ZThn168_N20MediaSessionHandoverD1Ev
__ZN20MediaSessionHandoverD0Ev
__ZThn24_N20MediaSessionHandoverD0Ev
__ZThn160_N20MediaSessionHandoverD0Ev
__ZThn168_N20MediaSessionHandoverD0Ev
__ZN20MediaSessionHandover9terminateEb
__ZN20RTPSharedPointerBase9getSharedI20MediaSessionHandoverEENSt3__110shared_ptrIT_EEv
____ZN20MediaSessionHandover9terminateEb_block_invoke
__ZN20MediaSessionHandover16handoverCompleteE8RTPErrno
___copy_helper_block_e8_32c48_ZTSNSt3__110shared_ptrI20MediaSessionHandoverEE
___destroy_helper_block_e8_32c48_ZTSNSt3__110shared_ptrI20MediaSessionHandoverEE
__ZThn24_N20MediaSessionHandover9terminateEb
__ZN20MediaSessionHandover8handoverEv
____ZN20MediaSessionHandover8handoverEv_block_invoke
___copy_helper_block_e8_32c48_ZTSNSt3__110shared_ptrI20MediaSessionHandoverEE48c53_ZTSNSt3__110shared_ptrI25MediaSessionStackSwitcherEE
___destroy_helper_block_e8_32c48_ZTSNSt3__110shared_ptrI20MediaSessionHandoverEE48c53_ZTSNSt3__110shared_ptrI25MediaSessionStackSwitcherEE
____ZN20MediaSessionHandover15handoverSessionENSt3__110shared_ptrI25MediaSessionStackSwitcherEE_block_invoke
____ZN20MediaSessionHandover15handoverSessionENSt3__110shared_ptrI25MediaSessionStackSwitcherEE_block_invoke_2
___copy_helper_block_e8_32c14_ZTS9ImsResult80c48_ZTSNSt3__110shared_ptrI20MediaSessionHandoverEE
___destroy_helper_block_e8_32c14_ZTS9ImsResult80c48_ZTSNSt3__110shared_ptrI20MediaSessionHandoverEE
___copy_helper_block_e8_40c48_ZTSNSt3__110shared_ptrI20MediaSessionHandoverEE
___destroy_helper_block_e8_40c48_ZTSNSt3__110shared_ptrI20MediaSessionHandoverEE
__ZN20MediaSessionHandover11handleTimerEP17SipTimerContainerRKNSt3__112basic_stringIcNS2_11char_traitsIcEENS2_9allocatorIcEEEE
____ZN20MediaSessionHandover11handleTimerEP17SipTimerContainerRKNSt3__112basic_stringIcNS2_11char_traitsIcEENS2_9allocatorIcEEEE_block_invoke
___copy_helper_block_e8_32c38_ZTSNSt3__110shared_ptrI10RTPManagerEE56c66_ZTSNSt3__112basic_stringIcNS_11char_traitsIcEENS_9allocatorIcEEEE
___destroy_helper_block_e8_32c38_ZTSNSt3__110shared_ptrI10RTPManagerEE56c66_ZTSNSt3__112basic_stringIcNS_11char_traitsIcEENS_9allocatorIcEEEE
__ZThn160_N20MediaSessionHandover11handleTimerEP17SipTimerContainerRKNSt3__112basic_stringIcNS2_11char_traitsIcEENS2_9allocatorIcEEEE
__ZNK20MediaSessionHandover9sessionIdEv
__ZN17MediaSessionQueue4sizeEv
__ZNK20MediaSessionHandover12loggableNameEv
__ZThn24_NK20MediaSessionHandover9sessionIdEv
__ZThn168_NK20MediaSessionHandover12loggableNameEv
__ZN21MediaSessionInterfaceC2EyNSt3__110shared_ptrI10RTPManagerEERKNS0_12basic_stringIcNS0_11char_traitsIcEENS0_9allocatorIcEEEERKN3ims8DispatchE
__ZNSt3__110__list_impINS_4pairIN17MediaSessionQueue6ActionENS_8weak_ptrI21MediaSessionInterfaceEEEENS_9allocatorIS7_EEE5clearEv
__ZNSt3__110shared_ptrI21MediaSessionAutoStartED2B6v15006Ev
__ZNSt3__110shared_ptrI20MediaSessionHandoverED2B6v15006Ev
__ZNK24ImsRandomStringGenerator12randomStringEm
__ZNK24ImsRandomStringGenerator19makeBranchParameterEv
__ZN24ImsRandomNumberGeneratorIhEC2Ehh
__ZNSt3__113random_deviceC1Ev
__ZNSt3__124uniform_int_distributionIhEclINS_26linear_congruential_engineIjLj48271ELj0ELj2147483647EEEEEhRT_RKNS1_10param_typeE
__ZNSt3__125__independent_bits_engineINS_26linear_congruential_engineIjLj48271ELj0ELj2147483647EEEjEC2ERS2_m
__ZNSt3__125__independent_bits_engineINS_26linear_congruential_engineIjLj48271ELj0ELj2147483647EEEjE6__evalENS_17integral_constantIbLb1EEE
__ZN16SipProxyResolverC2EP17ImsNetworkManagerj
__ZN23SipTypedTerminationLockI18SipLockableWrapperI16SipProxyResolverEED1Ev
__ZN16SipProxyResolverD2Ev
__ZN16SipProxyResolverD1Ev
__ZThn8_N16SipProxyResolverD1Ev
__ZThn16_N16SipProxyResolverD1Ev
__ZThn96_N16SipProxyResolverD1Ev
__ZThn104_N16SipProxyResolverD1Ev
__ZN16SipProxyResolverD0Ev
__ZThn8_N16SipProxyResolverD0Ev
__ZThn16_N16SipProxyResolverD0Ev
__ZThn96_N16SipProxyResolverD0Ev
__ZThn104_N16SipProxyResolverD0Ev
__ZN16SipProxyResolver25resolveProxiesOnInterfaceERKNSt3__16vectorI6SipUriNS0_9allocatorIS2_EEEERKNS0_12basic_stringIcNS0_11char_traitsIcEENS3_IcEEEEjU13block_pointerFvRS5_E
__ZN16SipProxyResolver15internalResolveEv
__ZN16SipProxyResolver23networkInterfaceChangedERKNSt3__112basic_stringIcNS0_11char_traitsIcEENS0_9allocatorIcEEEEONS0_10unique_ptrI16NetworkInterfaceNS0_14default_deleteISA_EEEE
__ZN16SipProxyResolver19reachabilityChangedERK29ImsNetworkReachabilityMonitorRK26ImsNetworkReachabilityInfo
__ZThn8_N16SipProxyResolver19reachabilityChangedERK29ImsNetworkReachabilityMonitorRK26ImsNetworkReachabilityInfo
__ZN16SipProxyResolver11ResolvedUri10addAddressERK9IpAddress
____ZN16SipProxyResolver15internalResolveEv_block_invoke
__ZN16SipProxyResolver11handleTimerEP17SipTimerContainerRKNSt3__112basic_stringIcNS2_11char_traitsIcEENS2_9allocatorIcEEEE
__ZThn104_N16SipProxyResolver11handleTimerEP17SipTimerContainerRKNSt3__112basic_stringIcNS2_11char_traitsIcEENS2_9allocatorIcEEEE
__ZNK16SipProxyResolver9logPrefixER12ImsOutStream
__ZNK16SipProxyResolver12loggableNameEv
__ZThn16_NK16SipProxyResolver9logPrefixER12ImsOutStream
__ZThn96_NK16SipProxyResolver12loggableNameEv
__ZN18SipLockableWrapperI16SipProxyResolverED1Ev
__ZN18SipLockableWrapperI16SipProxyResolverED0Ev
__ZNK18SipLockableWrapperI16SipProxyResolverE12loggableNameEv
__ZN18SipLockableWrapperI16SipProxyResolverED2Ev
__ZN23SipTypedTerminationLockI18SipLockableWrapperI16SipProxyResolverEEC2EPS2_RK14LoggableString
__ZN23SipTypedTerminationLockI18SipLockableWrapperI16SipProxyResolverEED0Ev
__ZN23SipTypedTerminationLockI18SipLockableWrapperI16SipProxyResolverEED2Ev
__ZNSt3__16__treeINS_12__value_typeINS_12basic_stringIcNS_11char_traitsIcEENS_9allocatorIcEEEEPN16SipProxyResolver11ResolvedUriEEENS_19__map_value_compareIS7_SB_NS_4lessIS7_EELb1EEENS5_ISB_EEE7destroyEPNS_11__tree_nodeISB_PvEE
__ZNKSt3__16vectorIPN16SipProxyResolver11ResolvedUriENS_9allocatorIS3_EEE20__throw_length_errorB6v15006Ev
__ZNSt3__16__treeINS_12__value_typeINS_12basic_stringIcNS_11char_traitsIcEENS_9allocatorIcEEEEPN16SipProxyResolver11ResolvedUriEEENS_19__map_value_compareIS7_SB_NS_4lessIS7_EELb1EEENS5_ISB_EEE4findIS7_EENS_15__tree_iteratorISB_PNS_11__tree_nodeISB_PvEElEERKT_
__ZNSt3__16vectorIP9IpAddressNS_9allocatorIS2_EEEC2ERKS5_
__ZNSt3__16vectorIP9IpAddressNS_9allocatorIS2_EEE11__vallocateB6v15006Em
__GLOBAL__sub_I_SipProxyResolver.cpp
__ZN23SipPCalledPartyIdHeaderD1Ev
__ZN23SipPCalledPartyIdHeaderD0Ev
__ZNK23SipPCalledPartyIdHeader5cloneEv
__ZN22BambiDeregisterHandler24handleUpdateRegistrationEv
__ZN22BambiDeregisterHandler4stopEv
__ZN22BambiDeregisterHandler21handleEndRegistrationEb
__ZN22BambiDeregisterHandler13performActionEv
__ZN22BambiDeregisterHandler5startENS_21BambiDeregisterReasonEj
__ZN22BambiDeregisterHandler11handleTimerEP17SipTimerContainerRKNSt3__112basic_stringIcNS2_11char_traitsIcEENS2_9allocatorIcEEEE
__ZThn8_N22BambiDeregisterHandler11handleTimerEP17SipTimerContainerRKNSt3__112basic_stringIcNS2_11char_traitsIcEENS2_9allocatorIcEEEE
__ZN22BambiDeregisterHandlerD1Ev
__ZN22BambiDeregisterHandlerD0Ev
__ZNK22BambiDeregisterHandler12loggableNameEv
__ZThn8_N22BambiDeregisterHandlerD1Ev
__ZThn8_N22BambiDeregisterHandlerD0Ev
__GLOBAL__sub_I_BambiDeregisterHandler.cpp
__ZN21SipAcceptContactValueC2EjRK15SipParameterMap
__ZN22SipAcceptContactHeader32addValueWithServiceMaskAndParamsEjRK15SipParameterMap
__ZN15SipVectorHeaderIP21SipAcceptContactValueE7addItemERKS1_
__ZN22SipAcceptContactHeaderD1Ev
__ZN22SipAcceptContactHeaderD0Ev
__ZNK22SipAcceptContactHeader5cloneEv
__ZNK15SipVectorHeaderIP21SipAcceptContactValueE11encodeValueER12ImsOutStream
__ZN15SipVectorHeaderIP21SipAcceptContactValueE18setValueFromStringERKNSt3__112basic_stringIcNS3_11char_traitsIcEENS3_9allocatorIcEEEE
__ZNK15SipVectorHeaderIP21SipAcceptContactValueE16allowsDuplicatesEv
__ZNK15SipVectorHeaderIP21SipAcceptContactValueE13allowsMergingEv
__ZN22SipPointerVectorHeaderI21SipAcceptContactValueE11mergeHeaderERK9SipHeader
__ZNK22SipPointerVectorHeaderI21SipAcceptContactValueE12itemToStreamERKPS0_R12ImsOutStream
__ZNK22SipPointerVectorHeaderI21SipAcceptContactValueE14itemFromStringERKNSt3__112basic_stringIcNS2_11char_traitsIcEENS2_9allocatorIcEEEEPPS0_
__ZN15SipVectorHeaderIP21SipAcceptContactValueE9nextTokenERKNSt3__112basic_stringIcNS3_11char_traitsIcEENS3_9allocatorIcEEEEmPS9_c
__ZN22SipPointerVectorHeaderI21SipAcceptContactValueED1Ev
__ZN22SipPointerVectorHeaderI21SipAcceptContactValueED0Ev
__ZN15SipVectorHeaderIP21SipAcceptContactValueED1Ev
__ZN15SipVectorHeaderIP21SipAcceptContactValueED0Ev
__ZN15SipVectorHeaderIP21SipAcceptContactValueE11mergeHeaderERK9SipHeader
__ZN15SipVectorHeaderIP21SipAcceptContactValueED2Ev
__ZNKSt3__16vectorIP21SipAcceptContactValueNS_9allocatorIS2_EEE20__throw_length_errorB6v15006Ev
__ZNSt3__119__allocate_at_leastB6v15006INS_9allocatorIP21SipAcceptContactValueEEEENS_19__allocation_resultINS_16allocator_traitsIT_E7pointerEEERS7_m
__ZN22SipPointerVectorHeaderI21SipAcceptContactValueED2Ev
__GLOBAL__sub_I_SipAcceptContactHeader.cpp
__ZN21SipConferenceInfoBodyC2ERKS_
__GLOBAL__sub_I_SipConferenceInfoBody.cpp
__ZN20SipAllowEventsHeaderD1Ev
__ZN20SipAllowEventsHeaderD0Ev
__ZNK20SipAllowEventsHeader5cloneEv
__ZN23SipAcceptEncodingHeaderD1Ev
__ZN23SipAcceptEncodingHeaderD0Ev
__ZNK23SipAcceptEncodingHeader5cloneEv
__ZN13SipRAckHeaderC2EjjRKNSt3__112basic_stringIcNS0_11char_traitsIcEENS0_9allocatorIcEEEE
__ZN13SipRAckHeader12fromResponseERK11SipResponse
__ZNK10SipMessage6headerI13SipRSeqHeaderEEPKT_v
__ZNK10SipMessage6headerI13SipCSeqHeaderEEPKT_v
__ZNK13SipRAckHeader11encodeValueER12ImsOutStream
__ZN13SipRAckHeader18setValueFromStringERKNSt3__112basic_stringIcNS0_11char_traitsIcEENS0_9allocatorIcEEEE
__ZN13SipRAckHeaderD1Ev
__ZN13SipRAckHeaderD0Ev
__ZNK13SipRAckHeader5cloneEv
__ZN15E911LocationAwdC2Ev
__ZN15E911LocationAwd15submitAwdReportEv
__ZN12SipTimerInfoD2Ev
__ZN12SipTimerInfo10invalidateEv
__ZN17SipTimerContainer11fullTimerIdEPK12SipTimerInfo
____ZN12SipTimerInfo10initializeEP17SipTimerContainerb_block_invoke
__ZN16SipTimerDelegate11handleTimerEP17SipTimerContainerRKNSt3__112basic_stringIcNS2_11char_traitsIcEENS2_9allocatorIcEEEE
__ZN17SipTimerContainerC2Ev
__ZN17SipTimerContainerD2Ev
__ZN17SipTimerContainer15cancelAllTimersEv
__ZN17SipTimerContainerD1Ev
__ZN17SipTimerContainerD0Ev
__ZN17SipTimerContainer10startTimerERKNSt3__112basic_stringIcNS0_11char_traitsIcEENS0_9allocatorIcEEEEjb
__ZN17SipTimerContainer11cancelTimerERKNSt3__112basic_stringIcNS0_11char_traitsIcEENS0_9allocatorIcEEEE
__ZN17SipTimerContainer11cancelTimerEP12SipTimerInfo
__ZN17SipTimerContainer12timerPastDueERKNSt3__112basic_stringIcNS0_11char_traitsIcEENS0_9allocatorIcEEEE
__ZN17SipTimerContainer10timerFiredEP12SipTimerInfo
__ZN17SipTimerContainer11handleTimerERKNSt3__112basic_stringIcNS0_11char_traitsIcEENS0_9allocatorIcEEEE
__ZNK17SipTimerContainer13timersEnabledEv
__ZNK17SipTimerContainer12loggableNameEv
__ZNK17SipTimerContainer3logER12ImsOutStream
__ZN17SipTimerContainer13startSipTimerERK8SipTimerj
__ZN16SipTimerDelegateD1Ev
__ZN16SipTimerDelegateD0Ev
__ZNSt3__112__hash_tableINS_17__hash_value_typeINS_12basic_stringIcNS_11char_traitsIcEENS_9allocatorIcEEEEP12SipTimerInfoEENS_22__unordered_map_hasherIS7_SA_NS_4hashIS7_EENS_8equal_toIS7_EELb1EEENS_21__unordered_map_equalIS7_SA_SF_SD_Lb1EEENS5_ISA_EEE4findIS7_EENS_15__hash_iteratorIPNS_11__hash_nodeISA_PvEEEERKT_
__ZNSt3__112__hash_tableINS_17__hash_value_typeINS_12basic_stringIcNS_11char_traitsIcEENS_9allocatorIcEEEEP12SipTimerInfoEENS_22__unordered_map_hasherIS7_SA_NS_4hashIS7_EENS_8equal_toIS7_EELb1EEENS_21__unordered_map_equalIS7_SA_SF_SD_Lb1EEENS5_ISA_EEED2Ev
__ZNSt3__112__hash_tableINS_17__hash_value_typeINS_12basic_stringIcNS_11char_traitsIcEENS_9allocatorIcEEEEP12SipTimerInfoEENS_22__unordered_map_hasherIS7_SA_NS_4hashIS7_EENS_8equal_toIS7_EELb1EEENS_21__unordered_map_equalIS7_SA_SF_SD_Lb1EEENS5_ISA_EEE17__deallocate_nodeEPNS_16__hash_node_baseIPNS_11__hash_nodeISA_PvEEEE
__ZNSt3__122__hash_node_destructorINS_9allocatorINS_11__hash_nodeINS_17__hash_value_typeINS_12basic_stringIcNS_11char_traitsIcEENS1_IcEEEEP12SipTimerInfoEEPvEEEEEclB6v15006EPSD_
__ZNSt3__112__hash_tableINS_17__hash_value_typeINS_12basic_stringIcNS_11char_traitsIcEENS_9allocatorIcEEEEP12SipTimerInfoEENS_22__unordered_map_hasherIS7_SA_NS_4hashIS7_EENS_8equal_toIS7_EELb1EEENS_21__unordered_map_equalIS7_SA_SF_SD_Lb1EEENS5_ISA_EEE14__erase_uniqueIS7_EEmRKT_
__ZNSt3__112__hash_tableINS_17__hash_value_typeINS_12basic_stringIcNS_11char_traitsIcEENS_9allocatorIcEEEEP12SipTimerInfoEENS_22__unordered_map_hasherIS7_SA_NS_4hashIS7_EENS_8equal_toIS7_EELb1EEENS_21__unordered_map_equalIS7_SA_SF_SD_Lb1EEENS5_ISA_EEE5eraseENS_21__hash_const_iteratorIPNS_11__hash_nodeISA_PvEEEE
__ZNSt3__112__hash_tableINS_17__hash_value_typeINS_12basic_stringIcNS_11char_traitsIcEENS_9allocatorIcEEEEP12SipTimerInfoEENS_22__unordered_map_hasherIS7_SA_NS_4hashIS7_EENS_8equal_toIS7_EELb1EEENS_21__unordered_map_equalIS7_SA_SF_SD_Lb1EEENS5_ISA_EEE6removeENS_21__hash_const_iteratorIPNS_11__hash_nodeISA_PvEEEE
__GLOBAL__sub_I_SipTimerContainer.cpp
__ZNK10SipXmlBody13contentLengthEv
__ZNK10SipXmlBody6encodeER12ImsOutStreamb
__ZN10SipXmlBody6decodeERNSt3__113basic_istreamIcNS0_11char_traitsIcEEEEmRK21SipMessageEncodingMap
__ZN10SipXmlBody6decodeERKNSt3__112basic_stringIcNS0_11char_traitsIcEENS0_9allocatorIcEEEERK21SipMessageEncodingMap
__ZN10SipXmlBodyD1Ev
__ZN10SipXmlBodyD0Ev
__ZNK10SipXmlBody11contentTypeEv
__ZN10SipXmlBody8rootItemEv
__GLOBAL__sub_I_SipXmlBody.cpp
__ZN12ImsUdpSocket18socketReadCallbackEv
____ZN12ImsUdpSocket18socketReadCallbackEv_block_invoke
__ZN12ImsUdpSocket20_handleDataAvailableEv
__ZN12ImsUdpSocket10initializeERK16IpAddressWrapperRKN3ims8DispatchERKNSt3__112basic_stringIcNS7_11char_traitsIcEENS7_9allocatorIcEEEEb
__ZN9ImsResultlsI16IpAddressWrapperEERS_RKT_
__ZN12ImsUdpSocket10initializeEiRKN3ims8DispatchEb
__ZN12ImsUdpSocket4sendEPKhmRK16IpAddressWrapper
__ZN12ImsUdpSocket19socketInterfaceTypeEv
__ZThn72_N12ImsUdpSocket19socketInterfaceTypeEv
__ZN12ImsUdpSocket16initializeSocketERK16IpAddressWrapperRKN3ims8DispatchERKNSt3__112basic_stringIcNS7_11char_traitsIcEENS7_9allocatorIcEEEE
__ZThn72_N12ImsUdpSocket16initializeSocketERK16IpAddressWrapperRKN3ims8DispatchERKNSt3__112basic_stringIcNS7_11char_traitsIcEENS7_9allocatorIcEEEE
__ZN12ImsUdpSocket16initializeSocketEiRKN3ims8DispatchE
__ZThn72_N12ImsUdpSocket16initializeSocketEiRKN3ims8DispatchE
__ZN12ImsUdpSocket14sendOverSocketEPKhmRK16IpAddressWrapper
__ZThn72_N12ImsUdpSocket14sendOverSocketEPKhmRK16IpAddressWrapper
__ZN12ImsUdpSocket11closeSocketEv
__ZThn72_N12ImsUdpSocket11closeSocketEv
__ZN12ImsUdpSocket18isPortReuseAllowedEv
__ZThn72_N12ImsUdpSocket18isPortReuseAllowedEv
__ZN12ImsUdpSocket26socketInterfaceInitializedEv
__ZThn72_N12ImsUdpSocket26socketInterfaceInitializedEv
__ZNK12ImsUdpSocket18socketLocalAddressEv
__ZThn72_NK12ImsUdpSocket18socketLocalAddressEv
__ZN12ImsUdpSocket21setSocketLocalAddressERK9IpAddress
__ZThn72_N12ImsUdpSocket21setSocketLocalAddressERK9IpAddress
__ZNK12ImsUdpSocket25socketInterfaceDescriptorEv
__ZThn72_NK12ImsUdpSocket25socketInterfaceDescriptorEv
__ZN12ImsUdpSocket28attachDispatchSourceToSocketEP16dispatch_queue_s
__ZThn72_N12ImsUdpSocket28attachDispatchSourceToSocketEP16dispatch_queue_s
__ZN12ImsUdpSocket30detachDispatchSourceFromSocketEv
____ZN12ImsUdpSocket30detachDispatchSourceFromSocketEv_block_invoke
__ZThn72_N12ImsUdpSocket30detachDispatchSourceFromSocketEv
__ZN12ImsUdpSocket15socketDebugMaskEv
__ZThn72_N12ImsUdpSocket15socketDebugMaskEv
__ZN12ImsUdpSocket18setSocketDebugMaskEj
__ZThn72_N12ImsUdpSocket18setSocketDebugMaskEj
__ZN12ImsUdpSocket17setSocketDelegateEP29ImsUdpSocketInterfaceDelegate
__ZThn72_N12ImsUdpSocket17setSocketDelegateEP29ImsUdpSocketInterfaceDelegate
__ZN12ImsUdpSocket12setDscpClassE9DscpClass
__ZThn72_N12ImsUdpSocket12setDscpClassE9DscpClass
__ZN12ImsUdpSocket10socketTypeEv
__ZN12ImsUdpSocketD1Ev
__ZN12ImsUdpSocketD0Ev
__ZThn72_N12ImsUdpSocketD1Ev
__ZThn72_N12ImsUdpSocketD0Ev
__ZNK20SipSecurityMechanism3logER12ImsOutStream
__ZNK20SipSecurityMechanism12loggableNameEv
__ZN20SipSecurityMechanismD1Ev
__ZN20SipSecurityMechanismD0Ev
__GLOBAL__sub_I_SipDigestSecurityMechanism.cpp
__ZN9SDPParser15parseMediaTitleERKNS_16SDPParserContextER8SDPMediaRNSt3__112basic_stringIcNS5_11char_traitsIcEENS5_9allocatorIcEEEE
__ZN9SDPParser20parseMediaConnectionERKNS_16SDPParserContextER8SDPMediaRNSt3__112basic_stringIcNS5_11char_traitsIcEENS5_9allocatorIcEEEE
__ZN9SDPParser19parseMediaBandwidthERKNS_16SDPParserContextER8SDPMediaRNSt3__112basic_stringIcNS5_11char_traitsIcEENS5_9allocatorIcEEEE
__ZN9SDPParser23parseMediaEncryptionKeyERKNS_16SDPParserContextER8SDPMediaRNSt3__112basic_stringIcNS5_11char_traitsIcEENS5_9allocatorIcEEEE
__ZN9SDPParser19parseMediaAttributeERKNS_16SDPParserContextER8SDPMediaRNSt3__112basic_stringIcNS5_11char_traitsIcEENS5_9allocatorIcEEEE
__ZN19SipRetryAfterHeaderC2EjRKNSt3__112basic_stringIcNS0_11char_traitsIcEENS0_9allocatorIcEEEE
__ZNK19SipRetryAfterHeader11encodeValueER12ImsOutStream
__ZN19SipRetryAfterHeader18setValueFromStringERKNSt3__112basic_stringIcNS0_11char_traitsIcEENS0_9allocatorIcEEEE
__ZN19SipRetryAfterHeaderD1Ev
__ZN19SipRetryAfterHeaderD0Ev
__ZNK19SipRetryAfterHeader5cloneEv
__ZN26SipPolymorphicVectorHeaderI20SipSecurityMechanismEC2ERKS1_
__ZN26SipPolymorphicVectorHeaderI20SipSecurityMechanismED2Ev
__ZNK26SipSecurityAgreementHeader14itemFromStringERKNSt3__112basic_stringIcNS0_11char_traitsIcEENS0_9allocatorIcEEEEPP20SipSecurityMechanism
__ZN26SipPolymorphicVectorHeaderI20SipSecurityMechanismED1Ev
__ZN26SipPolymorphicVectorHeaderI20SipSecurityMechanismED0Ev
__ZNK26SipPolymorphicVectorHeaderI20SipSecurityMechanismE12itemToStreamERKPS0_R12ImsOutStream
__ZNK26SipPolymorphicVectorHeaderI20SipSecurityMechanismE14itemFromStringERKNSt3__112basic_stringIcNS2_11char_traitsIcEENS2_9allocatorIcEEEEPPS0_
__ZN15SipVectorHeaderIP20SipSecurityMechanismED1Ev
__ZN15SipVectorHeaderIP20SipSecurityMechanismED0Ev
__ZN15SipVectorHeaderIP20SipSecurityMechanismE11mergeHeaderERK9SipHeader
__ZN15SipVectorHeaderIP20SipSecurityMechanismED2Ev
__ZN10XcapCDRuleC2Ev
__ZNSt3__110shared_ptrI15XcapCDConditionEaSB6v15006EOS2_
__ZNK10XcapCDRule5cloneEv
__ZNSt3__110shared_ptrI15XcapCDConditionEaSB6v15006ERKS2_
__ZN10XcapCDRule12setAttributeERKNSt3__112basic_stringIcNS0_11char_traitsIcEENS0_9allocatorIcEEEES8_
__ZN10XcapCDRule11createChildERKNSt3__112basic_stringIcNS0_11char_traitsIcEENS0_9allocatorIcEEEE
__ZN10XcapCDRule10parseChildERKNSt3__112basic_stringIcNS0_11char_traitsIcEENS0_9allocatorIcEEEERKN5bambi13XmlParserNodeE
__ZNK10XcapCDRule13constructTreeEv
__ZThn8_NK10XcapCDRule13constructTreeEv
__ZNK10XcapCDRule8asStringEv
__ZN10XcapCDRuleD0Ev
__ZThn8_N10XcapCDRuleD1Ev
__ZThn8_N10XcapCDRuleD0Ev
__GLOBAL__sub_I_XcapCDRule.cpp
__ZN20XcapDocumentSelectorC2ERKNSt3__112basic_stringIcNS0_11char_traitsIcEENS0_9allocatorIcEEEES8_
__ZNK20XcapDocumentSelector8asStringEv
__ZNK20XcapDocumentSelector5cloneEv
__ZN17XcapNafServerInfoC2EP11XcapSessionRK10XcapConfigPK15SipAuthResponsey
__ZN17XcapNafServerInfoD2Ev
__ZN17XcapNafServerInfoD1Ev
__ZN17XcapNafServerInfoD0Ev
__ZN17XcapNafServerInfo5nafIdEv
__ZNSt3__16vectorIhNS_9allocatorIhEEED1B6v15006Ev
__ZNSt3__16vectorIhNS_9allocatorIhEEE6insertINS_11__wrap_iterIPcEEEENS_9enable_ifIXaasr27__is_cpp17_forward_iteratorIT_EE5valuesr16is_constructibleIhNS_15iterator_traitsIS9_E9referenceEEE5valueENS5_IPhEEE4typeENS5_IPKhEES9_S9_
__ZNSt3__16vectorIhNS_9allocatorIhEEE6insertINS_11__wrap_iterIPhEEEENS_9enable_ifIXaasr27__is_cpp17_forward_iteratorIT_EE5valuesr16is_constructibleIhNS_15iterator_traitsIS9_E9referenceEEE5valueES7_E4typeENS5_IPKhEES9_S9_
__ZNK17XcapNafServerInfo4hostEv
__ZNK17XcapNafServerInfo4portEv
__ZN17XcapNafServerInfo24_constructInitialHeadersEv
__ZN17XcapNafServerInfo20setDigestCredentialsERK15SipAuthResponse
__ZN17XcapNafServerInfo20setGbaNafCredentialsERKNSt3__16vectorIhNS0_9allocatorIhEEEE
__ZNK17XcapNafServerInfo19_fetchMatchingRealmERKNSt3__112basic_stringIcNS0_11char_traitsIcEENS0_9allocatorIcEEEE
__ZN17XcapNafServerInfo25handleHttpResponseSuccessEP13HttpClientApiRKNSt3__112basic_stringIcNS2_11char_traitsIcEENS2_9allocatorIcEEEE
__ZN17XcapNafServerInfo26handleHttpResponseRedirectEP13HttpClientApiRKNSt3__112basic_stringIcNS2_11char_traitsIcEENS2_9allocatorIcEEEE
__ZN17XcapNafServerInfo31handleHttpResponseAuthChallengeEP13HttpClientApiRKNSt3__112basic_stringIcNS2_11char_traitsIcEENS2_9allocatorIcEEEESA_
__ZN17XcapNafServerInfo25handleHttpResponseFailureEP13HttpClientApiRK9ImsResult
__ZN17XcapNafServerInfo14sendPutRequestERKNSt3__112basic_stringIcNS0_11char_traitsIcEENS0_9allocatorIcEEEES8_
__ZNK17XcapNafServerInfo10_userAgentEv
__ZNK17XcapNafServerInfo11httpVersionEv
__ZN17XcapNafServerInfo2idEv
__ZN14XcapServerInfo10challengedEv
__ZN14XcapServerInfo20getDigestCredentialsEv
__ZNSt3__16__treeINS_12__value_typeINS_12basic_stringIcNS_11char_traitsIcEENS_9allocatorIcEEEES7_EENS_19__map_value_compareIS7_S8_N11HttpMessage6ciLessELb1EEENS5_IS8_EEE25__emplace_unique_key_argsIS7_JRKNS_21piecewise_construct_tENS_5tupleIJOS7_EEENSJ_IJEEEEEENS_4pairINS_15__tree_iteratorIS8_PNS_11__tree_nodeIS8_PvEElEEbEERKT_DpOT0_
__ZNSt3__16__treeINS_12__value_typeINS_12basic_stringIcNS_11char_traitsIcEENS_9allocatorIcEEEES7_EENS_19__map_value_compareIS7_S8_N11HttpMessage6ciLessELb1EEENS5_IS8_EEE12__find_equalIS7_EERPNS_16__tree_node_baseIPvEERPNS_15__tree_end_nodeISJ_EERKT_
__ZNSt3__16__treeINS_12__value_typeINS_12basic_stringIcNS_11char_traitsIcEENS_9allocatorIcEEEES7_EENS_19__map_value_compareIS7_S8_N11HttpMessage6ciLessELb1EEENS5_IS8_EEE16__insert_node_atEPNS_15__tree_end_nodeIPNS_16__tree_node_baseIPvEEEERSJ_SJ_
__GLOBAL__sub_I_XcapNafServerInfo.cpp
__ZN3ims8toStringI9DscpClassEENSt3__112basic_stringIcNS2_11char_traitsIcEENS2_9allocatorIcEEEERKT_
__ZN15ImsServiceClassC2EPK11ImsDictPrefRKNSt3__112basic_stringIcNS3_11char_traitsIcEENS3_9allocatorIcEEEE
__ZNK17ImsServiceClasseseqERKS_
__ZN20DeferredRegistration4nameEv
__ZN20DeferredRegistration7performEb
__ZN21SipRegistrationClient18registerWithConfigERK21SipRegistrationConfigRKNSt3__112basic_stringIcNS3_11char_traitsIcEENS3_9allocatorIcEEEEb
__ZN22DeferredDeregistration7performEb
__ZN21SipRegistrationClient10deregisterEv
__ZN24DeferredDropRegistration7performEb
__ZN20DeferredSubscription7performEb
__ZN30SipRegistrationDeferralManager11deferActionEP21SipRegistrationClient
__ZN30SipRegistrationDeferralManager11deferActionEP21SipRegistrationClientRK21SipRegistrationConfigRKNSt3__112basic_stringIcNS5_11char_traitsIcEENS5_9allocatorIcEEEE
__ZN30SipRegistrationDeferralManager11deferActionEP21SipRegistrationClientj
__ZN30SipRegistrationDeferralManager6cancelEv
__ZN30SipRegistrationDeferralManager7performEb
__ZN21SipRegistrationClientC2EP12SipUserAgent
__ZN22SipRegistrationMetricsD1Ev
__ZN23SipTypedTerminationLockI21SipRegistrationPolicyED1Ev
__ZN12SipSessionIdD1Ev
__ZN21SipRegistrationClientD2Ev
__ZN21SipRegistrationClient12deinitializeEv
__ZN21SipRegistrationClientD1Ev
__ZThn8_N21SipRegistrationClientD1Ev
__ZThn16_N21SipRegistrationClientD1Ev
__ZThn24_N21SipRegistrationClientD1Ev
__ZThn104_N21SipRegistrationClientD1Ev
__ZThn112_N21SipRegistrationClientD1Ev
__ZThn120_N21SipRegistrationClientD1Ev
__ZThn128_N21SipRegistrationClientD1Ev
__ZThn136_N21SipRegistrationClientD1Ev
__ZN21SipRegistrationClientD0Ev
__ZThn8_N21SipRegistrationClientD0Ev
__ZThn16_N21SipRegistrationClientD0Ev
__ZThn24_N21SipRegistrationClientD0Ev
__ZThn104_N21SipRegistrationClientD0Ev
__ZThn112_N21SipRegistrationClientD0Ev
__ZThn120_N21SipRegistrationClientD0Ev
__ZThn128_N21SipRegistrationClientD0Ev
__ZThn136_N21SipRegistrationClientD0Ev
__ZN21SipRegistrationClient14setClientStateENS_11ClientStateE
__ZN21SipRegistrationClient28cleanUpRegistrationArtifactsEv
____ZN21SipRegistrationClient14setClientStateENS_11ClientStateE_block_invoke
__ZN21SipRegistrationClient21performDeferredActionEv
__ZN32SipRegistrationErrorNotificationD1Ev
__ZN21SipRegistrationClient20setRegistrationStateERKN3ims17RegistrationStateE
__ZNK21SipRegistrationClient19isWifiAccessNetworkEv
__ZThn128_NK21SipRegistrationClient19isWifiAccessNetworkEv
__ZN21SipRegistrationClient18resetCallIdAndCseqEb
__ZN21SipRegistrationClient10initializeEv
__ZN21SipRegistrationClient9setPolicyERKNSt3__112basic_stringIcNS0_11char_traitsIcEENS0_9allocatorIcEEEE
__ZN21SipRegistrationClient26clearDeferredNotificationsEv
__ZN21SipRegistrationClient17clearDeferredDropEv
__ZN21SipRegistrationClient17registrationErrorERK9ImsResult
__ZN21SipRegistrationClient23handleRegistrationErrorERK9ImsResultlb
__ZThn128_N21SipRegistrationClient17registrationErrorERK9ImsResult
__ZN21SipRegistrationClient24handleThumperAuthFailureERKNSt3__112basic_stringIcNS0_11char_traitsIcEENS0_9allocatorIcEEEE
__ZThn128_N21SipRegistrationClient24handleThumperAuthFailureERKNSt3__112basic_stringIcNS0_11char_traitsIcEENS0_9allocatorIcEEEE
__ZN21SipRegistrationClient33notifyDelegateOfRegistrationErrorERK32SipRegistrationErrorNotificationb
__ZN21SipRegistrationClient19handleErrorResponseERK11SipResponse
__ZN21SipRegistrationClient22handleTransactionErrorERK9ImsResultP14SipTransaction
__ZN21SipRegistrationClient21findContactInResponseERK6SipUriRK11SipResponseb
__ZN21SipRegistrationClient27updateServiceMaskForContactEP10SipContact
__ZNK21SipRegistrationClient15allowedServicesEv
__ZN21SipRegistrationClient23updateRegistrationStateERK32SipRegistrationStateNotification
__ZN33SipRegistrationActiveNotificationD1Ev
__ZN22SipRegistrationSubject17actionOnObserversEU13block_pointerFvP23SipRegistrationObserverE
____ZN21SipRegistrationClient30updateRegistrationFromResponseERK11SipResponseb_block_invoke
____ZN21SipRegistrationClient30updateRegistrationFromResponseERK11SipResponseb_block_invoke_2
__ZN21SipRegistrationClient21updateExpirationTimerERK10SipContact
__ZN21SipRegistrationClient30triggerRegistrationTerminationE29RegistrationTerminationReasonlb
__ZThn128_N21SipRegistrationClient30triggerRegistrationTerminationE29RegistrationTerminationReasonlb
__ZN21SipRegistrationClient18terminateRegEventsEv
__ZN21SipRegistrationClient34notifyDelegateOfRegistrationActiveERK33SipRegistrationActiveNotification
__ZNK17BambiClientStatusneERKS_
__ZN21SipRegistrationClient39notifyDelegateOfRegistrationTerminationERK37SipRegistrationTerminatedNotificationb
__ZN21SipRegistrationClient19isImsOutageResponseERK11SipResponse
__ZL15isImsOutageTextRKNSt3__112basic_stringIcNS_11char_traitsIcEENS_9allocatorIcEEEE
__ZN21SipRegistrationClient14handleResponseERK11SipResponseP20SipClientTransaction
__ZN21SipRegistrationClient37retryRegistrationAfterProceduralErrorE23RegistrationRetryReason
__ZN21SipRegistrationClient25internalRetryRegistrationE23RegistrationRetryReason
__ZN21SipRegistrationClient10forceRetryEv
__ZThn128_N21SipRegistrationClient10forceRetryEv
__ZNK21SipRegistrationClient23shouldDeferRegistrationEv
__ZN21SipRegistrationClient19initializeTransportEv
__ZN21SipRegistrationClient17retryRegistrationEv
__ZThn128_N21SipRegistrationClient17retryRegistrationEv
__ZN21SipRegistrationClient24setConnectivityAvailableEbb
__ZN21SipRegistrationClient21transactionTerminatedEP14SipTransaction
__ZN21SipRegistrationClient19refreshRegistrationEv
__ZN21SipRegistrationClient18sendInitialRequestEv
__ZN21SipRegistrationClient21handleHysteresisTimerEv
__ZN21SipRegistrationClient35notifyDelegateOfCurrentRegistrationEv
__ZN21SipRegistrationClient11handleTimerEP17SipTimerContainerRKNSt3__112basic_stringIcNS2_11char_traitsIcEENS2_9allocatorIcEEEE
__ZThn8_N21SipRegistrationClient11handleTimerEP17SipTimerContainerRKNSt3__112basic_stringIcNS2_11char_traitsIcEENS2_9allocatorIcEEEE
__ZN21SipRegistrationClient20subscribeToRegEventsEv
__ZThn128_N21SipRegistrationClient20subscribeToRegEventsEv
____ZN21SipRegistrationClient24unsubscribeFromRegEventsEv_block_invoke
____ZN21SipRegistrationClient18terminateRegEventsEv_block_invoke
__ZN21SipRegistrationClient26regEventSubscriptionFailedEP27SipRegistrationEventPackageR9ImsResultj
____ZN21SipRegistrationClient26regEventSubscriptionFailedEP27SipRegistrationEventPackageR9ImsResultj_block_invoke
____ZN21SipRegistrationClient27regEventSubscriptionSuccessEP27SipRegistrationEventPackage_block_invoke
__ZN21SipRegistrationClient30regEventSubscriptionTerminatedEP27SipRegistrationEventPackageb
____ZN21SipRegistrationClient30regEventSubscriptionTerminatedEP27SipRegistrationEventPackageb_block_invoke
__ZN21SipRegistrationClient17updateServiceMaskEjbRKNSt3__112basic_stringIcNS0_11char_traitsIcEENS0_9allocatorIcEEEEb
__ZN21SipRegistrationClient27transportInitializedToProxyERK6SipUriRK9ImsResult
__ZThn16_N21SipRegistrationClient27transportInitializedToProxyERK6SipUriRK9ImsResult
__ZNK17BambiClientStatuseqERKS_
____ZN21SipRegistrationClient10deregisterEv_block_invoke
__ZN21SipRegistrationClient11sendRequestEv
__ZN21SipRegistrationClient13updateContactEb
__ZN21SipRegistrationClient21sendAuthorizedRequestEv
__ZN21SipRegistrationClient30handleRegistrationNotificationERK19SipRegistrationInfo
____ZN21SipRegistrationClient30handleRegistrationNotificationERK19SipRegistrationInfo_block_invoke
__ZN21SipRegistrationClient27handleAuthChallengeResponseERK11SipAuthInfo
__ZThn120_N21SipRegistrationClient27handleAuthChallengeResponseERK11SipAuthInfo
__ZN21SipRegistrationClient26handleAuthChallengeTimeoutERK11SipAuthInfo
__ZThn120_N21SipRegistrationClient26handleAuthChallengeTimeoutERK11SipAuthInfo
__ZN21SipRegistrationClient19handlePathSatisfiedEv
__ZThn168_N21SipRegistrationClient19handlePathSatisfiedEv
__ZN21SipRegistrationClient16handlePathFailedERKNSt3__112basic_stringIcNS0_11char_traitsIcEENS0_9allocatorIcEEEE
__ZThn168_N21SipRegistrationClient16handlePathFailedERKNSt3__112basic_stringIcNS0_11char_traitsIcEENS0_9allocatorIcEEEE
__ZNK21SipRegistrationClient21printRegistrationInfoER12ImsOutStream
__ZNK21SipRegistrationClient18registrationDomainEv
__ZNK21SipRegistrationClient12loggableNameEv
__ZThn104_NK21SipRegistrationClient12loggableNameEv
__ZNK21SipRegistrationClient9logPrefixER12ImsOutStream
__ZThn24_NK21SipRegistrationClient9logPrefixER12ImsOutStream
__ZNK21SipRegistrationClient11isEmergencyEv
__ZN21SipRegistrationClient26handleEmergencyStateExitedEv
__ZN21SipRegistrationClient21ipsecTransportExpiredEP22SipIPSecTransportGroup
__ZThn112_N21SipRegistrationClient21ipsecTransportExpiredEP22SipIPSecTransportGroup
__ZN21SipRegistrationClient25sendDeferredNotificationsEv
__ZN21SipRegistrationClient28dropRegistrationWhenCallsEndE29RegistrationTerminationReasonl
__ZN21SipRegistrationClient13allCallsEndedEv
__ZN21SipRegistrationClient11checkTimersEv
__ZN21SipRegistrationClient20systemClockDidChangeEv
__ZN21SipRegistrationClient18handleDeviceEventsEj
__ZN21SipRegistrationClient28handleRegistrationModeChangeERK19SipRegistrationMode
__ZThn128_N21SipRegistrationClient28handleRegistrationModeChangeERK19SipRegistrationMode
__ZN21SipRegistrationClient17handleProxyChangeERK6SipUri
__ZThn128_N21SipRegistrationClient17handleProxyChangeERK6SipUri
__ZN21SipRegistrationClient19requestNetworkResetEv
__ZThn128_N21SipRegistrationClient19requestNetworkResetEv
__ZN21SipRegistrationClient27handleRegistrationThrottledEjl
__ZThn128_N21SipRegistrationClient27handleRegistrationThrottledEjl
__ZNK21SipRegistrationClient16defaultProxyPortEv
__ZThn128_NK21SipRegistrationClient16defaultProxyPortEv
__ZNK21SipRegistrationClient14hasActiveCallsEv
__ZThn128_NK21SipRegistrationClient14hasActiveCallsEv
__ZN21SipRegistrationClient23disableIfInWrongCountryER11SipResponseRKNSt3__112basic_stringIcNS2_11char_traitsIcEENS2_9allocatorIcEEEE
__ZNK21SipRegistrationClient23networkInterfaceChangedEv
__ZThn128_NK21SipRegistrationClient23networkInterfaceChangedEv
__ZN21SipRegistrationClient23handleImsOutageResponseEv
__ZN20DeferredRegistrationD1Ev
__ZN20DeferredRegistrationD0Ev
__ZNK20DeferredRegistration4typeEv
__ZN22DeferredDeregistrationD1Ev
__ZN22DeferredDeregistrationD0Ev
__ZN22DeferredDeregistration4nameEv
__ZNK22DeferredDeregistration4typeEv
__ZN24DeferredDropRegistrationD1Ev
__ZN24DeferredDropRegistrationD0Ev
__ZN24DeferredDropRegistration4nameEv
__ZNK14DeferredAction4typeEv
__ZN20DeferredSubscriptionD1Ev
__ZN20DeferredSubscriptionD0Ev
__ZN20DeferredSubscription4nameEv
__ZNK20DeferredSubscription4typeEv
__ZNK21SipRegistrationClient22registrationInProgressEv
__ZThn128_NK21SipRegistrationClient22registrationInProgressEv
__ZN20DeferredRegistrationC2EP21SipRegistrationClientRK21SipRegistrationConfigRKNSt3__112basic_stringIcNS5_11char_traitsIcEENS5_9allocatorIcEEEE
__ZN22SipRegistrationSubjectD1Ev
__ZN22SipRegistrationSubjectD0Ev
__ZN12SipSessionIdD0Ev
__ZNK11SipIdString3logER12ImsOutStream
__ZNK11SipIdString12loggableNameEv
__ZN30SipRegistrationDeferralManagerD2Ev
__ZN11SipIdStringD1Ev
__ZN11SipIdStringD0Ev
__ZNSt3__16__treeIP23SipRegistrationObserverNS_4lessIS2_EENS_9allocatorIS2_EEE7destroyEPNS_11__tree_nodeIS2_PvEE
__ZN10SipContactD2Ev
__ZN23SipTypedTerminationLockI21SipRegistrationPolicyED0Ev
__ZN23SipTypedTerminationLockI21SipRegistrationPolicyED2Ev
__ZNKSt3__16vectorIPK16SipContactHeaderNS_9allocatorIS3_EEE20__throw_length_errorB6v15006Ev
__ZNSt3__16vectorIN3ims20RegistrationIdentityENS_9allocatorIS2_EEED2B6v15006Ev
__ZNSt3__16vectorIN3ims20RegistrationIdentityENS_9allocatorIS2_EEE22__base_destruct_at_endB6v15006EPS2_
__ZNKSt3__16vectorIN3ims20RegistrationIdentityENS_9allocatorIS2_EEE20__throw_length_errorB6v15006Ev
__ZNSt3__119__allocate_at_leastB6v15006INS_9allocatorIN3ims20RegistrationIdentityEEEEENS_19__allocation_resultINS_16allocator_traitsIT_E7pointerEEERS7_m
___cxx_global_array_dtor
__GLOBAL__sub_I_SipRegistrationClient.cpp
__ZN21SipAuthenticateHeaderC2ERKS_
__ZN21SipAuthenticateHeaderD1Ev
__ZN21SipAuthenticateHeaderD0Ev
__ZNK21SipAuthenticateHeader11encodeValueER12ImsOutStream
__ZN21SipAuthenticateHeader18setValueFromStringERKNSt3__112basic_stringIcNS0_11char_traitsIcEENS0_9allocatorIcEEEE
__ZNK21SipAuthenticateHeader31matchingAuthorizationHeaderNameEv
__ZN17SipMessageDecoderD2Ev
__ZN17SipMessageDecoder6decodeERKNSt3__112basic_stringIcNS0_11char_traitsIcEENS0_9allocatorIcEEEEPP10SipMessagePb
__ZN20ImsResultDomainPosixD1Ev
__ZN20ImsResultDomainBambiD1Ev
__ZN9ImsResultC2ERKS_
__ZN9ImsResultD2Ev
__ZN9ImsResultD1Ev
__ZN9ImsResultD0Ev
__ZNK9ImsResult11descriptionEv
__ZN9ImsResult8setCauseERKS_
__ZN9ImsResultaSERKS_
__ZN9ImsResultaSEOS_
__ZNK9ImsResult3logER12ImsOutStream
__ZNK18ImsStringOutStream11loggableStrEv
__ZNK9ImsResult12loggableNameEv
__ZNK20ImsResultDomainPosix17textForResultCodeEi
__ZNSt3__119basic_ostringstreamIcNS_11char_traitsIcEENS_9allocatorIcEEEC1B6v15006Ev
__ZNSt3__119basic_ostringstreamIcNS_11char_traitsIcEENS_9allocatorIcEEED1Ev
__ZNK20ImsResultDomainBambi17textForResultCodeEi
__ZN3ims6result15resultWithCauseERK9ImsResultS3_
__ZN3ims6result3logERKNSt3__112basic_stringIcNS1_11char_traitsIcEENS1_9allocatorIcEEEER9ImsResult
__ZNSt3__14endlIcNS_11char_traitsIcEEEERNS_13basic_ostreamIT_T0_EES7_
__ZN3ims6result3logERKNSt3__112basic_stringIcNS1_11char_traitsIcEENS1_9allocatorIcEEEEO9ImsResult
__ZN20ImsResultDomainPosixD0Ev
__ZNK20ImsResultDomainPosix7isErrorEi
__ZN20ImsResultDomainBambiD0Ev
__ZNK20ImsResultDomainBambi7isErrorEi
__ZN15ImsResultDomainC2ERKNSt3__112basic_stringIcNS0_11char_traitsIcEENS0_9allocatorIcEEEE
__ZN15ImsResultDomainD1Ev
__ZN15ImsResultDomainD0Ev
__ZN14LoggableStringC2ERKNSt3__112basic_stringIcNS0_11char_traitsIcEENS0_9allocatorIcEEEE
___clang_call_terminate
__ZNSt3__112basic_stringIcNS_11char_traitsIcEENS_9allocatorIcEEEC2B6v15006IDnEEPKc
__ZNKSt3__112basic_stringIcNS_11char_traitsIcEENS_9allocatorIcEEE20__throw_length_errorB6v15006Ev
__ZNSt3__120__throw_length_errorB6v15006EPKc
__ZNSt12length_errorC1B6v15006EPKc
__ZNSt3__124__put_character_sequenceIcNS_11char_traitsIcEEEERNS_13basic_ostreamIT_T0_EES7_PKS4_m
__ZNSt3__116__pad_and_outputIcNS_11char_traitsIcEEEENS_19ostreambuf_iteratorIT_T0_EES6_PKS4_S8_S8_RNS_8ios_baseES4_
__GLOBAL__sub_I_ImsResult.cpp
__ZN17SDPMediaCandidateC2EtNSt3__112basic_stringIcNS0_11char_traitsIcEENS0_9allocatorIcEEEEt
__ZNK17SDPMediaCandidate5valueEv
__ZN17SDPMediaCandidateD1Ev
__ZN17SDPMediaCandidateD0Ev
__ZNK8SDPField5validEv
__ZN17SDPMediaCandidateD2Ev
__ZN21XcapBootstrappingInfoC2ERKNSt3__112basic_stringIcNS0_11char_traitsIcEENS0_9allocatorIcEEEE
__ZN21XcapBootstrappingInfo10parseChildERKNSt3__112basic_stringIcNS0_11char_traitsIcEENS0_9allocatorIcEEEERKN5bambi13XmlParserNodeE
__ZN21XcapBootstrappingInfoD1Ev
__ZN21XcapBootstrappingInfoD0Ev
__ZN5bambi13XmlParserItem7setNameERKNSt3__112basic_stringIcNS1_11char_traitsIcEENS1_9allocatorIcEEEE
__ZN5bambi13XmlParserItem7setTextERKNSt3__112basic_stringIcNS1_11char_traitsIcEENS1_9allocatorIcEEEES9_
__ZN5bambi13XmlParserItem12setAttributeERKNSt3__112basic_stringIcNS1_11char_traitsIcEENS1_9allocatorIcEEEES9_
__ZN5bambi13XmlParserItem12setNamespaceERKNSt3__16vectorINS_18XmlParserNamespaceENS1_9allocatorIS3_EEEE
__ZN5bambi13XmlParserItem11createChildERKNSt3__112basic_stringIcNS1_11char_traitsIcEENS1_9allocatorIcEEEE
__ZN5bambi13XmlParserItem14parseCompletedERKNSt3__112basic_stringIcNS1_11char_traitsIcEENS1_9allocatorIcEEEE
__ZNKSt3__112basic_stringIcNS_11char_traitsIcEENS_9allocatorIcEEE20__throw_out_of_rangeB6v15006Ev
__ZNSt3__120__throw_out_of_rangeB6v15006EPKc
__ZNSt12out_of_rangeC1B6v15006EPKc
__ZN15SipStringHeaderC2ERKNSt3__112basic_stringIcNS0_11char_traitsIcEENS0_9allocatorIcEEEES8_
__ZN9SipHeaderD2Ev
__ZN15SipStringHeaderC2ERKS_
__ZNK15SipStringHeader11encodeValueER12ImsOutStream
__ZN16ObfuscatedStringD1Ev
__ZNK15SipStringHeader13valueAsStringEPNSt3__112basic_stringIcNS0_11char_traitsIcEENS0_9allocatorIcEEEE
__ZN15SipStringHeader18setValueFromStringERKNSt3__112basic_stringIcNS0_11char_traitsIcEENS0_9allocatorIcEEEE
__ZN15SipStringHeaderD1Ev
__ZN15SipStringHeaderD0Ev
__ZNK9SipHeader12loggableNameEv
__ZNK15SipStringHeader5cloneEv
__ZNK9SipHeader16allowsDuplicatesEv
__ZNK9SipHeader13allowsMergingEv
__ZN9SipHeader11mergeHeaderERKS_
__ZNSt3__13setIP9ImsSocketNS_4lessIS2_EENS_9allocatorIS2_EEED1B6v15006Ev
__ZN9ImsSocket25_createSocketWithDispatchEiRKN3ims8DispatchEb
__ZN9ImsSocket20attachDispatchSourceEP16dispatch_queue_s
__ZN9ImsSocket16_setDscpOnSocketEi
__ZN9ImsSocketC2E9DscpClass
__ZN3ims7PhantomC2Ev
__ZN9ImsSocketD2Ev
__ZN9ImsSocket5closeEv
__ZN9ImsSocketD1Ev
__ZN9ImsSocketD0Ev
__ZNSt3__110shared_ptrI16SocketDescriptorE5resetB6v15006IS1_vEEvPT_
__ZN9ImsSocket14allowPortReuseEv
__ZN9ImsSocket27setReusePortOptionForSocketEi
__ZNK9ImsSocket16socketDescriptorEv
__ZN9ImsSocket27setNoSigpipeOptionForSocketEi
__ZN9ImsSocket21bindSocketToInterfaceEiN9IpAddress15AddressTypeMaskERKNSt3__112basic_stringIcNS2_11char_traitsIcEENS2_9allocatorIcEEEE
____ZN9ImsSocket20attachDispatchSourceEP16dispatch_queue_s_block_invoke
___copy_helper_block_e8_40c28_ZTSN3ims16PhantomReferenceE
___destroy_helper_block_e8_40c28_ZTSN3ims16PhantomReferenceE
____ZN9ImsSocket20attachDispatchSourceEP16dispatch_queue_s_block_invoke.18
___copy_helper_block_e8_32c44_ZTSNSt3__110shared_ptrI16SocketDescriptorEE
___destroy_helper_block_e8_32c44_ZTSNSt3__110shared_ptrI16SocketDescriptorEE
__ZN9ImsSocket12setDscpClassE9DscpClass
__ZN9ImsSocket10socketTypeEv
__ZNSt3__110shared_ptrIN3ims7Phantom13phantom_emptyEEaSB6v15006EOS4_
__ZNSt3__120__shared_ptr_emplaceIN3ims7Phantom13phantom_emptyENS_9allocatorIS3_EEED1Ev
__ZNSt3__120__shared_ptr_emplaceIN3ims7Phantom13phantom_emptyENS_9allocatorIS3_EEED0Ev
__ZNSt3__120__shared_ptr_emplaceIN3ims7Phantom13phantom_emptyENS_9allocatorIS3_EEE16__on_zero_sharedEv
__ZNSt3__120__shared_ptr_emplaceIN3ims7Phantom13phantom_emptyENS_9allocatorIS3_EEE21__on_zero_shared_weakEv
__ZNSt3__110shared_ptrIN3ims7Phantom13phantom_emptyEED2B6v15006Ev
__ZNSt3__16__treeIP9ImsSocketNS_4lessIS2_EENS_9allocatorIS2_EEE7destroyEPNS_11__tree_nodeIS2_PvEE
__ZNSt3__120__shared_ptr_emplaceI16SocketDescriptorNS_9allocatorIS1_EEED1Ev
__ZNSt3__120__shared_ptr_emplaceI16SocketDescriptorNS_9allocatorIS1_EEED0Ev
__ZNSt3__120__shared_ptr_emplaceI16SocketDescriptorNS_9allocatorIS1_EEE16__on_zero_sharedEv
__ZNSt3__120__shared_ptr_emplaceI16SocketDescriptorNS_9allocatorIS1_EEE21__on_zero_shared_weakEv
__ZNSt3__110shared_ptrI16SocketDescriptorED2B6v15006Ev
__ZNSt3__16__treeIP9ImsSocketNS_4lessIS2_EENS_9allocatorIS2_EEE25__emplace_unique_key_argsIS2_JS2_EEENS_4pairINS_15__tree_iteratorIS2_PNS_11__tree_nodeIS2_PvEElEEbEERKT_DpOT0_
__ZNSt3__16__treeIP9ImsSocketNS_4lessIS2_EENS_9allocatorIS2_EEE16__insert_node_atEPNS_15__tree_end_nodeIPNS_16__tree_node_baseIPvEEEERSC_SC_
__ZNSt3__127__tree_balance_after_insertIPNS_16__tree_node_baseIPvEEEEvT_S5_
__ZNSt3__16__treeIP9ImsSocketNS_4lessIS2_EENS_9allocatorIS2_EEE14__erase_uniqueIS2_EEmRKT_
__ZNSt3__16__treeIP9ImsSocketNS_4lessIS2_EENS_9allocatorIS2_EEE21__remove_node_pointerEPNS_11__tree_nodeIS2_PvEE
__ZNSt3__113__tree_removeIPNS_16__tree_node_baseIPvEEEEvT_S5_
__ZNSt3__110shared_ptrI16SocketDescriptorEC2IS1_vEEPT_
__ZNSt3__120__shared_ptr_pointerIP16SocketDescriptorNS_10shared_ptrIS1_E27__shared_ptr_default_deleteIS1_S1_EENS_9allocatorIS1_EEED1Ev
__ZNSt3__120__shared_ptr_pointerIP16SocketDescriptorNS_10shared_ptrIS1_E27__shared_ptr_default_deleteIS1_S1_EENS_9allocatorIS1_EEED0Ev
__ZNSt3__120__shared_ptr_pointerIP16SocketDescriptorNS_10shared_ptrIS1_E27__shared_ptr_default_deleteIS1_S1_EENS_9allocatorIS1_EEE16__on_zero_sharedEv
__ZNKSt3__120__shared_ptr_pointerIP16SocketDescriptorNS_10shared_ptrIS1_E27__shared_ptr_default_deleteIS1_S1_EENS_9allocatorIS1_EEE13__get_deleterERKSt9type_info
__ZNSt3__120__shared_ptr_pointerIP16SocketDescriptorNS_10shared_ptrIS1_E27__shared_ptr_default_deleteIS1_S1_EENS_9allocatorIS1_EEE21__on_zero_shared_weakEv
__GLOBAL__sub_I_ImsSocket.cpp
__ZN40SipServerNonInviteTryingTransactionState13handleRequestERK10SipRequest
__ZN40SipServerNonInviteTryingTransactionState22handleOutgoingResponseERK11SipResponseR9ImsResult
__ZN40SipServerNonInviteTryingTransactionState11handleTimerEP17SipTimerContainerRKNSt3__112basic_stringIcNS2_11char_traitsIcEENS2_9allocatorIcEEEE
__ZN40SipServerNonInviteTryingTransactionState10enterStateEj
__ZN44SipServerNonInviteProceedingTransactionState13handleRequestERK10SipRequest
__ZN44SipServerNonInviteProceedingTransactionState22handleOutgoingResponseERK11SipResponseR9ImsResult
__ZN43SipServerNonInviteCompletedTransactionState10enterStateEj
__ZN43SipServerNonInviteCompletedTransactionState11handleTimerEP17SipTimerContainerRKNSt3__112basic_stringIcNS2_11char_traitsIcEENS2_9allocatorIcEEEE
__ZN43SipServerNonInviteCompletedTransactionState13handleRequestERK10SipRequest
__ZN40SipServerNonInviteTryingTransactionStateD1Ev
__ZN40SipServerNonInviteTryingTransactionStateD0Ev
__ZNK40SipServerNonInviteTryingTransactionState2idEv
__ZN19SipTransactionState21handleConnectionErrorEv
__ZN19SipTransactionState14handleResponseERK11SipResponse
__ZN40SipServerNonInviteTryingTransactionState21allowOutgoingResponseEv
__ZThn8_N40SipServerNonInviteTryingTransactionStateD1Ev
__ZThn8_N40SipServerNonInviteTryingTransactionStateD0Ev
__ZNK11ImsLoggable3logER12ImsOutStream
__ZN44SipServerNonInviteProceedingTransactionStateD1Ev
__ZN44SipServerNonInviteProceedingTransactionStateD0Ev
__ZNK44SipServerNonInviteProceedingTransactionState2idEv
__ZN8SipState10enterStateEj
__ZN44SipServerNonInviteProceedingTransactionState21allowOutgoingResponseEv
__ZThn8_N44SipServerNonInviteProceedingTransactionStateD1Ev
__ZThn8_N44SipServerNonInviteProceedingTransactionStateD0Ev
__ZN43SipServerNonInviteCompletedTransactionStateD1Ev
__ZN43SipServerNonInviteCompletedTransactionStateD0Ev
__ZNK43SipServerNonInviteCompletedTransactionState2idEv
__ZN19SipTransactionState22handleOutgoingResponseERK11SipResponseR9ImsResult
__ZN19SipTransactionState21allowOutgoingResponseEv
__ZThn8_N43SipServerNonInviteCompletedTransactionStateD1Ev
__ZThn8_N43SipServerNonInviteCompletedTransactionStateD0Ev
__ZN8SipStateD2Ev
__ZNK12SDPAttribute8toStreamER12ImsOutStream
__ZNK12SDPAttribute3keyEv
__ZN12SDPAttributeD1Ev
__ZN12SDPAttributeD0Ev
__ZN16SipUnknownHeaderD1Ev
__ZN16SipUnknownHeaderD0Ev
__ZNK16SipUnknownHeader16allowsDuplicatesEv
__ZN22TTAKRegistrationPolicy21performActualWaitTimeERK9ImsResultj
__ZN22TTAKRegistrationPolicy11handleTimerEP17SipTimerContainerRKNSt3__112basic_stringIcNS2_11char_traitsIcEENS2_9allocatorIcEEEE
__ZN22TTAKRegistrationPolicy20startingRegistrationEv
__ZN22TTAKRegistrationPolicy12deinitializeEv
__ZN22TTAKRegistrationPolicy18onInterfaceChangedEv
__ZN25Rfc5626RegistrationPolicyD1Ev
__ZN25Rfc5626RegistrationPolicyD0Ev
__ZNK16SipTimerDelegate13timersEnabledEv
__ZNK25Rfc5626RegistrationPolicy25generalErrorRetryIntervalEv
__ZNK25Rfc5626RegistrationPolicy23fatalErrorRetryIntervalEv
__ZNK25Rfc5626RegistrationPolicy27forbiddenErrorRetryIntervalEv
__ZNK21SipRegistrationPolicy19maxAttemptsPerProxyEv
__ZN21SipRegistrationPolicy17handleProxyChangeEv
__ZN21SipRegistrationPolicy22subscriptionRetryTimerEv
__ZN21SipRegistrationPolicy32useNextProxyOnRegistrationChangeEv
__ZNK25Rfc5626RegistrationPolicy4nameEv
__ZNK21SipRegistrationPolicy25isTransactionRetryAllowedEv
__ZNK21SipRegistrationPolicy17isCSFBModeEnabledEv
__ZN21SipRegistrationPolicy23handleImsOutageResponseEv
__ZNK21SipRegistrationPolicy11isEmergencyEv
__ZNK21SipRegistrationPolicy20shouldNotifyDelegateEv
__ZNK21SipRegistrationPolicy33allowNotificationsInLimitedAccessEv
__ZThn88_N25Rfc5626RegistrationPolicyD1Ev
__ZThn88_N25Rfc5626RegistrationPolicyD0Ev
__ZN11SipLockable24terminationLocksReleasedEv
__ZN22TTAKRegistrationPolicyD1Ev
__ZN22TTAKRegistrationPolicyD0Ev
__ZN22TTAKRegistrationPolicy12useNextProxyEv
__ZNK22TTAKRegistrationPolicy4nameEv
__ZThn8_N22TTAKRegistrationPolicyD1Ev
__ZThn8_N22TTAKRegistrationPolicyD0Ev
__ZThn88_N22TTAKRegistrationPolicyD1Ev
__ZThn88_N22TTAKRegistrationPolicyD0Ev
__ZN11ImsLoggableD1Ev
__ZN11ImsLoggableD0Ev
__ZNK11ImsLoggable12loggableNameEv
__ZN14LoggableStringC2EPKc
__GLOBAL__sub_I_TTAKRegistrationPolicy.cpp
__ZN21SipRegistrationConfig19initializeFromPrefsERK8ImsPrefs
__ZN21SipRegistrationConfig31retryAfterStatusCodesFromStringERNSt3__13setIjNS0_4lessIjEENS0_9allocatorIjEEEERKNS0_12basic_stringIcNS0_11char_traitsIcEENS4_IcEEEE
__Z22deviceEventsFromStringRKNSt3__112basic_stringIcNS_11char_traitsIcEENS_9allocatorIcEEEE
__ZNK21SipRegistrationConfig28honorRetryAfterForStatusCodeEj
__ZNK21SipRegistrationConfig7isValidEv
__Z20deviceEventsToStringj
__ZSt28__throw_bad_array_new_lengthB6v15006v
__ZNSt3__16vectorINS_12basic_stringIcNS_11char_traitsIcEENS_9allocatorIcEEEENS4_IS6_EEED2B6v15006Ev
__ZNSt3__16vectorINS_12basic_stringIcNS_11char_traitsIcEENS_9allocatorIcEEEENS4_IS6_EEE22__base_destruct_at_endB6v15006EPS6_
__ZNSt3__16__treeIjNS_4lessIjEENS_9allocatorIjEEE7destroyEPNS_11__tree_nodeIjPvEE
__ZNSt3__16__treeIjNS_4lessIjEENS_9allocatorIjEEE25__emplace_unique_key_argsIjJRKjEEENS_4pairINS_15__tree_iteratorIjPNS_11__tree_nodeIjPvEElEEbEERKT_DpOT0_
__ZNSt3__16__treeIjNS_4lessIjEENS_9allocatorIjEEE16__insert_node_atEPNS_15__tree_end_nodeIPNS_16__tree_node_baseIPvEEEERSA_SA_
__ZNKSt3__16vectorI12SipRetryInfoNS_9allocatorIS1_EEE20__throw_length_errorB6v15006Ev
__ZNSt3__119__allocate_at_leastB6v15006INS_9allocatorI12SipRetryInfoEEEENS_19__allocation_resultINS_16allocator_traitsIT_E7pointerEEERS6_m
__ZNKSt3__16vectorINS_12basic_stringIcNS_11char_traitsIcEENS_9allocatorIcEEEENS4_IS6_EEE20__throw_length_errorB6v15006Ev
__ZNSt3__119__allocate_at_leastB6v15006INS_9allocatorINS_12basic_stringIcNS_11char_traitsIcEENS1_IcEEEEEEEENS_19__allocation_resultINS_16allocator_traitsIT_E7pointerEEERSA_m
__ZNSt3__114__split_bufferINS_12basic_stringIcNS_11char_traitsIcEENS_9allocatorIcEEEERNS4_IS6_EEED2Ev
__ZNSt3__114__split_bufferINS_12basic_stringIcNS_11char_traitsIcEENS_9allocatorIcEEEERNS4_IS6_EEE17__destruct_at_endB6v15006EPS6_
__ZN3ims4joinINSt3__111__wrap_iterIPKNS1_12basic_stringIcNS1_11char_traitsIcEENS1_9allocatorIcEEEEEEEES8_T_SC_RS9_
__ZN18SipResponseCodeMap10fromStringERKNSt3__112basic_stringIcNS0_11char_traitsIcEENS0_9allocatorIcEEEE
__ZN18SipResponseCodeMap35addResponseCodesForMethodFromStringERKNSt3__112basic_stringIcNS0_11char_traitsIcEENS0_9allocatorIcEEEES8_
__ZNK18SipResponseCodeMap29containsResponseCodeForMethodERKNSt3__112basic_stringIcNS0_11char_traitsIcEENS0_9allocatorIcEEEEjPb
__ZL33setContainsResponseCodeOrWildcardRKNSt3__13setIjNS_4lessIjEENS_9allocatorIjEEEEj
__ZNK18SipResponseCodeMapeqERKS_
__ZNK18SipResponseCodeMap3logER12ImsOutStream
__ZNK18SipResponseCodeMap5emptyEv
__ZN18SipResponseCodeMapD1Ev
__ZN18SipResponseCodeMapD0Ev
__ZNK18SipResponseCodeMap12loggableNameEv
