	.section	__TEXT,__text,regular,pure_instructions
	.build_version macos, 13, 0	sdk_version 13, 3
	.file	1 "/Applications/Xcode.app/Contents/Developer/Platforms/MacOSX.platform/Developer/SDKs/MacOSX.sdk/usr/include/_types" "_uint64_t.h"
	.file	2 "/Applications/Xcode.app/Contents/Developer/Platforms/MacOSX.platform/Developer/SDKs/MacOSX.sdk/usr/include/c++/v1/__string" "char_traits.h"
	.file	3 "/Applications/Xcode.app/Contents/Developer/Toolchains/XcodeDefault.xctoolchain/usr/lib/clang/14.0.3/include" "stddef.h"
	.file	4 "/Applications/Xcode.app/Contents/Developer/Platforms/MacOSX.platform/Developer/SDKs/MacOSX.sdk/usr/include/c++/v1/__memory" "allocator.h"
	.file	5 "/Applications/Xcode.app/Contents/Developer/Platforms/MacOSX.platform/Developer/SDKs/MacOSX.sdk/usr/include/c++/v1/__memory" "allocator_traits.h"
	.file	6 "/Applications/Xcode.app/Contents/Developer/Platforms/MacOSX.platform/Developer/SDKs/MacOSX.sdk/usr/include/c++/v1" "string"
	.file	7 "/Applications/Xcode.app/Contents/Developer/Platforms/MacOSX.platform/Developer/SDKs/MacOSX.sdk/usr/include/c++/v1/__memory" "compressed_pair.h"
	.file	8 "/Applications/Xcode.app/Contents/Developer/Platforms/MacOSX.platform/Developer/SDKs/MacOSX.sdk/usr/include/c++/v1" "string_view"
	.file	9 "/Applications/Xcode.app/Contents/Developer/Platforms/MacOSX.platform/Developer/SDKs/MacOSX.sdk/usr/include/c++/v1/__type_traits" "integral_constant.h"
	.file	10 "/Applications/Xcode.app/Contents/Developer/Platforms/MacOSX.platform/Developer/SDKs/MacOSX.sdk/usr/include/c++/v1" "iosfwd"
	.file	11 "/Users/xss/Documents/code/sipparser" "ZN20SipMultiStringHeaderD1Ev.cpp"
	.file	12 "/Applications/Xcode.app/Contents/Developer/Platforms/MacOSX.platform/Developer/SDKs/MacOSX.sdk/usr/include/mach-o" "dyld_images.h"
	.file	13 "/Applications/Xcode.app/Contents/Developer/Platforms/MacOSX.platform/Developer/SDKs/MacOSX.sdk/usr/include/mach/arm" "vm_types.h"
	.file	14 "/Applications/Xcode.app/Contents/Developer/Platforms/MacOSX.platform/Developer/SDKs/MacOSX.sdk/usr/include/mach" "task_info.h"
	.file	15 "/Applications/Xcode.app/Contents/Developer/Platforms/MacOSX.platform/Developer/SDKs/MacOSX.sdk/usr/include/_types" "_uint32_t.h"
	.file	16 "/Applications/Xcode.app/Contents/Developer/Platforms/MacOSX.platform/Developer/SDKs/MacOSX.sdk/usr/include/mach-o" "loader.h"
	.file	17 "/Applications/Xcode.app/Contents/Developer/Platforms/MacOSX.platform/Developer/SDKs/MacOSX.sdk/usr/include/sys/_types" "_int32_t.h"
	.file	18 "/Applications/Xcode.app/Contents/Developer/Platforms/MacOSX.platform/Developer/SDKs/MacOSX.sdk/usr/include/sys/_types" "_uintptr_t.h"
	.file	19 "/Applications/Xcode.app/Contents/Developer/Platforms/MacOSX.platform/Developer/SDKs/MacOSX.sdk/usr/include/sys" "_types.h"
	.file	20 "/Applications/Xcode.app/Contents/Developer/Platforms/MacOSX.platform/Developer/SDKs/MacOSX.sdk/usr/include/sys/_types" "_uuid_t.h"
	.file	21 "/Applications/Xcode.app/Contents/Developer/Platforms/MacOSX.platform/Developer/SDKs/MacOSX.sdk/usr/include/_types" "_uint8_t.h"
	.file	22 "/Applications/Xcode.app/Contents/Developer/Platforms/MacOSX.platform/Developer/SDKs/MacOSX.sdk/usr/include/arm" "_types.h"
	.file	23 "/Applications/Xcode.app/Contents/Developer/Platforms/MacOSX.platform/Developer/SDKs/MacOSX.sdk/usr/include/sys/_types" "_mach_port_t.h"
	.file	24 "/Applications/Xcode.app/Contents/Developer/Platforms/MacOSX.platform/Developer/SDKs/MacOSX.sdk/usr/include/mach-o" "nlist.h"
	.file	25 "/Applications/Xcode.app/Contents/Developer/Platforms/MacOSX.platform/Developer/SDKs/MacOSX.sdk/usr/include/_types" "_uint16_t.h"
	.file	26 "/Applications/Xcode.app/Contents/Developer/Platforms/MacOSX.platform/Developer/SDKs/MacOSX.sdk/usr/include/sys/_types" "_mbstate_t.h"
	.file	27 "/Applications/Xcode.app/Contents/Developer/Platforms/MacOSX.platform/Developer/SDKs/MacOSX.sdk/usr/include/c++/v1" "__mbstate_t.h"
	.file	28 "/Applications/Xcode.app/Contents/Developer/Platforms/MacOSX.platform/Developer/SDKs/MacOSX.sdk/usr/include" "_ctype.h"
	.file	29 "/Applications/Xcode.app/Contents/Developer/Platforms/MacOSX.platform/Developer/SDKs/MacOSX.sdk/usr/include/c++/v1" "cctype"
	.file	30 "/Applications/Xcode.app/Contents/Developer/Platforms/MacOSX.platform/Developer/SDKs/MacOSX.sdk/usr/include/sys/_types" "_int8_t.h"
	.file	31 "/Applications/Xcode.app/Contents/Developer/Platforms/MacOSX.platform/Developer/SDKs/MacOSX.sdk/usr/include/c++/v1" "cstdint"
	.file	32 "/Applications/Xcode.app/Contents/Developer/Platforms/MacOSX.platform/Developer/SDKs/MacOSX.sdk/usr/include/sys/_types" "_int16_t.h"
	.file	33 "/Applications/Xcode.app/Contents/Developer/Platforms/MacOSX.platform/Developer/SDKs/MacOSX.sdk/usr/include/sys/_types" "_int64_t.h"
	.file	34 "/Applications/Xcode.app/Contents/Developer/Platforms/MacOSX.platform/Developer/SDKs/MacOSX.sdk/usr/include" "stdint.h"
	.file	35 "/Applications/Xcode.app/Contents/Developer/Platforms/MacOSX.platform/Developer/SDKs/MacOSX.sdk/usr/include/sys/_types" "_intptr_t.h"
	.file	36 "/Applications/Xcode.app/Contents/Developer/Platforms/MacOSX.platform/Developer/SDKs/MacOSX.sdk/usr/include/_types" "_intmax_t.h"
	.file	37 "/Applications/Xcode.app/Contents/Developer/Platforms/MacOSX.platform/Developer/SDKs/MacOSX.sdk/usr/include/_types" "_uintmax_t.h"
	.file	38 "/Applications/Xcode.app/Contents/Developer/Platforms/MacOSX.platform/Developer/SDKs/MacOSX.sdk/usr/include/c++/v1" "stddef.h"
	.file	39 "/Applications/Xcode.app/Contents/Developer/Platforms/MacOSX.platform/Developer/SDKs/MacOSX.sdk/usr/include/c++/v1" "cstddef"
	.file	40 "/Applications/Xcode.app/Contents/Developer/Platforms/MacOSX.platform/Developer/SDKs/MacOSX.sdk/usr/include/c++/v1" "cstdlib"
	.file	41 "/Applications/Xcode.app/Contents/Developer/Platforms/MacOSX.platform/Developer/SDKs/MacOSX.sdk/usr/include" "stdlib.h"
	.file	42 "/Applications/Xcode.app/Contents/Developer/Platforms/MacOSX.platform/Developer/SDKs/MacOSX.sdk/usr/include/malloc" "_malloc.h"
	.file	43 "/Applications/Xcode.app/Contents/Developer/Platforms/MacOSX.platform/Developer/SDKs/MacOSX.sdk/usr/include/c++/v1" "stdlib.h"
	.file	44 "/Applications/Xcode.app/Contents/Developer/Platforms/MacOSX.platform/Developer/SDKs/MacOSX.sdk/usr/include/c++/v1" "cstring"
	.file	45 "/Applications/Xcode.app/Contents/Developer/Platforms/MacOSX.platform/Developer/SDKs/MacOSX.sdk/usr/include" "string.h"
	.file	46 "/Applications/Xcode.app/Contents/Developer/Platforms/MacOSX.platform/Developer/SDKs/MacOSX.sdk/usr/include/c++/v1" "string.h"
	.file	47 "/Applications/Xcode.app/Contents/Developer/Platforms/MacOSX.platform/Developer/SDKs/MacOSX.sdk/usr/include/c++/v1" "math.h"
	.file	48 "/Applications/Xcode.app/Contents/Developer/Platforms/MacOSX.platform/Developer/SDKs/MacOSX.sdk/usr/include/c++/v1" "cmath"
	.file	49 "/Applications/Xcode.app/Contents/Developer/Platforms/MacOSX.platform/Developer/SDKs/MacOSX.sdk/usr/include" "math.h"
	.file	50 "/Applications/Xcode.app/Contents/Developer/Platforms/MacOSX.platform/Developer/SDKs/MacOSX.sdk/usr/include/sys/_types" "_clock_t.h"
	.file	51 "/Applications/Xcode.app/Contents/Developer/Platforms/MacOSX.platform/Developer/SDKs/MacOSX.sdk/usr/include/c++/v1" "ctime"
	.file	52 "/Applications/Xcode.app/Contents/Developer/Platforms/MacOSX.platform/Developer/SDKs/MacOSX.sdk/usr/include/sys/_types" "_time_t.h"
	.file	53 "/Applications/Xcode.app/Contents/Developer/Platforms/MacOSX.platform/Developer/SDKs/MacOSX.sdk/usr/include" "time.h"
	.file	54 "/Applications/Xcode.app/Contents/Developer/Platforms/MacOSX.platform/Developer/SDKs/MacOSX.sdk/usr/include" "_stdio.h"
	.file	55 "/Applications/Xcode.app/Contents/Developer/Platforms/MacOSX.platform/Developer/SDKs/MacOSX.sdk/usr/include/c++/v1" "cstdio"
	.file	56 "/Applications/Xcode.app/Contents/Developer/Platforms/MacOSX.platform/Developer/SDKs/MacOSX.sdk/usr/include" "stdio.h"
	.file	57 "/Applications/Xcode.app/Contents/Developer/Platforms/MacOSX.platform/Developer/SDKs/MacOSX.sdk/usr/include/sys/_types" "_va_list.h"
	.file	58 "/Applications/Xcode.app/Contents/Developer/Platforms/MacOSX.platform/Developer/SDKs/MacOSX.sdk/usr/include/sys/_types" "_wint_t.h"
	.file	59 "/Applications/Xcode.app/Contents/Developer/Platforms/MacOSX.platform/Developer/SDKs/MacOSX.sdk/usr/include/c++/v1" "cwctype"
	.file	60 "/Applications/Xcode.app/Contents/Developer/Platforms/MacOSX.platform/Developer/SDKs/MacOSX.sdk/usr/include" "_types.h"
	.file	61 "/Applications/Xcode.app/Contents/Developer/Platforms/MacOSX.platform/Developer/SDKs/MacOSX.sdk/usr/include/_types" "_wctrans_t.h"
	.file	62 "/Applications/Xcode.app/Contents/Developer/Platforms/MacOSX.platform/Developer/SDKs/MacOSX.sdk/usr/include/_types" "_wctype_t.h"
	.file	63 "/Applications/Xcode.app/Contents/Developer/Platforms/MacOSX.platform/Developer/SDKs/MacOSX.sdk/usr/include" "_wctype.h"
	.file	64 "/Applications/Xcode.app/Contents/Developer/Platforms/MacOSX.platform/Developer/SDKs/MacOSX.sdk/usr/include" "wctype.h"
	.file	65 "/Applications/Xcode.app/Contents/Developer/Platforms/MacOSX.platform/Developer/SDKs/MacOSX.sdk/usr/include/c++/v1" "cwchar"
	.file	66 "/Applications/Xcode.app/Contents/Developer/Platforms/MacOSX.platform/Developer/SDKs/MacOSX.sdk/usr/include" "wchar.h"
	.file	67 "/Applications/Xcode.app/Contents/Developer/Platforms/MacOSX.platform/Developer/SDKs/MacOSX.sdk/usr/include/c++/v1" "wchar.h"
	.file	68 "/Applications/Xcode.app/Contents/Developer/Platforms/MacOSX.platform/Developer/SDKs/MacOSX.sdk/usr/include/c++/v1" "cstdarg"
	.globl	__Z11LoadLibraryPKc             ; -- Begin function _Z11LoadLibraryPKc
	.p2align	2
__Z11LoadLibraryPKc:                    ; @_Z11LoadLibraryPKc
Lfunc_begin0:
	.loc	11 24 0                         ; ZN20SipMultiStringHeaderD1Ev.cpp:24:0
	.cfi_startproc
; %bb.0:                                ; %entry
	stp	x20, x19, [sp, #-32]!           ; 16-byte Folded Spill
	.cfi_def_cfa_offset 32
	stp	x29, x30, [sp, #16]             ; 16-byte Folded Spill
	add	x29, sp, #16
	.cfi_def_cfa w29, 16
	.cfi_offset w30, -8
	.cfi_offset w29, -16
	.cfi_offset w19, -24
	.cfi_offset w20, -32
	sub	x9, sp, #480
	and	sp, x9, #0xffffffffffffffe0
	mov	x19, sp
	mov	x9, #0
	adrp	x8, l____asan_gen_@PAGE
	add	x8, x8, l____asan_gen_@PAGEOFF
	str	x8, [x19, #336]                 ; 8-byte Folded Spill
	adrp	x8, __Z11LoadLibraryPKc@PAGE
	add	x8, x8, __Z11LoadLibraryPKc@PAGEOFF
	str	x8, [x19, #344]                 ; 8-byte Folded Spill
Ltmp0:
	.loc	11 0 0 is_stmt 0                ; ZN20SipMultiStringHeaderD1Ev.cpp:0:0
	adrp	x8, _mach_task_self_@GOTPAGE
	ldr	x8, [x8, _mach_task_self_@GOTPAGEOFF]
	str	x8, [x19, #352]                 ; 8-byte Folded Spill
	and	x8, x8, #0x7
	add	x8, x8, #3
	str	x8, [x19, #360]                 ; 8-byte Folded Spill
	mov	x8, #62965
	movk	x8, #62965, lsl #16
	movk	x8, #62965, lsl #32
	movk	x8, #62965, lsl #48
	str	x8, [x19, #368]                 ; 8-byte Folded Spill
	adrp	x8, ___stack_chk_guard@GOTPAGE
	ldr	x8, [x8, ___stack_chk_guard@GOTPAGEOFF]
	ldr	x8, [x8]
	str	x8, [x19, #472]
	adrp	x8, ___asan_shadow_memory_dynamic_address@GOTPAGE
	ldr	x8, [x8, ___asan_shadow_memory_dynamic_address@GOTPAGEOFF]
	ldr	x8, [x8]
	str	x8, [x19, #376]                 ; 8-byte Folded Spill
	str	x0, [x19, #432]
	adrp	x8, ___asan_option_detect_stack_use_after_return@GOTPAGE
	ldr	x8, [x8, ___asan_option_detect_stack_use_after_return@GOTPAGEOFF]
	ldr	w8, [x8]
	subs	w8, w8, #0
	cset	w8, eq
	str	x9, [x19, #384]                 ; 8-byte Folded Spill
	tbnz	w8, #0, LBB0_2
	b	LBB0_1
LBB0_1:
	mov	x0, #128
	bl	___asan_stack_malloc_1
	str	x0, [x19, #384]                 ; 8-byte Folded Spill
	b	LBB0_2
LBB0_2:
	ldr	x9, [x19, #384]                 ; 8-byte Folded Reload
	str	x9, [x19, #320]                 ; 8-byte Folded Spill
	subs	x8, x9, #0
	cset	w8, ne
	str	x9, [x19, #328]                 ; 8-byte Folded Spill
	tbnz	w8, #0, LBB0_4
	b	LBB0_3
LBB0_3:
	mov	x8, sp
	subs	x8, x8, #128
	and	x8, x8, #0xffffffffffffffe0
	mov	sp, x8
	str	x8, [x19, #328]                 ; 8-byte Folded Spill
	b	LBB0_4
LBB0_4:
	ldr	x8, [x19, #376]                 ; 8-byte Folded Reload
	ldr	x10, [x19, #344]                ; 8-byte Folded Reload
	ldr	x11, [x19, #336]                ; 8-byte Folded Reload
	ldr	x9, [x19, #328]                 ; 8-byte Folded Reload
	str	x9, [x19, #392]
	add	x12, x9, #32
	str	x12, [x19, #272]                ; 8-byte Folded Spill
	add	x12, x9, #96
	str	x12, [x19, #296]                ; 8-byte Folded Spill
	mov	x13, x9
	str	x13, [x19, #280]                ; 8-byte Folded Spill
	mov	x12, #35507
	movk	x12, #16821, lsl #16
	str	x12, [x13]
	add	x12, x9, #8
	str	x11, [x12]
	add	x11, x9, #16
	str	x10, [x11]
	add	x8, x8, x9, lsr #3
	str	x8, [x19, #288]                 ; 8-byte Folded Spill
	add	x10, x8, #0
	mov	x9, #-1012762419733073423
	movk	x9, #63736, lsl #32
	movk	x9, #62200, lsl #48
	str	x9, [x10]
	add	x9, x8, #8
	mov	x8, #62194
	movk	x8, #62194, lsl #16
	movk	x8, #62456, lsl #32
	movk	x8, #62451, lsl #48
	str	x8, [x9]
	.loc	11 25 10 prologue_end is_stmt 1 ; ZN20SipMultiStringHeaderD1Ev.cpp:25:10
	ldr	x0, [x19, #432]
	mov	w1, #1
	.loc	11 25 3 is_stmt 0               ; ZN20SipMultiStringHeaderD1Ev.cpp:25:3
	bl	_dlopen
	ldr	x11, [x19, #288]                ; 8-byte Folded Reload
	ldr	x9, [x19, #296]                 ; 8-byte Folded Reload
	ldr	x8, [x19, #376]                 ; 8-byte Folded Reload
	.loc	11 27 3 is_stmt 1               ; ZN20SipMultiStringHeaderD1Ev.cpp:27:3
	add	x10, x11, #4
	strh	wzr, [x10]
	add	x12, x11, #6
	mov	w10, #4
	strb	w10, [x12]
	.loc	11 28 3                         ; ZN20SipMultiStringHeaderD1Ev.cpp:28:3
	add	x11, x11, #12
	strb	w10, [x11]
	str	x9, [x19, #304]                 ; 8-byte Folded Spill
	.loc	11 28 26 is_stmt 0              ; ZN20SipMultiStringHeaderD1Ev.cpp:28:26
	add	x8, x8, x9, lsr #3
	ldrb	w8, [x8]
	str	w8, [x19, #316]                 ; 4-byte Folded Spill
	subs	w8, w8, #0
	cset	w8, eq
	tbnz	w8, #0, LBB0_7
	b	LBB0_5
LBB0_5:
	.loc	11 0 26                         ; ZN20SipMultiStringHeaderD1Ev.cpp:0:26
	ldr	w8, [x19, #316]                 ; 4-byte Folded Reload
	ldr	x9, [x19, #304]                 ; 8-byte Folded Reload
	.loc	11 28 26                        ; ZN20SipMultiStringHeaderD1Ev.cpp:28:26
	and	x9, x9, #0x7
	add	x9, x9, #3
                                        ; kill: def $w9 killed $w9 killed $x9
	sxtb	w8, w8
	subs	w8, w8, w9, sxtb
	cset	w8, gt
	tbnz	w8, #0, LBB0_7
	b	LBB0_6
LBB0_6:
	.loc	11 0 26                         ; ZN20SipMultiStringHeaderD1Ev.cpp:0:26
	ldr	x0, [x19, #304]                 ; 8-byte Folded Reload
	.loc	11 28 26                        ; ZN20SipMultiStringHeaderD1Ev.cpp:28:26
	bl	___asan_report_store4
	brk	#0x1
LBB0_7:
	.loc	11 0 26                         ; ZN20SipMultiStringHeaderD1Ev.cpp:0:26
	ldr	x8, [x19, #376]                 ; 8-byte Folded Reload
	ldr	x9, [x19, #352]                 ; 8-byte Folded Reload
	ldr	x11, [x19, #296]                ; 8-byte Folded Reload
	mov	w10, #5
	.loc	11 28 26                        ; ZN20SipMultiStringHeaderD1Ev.cpp:28:26
	str	w10, [x11]
	.loc	11 31 19 is_stmt 1              ; ZN20SipMultiStringHeaderD1Ev.cpp:31:19
	add	x8, x8, x9, lsr #3
	ldrb	w8, [x8]
	str	w8, [x19, #268]                 ; 4-byte Folded Spill
	subs	w8, w8, #0
	cset	w8, eq
	tbnz	w8, #0, LBB0_10
	b	LBB0_8
LBB0_8:
	.loc	11 0 19 is_stmt 0               ; ZN20SipMultiStringHeaderD1Ev.cpp:0:19
	ldr	w8, [x19, #268]                 ; 4-byte Folded Reload
	ldr	x9, [x19, #360]                 ; 8-byte Folded Reload
	.loc	11 31 19                        ; ZN20SipMultiStringHeaderD1Ev.cpp:31:19
	sxtb	w8, w8
	subs	w8, w8, w9, sxtb
	cset	w8, gt
	tbnz	w8, #0, LBB0_10
	b	LBB0_9
LBB0_9:
	.loc	11 0 19                         ; ZN20SipMultiStringHeaderD1Ev.cpp:0:19
	ldr	x0, [x19, #352]                 ; 8-byte Folded Reload
	.loc	11 31 19                        ; ZN20SipMultiStringHeaderD1Ev.cpp:31:19
	bl	___asan_report_load4
	brk	#0x1
LBB0_10:
	.loc	11 0 19                         ; ZN20SipMultiStringHeaderD1Ev.cpp:0:19
	ldr	x3, [x19, #296]                 ; 8-byte Folded Reload
	ldr	x2, [x19, #272]                 ; 8-byte Folded Reload
	adrp	x8, _mach_task_self_@GOTPAGE
	ldr	x8, [x8, _mach_task_self_@GOTPAGEOFF]
	.loc	11 31 19                        ; ZN20SipMultiStringHeaderD1Ev.cpp:31:19
	ldr	w0, [x8]
	mov	w1, #17
	.loc	11 31 9                         ; ZN20SipMultiStringHeaderD1Ev.cpp:31:9
	bl	_task_info
	.loc	11 31 7                         ; ZN20SipMultiStringHeaderD1Ev.cpp:31:7
	str	w0, [x19, #428]
Ltmp1:
	.loc	11 32 7 is_stmt 1               ; ZN20SipMultiStringHeaderD1Ev.cpp:32:7
	ldr	w8, [x19, #428]
	.loc	11 32 11 is_stmt 0              ; ZN20SipMultiStringHeaderD1Ev.cpp:32:11
	subs	w8, w8, #0
	cset	w8, eq
Ltmp2:
	.loc	11 32 7                         ; ZN20SipMultiStringHeaderD1Ev.cpp:32:7
	tbnz	w8, #0, LBB0_12
	b	LBB0_11
LBB0_11:                                ; %if.then
Ltmp3:
	.loc	11 33 50 is_stmt 1              ; ZN20SipMultiStringHeaderD1Ev.cpp:33:50
	ldr	w9, [x19, #428]
                                        ; implicit-def: $x8
	mov	x8, x9
	.loc	11 33 5 is_stmt 0               ; ZN20SipMultiStringHeaderD1Ev.cpp:33:5
	sub	sp, sp, #16
	mov	x9, sp
	str	x8, [x9]
	.loc	11 0 0                          ; ZN20SipMultiStringHeaderD1Ev.cpp:0:0
	adrp	x0, _.str@PAGE
	add	x0, x0, _.str@PAGEOFF
	.loc	11 33 5                         ; ZN20SipMultiStringHeaderD1Ev.cpp:33:5
	bl	_printf
	add	sp, sp, #16
                                        ; kill: def $x8 killed $xzr
	.loc	11 34 5 is_stmt 1               ; ZN20SipMultiStringHeaderD1Ev.cpp:34:5
	str	xzr, [x19, #440]
	mov	w8, #1
	str	w8, [x19, #424]
	b	LBB0_71
Ltmp4:
LBB0_12:                                ; %if.end
	.loc	11 0 5 is_stmt 0                ; ZN20SipMultiStringHeaderD1Ev.cpp:0:5
	ldr	x8, [x19, #376]                 ; 8-byte Folded Reload
	ldr	x9, [x19, #272]                 ; 8-byte Folded Reload
	.loc	11 37 82 is_stmt 1              ; ZN20SipMultiStringHeaderD1Ev.cpp:37:82
	add	x10, x9, #7
	str	x10, [x19, #248]                ; 8-byte Folded Spill
	str	x9, [x19, #256]                 ; 8-byte Folded Spill
	add	x8, x8, x9, lsr #3
	ldrb	w8, [x8]
	str	w8, [x19, #264]                 ; 4-byte Folded Spill
	subs	w8, w8, #0
	cset	w8, eq
	tbnz	w8, #0, LBB0_15
	b	LBB0_13
LBB0_13:
	.loc	11 0 82 is_stmt 0               ; ZN20SipMultiStringHeaderD1Ev.cpp:0:82
	ldr	w8, [x19, #264]                 ; 4-byte Folded Reload
	ldr	x9, [x19, #256]                 ; 8-byte Folded Reload
	.loc	11 37 82                        ; ZN20SipMultiStringHeaderD1Ev.cpp:37:82
	and	x9, x9, #0x7
                                        ; kill: def $w9 killed $w9 killed $x9
	sxtb	w8, w8
	subs	w8, w8, w9, sxtb
	cset	w8, gt
	tbnz	w8, #0, LBB0_15
	b	LBB0_14
LBB0_14:
	.loc	11 0 82                         ; ZN20SipMultiStringHeaderD1Ev.cpp:0:82
	ldr	x0, [x19, #256]                 ; 8-byte Folded Reload
	mov	x1, #8
	.loc	11 37 82                        ; ZN20SipMultiStringHeaderD1Ev.cpp:37:82
	bl	___asan_report_load_n
	brk	#0x1
LBB0_15:
	.loc	11 0 82                         ; ZN20SipMultiStringHeaderD1Ev.cpp:0:82
	ldr	x8, [x19, #376]                 ; 8-byte Folded Reload
	ldr	x9, [x19, #248]                 ; 8-byte Folded Reload
	.loc	11 37 82                        ; ZN20SipMultiStringHeaderD1Ev.cpp:37:82
	add	x8, x8, x9, lsr #3
	ldrb	w8, [x8]
	str	w8, [x19, #244]                 ; 4-byte Folded Spill
	subs	w8, w8, #0
	cset	w8, eq
	tbnz	w8, #0, LBB0_18
	b	LBB0_16
LBB0_16:
	.loc	11 0 82                         ; ZN20SipMultiStringHeaderD1Ev.cpp:0:82
	ldr	w8, [x19, #244]                 ; 4-byte Folded Reload
	ldr	x9, [x19, #248]                 ; 8-byte Folded Reload
	.loc	11 37 82                        ; ZN20SipMultiStringHeaderD1Ev.cpp:37:82
	and	x9, x9, #0x7
                                        ; kill: def $w9 killed $w9 killed $x9
	sxtb	w8, w8
	subs	w8, w8, w9, sxtb
	cset	w8, gt
	tbnz	w8, #0, LBB0_18
	b	LBB0_17
LBB0_17:
	.loc	11 0 82                         ; ZN20SipMultiStringHeaderD1Ev.cpp:0:82
	ldr	x0, [x19, #248]                 ; 8-byte Folded Reload
	mov	x1, #8
	.loc	11 37 82                        ; ZN20SipMultiStringHeaderD1Ev.cpp:37:82
	bl	___asan_report_load_n
	brk	#0x1
LBB0_18:
	.loc	11 0 82                         ; ZN20SipMultiStringHeaderD1Ev.cpp:0:82
	ldr	x8, [x19, #272]                 ; 8-byte Folded Reload
	.loc	11 37 82                        ; ZN20SipMultiStringHeaderD1Ev.cpp:37:82
	ldr	x8, [x8]
	.loc	11 37 25                        ; ZN20SipMultiStringHeaderD1Ev.cpp:37:25
	str	x8, [x19, #416]
	.loc	11 38 49 is_stmt 1              ; ZN20SipMultiStringHeaderD1Ev.cpp:38:49
	ldr	x8, [x19, #416]
	str	x8, [x19, #224]                 ; 8-byte Folded Spill
	.loc	11 38 66 is_stmt 0              ; ZN20SipMultiStringHeaderD1Ev.cpp:38:66
	mov	x9, x8
	str	x9, [x19, #232]                 ; 8-byte Folded Spill
	subs	x8, x8, #0
	cset	w8, eq
	tbnz	w8, #0, LBB0_20
	b	LBB0_19
LBB0_19:
	.loc	11 0 66                         ; ZN20SipMultiStringHeaderD1Ev.cpp:0:66
	ldr	x8, [x19, #232]                 ; 8-byte Folded Reload
	.loc	11 38 66                        ; ZN20SipMultiStringHeaderD1Ev.cpp:38:66
	ands	x8, x8, #0xf
	cset	w8, eq
	tbnz	w8, #0, LBB0_21
	b	LBB0_20
LBB0_20:                                ; %handler.type_mismatch
	.loc	11 0 66                         ; ZN20SipMultiStringHeaderD1Ev.cpp:0:66
	ldr	x1, [x19, #232]                 ; 8-byte Folded Reload
	adrp	x0, l___unnamed_1@PAGE
	add	x0, x0, l___unnamed_1@PAGEOFF
	.loc	11 38 66                        ; ZN20SipMultiStringHeaderD1Ev.cpp:38:66
	bl	___ubsan_handle_type_mismatch_v1
	b	LBB0_21
LBB0_21:                                ; %cont
	.loc	11 0 66                         ; ZN20SipMultiStringHeaderD1Ev.cpp:0:66
	ldr	x8, [x19, #224]                 ; 8-byte Folded Reload
	.loc	11 38 66                        ; ZN20SipMultiStringHeaderD1Ev.cpp:38:66
	add	x8, x8, #8
	str	x8, [x19, #208]                 ; 8-byte Folded Spill
	mov	x9, x8
	str	x9, [x19, #216]                 ; 8-byte Folded Spill
	subs	x8, x8, #0
	cset	w8, eq
	tbnz	w8, #0, LBB0_23
	b	LBB0_22
LBB0_22:                                ; %cont
	.loc	11 0 66                         ; ZN20SipMultiStringHeaderD1Ev.cpp:0:66
	ldr	x8, [x19, #216]                 ; 8-byte Folded Reload
	.loc	11 38 66                        ; ZN20SipMultiStringHeaderD1Ev.cpp:38:66
	ands	x8, x8, #0x7
	cset	w8, eq
	tbnz	w8, #0, LBB0_24
	b	LBB0_23
LBB0_23:                                ; %handler.type_mismatch3
	.loc	11 0 66                         ; ZN20SipMultiStringHeaderD1Ev.cpp:0:66
	ldr	x1, [x19, #216]                 ; 8-byte Folded Reload
	adrp	x0, l___unnamed_2@PAGE
	add	x0, x0, l___unnamed_2@PAGEOFF
	.loc	11 38 66                        ; ZN20SipMultiStringHeaderD1Ev.cpp:38:66
	bl	___ubsan_handle_type_mismatch_v1
	b	LBB0_24
LBB0_24:                                ; %cont4
	.loc	11 0 66                         ; ZN20SipMultiStringHeaderD1Ev.cpp:0:66
	ldr	x8, [x19, #376]                 ; 8-byte Folded Reload
	ldr	x9, [x19, #208]                 ; 8-byte Folded Reload
	str	x9, [x19, #200]                 ; 8-byte Folded Spill
	.loc	11 38 66                        ; ZN20SipMultiStringHeaderD1Ev.cpp:38:66
	add	x8, x8, x9, lsr #3
	ldrb	w8, [x8]
	subs	w8, w8, #0
	cset	w8, eq
	tbnz	w8, #0, LBB0_26
	b	LBB0_25
LBB0_25:
	.loc	11 0 66                         ; ZN20SipMultiStringHeaderD1Ev.cpp:0:66
	ldr	x0, [x19, #200]                 ; 8-byte Folded Reload
	.loc	11 38 66                        ; ZN20SipMultiStringHeaderD1Ev.cpp:38:66
	bl	___asan_report_load8
	brk	#0x1
LBB0_26:
	.loc	11 0 66                         ; ZN20SipMultiStringHeaderD1Ev.cpp:0:66
	ldr	x8, [x19, #224]                 ; 8-byte Folded Reload
	.loc	11 38 66                        ; ZN20SipMultiStringHeaderD1Ev.cpp:38:66
	ldr	x8, [x8, #8]
	.loc	11 38 26                        ; ZN20SipMultiStringHeaderD1Ev.cpp:38:26
	str	x8, [x19, #408]
Ltmp5:
	.loc	11 40 17 is_stmt 1              ; ZN20SipMultiStringHeaderD1Ev.cpp:40:17
	str	wzr, [x19, #404]
	.loc	11 40 8 is_stmt 0               ; ZN20SipMultiStringHeaderD1Ev.cpp:40:8
	b	LBB0_27
LBB0_27:                                ; %for.cond
                                        ; =>This Inner Loop Header: Depth=1
Ltmp6:
	.loc	11 40 24                        ; ZN20SipMultiStringHeaderD1Ev.cpp:40:24
	ldr	w8, [x19, #404]
	str	w8, [x19, #180]                 ; 4-byte Folded Spill
	.loc	11 40 28                        ; ZN20SipMultiStringHeaderD1Ev.cpp:40:28
	ldr	x8, [x19, #416]
	str	x8, [x19, #184]                 ; 8-byte Folded Spill
	.loc	11 40 45                        ; ZN20SipMultiStringHeaderD1Ev.cpp:40:45
	mov	x9, x8
	str	x9, [x19, #192]                 ; 8-byte Folded Spill
	subs	x8, x8, #0
	cset	w8, eq
	tbnz	w8, #0, LBB0_29
	b	LBB0_28
LBB0_28:                                ; %for.cond
                                        ;   in Loop: Header=BB0_27 Depth=1
	.loc	11 0 45                         ; ZN20SipMultiStringHeaderD1Ev.cpp:0:45
	ldr	x8, [x19, #192]                 ; 8-byte Folded Reload
	.loc	11 40 45                        ; ZN20SipMultiStringHeaderD1Ev.cpp:40:45
	ands	x8, x8, #0xf
	cset	w8, eq
	tbnz	w8, #0, LBB0_30
	b	LBB0_29
LBB0_29:                                ; %handler.type_mismatch5
                                        ;   in Loop: Header=BB0_27 Depth=1
	.loc	11 0 45                         ; ZN20SipMultiStringHeaderD1Ev.cpp:0:45
	ldr	x1, [x19, #192]                 ; 8-byte Folded Reload
	adrp	x0, l___unnamed_3@PAGE
	add	x0, x0, l___unnamed_3@PAGEOFF
	.loc	11 40 45                        ; ZN20SipMultiStringHeaderD1Ev.cpp:40:45
	bl	___ubsan_handle_type_mismatch_v1
	b	LBB0_30
LBB0_30:                                ; %cont6
                                        ;   in Loop: Header=BB0_27 Depth=1
	.loc	11 0 45                         ; ZN20SipMultiStringHeaderD1Ev.cpp:0:45
	ldr	x8, [x19, #184]                 ; 8-byte Folded Reload
	.loc	11 40 45                        ; ZN20SipMultiStringHeaderD1Ev.cpp:40:45
	add	x8, x8, #4
	str	x8, [x19, #160]                 ; 8-byte Folded Spill
	mov	x9, x8
	str	x9, [x19, #168]                 ; 8-byte Folded Spill
	subs	x8, x8, #0
	cset	w8, eq
	tbnz	w8, #0, LBB0_32
	b	LBB0_31
LBB0_31:                                ; %cont6
                                        ;   in Loop: Header=BB0_27 Depth=1
	.loc	11 0 45                         ; ZN20SipMultiStringHeaderD1Ev.cpp:0:45
	ldr	x8, [x19, #168]                 ; 8-byte Folded Reload
	.loc	11 40 45                        ; ZN20SipMultiStringHeaderD1Ev.cpp:40:45
	ands	x8, x8, #0x3
	cset	w8, eq
	tbnz	w8, #0, LBB0_33
	b	LBB0_32
LBB0_32:                                ; %handler.type_mismatch7
                                        ;   in Loop: Header=BB0_27 Depth=1
	.loc	11 0 45                         ; ZN20SipMultiStringHeaderD1Ev.cpp:0:45
	ldr	x1, [x19, #168]                 ; 8-byte Folded Reload
	adrp	x0, l___unnamed_4@PAGE
	add	x0, x0, l___unnamed_4@PAGEOFF
	.loc	11 40 45                        ; ZN20SipMultiStringHeaderD1Ev.cpp:40:45
	bl	___ubsan_handle_type_mismatch_v1
	b	LBB0_33
LBB0_33:                                ; %cont8
                                        ;   in Loop: Header=BB0_27 Depth=1
	.loc	11 0 45                         ; ZN20SipMultiStringHeaderD1Ev.cpp:0:45
	ldr	x8, [x19, #376]                 ; 8-byte Folded Reload
	ldr	x9, [x19, #160]                 ; 8-byte Folded Reload
	str	x9, [x19, #144]                 ; 8-byte Folded Spill
	.loc	11 40 45                        ; ZN20SipMultiStringHeaderD1Ev.cpp:40:45
	add	x8, x8, x9, lsr #3
	ldrb	w8, [x8]
	str	w8, [x19, #156]                 ; 4-byte Folded Spill
	subs	w8, w8, #0
	cset	w8, eq
	tbnz	w8, #0, LBB0_36
	b	LBB0_34
LBB0_34:                                ;   in Loop: Header=BB0_27 Depth=1
	.loc	11 0 45                         ; ZN20SipMultiStringHeaderD1Ev.cpp:0:45
	ldr	w8, [x19, #156]                 ; 4-byte Folded Reload
	ldr	x9, [x19, #144]                 ; 8-byte Folded Reload
	.loc	11 40 45                        ; ZN20SipMultiStringHeaderD1Ev.cpp:40:45
	and	x9, x9, #0x7
	add	x9, x9, #3
                                        ; kill: def $w9 killed $w9 killed $x9
	sxtb	w8, w8
	subs	w8, w8, w9, sxtb
	cset	w8, gt
	tbnz	w8, #0, LBB0_36
	b	LBB0_35
LBB0_35:
	.loc	11 0 45                         ; ZN20SipMultiStringHeaderD1Ev.cpp:0:45
	ldr	x0, [x19, #144]                 ; 8-byte Folded Reload
	.loc	11 40 45                        ; ZN20SipMultiStringHeaderD1Ev.cpp:40:45
	bl	___asan_report_load4
	brk	#0x1
LBB0_36:                                ;   in Loop: Header=BB0_27 Depth=1
	.loc	11 0 45                         ; ZN20SipMultiStringHeaderD1Ev.cpp:0:45
	ldr	w8, [x19, #180]                 ; 4-byte Folded Reload
	ldr	x9, [x19, #184]                 ; 8-byte Folded Reload
	.loc	11 40 45                        ; ZN20SipMultiStringHeaderD1Ev.cpp:40:45
	ldr	w9, [x9, #4]
	.loc	11 40 26                        ; ZN20SipMultiStringHeaderD1Ev.cpp:40:26
	subs	w8, w8, w9
	cset	w8, lo
Ltmp7:
	.loc	11 40 3                         ; ZN20SipMultiStringHeaderD1Ev.cpp:40:3
	tbnz	w8, #0, LBB0_38
	b	LBB0_37
LBB0_37:                                ; %for.cond.cleanup
	.loc	11 0 3                          ; ZN20SipMultiStringHeaderD1Ev.cpp:0:3
	mov	w8, #2
	str	w8, [x19, #424]
	.loc	11 40 3                         ; ZN20SipMultiStringHeaderD1Ev.cpp:40:3
	b	LBB0_68
LBB0_38:                                ; %for.body
                                        ;   in Loop: Header=BB0_27 Depth=1
Ltmp8:
	.loc	11 41 15 is_stmt 1              ; ZN20SipMultiStringHeaderD1Ev.cpp:41:15
	ldr	x8, [x19, #408]
	.loc	11 41 36 is_stmt 0              ; ZN20SipMultiStringHeaderD1Ev.cpp:41:36
	ldr	w9, [x19, #404]
	mov	x11, x9
	mov	x9, #24
	.loc	11 41 39                        ; ZN20SipMultiStringHeaderD1Ev.cpp:41:39
	mul	x10, x11, x9
	mov	x9, x8
	add	x9, x9, x10
	str	x9, [x19, #112]                 ; 8-byte Folded Spill
	mov	x10, #24
	smulh	x9, x10, x11
	mul	x10, x10, x11
	subs	x9, x9, x10, asr #63
	cset	w9, ne
	str	w9, [x19, #124]                 ; 4-byte Folded Spill
	mov	x9, x8
	str	x9, [x19, #128]                 ; 8-byte Folded Spill
	mov	x9, x8
	add	x9, x9, x10
	str	x9, [x19, #136]                 ; 8-byte Folded Spill
	subs	x8, x8, #0
	cset	w8, ne
	subs	x9, x9, #0
	cset	w9, ne
	and	w8, w8, #0x1
	and	w9, w9, #0x1
	subs	w8, w8, w9
	cset	w8, ne
	tbnz	w8, #0, LBB0_42
	b	LBB0_39
LBB0_39:                                ; %for.body
                                        ;   in Loop: Header=BB0_27 Depth=1
	.loc	11 0 39                         ; ZN20SipMultiStringHeaderD1Ev.cpp:0:39
	ldr	x8, [x19, #136]                 ; 8-byte Folded Reload
	ldr	x9, [x19, #128]                 ; 8-byte Folded Reload
	.loc	11 41 39                        ; ZN20SipMultiStringHeaderD1Ev.cpp:41:39
	subs	x8, x8, x9
	cset	w8, lo
	tbnz	w8, #0, LBB0_42
	b	LBB0_40
LBB0_40:                                ; %for.body
                                        ;   in Loop: Header=BB0_27 Depth=1
	.loc	11 0 39                         ; ZN20SipMultiStringHeaderD1Ev.cpp:0:39
	ldr	w8, [x19, #124]                 ; 4-byte Folded Reload
	mov	w9, #1
	.loc	11 41 39                        ; ZN20SipMultiStringHeaderD1Ev.cpp:41:39
	and	w8, w8, #0x1
	and	w9, w9, #0x1
	subs	w8, w8, w9
	cset	w8, eq
	tbnz	w8, #0, LBB0_42
	b	LBB0_41
LBB0_41:                                ; %for.body
                                        ;   in Loop: Header=BB0_27 Depth=1
	.loc	11 0 39                         ; ZN20SipMultiStringHeaderD1Ev.cpp:0:39
	mov	w9, #1
	mov	w8, #0
	.loc	11 41 39                        ; ZN20SipMultiStringHeaderD1Ev.cpp:41:39
	and	w8, w8, #0x1
	and	w9, w9, #0x1
	subs	w8, w8, w9
	cset	w8, ne
	tbnz	w8, #0, LBB0_43
	b	LBB0_42
LBB0_42:                                ; %handler.pointer_overflow
                                        ;   in Loop: Header=BB0_27 Depth=1
	.loc	11 0 39                         ; ZN20SipMultiStringHeaderD1Ev.cpp:0:39
	ldr	x2, [x19, #136]                 ; 8-byte Folded Reload
	ldr	x1, [x19, #128]                 ; 8-byte Folded Reload
	adrp	x0, l___unnamed_5@PAGE
	add	x0, x0, l___unnamed_5@PAGEOFF
	.loc	11 41 39                        ; ZN20SipMultiStringHeaderD1Ev.cpp:41:39
	bl	___ubsan_handle_pointer_overflow
	b	LBB0_43
LBB0_43:                                ; %cont10
                                        ;   in Loop: Header=BB0_27 Depth=1
	.loc	11 0 39                         ; ZN20SipMultiStringHeaderD1Ev.cpp:0:39
	ldr	x8, [x19, #112]                 ; 8-byte Folded Reload
	.loc	11 41 39                        ; ZN20SipMultiStringHeaderD1Ev.cpp:41:39
	mov	x9, x8
	str	x9, [x19, #104]                 ; 8-byte Folded Spill
	subs	x8, x8, #0
	cset	w8, eq
	tbnz	w8, #0, LBB0_45
	b	LBB0_44
LBB0_44:                                ; %cont10
                                        ;   in Loop: Header=BB0_27 Depth=1
	.loc	11 0 39                         ; ZN20SipMultiStringHeaderD1Ev.cpp:0:39
	ldr	x8, [x19, #104]                 ; 8-byte Folded Reload
	.loc	11 41 39                        ; ZN20SipMultiStringHeaderD1Ev.cpp:41:39
	ands	x8, x8, #0x7
	cset	w8, eq
	tbnz	w8, #0, LBB0_46
	b	LBB0_45
LBB0_45:                                ; %handler.type_mismatch11
                                        ;   in Loop: Header=BB0_27 Depth=1
	.loc	11 0 39                         ; ZN20SipMultiStringHeaderD1Ev.cpp:0:39
	ldr	x1, [x19, #104]                 ; 8-byte Folded Reload
	adrp	x0, l___unnamed_6@PAGE
	add	x0, x0, l___unnamed_6@PAGEOFF
	.loc	11 41 39                        ; ZN20SipMultiStringHeaderD1Ev.cpp:41:39
	bl	___ubsan_handle_type_mismatch_v1
	b	LBB0_46
LBB0_46:                                ; %cont12
                                        ;   in Loop: Header=BB0_27 Depth=1
	.loc	11 0 39                         ; ZN20SipMultiStringHeaderD1Ev.cpp:0:39
	ldr	x8, [x19, #112]                 ; 8-byte Folded Reload
	.loc	11 41 39                        ; ZN20SipMultiStringHeaderD1Ev.cpp:41:39
	add	x8, x8, #8
	str	x8, [x19, #88]                  ; 8-byte Folded Spill
	mov	x9, x8
	str	x9, [x19, #96]                  ; 8-byte Folded Spill
	subs	x8, x8, #0
	cset	w8, eq
	tbnz	w8, #0, LBB0_48
	b	LBB0_47
LBB0_47:                                ; %cont12
                                        ;   in Loop: Header=BB0_27 Depth=1
	.loc	11 0 39                         ; ZN20SipMultiStringHeaderD1Ev.cpp:0:39
	ldr	x8, [x19, #96]                  ; 8-byte Folded Reload
	.loc	11 41 39                        ; ZN20SipMultiStringHeaderD1Ev.cpp:41:39
	ands	x8, x8, #0x7
	cset	w8, eq
	tbnz	w8, #0, LBB0_49
	b	LBB0_48
LBB0_48:                                ; %handler.type_mismatch13
                                        ;   in Loop: Header=BB0_27 Depth=1
	.loc	11 0 39                         ; ZN20SipMultiStringHeaderD1Ev.cpp:0:39
	ldr	x1, [x19, #96]                  ; 8-byte Folded Reload
	adrp	x0, l___unnamed_7@PAGE
	add	x0, x0, l___unnamed_7@PAGEOFF
	.loc	11 41 39                        ; ZN20SipMultiStringHeaderD1Ev.cpp:41:39
	bl	___ubsan_handle_type_mismatch_v1
	b	LBB0_49
LBB0_49:                                ; %cont14
                                        ;   in Loop: Header=BB0_27 Depth=1
	.loc	11 0 39                         ; ZN20SipMultiStringHeaderD1Ev.cpp:0:39
	ldr	x8, [x19, #376]                 ; 8-byte Folded Reload
	ldr	x9, [x19, #88]                  ; 8-byte Folded Reload
	str	x9, [x19, #80]                  ; 8-byte Folded Spill
	.loc	11 41 39                        ; ZN20SipMultiStringHeaderD1Ev.cpp:41:39
	add	x8, x8, x9, lsr #3
	ldrb	w8, [x8]
	subs	w8, w8, #0
	cset	w8, eq
	tbnz	w8, #0, LBB0_51
	b	LBB0_50
LBB0_50:
	.loc	11 0 39                         ; ZN20SipMultiStringHeaderD1Ev.cpp:0:39
	ldr	x0, [x19, #80]                  ; 8-byte Folded Reload
	.loc	11 41 39                        ; ZN20SipMultiStringHeaderD1Ev.cpp:41:39
	bl	___asan_report_load8
	brk	#0x1
LBB0_51:                                ;   in Loop: Header=BB0_27 Depth=1
	.loc	11 0 39                         ; ZN20SipMultiStringHeaderD1Ev.cpp:0:39
	ldr	x8, [x19, #112]                 ; 8-byte Folded Reload
	.loc	11 41 39                        ; ZN20SipMultiStringHeaderD1Ev.cpp:41:39
	ldr	x0, [x8, #8]
	.loc	11 41 54                        ; ZN20SipMultiStringHeaderD1Ev.cpp:41:54
	ldr	x1, [x19, #432]
	.loc	11 41 8                         ; ZN20SipMultiStringHeaderD1Ev.cpp:41:8
	bl	_strcmp
	.loc	11 41 60                        ; ZN20SipMultiStringHeaderD1Ev.cpp:41:60
	subs	w8, w0, #0
	cset	w8, ne
Ltmp9:
	.loc	11 41 8                         ; ZN20SipMultiStringHeaderD1Ev.cpp:41:8
	tbnz	w8, #0, LBB0_66
	b	LBB0_52
LBB0_52:                                ; %if.then17
Ltmp10:
	.loc	11 42 21 is_stmt 1              ; ZN20SipMultiStringHeaderD1Ev.cpp:42:21
	ldr	x8, [x19, #408]
	.loc	11 42 42 is_stmt 0              ; ZN20SipMultiStringHeaderD1Ev.cpp:42:42
	ldr	w9, [x19, #404]
	mov	x11, x9
	mov	x9, #24
	.loc	11 42 45                        ; ZN20SipMultiStringHeaderD1Ev.cpp:42:45
	mul	x10, x11, x9
	mov	x9, x8
	add	x9, x9, x10
	str	x9, [x19, #48]                  ; 8-byte Folded Spill
	mov	x10, #24
	smulh	x9, x10, x11
	mul	x10, x10, x11
	subs	x9, x9, x10, asr #63
	cset	w9, ne
	str	w9, [x19, #60]                  ; 4-byte Folded Spill
	mov	x9, x8
	str	x9, [x19, #64]                  ; 8-byte Folded Spill
	mov	x9, x8
	add	x9, x9, x10
	str	x9, [x19, #72]                  ; 8-byte Folded Spill
	subs	x8, x8, #0
	cset	w8, ne
	subs	x9, x9, #0
	cset	w9, ne
	and	w8, w8, #0x1
	and	w9, w9, #0x1
	subs	w8, w8, w9
	cset	w8, ne
	tbnz	w8, #0, LBB0_56
	b	LBB0_53
LBB0_53:                                ; %if.then17
	.loc	11 0 45                         ; ZN20SipMultiStringHeaderD1Ev.cpp:0:45
	ldr	x8, [x19, #72]                  ; 8-byte Folded Reload
	ldr	x9, [x19, #64]                  ; 8-byte Folded Reload
	.loc	11 42 45                        ; ZN20SipMultiStringHeaderD1Ev.cpp:42:45
	subs	x8, x8, x9
	cset	w8, lo
	tbnz	w8, #0, LBB0_56
	b	LBB0_54
LBB0_54:                                ; %if.then17
	.loc	11 0 45                         ; ZN20SipMultiStringHeaderD1Ev.cpp:0:45
	ldr	w8, [x19, #60]                  ; 4-byte Folded Reload
	mov	w9, #1
	.loc	11 42 45                        ; ZN20SipMultiStringHeaderD1Ev.cpp:42:45
	and	w8, w8, #0x1
	and	w9, w9, #0x1
	subs	w8, w8, w9
	cset	w8, eq
	tbnz	w8, #0, LBB0_56
	b	LBB0_55
LBB0_55:                                ; %if.then17
	.loc	11 0 45                         ; ZN20SipMultiStringHeaderD1Ev.cpp:0:45
	mov	w9, #1
	mov	w8, #0
	.loc	11 42 45                        ; ZN20SipMultiStringHeaderD1Ev.cpp:42:45
	and	w8, w8, #0x1
	and	w9, w9, #0x1
	subs	w8, w8, w9
	cset	w8, ne
	tbnz	w8, #0, LBB0_57
	b	LBB0_56
LBB0_56:                                ; %handler.pointer_overflow20
	.loc	11 0 45                         ; ZN20SipMultiStringHeaderD1Ev.cpp:0:45
	ldr	x2, [x19, #72]                  ; 8-byte Folded Reload
	ldr	x1, [x19, #64]                  ; 8-byte Folded Reload
	adrp	x0, l___unnamed_8@PAGE
	add	x0, x0, l___unnamed_8@PAGEOFF
	.loc	11 42 45                        ; ZN20SipMultiStringHeaderD1Ev.cpp:42:45
	bl	___ubsan_handle_pointer_overflow
	b	LBB0_57
LBB0_57:                                ; %cont21
	.loc	11 0 45                         ; ZN20SipMultiStringHeaderD1Ev.cpp:0:45
	ldr	x8, [x19, #48]                  ; 8-byte Folded Reload
	.loc	11 42 45                        ; ZN20SipMultiStringHeaderD1Ev.cpp:42:45
	mov	x9, x8
	str	x9, [x19, #40]                  ; 8-byte Folded Spill
	subs	x8, x8, #0
	cset	w8, eq
	tbnz	w8, #0, LBB0_59
	b	LBB0_58
LBB0_58:                                ; %cont21
	.loc	11 0 45                         ; ZN20SipMultiStringHeaderD1Ev.cpp:0:45
	ldr	x8, [x19, #40]                  ; 8-byte Folded Reload
	.loc	11 42 45                        ; ZN20SipMultiStringHeaderD1Ev.cpp:42:45
	ands	x8, x8, #0x7
	cset	w8, eq
	tbnz	w8, #0, LBB0_60
	b	LBB0_59
LBB0_59:                                ; %handler.type_mismatch22
	.loc	11 0 45                         ; ZN20SipMultiStringHeaderD1Ev.cpp:0:45
	ldr	x1, [x19, #40]                  ; 8-byte Folded Reload
	adrp	x0, l___unnamed_9@PAGE
	add	x0, x0, l___unnamed_9@PAGEOFF
	.loc	11 42 45                        ; ZN20SipMultiStringHeaderD1Ev.cpp:42:45
	bl	___ubsan_handle_type_mismatch_v1
	b	LBB0_60
LBB0_60:                                ; %cont23
	.loc	11 0 45                         ; ZN20SipMultiStringHeaderD1Ev.cpp:0:45
	ldr	x8, [x19, #48]                  ; 8-byte Folded Reload
	.loc	11 42 45                        ; ZN20SipMultiStringHeaderD1Ev.cpp:42:45
	mov	x9, x8
	str	x9, [x19, #32]                  ; 8-byte Folded Spill
	subs	x8, x8, #0
	cset	w8, eq
	tbnz	w8, #0, LBB0_62
	b	LBB0_61
LBB0_61:                                ; %cont23
	.loc	11 0 45                         ; ZN20SipMultiStringHeaderD1Ev.cpp:0:45
	ldr	x8, [x19, #32]                  ; 8-byte Folded Reload
	.loc	11 42 45                        ; ZN20SipMultiStringHeaderD1Ev.cpp:42:45
	ands	x8, x8, #0x7
	cset	w8, eq
	tbnz	w8, #0, LBB0_63
	b	LBB0_62
LBB0_62:                                ; %handler.type_mismatch24
	.loc	11 0 45                         ; ZN20SipMultiStringHeaderD1Ev.cpp:0:45
	ldr	x1, [x19, #32]                  ; 8-byte Folded Reload
	adrp	x0, l___unnamed_10@PAGE
	add	x0, x0, l___unnamed_10@PAGEOFF
	.loc	11 42 45                        ; ZN20SipMultiStringHeaderD1Ev.cpp:42:45
	bl	___ubsan_handle_type_mismatch_v1
	b	LBB0_63
LBB0_63:                                ; %cont25
	.loc	11 0 45                         ; ZN20SipMultiStringHeaderD1Ev.cpp:0:45
	ldr	x8, [x19, #376]                 ; 8-byte Folded Reload
	ldr	x9, [x19, #48]                  ; 8-byte Folded Reload
	str	x9, [x19, #24]                  ; 8-byte Folded Spill
	.loc	11 42 45                        ; ZN20SipMultiStringHeaderD1Ev.cpp:42:45
	add	x8, x8, x9, lsr #3
	ldrb	w8, [x8]
	subs	w8, w8, #0
	cset	w8, eq
	tbnz	w8, #0, LBB0_65
	b	LBB0_64
LBB0_64:
	.loc	11 0 45                         ; ZN20SipMultiStringHeaderD1Ev.cpp:0:45
	ldr	x0, [x19, #24]                  ; 8-byte Folded Reload
	.loc	11 42 45                        ; ZN20SipMultiStringHeaderD1Ev.cpp:42:45
	bl	___asan_report_load8
	brk	#0x1
LBB0_65:
	.loc	11 0 45                         ; ZN20SipMultiStringHeaderD1Ev.cpp:0:45
	ldr	x8, [x19, #48]                  ; 8-byte Folded Reload
	.loc	11 42 45                        ; ZN20SipMultiStringHeaderD1Ev.cpp:42:45
	ldr	x8, [x8]
	.loc	11 42 7                         ; ZN20SipMultiStringHeaderD1Ev.cpp:42:7
	str	x8, [x19, #440]
	mov	w8, #1
	str	w8, [x19, #424]
	b	LBB0_68
Ltmp11:
LBB0_66:                                ; %if.end26
                                        ;   in Loop: Header=BB0_27 Depth=1
	.loc	11 44 3 is_stmt 1               ; ZN20SipMultiStringHeaderD1Ev.cpp:44:3
	b	LBB0_67
Ltmp12:
LBB0_67:                                ; %for.inc
                                        ;   in Loop: Header=BB0_27 Depth=1
	.loc	11 40 61                        ; ZN20SipMultiStringHeaderD1Ev.cpp:40:61
	ldr	w8, [x19, #404]
	add	w8, w8, #1
	str	w8, [x19, #404]
	.loc	11 40 3 is_stmt 0               ; ZN20SipMultiStringHeaderD1Ev.cpp:40:3
	b	LBB0_27
Ltmp13:
LBB0_68:                                ; %cleanup
	.loc	11 0 3                          ; ZN20SipMultiStringHeaderD1Ev.cpp:0:3
	ldr	w8, [x19, #424]
	subs	w8, w8, #2
	cset	w8, ne
	tbnz	w8, #0, LBB0_70
	b	LBB0_69
LBB0_69:                                ; %for.end
                                        ; kill: def $x8 killed $xzr
	.loc	11 46 3 is_stmt 1               ; ZN20SipMultiStringHeaderD1Ev.cpp:46:3
	str	xzr, [x19, #440]
	mov	w8, #1
	str	w8, [x19, #424]
	b	LBB0_70
LBB0_70:                                ; %cleanup27
	.loc	11 0 3 is_stmt 0                ; ZN20SipMultiStringHeaderD1Ev.cpp:0:3
	b	LBB0_71
LBB0_71:                                ; %cleanup29
	ldr	x8, [x19, #320]                 ; 8-byte Folded Reload
	ldr	x10, [x19, #280]                ; 8-byte Folded Reload
	ldr	x11, [x19, #288]                ; 8-byte Folded Reload
	.loc	11 47 1 is_stmt 1               ; ZN20SipMultiStringHeaderD1Ev.cpp:47:1
	add	x12, x11, #12
	mov	w9, #248
	strb	w9, [x12]
	add	x13, x11, #4
	mov	w12, #63736
	strh	w12, [x13]
	add	x11, x11, #6
	strb	w9, [x11]
	ldr	x9, [x19, #440]
	str	x9, [x19, #16]                  ; 8-byte Folded Spill
	mov	x9, #13838
	movk	x9, #17888, lsl #16
	str	x9, [x10]
	subs	x8, x8, #0
	cset	w8, eq
	tbnz	w8, #0, LBB0_73
	b	LBB0_72
LBB0_72:
	.loc	11 0 1 is_stmt 0                ; ZN20SipMultiStringHeaderD1Ev.cpp:0:1
	ldr	x8, [x19, #320]                 ; 8-byte Folded Reload
	ldr	x9, [x19, #368]                 ; 8-byte Folded Reload
	ldr	x10, [x19, #288]                ; 8-byte Folded Reload
	.loc	11 47 1                         ; ZN20SipMultiStringHeaderD1Ev.cpp:47:1
	add	x11, x10, #0
	str	x9, [x11]
	add	x10, x10, #8
	str	x9, [x10]
	add	x8, x8, #120
	ldr	x8, [x8]
	strb	wzr, [x8]
	b	LBB0_74
LBB0_73:
	.loc	11 0 1                          ; ZN20SipMultiStringHeaderD1Ev.cpp:0:1
	ldr	x8, [x19, #288]                 ; 8-byte Folded Reload
	.loc	11 47 1                         ; ZN20SipMultiStringHeaderD1Ev.cpp:47:1
	add	x9, x8, #0
	str	xzr, [x9]
	add	x8, x8, #8
	str	xzr, [x8]
	b	LBB0_74
LBB0_74:
	ldr	x9, [x19, #472]
	adrp	x8, ___stack_chk_guard@GOTPAGE
	ldr	x8, [x8, ___stack_chk_guard@GOTPAGEOFF]
	ldr	x8, [x8]
	subs	x8, x8, x9
	cset	w8, eq
	tbnz	w8, #0, LBB0_76
	b	LBB0_75
LBB0_75:
	bl	___stack_chk_fail
LBB0_76:
	.loc	11 0 1                          ; ZN20SipMultiStringHeaderD1Ev.cpp:0:1
	ldr	x0, [x19, #16]                  ; 8-byte Folded Reload
	.loc	11 47 1                         ; ZN20SipMultiStringHeaderD1Ev.cpp:47:1
	sub	sp, x29, #16
	.cfi_def_cfa wsp, 32
	ldp	x29, x30, [sp, #16]             ; 16-byte Folded Reload
	ldp	x20, x19, [sp], #32             ; 16-byte Folded Reload
	.cfi_def_cfa_offset 0
	.cfi_restore w30
	.cfi_restore w29
	.cfi_restore w19
	.cfi_restore w20
	ret
Ltmp14:
Lfunc_end0:
	.cfi_endproc
                                        ; -- End function
	.globl	__Z14GetLoadCommandP14mach_header_64PvjPKc ; -- Begin function _Z14GetLoadCommandP14mach_header_64PvjPKc
	.p2align	2
__Z14GetLoadCommandP14mach_header_64PvjPKc: ; @_Z14GetLoadCommandP14mach_header_64PvjPKc
Lfunc_begin1:
	.loc	11 52 0 is_stmt 1               ; ZN20SipMultiStringHeaderD1Ev.cpp:52:0
	.cfi_startproc
; %bb.0:                                ; %entry
	sub	sp, sp, #272
	.cfi_def_cfa_offset 272
	stp	x28, x27, [sp, #240]            ; 16-byte Folded Spill
	stp	x29, x30, [sp, #256]            ; 16-byte Folded Spill
	add	x29, sp, #256
	.cfi_def_cfa w29, 16
	.cfi_offset w30, -8
	.cfi_offset w29, -16
	.cfi_offset w27, -24
	.cfi_offset w28, -32
	adrp	x8, ___asan_shadow_memory_dynamic_address@GOTPAGE
	ldr	x8, [x8, ___asan_shadow_memory_dynamic_address@GOTPAGEOFF]
	ldr	x8, [x8]
	stur	x8, [x29, #-88]                 ; 8-byte Folded Spill
	stur	x0, [x29, #-32]
	stur	x1, [x29, #-40]
	stur	w2, [x29, #-44]
	stur	x3, [x29, #-56]
Ltmp15:
	.loc	11 53 38 prologue_end           ; ZN20SipMultiStringHeaderD1Ev.cpp:53:38
	ldur	x8, [x29, #-40]
	.loc	11 53 12 is_stmt 0              ; ZN20SipMultiStringHeaderD1Ev.cpp:53:12
	stur	x8, [x29, #-64]
Ltmp16:
	.loc	11 54 17 is_stmt 1              ; ZN20SipMultiStringHeaderD1Ev.cpp:54:17
	stur	wzr, [x29, #-68]
	.loc	11 54 8 is_stmt 0               ; ZN20SipMultiStringHeaderD1Ev.cpp:54:8
	b	LBB1_1
LBB1_1:                                 ; %for.cond
                                        ; =>This Inner Loop Header: Depth=1
Ltmp17:
	.loc	11 54 24                        ; ZN20SipMultiStringHeaderD1Ev.cpp:54:24
	ldur	w8, [x29, #-68]
	stur	w8, [x29, #-108]                ; 4-byte Folded Spill
	.loc	11 54 28                        ; ZN20SipMultiStringHeaderD1Ev.cpp:54:28
	ldur	x8, [x29, #-32]
	stur	x8, [x29, #-104]                ; 8-byte Folded Spill
	.loc	11 54 41                        ; ZN20SipMultiStringHeaderD1Ev.cpp:54:41
	mov	x9, x8
	stur	x9, [x29, #-96]                 ; 8-byte Folded Spill
	subs	x8, x8, #0
	cset	w8, eq
	tbnz	w8, #0, LBB1_3
	b	LBB1_2
LBB1_2:                                 ; %for.cond
                                        ;   in Loop: Header=BB1_1 Depth=1
	.loc	11 0 41                         ; ZN20SipMultiStringHeaderD1Ev.cpp:0:41
	ldur	x8, [x29, #-96]                 ; 8-byte Folded Reload
	.loc	11 54 41                        ; ZN20SipMultiStringHeaderD1Ev.cpp:54:41
	ands	x8, x8, #0x3
	cset	w8, eq
	tbnz	w8, #0, LBB1_4
	b	LBB1_3
LBB1_3:                                 ; %handler.type_mismatch
                                        ;   in Loop: Header=BB1_1 Depth=1
	.loc	11 0 41                         ; ZN20SipMultiStringHeaderD1Ev.cpp:0:41
	ldur	x1, [x29, #-96]                 ; 8-byte Folded Reload
	adrp	x0, l___unnamed_11@PAGE
	add	x0, x0, l___unnamed_11@PAGEOFF
	.loc	11 54 41                        ; ZN20SipMultiStringHeaderD1Ev.cpp:54:41
	bl	___ubsan_handle_type_mismatch_v1
	b	LBB1_4
LBB1_4:                                 ; %cont
                                        ;   in Loop: Header=BB1_1 Depth=1
	.loc	11 0 41                         ; ZN20SipMultiStringHeaderD1Ev.cpp:0:41
	ldur	x8, [x29, #-104]                ; 8-byte Folded Reload
	.loc	11 54 41                        ; ZN20SipMultiStringHeaderD1Ev.cpp:54:41
	add	x8, x8, #16
	str	x8, [sp, #128]                  ; 8-byte Folded Spill
	mov	x9, x8
	stur	x9, [x29, #-120]                ; 8-byte Folded Spill
	subs	x8, x8, #0
	cset	w8, eq
	tbnz	w8, #0, LBB1_6
	b	LBB1_5
LBB1_5:                                 ; %cont
                                        ;   in Loop: Header=BB1_1 Depth=1
	.loc	11 0 41                         ; ZN20SipMultiStringHeaderD1Ev.cpp:0:41
	ldur	x8, [x29, #-120]                ; 8-byte Folded Reload
	.loc	11 54 41                        ; ZN20SipMultiStringHeaderD1Ev.cpp:54:41
	ands	x8, x8, #0x3
	cset	w8, eq
	tbnz	w8, #0, LBB1_7
	b	LBB1_6
LBB1_6:                                 ; %handler.type_mismatch1
                                        ;   in Loop: Header=BB1_1 Depth=1
	.loc	11 0 41                         ; ZN20SipMultiStringHeaderD1Ev.cpp:0:41
	ldur	x1, [x29, #-120]                ; 8-byte Folded Reload
	adrp	x0, l___unnamed_12@PAGE
	add	x0, x0, l___unnamed_12@PAGEOFF
	.loc	11 54 41                        ; ZN20SipMultiStringHeaderD1Ev.cpp:54:41
	bl	___ubsan_handle_type_mismatch_v1
	b	LBB1_7
LBB1_7:                                 ; %cont2
                                        ;   in Loop: Header=BB1_1 Depth=1
	.loc	11 0 41                         ; ZN20SipMultiStringHeaderD1Ev.cpp:0:41
	ldur	x8, [x29, #-88]                 ; 8-byte Folded Reload
	ldr	x9, [sp, #128]                  ; 8-byte Folded Reload
	str	x9, [sp, #112]                  ; 8-byte Folded Spill
	.loc	11 54 41                        ; ZN20SipMultiStringHeaderD1Ev.cpp:54:41
	add	x8, x8, x9, lsr #3
	ldrb	w8, [x8]
	str	w8, [sp, #124]                  ; 4-byte Folded Spill
	subs	w8, w8, #0
	cset	w8, eq
	tbnz	w8, #0, LBB1_10
	b	LBB1_8
LBB1_8:                                 ;   in Loop: Header=BB1_1 Depth=1
	.loc	11 0 41                         ; ZN20SipMultiStringHeaderD1Ev.cpp:0:41
	ldr	w8, [sp, #124]                  ; 4-byte Folded Reload
	ldr	x9, [sp, #112]                  ; 8-byte Folded Reload
	.loc	11 54 41                        ; ZN20SipMultiStringHeaderD1Ev.cpp:54:41
	and	x9, x9, #0x7
	add	x9, x9, #3
                                        ; kill: def $w9 killed $w9 killed $x9
	sxtb	w8, w8
	subs	w8, w8, w9, sxtb
	cset	w8, gt
	tbnz	w8, #0, LBB1_10
	b	LBB1_9
LBB1_9:
	.loc	11 0 41                         ; ZN20SipMultiStringHeaderD1Ev.cpp:0:41
	ldr	x0, [sp, #112]                  ; 8-byte Folded Reload
	.loc	11 54 41                        ; ZN20SipMultiStringHeaderD1Ev.cpp:54:41
	bl	___asan_report_load4
	brk	#0x1
LBB1_10:                                ;   in Loop: Header=BB1_1 Depth=1
	.loc	11 0 41                         ; ZN20SipMultiStringHeaderD1Ev.cpp:0:41
	ldur	w8, [x29, #-108]                ; 4-byte Folded Reload
	ldur	x9, [x29, #-104]                ; 8-byte Folded Reload
	.loc	11 54 41                        ; ZN20SipMultiStringHeaderD1Ev.cpp:54:41
	ldr	w9, [x9, #16]
	.loc	11 54 26                        ; ZN20SipMultiStringHeaderD1Ev.cpp:54:26
	subs	w8, w8, w9
	cset	w8, lo
Ltmp18:
	.loc	11 54 3                         ; ZN20SipMultiStringHeaderD1Ev.cpp:54:3
	tbnz	w8, #0, LBB1_12
	b	LBB1_11
LBB1_11:                                ; %for.cond.cleanup
	.loc	11 0 3                          ; ZN20SipMultiStringHeaderD1Ev.cpp:0:3
	mov	w8, #2
	stur	w8, [x29, #-72]
	.loc	11 54 3                         ; ZN20SipMultiStringHeaderD1Ev.cpp:54:3
	b	LBB1_42
LBB1_12:                                ; %for.body
                                        ;   in Loop: Header=BB1_1 Depth=1
Ltmp19:
	.loc	11 55 46 is_stmt 1              ; ZN20SipMultiStringHeaderD1Ev.cpp:55:46
	ldur	x8, [x29, #-64]
	.loc	11 55 19 is_stmt 0              ; ZN20SipMultiStringHeaderD1Ev.cpp:55:19
	stur	x8, [x29, #-80]
Ltmp20:
	.loc	11 56 9 is_stmt 1               ; ZN20SipMultiStringHeaderD1Ev.cpp:56:9
	ldur	x8, [x29, #-80]
	str	x8, [sp, #96]                   ; 8-byte Folded Spill
	.loc	11 56 19 is_stmt 0              ; ZN20SipMultiStringHeaderD1Ev.cpp:56:19
	mov	x9, x8
	str	x9, [sp, #104]                  ; 8-byte Folded Spill
	subs	x8, x8, #0
	cset	w8, eq
	tbnz	w8, #0, LBB1_14
	b	LBB1_13
LBB1_13:                                ; %for.body
                                        ;   in Loop: Header=BB1_1 Depth=1
	.loc	11 0 19                         ; ZN20SipMultiStringHeaderD1Ev.cpp:0:19
	ldr	x8, [sp, #104]                  ; 8-byte Folded Reload
	.loc	11 56 19                        ; ZN20SipMultiStringHeaderD1Ev.cpp:56:19
	ands	x8, x8, #0x3
	cset	w8, eq
	tbnz	w8, #0, LBB1_15
	b	LBB1_14
LBB1_14:                                ; %handler.type_mismatch3
                                        ;   in Loop: Header=BB1_1 Depth=1
	.loc	11 0 19                         ; ZN20SipMultiStringHeaderD1Ev.cpp:0:19
	ldr	x1, [sp, #104]                  ; 8-byte Folded Reload
	adrp	x0, l___unnamed_13@PAGE
	add	x0, x0, l___unnamed_13@PAGEOFF
	.loc	11 56 19                        ; ZN20SipMultiStringHeaderD1Ev.cpp:56:19
	bl	___ubsan_handle_type_mismatch_v1
	b	LBB1_15
LBB1_15:                                ; %cont4
                                        ;   in Loop: Header=BB1_1 Depth=1
	.loc	11 0 19                         ; ZN20SipMultiStringHeaderD1Ev.cpp:0:19
	ldr	x8, [sp, #96]                   ; 8-byte Folded Reload
	.loc	11 56 19                        ; ZN20SipMultiStringHeaderD1Ev.cpp:56:19
	mov	x9, x8
	str	x9, [sp, #88]                   ; 8-byte Folded Spill
	subs	x8, x8, #0
	cset	w8, eq
	tbnz	w8, #0, LBB1_17
	b	LBB1_16
LBB1_16:                                ; %cont4
                                        ;   in Loop: Header=BB1_1 Depth=1
	.loc	11 0 19                         ; ZN20SipMultiStringHeaderD1Ev.cpp:0:19
	ldr	x8, [sp, #88]                   ; 8-byte Folded Reload
	.loc	11 56 19                        ; ZN20SipMultiStringHeaderD1Ev.cpp:56:19
	ands	x8, x8, #0x3
	cset	w8, eq
	tbnz	w8, #0, LBB1_18
	b	LBB1_17
LBB1_17:                                ; %handler.type_mismatch5
                                        ;   in Loop: Header=BB1_1 Depth=1
	.loc	11 0 19                         ; ZN20SipMultiStringHeaderD1Ev.cpp:0:19
	ldr	x1, [sp, #88]                   ; 8-byte Folded Reload
	adrp	x0, l___unnamed_14@PAGE
	add	x0, x0, l___unnamed_14@PAGEOFF
	.loc	11 56 19                        ; ZN20SipMultiStringHeaderD1Ev.cpp:56:19
	bl	___ubsan_handle_type_mismatch_v1
	b	LBB1_18
LBB1_18:                                ; %cont6
                                        ;   in Loop: Header=BB1_1 Depth=1
	.loc	11 0 19                         ; ZN20SipMultiStringHeaderD1Ev.cpp:0:19
	ldur	x8, [x29, #-88]                 ; 8-byte Folded Reload
	ldr	x9, [sp, #96]                   ; 8-byte Folded Reload
	str	x9, [sp, #72]                   ; 8-byte Folded Spill
	.loc	11 56 19                        ; ZN20SipMultiStringHeaderD1Ev.cpp:56:19
	add	x8, x8, x9, lsr #3
	ldrb	w8, [x8]
	str	w8, [sp, #84]                   ; 4-byte Folded Spill
	subs	w8, w8, #0
	cset	w8, eq
	tbnz	w8, #0, LBB1_21
	b	LBB1_19
LBB1_19:                                ;   in Loop: Header=BB1_1 Depth=1
	.loc	11 0 19                         ; ZN20SipMultiStringHeaderD1Ev.cpp:0:19
	ldr	w8, [sp, #84]                   ; 4-byte Folded Reload
	ldr	x9, [sp, #72]                   ; 8-byte Folded Reload
	.loc	11 56 19                        ; ZN20SipMultiStringHeaderD1Ev.cpp:56:19
	and	x9, x9, #0x7
	add	x9, x9, #3
                                        ; kill: def $w9 killed $w9 killed $x9
	sxtb	w8, w8
	subs	w8, w8, w9, sxtb
	cset	w8, gt
	tbnz	w8, #0, LBB1_21
	b	LBB1_20
LBB1_20:
	.loc	11 0 19                         ; ZN20SipMultiStringHeaderD1Ev.cpp:0:19
	ldr	x0, [sp, #72]                   ; 8-byte Folded Reload
	.loc	11 56 19                        ; ZN20SipMultiStringHeaderD1Ev.cpp:56:19
	bl	___asan_report_load4
	brk	#0x1
LBB1_21:                                ;   in Loop: Header=BB1_1 Depth=1
	.loc	11 0 19                         ; ZN20SipMultiStringHeaderD1Ev.cpp:0:19
	ldr	x8, [sp, #96]                   ; 8-byte Folded Reload
	.loc	11 56 19                        ; ZN20SipMultiStringHeaderD1Ev.cpp:56:19
	ldr	w8, [x8]
	.loc	11 56 26                        ; ZN20SipMultiStringHeaderD1Ev.cpp:56:26
	ldur	w9, [x29, #-44]
	.loc	11 56 23                        ; ZN20SipMultiStringHeaderD1Ev.cpp:56:23
	subs	w8, w8, w9
	cset	w8, ne
Ltmp21:
	.loc	11 56 9                         ; ZN20SipMultiStringHeaderD1Ev.cpp:56:9
	tbnz	w8, #0, LBB1_29
	b	LBB1_22
LBB1_22:                                ; %if.then
                                        ;   in Loop: Header=BB1_1 Depth=1
Ltmp22:
	.loc	11 57 11 is_stmt 1              ; ZN20SipMultiStringHeaderD1Ev.cpp:57:11
	ldur	w8, [x29, #-44]
	.loc	11 57 25 is_stmt 0              ; ZN20SipMultiStringHeaderD1Ev.cpp:57:25
	subs	w8, w8, #25
	cset	w8, ne
	.loc	11 58 11 is_stmt 1              ; ZN20SipMultiStringHeaderD1Ev.cpp:58:11
	tbnz	w8, #0, LBB1_27
	b	LBB1_23
LBB1_23:                                ; %lor.lhs.false
                                        ;   in Loop: Header=BB1_1 Depth=1
	.loc	11 58 44 is_stmt 0              ; ZN20SipMultiStringHeaderD1Ev.cpp:58:44
	ldur	x8, [x29, #-80]
	str	x8, [sp, #56]                   ; 8-byte Folded Spill
	.loc	11 58 55                        ; ZN20SipMultiStringHeaderD1Ev.cpp:58:55
	mov	x9, x8
	str	x9, [sp, #64]                   ; 8-byte Folded Spill
	subs	x8, x8, #0
	cset	w8, eq
	tbnz	w8, #0, LBB1_25
	b	LBB1_24
LBB1_24:                                ; %lor.lhs.false
                                        ;   in Loop: Header=BB1_1 Depth=1
	.loc	11 0 55                         ; ZN20SipMultiStringHeaderD1Ev.cpp:0:55
	ldr	x8, [sp, #64]                   ; 8-byte Folded Reload
	.loc	11 58 55                        ; ZN20SipMultiStringHeaderD1Ev.cpp:58:55
	ands	x8, x8, #0x7
	cset	w8, eq
	tbnz	w8, #0, LBB1_26
	b	LBB1_25
LBB1_25:                                ; %handler.type_mismatch9
                                        ;   in Loop: Header=BB1_1 Depth=1
	.loc	11 0 55                         ; ZN20SipMultiStringHeaderD1Ev.cpp:0:55
	ldr	x1, [sp, #64]                   ; 8-byte Folded Reload
	adrp	x0, l___unnamed_15@PAGE
	add	x0, x0, l___unnamed_15@PAGEOFF
	.loc	11 58 55                        ; ZN20SipMultiStringHeaderD1Ev.cpp:58:55
	bl	___ubsan_handle_type_mismatch_v1
	b	LBB1_26
LBB1_26:                                ; %cont10
                                        ;   in Loop: Header=BB1_1 Depth=1
	.loc	11 0 55                         ; ZN20SipMultiStringHeaderD1Ev.cpp:0:55
	ldr	x8, [sp, #56]                   ; 8-byte Folded Reload
	.loc	11 58 55                        ; ZN20SipMultiStringHeaderD1Ev.cpp:58:55
	add	x0, x8, #8
	.loc	11 58 64                        ; ZN20SipMultiStringHeaderD1Ev.cpp:58:64
	ldur	x1, [x29, #-56]
	.loc	11 58 15                        ; ZN20SipMultiStringHeaderD1Ev.cpp:58:15
	bl	_strcmp
	subs	w8, w0, #0
	cset	w8, ne
Ltmp23:
	.loc	11 57 11 is_stmt 1              ; ZN20SipMultiStringHeaderD1Ev.cpp:57:11
	tbnz	w8, #0, LBB1_28
	b	LBB1_27
LBB1_27:                                ; %if.then12
                                        ;   in Loop: Header=BB1_1 Depth=1
Ltmp24:
	.loc	11 59 16                        ; ZN20SipMultiStringHeaderD1Ev.cpp:59:16
	ldur	x8, [x29, #-80]
	.loc	11 59 9 is_stmt 0               ; ZN20SipMultiStringHeaderD1Ev.cpp:59:9
	stur	x8, [x29, #-24]
	mov	w8, #1
	stur	w8, [x29, #-72]
	b	LBB1_39
Ltmp25:
LBB1_28:                                ; %if.end
                                        ;   in Loop: Header=BB1_1 Depth=1
	.loc	11 61 5 is_stmt 1               ; ZN20SipMultiStringHeaderD1Ev.cpp:61:5
	b	LBB1_29
Ltmp26:
LBB1_29:                                ; %if.end13
                                        ;   in Loop: Header=BB1_1 Depth=1
	.loc	11 63 22                        ; ZN20SipMultiStringHeaderD1Ev.cpp:63:22
	ldur	x8, [x29, #-80]
	str	x8, [sp, #40]                   ; 8-byte Folded Spill
	.loc	11 63 32 is_stmt 0              ; ZN20SipMultiStringHeaderD1Ev.cpp:63:32
	mov	x9, x8
	str	x9, [sp, #48]                   ; 8-byte Folded Spill
	subs	x8, x8, #0
	cset	w8, eq
	tbnz	w8, #0, LBB1_31
	b	LBB1_30
LBB1_30:                                ; %if.end13
                                        ;   in Loop: Header=BB1_1 Depth=1
	.loc	11 0 32                         ; ZN20SipMultiStringHeaderD1Ev.cpp:0:32
	ldr	x8, [sp, #48]                   ; 8-byte Folded Reload
	.loc	11 63 32                        ; ZN20SipMultiStringHeaderD1Ev.cpp:63:32
	ands	x8, x8, #0x3
	cset	w8, eq
	tbnz	w8, #0, LBB1_32
	b	LBB1_31
LBB1_31:                                ; %handler.type_mismatch14
                                        ;   in Loop: Header=BB1_1 Depth=1
	.loc	11 0 32                         ; ZN20SipMultiStringHeaderD1Ev.cpp:0:32
	ldr	x1, [sp, #48]                   ; 8-byte Folded Reload
	adrp	x0, l___unnamed_16@PAGE
	add	x0, x0, l___unnamed_16@PAGEOFF
	.loc	11 63 32                        ; ZN20SipMultiStringHeaderD1Ev.cpp:63:32
	bl	___ubsan_handle_type_mismatch_v1
	b	LBB1_32
LBB1_32:                                ; %cont15
                                        ;   in Loop: Header=BB1_1 Depth=1
	.loc	11 0 32                         ; ZN20SipMultiStringHeaderD1Ev.cpp:0:32
	ldr	x8, [sp, #40]                   ; 8-byte Folded Reload
	.loc	11 63 32                        ; ZN20SipMultiStringHeaderD1Ev.cpp:63:32
	add	x8, x8, #4
	str	x8, [sp, #24]                   ; 8-byte Folded Spill
	mov	x9, x8
	str	x9, [sp, #32]                   ; 8-byte Folded Spill
	subs	x8, x8, #0
	cset	w8, eq
	tbnz	w8, #0, LBB1_34
	b	LBB1_33
LBB1_33:                                ; %cont15
                                        ;   in Loop: Header=BB1_1 Depth=1
	.loc	11 0 32                         ; ZN20SipMultiStringHeaderD1Ev.cpp:0:32
	ldr	x8, [sp, #32]                   ; 8-byte Folded Reload
	.loc	11 63 32                        ; ZN20SipMultiStringHeaderD1Ev.cpp:63:32
	ands	x8, x8, #0x3
	cset	w8, eq
	tbnz	w8, #0, LBB1_35
	b	LBB1_34
LBB1_34:                                ; %handler.type_mismatch16
                                        ;   in Loop: Header=BB1_1 Depth=1
	.loc	11 0 32                         ; ZN20SipMultiStringHeaderD1Ev.cpp:0:32
	ldr	x1, [sp, #32]                   ; 8-byte Folded Reload
	adrp	x0, l___unnamed_17@PAGE
	add	x0, x0, l___unnamed_17@PAGEOFF
	.loc	11 63 32                        ; ZN20SipMultiStringHeaderD1Ev.cpp:63:32
	bl	___ubsan_handle_type_mismatch_v1
	b	LBB1_35
LBB1_35:                                ; %cont17
                                        ;   in Loop: Header=BB1_1 Depth=1
	.loc	11 0 32                         ; ZN20SipMultiStringHeaderD1Ev.cpp:0:32
	ldur	x8, [x29, #-88]                 ; 8-byte Folded Reload
	ldr	x9, [sp, #24]                   ; 8-byte Folded Reload
	str	x9, [sp, #8]                    ; 8-byte Folded Spill
	.loc	11 63 32                        ; ZN20SipMultiStringHeaderD1Ev.cpp:63:32
	add	x8, x8, x9, lsr #3
	ldrb	w8, [x8]
	str	w8, [sp, #20]                   ; 4-byte Folded Spill
	subs	w8, w8, #0
	cset	w8, eq
	tbnz	w8, #0, LBB1_38
	b	LBB1_36
LBB1_36:                                ;   in Loop: Header=BB1_1 Depth=1
	.loc	11 0 32                         ; ZN20SipMultiStringHeaderD1Ev.cpp:0:32
	ldr	w8, [sp, #20]                   ; 4-byte Folded Reload
	ldr	x9, [sp, #8]                    ; 8-byte Folded Reload
	.loc	11 63 32                        ; ZN20SipMultiStringHeaderD1Ev.cpp:63:32
	and	x9, x9, #0x7
	add	x9, x9, #3
                                        ; kill: def $w9 killed $w9 killed $x9
	sxtb	w8, w8
	subs	w8, w8, w9, sxtb
	cset	w8, gt
	tbnz	w8, #0, LBB1_38
	b	LBB1_37
LBB1_37:
	.loc	11 0 32                         ; ZN20SipMultiStringHeaderD1Ev.cpp:0:32
	ldr	x0, [sp, #8]                    ; 8-byte Folded Reload
	.loc	11 63 32                        ; ZN20SipMultiStringHeaderD1Ev.cpp:63:32
	bl	___asan_report_load4
	brk	#0x1
LBB1_38:                                ;   in Loop: Header=BB1_1 Depth=1
	.loc	11 0 32                         ; ZN20SipMultiStringHeaderD1Ev.cpp:0:32
	ldr	x8, [sp, #40]                   ; 8-byte Folded Reload
	.loc	11 63 32                        ; ZN20SipMultiStringHeaderD1Ev.cpp:63:32
	ldr	w8, [x8, #4]
	mov	x9, x8
	.loc	11 63 19                        ; ZN20SipMultiStringHeaderD1Ev.cpp:63:19
	ldur	x8, [x29, #-64]
	add	x8, x8, x9
	stur	x8, [x29, #-64]
Ltmp27:
	.loc	11 64 3 is_stmt 1               ; ZN20SipMultiStringHeaderD1Ev.cpp:64:3
	stur	wzr, [x29, #-72]
	b	LBB1_39
LBB1_39:                                ; %cleanup
                                        ;   in Loop: Header=BB1_1 Depth=1
	.loc	11 0 3 is_stmt 0                ; ZN20SipMultiStringHeaderD1Ev.cpp:0:3
	ldur	w8, [x29, #-72]
	subs	w8, w8, #0
	cset	w8, ne
	tbnz	w8, #0, LBB1_42
	b	LBB1_40
LBB1_40:                                ; %cleanup.cont
                                        ;   in Loop: Header=BB1_1 Depth=1
Ltmp28:
	.loc	11 64 3                         ; ZN20SipMultiStringHeaderD1Ev.cpp:64:3
	b	LBB1_41
Ltmp29:
LBB1_41:                                ; %for.inc
                                        ;   in Loop: Header=BB1_1 Depth=1
	.loc	11 54 48 is_stmt 1              ; ZN20SipMultiStringHeaderD1Ev.cpp:54:48
	ldur	w8, [x29, #-68]
	add	w8, w8, #1
	stur	w8, [x29, #-68]
	.loc	11 54 3 is_stmt 0               ; ZN20SipMultiStringHeaderD1Ev.cpp:54:3
	b	LBB1_1
Ltmp30:
LBB1_42:                                ; %cleanup18
	.loc	11 0 3                          ; ZN20SipMultiStringHeaderD1Ev.cpp:0:3
	ldur	w8, [x29, #-72]
	subs	w8, w8, #2
	cset	w8, ne
	tbnz	w8, #0, LBB1_44
	b	LBB1_43
LBB1_43:                                ; %for.end
                                        ; kill: def $x8 killed $xzr
	.loc	11 66 3 is_stmt 1               ; ZN20SipMultiStringHeaderD1Ev.cpp:66:3
	stur	xzr, [x29, #-24]
	mov	w8, #1
	stur	w8, [x29, #-72]
	b	LBB1_44
LBB1_44:                                ; %cleanup20
	.loc	11 67 1                         ; ZN20SipMultiStringHeaderD1Ev.cpp:67:1
	ldur	x0, [x29, #-24]
	.cfi_def_cfa wsp, 272
	ldp	x29, x30, [sp, #256]            ; 16-byte Folded Reload
	ldp	x28, x27, [sp, #240]            ; 16-byte Folded Reload
	add	sp, sp, #272
	.cfi_def_cfa_offset 0
	.cfi_restore w30
	.cfi_restore w29
	.cfi_restore w27
	.cfi_restore w28
	ret
Ltmp31:
Lfunc_end1:
	.cfi_endproc
                                        ; -- End function
	.globl	__Z16GetSymbolAddressPvPKc      ; -- Begin function _Z16GetSymbolAddressPvPKc
	.p2align	2
__Z16GetSymbolAddressPvPKc:             ; @_Z16GetSymbolAddressPvPKc
Lfunc_begin2:
	.loc	11 69 0                         ; ZN20SipMultiStringHeaderD1Ev.cpp:69:0
	.cfi_startproc
	.cfi_personality 155, ___gxx_personality_v0
	.cfi_lsda 16, Lexception0
; %bb.0:                                ; %entry
	stp	x20, x19, [sp, #-32]!           ; 16-byte Folded Spill
	.cfi_def_cfa_offset 32
	stp	x29, x30, [sp, #16]             ; 16-byte Folded Spill
	add	x29, sp, #16
	.cfi_def_cfa w29, 16
	.cfi_offset w30, -8
	.cfi_offset w29, -16
	.cfi_offset w19, -24
	.cfi_offset w20, -32
	.cfi_remember_state
	sub	x9, sp, #960
	and	sp, x9, #0xffffffffffffffe0
	mov	x19, sp
	mov	x9, #0
	adrp	x8, l____asan_gen_.18@PAGE
	add	x8, x8, l____asan_gen_.18@PAGEOFF
	str	x8, [x19, #752]                 ; 8-byte Folded Spill
	adrp	x8, __Z16GetSymbolAddressPvPKc@PAGE
	add	x8, x8, __Z16GetSymbolAddressPvPKc@PAGEOFF
	str	x8, [x19, #760]                 ; 8-byte Folded Spill
	mov	x8, #62965
	movk	x8, #62965, lsl #16
	movk	x8, #62965, lsl #32
	movk	x8, #62965, lsl #48
	str	x8, [x19, #768]                 ; 8-byte Folded Spill
	adrp	x8, ___stack_chk_guard@GOTPAGE
	ldr	x8, [x8, ___stack_chk_guard@GOTPAGEOFF]
	ldr	x8, [x8]
	str	x8, [x19, #952]
	adrp	x8, ___asan_shadow_memory_dynamic_address@GOTPAGE
	ldr	x8, [x8, ___asan_shadow_memory_dynamic_address@GOTPAGEOFF]
	ldr	x8, [x8]
	str	x8, [x19, #776]                 ; 8-byte Folded Spill
	str	x0, [x19, #920]
	str	x1, [x19, #912]
	adrp	x8, ___asan_option_detect_stack_use_after_return@GOTPAGE
	ldr	x8, [x8, ___asan_option_detect_stack_use_after_return@GOTPAGEOFF]
	ldr	w8, [x8]
	subs	w8, w8, #0
	cset	w8, eq
	str	x9, [x19, #784]                 ; 8-byte Folded Spill
	tbnz	w8, #0, LBB2_2
	b	LBB2_1
LBB2_1:
	mov	x0, #128
	bl	___asan_stack_malloc_1
	str	x0, [x19, #784]                 ; 8-byte Folded Spill
	b	LBB2_2
LBB2_2:
	ldr	x9, [x19, #784]                 ; 8-byte Folded Reload
	str	x9, [x19, #736]                 ; 8-byte Folded Spill
	subs	x8, x9, #0
	cset	w8, ne
	str	x9, [x19, #744]                 ; 8-byte Folded Spill
	tbnz	w8, #0, LBB2_4
	b	LBB2_3
LBB2_3:
	mov	x8, sp
	subs	x8, x8, #128
	and	x8, x8, #0xffffffffffffffe0
	mov	sp, x8
	str	x8, [x19, #744]                 ; 8-byte Folded Spill
	b	LBB2_4
LBB2_4:
	ldr	x8, [x19, #776]                 ; 8-byte Folded Reload
	ldr	x10, [x19, #760]                ; 8-byte Folded Reload
	ldr	x11, [x19, #752]                ; 8-byte Folded Reload
	ldr	x9, [x19, #744]                 ; 8-byte Folded Reload
	str	x9, [x19, #792]
	add	x12, x9, #32
	str	x12, [x19, #672]                ; 8-byte Folded Spill
	add	x0, x9, #64
	str	x0, [x19, #680]                 ; 8-byte Folded Spill
	mov	x13, x9
	str	x13, [x19, #688]                ; 8-byte Folded Spill
	mov	x12, #35507
	movk	x12, #16821, lsl #16
	str	x12, [x13]
	add	x12, x9, #8
	str	x11, [x12]
	add	x11, x9, #16
	str	x10, [x11]
	add	x8, x8, x9, lsr #3
	str	x8, [x19, #696]                 ; 8-byte Folded Spill
	add	x10, x8, #0
	mov	x9, #-1012762419733073423
	movk	x9, #63736, lsl #32
	movk	x9, #62194, lsl #48
	str	x9, [x10]
	add	x9, x8, #8
	mov	x8, #-868082074056920077
	movk	x8, #63736
	movk	x8, #62456, lsl #16
	str	x8, [x9]
Ltmp38:
	.loc	11 70 51 prologue_end           ; ZN20SipMultiStringHeaderD1Ev.cpp:70:51
	ldr	x8, [x19, #920]
	.loc	11 70 19 is_stmt 0              ; ZN20SipMultiStringHeaderD1Ev.cpp:70:19
	str	x8, [x19, #904]
	.loc	11 72 51 is_stmt 1              ; ZN20SipMultiStringHeaderD1Ev.cpp:72:51
	ldr	x8, [x19, #920]
	.loc	11 72 64 is_stmt 0              ; ZN20SipMultiStringHeaderD1Ev.cpp:72:64
	add	x8, x8, #32
	.loc	11 72 9                         ; ZN20SipMultiStringHeaderD1Ev.cpp:72:9
	str	x8, [x19, #896]
	.loc	11 74 65 is_stmt 1              ; ZN20SipMultiStringHeaderD1Ev.cpp:74:65
	ldr	x0, [x19, #904]
	.loc	11 74 78 is_stmt 0              ; ZN20SipMultiStringHeaderD1Ev.cpp:74:78
	ldr	x1, [x19, #896]
	mov	w2, #2
	mov	x3, #0
	.loc	11 74 50                        ; ZN20SipMultiStringHeaderD1Ev.cpp:74:50
	bl	__Z14GetLoadCommandP14mach_header_64PvjPKc
	.loc	11 74 19                        ; ZN20SipMultiStringHeaderD1Ev.cpp:74:19
	str	x0, [x19, #888]
	.loc	11 76 75 is_stmt 1              ; ZN20SipMultiStringHeaderD1Ev.cpp:76:75
	ldr	x0, [x19, #904]
	.loc	11 76 88 is_stmt 0              ; ZN20SipMultiStringHeaderD1Ev.cpp:76:88
	ldr	x1, [x19, #896]
	mov	w2, #25
	str	w2, [x19, #708]                 ; 4-byte Folded Spill
	.loc	11 0 0                          ; ZN20SipMultiStringHeaderD1Ev.cpp:0:0
	adrp	x3, _.str.1@PAGE
	add	x3, x3, _.str.1@PAGEOFF
	.loc	11 76 60                        ; ZN20SipMultiStringHeaderD1Ev.cpp:76:60
	bl	__Z14GetLoadCommandP14mach_header_64PvjPKc
	ldr	w2, [x19, #708]                 ; 4-byte Folded Reload
	.loc	11 76 23                        ; ZN20SipMultiStringHeaderD1Ev.cpp:76:23
	str	x0, [x19, #880]
	.loc	11 78 71 is_stmt 1              ; ZN20SipMultiStringHeaderD1Ev.cpp:78:71
	ldr	x0, [x19, #904]
	.loc	11 78 84 is_stmt 0              ; ZN20SipMultiStringHeaderD1Ev.cpp:78:84
	ldr	x1, [x19, #896]
	.loc	11 0 0                          ; ZN20SipMultiStringHeaderD1Ev.cpp:0:0
	adrp	x3, _.str.2@PAGE
	add	x3, x3, _.str.2@PAGEOFF
	.loc	11 78 56                        ; ZN20SipMultiStringHeaderD1Ev.cpp:78:56
	bl	__Z14GetLoadCommandP14mach_header_64PvjPKc
	.loc	11 78 23                        ; ZN20SipMultiStringHeaderD1Ev.cpp:78:23
	str	x0, [x19, #872]
	.loc	11 80 38 is_stmt 1              ; ZN20SipMultiStringHeaderD1Ev.cpp:80:38
	ldr	x8, [x19, #920]
	str	x8, [x19, #712]                 ; 8-byte Folded Spill
	.loc	11 80 53 is_stmt 0              ; ZN20SipMultiStringHeaderD1Ev.cpp:80:53
	ldr	x8, [x19, #872]
	str	x8, [x19, #720]                 ; 8-byte Folded Spill
	.loc	11 80 63                        ; ZN20SipMultiStringHeaderD1Ev.cpp:80:63
	mov	x9, x8
	str	x9, [x19, #728]                 ; 8-byte Folded Spill
	subs	x8, x8, #0
	cset	w8, eq
	tbnz	w8, #0, LBB2_6
	b	LBB2_5
LBB2_5:
	.loc	11 0 63                         ; ZN20SipMultiStringHeaderD1Ev.cpp:0:63
	ldr	x8, [x19, #728]                 ; 8-byte Folded Reload
	.loc	11 80 63                        ; ZN20SipMultiStringHeaderD1Ev.cpp:80:63
	ands	x8, x8, #0x7
	cset	w8, eq
	tbnz	w8, #0, LBB2_7
	b	LBB2_6
LBB2_6:                                 ; %handler.type_mismatch
	.loc	11 0 63                         ; ZN20SipMultiStringHeaderD1Ev.cpp:0:63
	ldr	x1, [x19, #728]                 ; 8-byte Folded Reload
	adrp	x0, l___unnamed_18@PAGE
	add	x0, x0, l___unnamed_18@PAGEOFF
	.loc	11 80 63                        ; ZN20SipMultiStringHeaderD1Ev.cpp:80:63
	bl	___ubsan_handle_type_mismatch_v1
	b	LBB2_7
LBB2_7:                                 ; %cont
	.loc	11 0 63                         ; ZN20SipMultiStringHeaderD1Ev.cpp:0:63
	ldr	x8, [x19, #720]                 ; 8-byte Folded Reload
	.loc	11 80 63                        ; ZN20SipMultiStringHeaderD1Ev.cpp:80:63
	add	x8, x8, #24
	str	x8, [x19, #656]                 ; 8-byte Folded Spill
	mov	x9, x8
	str	x9, [x19, #664]                 ; 8-byte Folded Spill
	subs	x8, x8, #0
	cset	w8, eq
	tbnz	w8, #0, LBB2_9
	b	LBB2_8
LBB2_8:                                 ; %cont
	.loc	11 0 63                         ; ZN20SipMultiStringHeaderD1Ev.cpp:0:63
	ldr	x8, [x19, #664]                 ; 8-byte Folded Reload
	.loc	11 80 63                        ; ZN20SipMultiStringHeaderD1Ev.cpp:80:63
	ands	x8, x8, #0x7
	cset	w8, eq
	tbnz	w8, #0, LBB2_10
	b	LBB2_9
LBB2_9:                                 ; %handler.type_mismatch3
	.loc	11 0 63                         ; ZN20SipMultiStringHeaderD1Ev.cpp:0:63
	ldr	x1, [x19, #664]                 ; 8-byte Folded Reload
	adrp	x0, l___unnamed_19@PAGE
	add	x0, x0, l___unnamed_19@PAGEOFF
	.loc	11 80 63                        ; ZN20SipMultiStringHeaderD1Ev.cpp:80:63
	bl	___ubsan_handle_type_mismatch_v1
	b	LBB2_10
LBB2_10:                                ; %cont4
	.loc	11 0 63                         ; ZN20SipMultiStringHeaderD1Ev.cpp:0:63
	ldr	x8, [x19, #776]                 ; 8-byte Folded Reload
	ldr	x9, [x19, #656]                 ; 8-byte Folded Reload
	str	x9, [x19, #648]                 ; 8-byte Folded Spill
	.loc	11 80 63                        ; ZN20SipMultiStringHeaderD1Ev.cpp:80:63
	add	x8, x8, x9, lsr #3
	ldrb	w8, [x8]
	subs	w8, w8, #0
	cset	w8, eq
	tbnz	w8, #0, LBB2_12
	b	LBB2_11
LBB2_11:
	.loc	11 0 63                         ; ZN20SipMultiStringHeaderD1Ev.cpp:0:63
	ldr	x0, [x19, #648]                 ; 8-byte Folded Reload
	.loc	11 80 63                        ; ZN20SipMultiStringHeaderD1Ev.cpp:80:63
	bl	___asan_report_load8
	brk	#0x1
LBB2_12:
	.loc	11 0 63                         ; ZN20SipMultiStringHeaderD1Ev.cpp:0:63
	ldr	x8, [x19, #712]                 ; 8-byte Folded Reload
	ldr	x9, [x19, #720]                 ; 8-byte Folded Reload
	.loc	11 80 63                        ; ZN20SipMultiStringHeaderD1Ev.cpp:80:63
	ldr	x9, [x9, #24]
	.loc	11 80 51                        ; ZN20SipMultiStringHeaderD1Ev.cpp:80:51
	subs	x8, x8, x9
	.loc	11 80 12                        ; ZN20SipMultiStringHeaderD1Ev.cpp:80:12
	str	x8, [x19, #864]
	.loc	11 82 26 is_stmt 1              ; ZN20SipMultiStringHeaderD1Ev.cpp:82:26
	ldr	x8, [x19, #880]
	str	x8, [x19, #632]                 ; 8-byte Folded Spill
	.loc	11 82 40 is_stmt 0              ; ZN20SipMultiStringHeaderD1Ev.cpp:82:40
	mov	x9, x8
	str	x9, [x19, #640]                 ; 8-byte Folded Spill
	subs	x8, x8, #0
	cset	w8, eq
	tbnz	w8, #0, LBB2_14
	b	LBB2_13
LBB2_13:
	.loc	11 0 40                         ; ZN20SipMultiStringHeaderD1Ev.cpp:0:40
	ldr	x8, [x19, #640]                 ; 8-byte Folded Reload
	.loc	11 82 40                        ; ZN20SipMultiStringHeaderD1Ev.cpp:82:40
	ands	x8, x8, #0x7
	cset	w8, eq
	tbnz	w8, #0, LBB2_15
	b	LBB2_14
LBB2_14:                                ; %handler.type_mismatch5
	.loc	11 0 40                         ; ZN20SipMultiStringHeaderD1Ev.cpp:0:40
	ldr	x1, [x19, #640]                 ; 8-byte Folded Reload
	adrp	x0, l___unnamed_20@PAGE
	add	x0, x0, l___unnamed_20@PAGEOFF
	.loc	11 82 40                        ; ZN20SipMultiStringHeaderD1Ev.cpp:82:40
	bl	___ubsan_handle_type_mismatch_v1
	b	LBB2_15
LBB2_15:                                ; %cont6
	.loc	11 0 40                         ; ZN20SipMultiStringHeaderD1Ev.cpp:0:40
	ldr	x8, [x19, #632]                 ; 8-byte Folded Reload
	.loc	11 82 40                        ; ZN20SipMultiStringHeaderD1Ev.cpp:82:40
	add	x8, x8, #24
	str	x8, [x19, #616]                 ; 8-byte Folded Spill
	mov	x9, x8
	str	x9, [x19, #624]                 ; 8-byte Folded Spill
	subs	x8, x8, #0
	cset	w8, eq
	tbnz	w8, #0, LBB2_17
	b	LBB2_16
LBB2_16:                                ; %cont6
	.loc	11 0 40                         ; ZN20SipMultiStringHeaderD1Ev.cpp:0:40
	ldr	x8, [x19, #624]                 ; 8-byte Folded Reload
	.loc	11 82 40                        ; ZN20SipMultiStringHeaderD1Ev.cpp:82:40
	ands	x8, x8, #0x7
	cset	w8, eq
	tbnz	w8, #0, LBB2_18
	b	LBB2_17
LBB2_17:                                ; %handler.type_mismatch8
	.loc	11 0 40                         ; ZN20SipMultiStringHeaderD1Ev.cpp:0:40
	ldr	x1, [x19, #624]                 ; 8-byte Folded Reload
	adrp	x0, l___unnamed_21@PAGE
	add	x0, x0, l___unnamed_21@PAGEOFF
	.loc	11 82 40                        ; ZN20SipMultiStringHeaderD1Ev.cpp:82:40
	bl	___ubsan_handle_type_mismatch_v1
	b	LBB2_18
LBB2_18:                                ; %cont9
	.loc	11 0 40                         ; ZN20SipMultiStringHeaderD1Ev.cpp:0:40
	ldr	x8, [x19, #776]                 ; 8-byte Folded Reload
	ldr	x9, [x19, #616]                 ; 8-byte Folded Reload
	str	x9, [x19, #608]                 ; 8-byte Folded Spill
	.loc	11 82 40                        ; ZN20SipMultiStringHeaderD1Ev.cpp:82:40
	add	x8, x8, x9, lsr #3
	ldrb	w8, [x8]
	subs	w8, w8, #0
	cset	w8, eq
	tbnz	w8, #0, LBB2_20
	b	LBB2_19
LBB2_19:
	.loc	11 0 40                         ; ZN20SipMultiStringHeaderD1Ev.cpp:0:40
	ldr	x0, [x19, #608]                 ; 8-byte Folded Reload
	.loc	11 82 40                        ; ZN20SipMultiStringHeaderD1Ev.cpp:82:40
	bl	___asan_report_load8
	brk	#0x1
LBB2_20:
	.loc	11 0 40                         ; ZN20SipMultiStringHeaderD1Ev.cpp:0:40
	ldr	x8, [x19, #632]                 ; 8-byte Folded Reload
	.loc	11 82 40                        ; ZN20SipMultiStringHeaderD1Ev.cpp:82:40
	ldr	x8, [x8, #24]
	.loc	11 82 49                        ; ZN20SipMultiStringHeaderD1Ev.cpp:82:49
	ldr	x11, [x19, #864]
	.loc	11 82 47                        ; ZN20SipMultiStringHeaderD1Ev.cpp:82:47
	mov	x9, x8
	add	x9, x9, x11
	str	x9, [x19, #576]                 ; 8-byte Folded Spill
	mov	x10, #1
	smulh	x9, x10, x11
	mul	x10, x10, x11
	subs	x9, x9, x10, asr #63
	cset	w9, ne
	str	w9, [x19, #588]                 ; 4-byte Folded Spill
	mov	x9, x8
	str	x9, [x19, #592]                 ; 8-byte Folded Spill
	mov	x9, x8
	add	x9, x9, x10
	str	x9, [x19, #600]                 ; 8-byte Folded Spill
	subs	x8, x8, #0
	cset	w8, ne
	subs	x9, x9, #0
	cset	w9, ne
	and	w8, w8, #0x1
	and	w9, w9, #0x1
	subs	w8, w8, w9
	cset	w8, ne
	tbnz	w8, #0, LBB2_24
	b	LBB2_21
LBB2_21:
	.loc	11 0 47                         ; ZN20SipMultiStringHeaderD1Ev.cpp:0:47
	ldr	x8, [x19, #600]                 ; 8-byte Folded Reload
	ldr	x9, [x19, #592]                 ; 8-byte Folded Reload
	.loc	11 82 47                        ; ZN20SipMultiStringHeaderD1Ev.cpp:82:47
	subs	x8, x8, x9
	cset	w8, lo
	tbnz	w8, #0, LBB2_24
	b	LBB2_22
LBB2_22:
	.loc	11 0 47                         ; ZN20SipMultiStringHeaderD1Ev.cpp:0:47
	ldr	w8, [x19, #588]                 ; 4-byte Folded Reload
	mov	w9, #1
	.loc	11 82 47                        ; ZN20SipMultiStringHeaderD1Ev.cpp:82:47
	and	w8, w8, #0x1
	and	w9, w9, #0x1
	subs	w8, w8, w9
	cset	w8, eq
	tbnz	w8, #0, LBB2_24
	b	LBB2_23
LBB2_23:
	.loc	11 0 47                         ; ZN20SipMultiStringHeaderD1Ev.cpp:0:47
	mov	w9, #1
	mov	w8, #0
	.loc	11 82 47                        ; ZN20SipMultiStringHeaderD1Ev.cpp:82:47
	and	w8, w8, #0x1
	and	w9, w9, #0x1
	subs	w8, w8, w9
	cset	w8, ne
	tbnz	w8, #0, LBB2_25
	b	LBB2_24
LBB2_24:                                ; %handler.pointer_overflow
	.loc	11 0 47                         ; ZN20SipMultiStringHeaderD1Ev.cpp:0:47
	ldr	x2, [x19, #600]                 ; 8-byte Folded Reload
	ldr	x1, [x19, #592]                 ; 8-byte Folded Reload
	adrp	x0, l___unnamed_22@PAGE
	add	x0, x0, l___unnamed_22@PAGEOFF
	.loc	11 82 47                        ; ZN20SipMultiStringHeaderD1Ev.cpp:82:47
	bl	___ubsan_handle_pointer_overflow
	b	LBB2_25
LBB2_25:                                ; %cont10
	.loc	11 83 28 is_stmt 1              ; ZN20SipMultiStringHeaderD1Ev.cpp:83:28
	ldr	x8, [x19, #888]
	str	x8, [x19, #560]                 ; 8-byte Folded Spill
	.loc	11 83 40 is_stmt 0              ; ZN20SipMultiStringHeaderD1Ev.cpp:83:40
	mov	x9, x8
	str	x9, [x19, #568]                 ; 8-byte Folded Spill
	subs	x8, x8, #0
	cset	w8, eq
	tbnz	w8, #0, LBB2_27
	b	LBB2_26
LBB2_26:                                ; %cont10
	.loc	11 0 40                         ; ZN20SipMultiStringHeaderD1Ev.cpp:0:40
	ldr	x8, [x19, #568]                 ; 8-byte Folded Reload
	.loc	11 83 40                        ; ZN20SipMultiStringHeaderD1Ev.cpp:83:40
	ands	x8, x8, #0x3
	cset	w8, eq
	tbnz	w8, #0, LBB2_28
	b	LBB2_27
LBB2_27:                                ; %handler.type_mismatch11
	.loc	11 0 40                         ; ZN20SipMultiStringHeaderD1Ev.cpp:0:40
	ldr	x1, [x19, #568]                 ; 8-byte Folded Reload
	adrp	x0, l___unnamed_23@PAGE
	add	x0, x0, l___unnamed_23@PAGEOFF
	.loc	11 83 40                        ; ZN20SipMultiStringHeaderD1Ev.cpp:83:40
	bl	___ubsan_handle_type_mismatch_v1
	b	LBB2_28
LBB2_28:                                ; %cont12
	.loc	11 0 40                         ; ZN20SipMultiStringHeaderD1Ev.cpp:0:40
	ldr	x8, [x19, #560]                 ; 8-byte Folded Reload
	.loc	11 83 40                        ; ZN20SipMultiStringHeaderD1Ev.cpp:83:40
	add	x8, x8, #16
	str	x8, [x19, #544]                 ; 8-byte Folded Spill
	mov	x9, x8
	str	x9, [x19, #552]                 ; 8-byte Folded Spill
	subs	x8, x8, #0
	cset	w8, eq
	tbnz	w8, #0, LBB2_30
	b	LBB2_29
LBB2_29:                                ; %cont12
	.loc	11 0 40                         ; ZN20SipMultiStringHeaderD1Ev.cpp:0:40
	ldr	x8, [x19, #552]                 ; 8-byte Folded Reload
	.loc	11 83 40                        ; ZN20SipMultiStringHeaderD1Ev.cpp:83:40
	ands	x8, x8, #0x3
	cset	w8, eq
	tbnz	w8, #0, LBB2_31
	b	LBB2_30
LBB2_30:                                ; %handler.type_mismatch13
	.loc	11 0 40                         ; ZN20SipMultiStringHeaderD1Ev.cpp:0:40
	ldr	x1, [x19, #552]                 ; 8-byte Folded Reload
	adrp	x0, l___unnamed_24@PAGE
	add	x0, x0, l___unnamed_24@PAGEOFF
	.loc	11 83 40                        ; ZN20SipMultiStringHeaderD1Ev.cpp:83:40
	bl	___ubsan_handle_type_mismatch_v1
	b	LBB2_31
LBB2_31:                                ; %cont14
	.loc	11 0 40                         ; ZN20SipMultiStringHeaderD1Ev.cpp:0:40
	ldr	x8, [x19, #776]                 ; 8-byte Folded Reload
	ldr	x9, [x19, #544]                 ; 8-byte Folded Reload
	str	x9, [x19, #528]                 ; 8-byte Folded Spill
	.loc	11 83 40                        ; ZN20SipMultiStringHeaderD1Ev.cpp:83:40
	add	x8, x8, x9, lsr #3
	ldrb	w8, [x8]
	str	w8, [x19, #540]                 ; 4-byte Folded Spill
	subs	w8, w8, #0
	cset	w8, eq
	tbnz	w8, #0, LBB2_34
	b	LBB2_32
LBB2_32:
	.loc	11 0 40                         ; ZN20SipMultiStringHeaderD1Ev.cpp:0:40
	ldr	w8, [x19, #540]                 ; 4-byte Folded Reload
	ldr	x9, [x19, #528]                 ; 8-byte Folded Reload
	.loc	11 83 40                        ; ZN20SipMultiStringHeaderD1Ev.cpp:83:40
	and	x9, x9, #0x7
	add	x9, x9, #3
                                        ; kill: def $w9 killed $w9 killed $x9
	sxtb	w8, w8
	subs	w8, w8, w9, sxtb
	cset	w8, gt
	tbnz	w8, #0, LBB2_34
	b	LBB2_33
LBB2_33:
	.loc	11 0 40                         ; ZN20SipMultiStringHeaderD1Ev.cpp:0:40
	ldr	x0, [x19, #528]                 ; 8-byte Folded Reload
	.loc	11 83 40                        ; ZN20SipMultiStringHeaderD1Ev.cpp:83:40
	bl	___asan_report_load4
	brk	#0x1
LBB2_34:
	.loc	11 0 40                         ; ZN20SipMultiStringHeaderD1Ev.cpp:0:40
	ldr	x8, [x19, #576]                 ; 8-byte Folded Reload
	ldr	x9, [x19, #560]                 ; 8-byte Folded Reload
	.loc	11 83 40                        ; ZN20SipMultiStringHeaderD1Ev.cpp:83:40
	ldr	w9, [x9, #16]
	mov	x11, x9
	.loc	11 83 26                        ; ZN20SipMultiStringHeaderD1Ev.cpp:83:26
	mov	x9, x8
	add	x9, x9, x11
	str	x9, [x19, #496]                 ; 8-byte Folded Spill
	mov	x10, #1
	smulh	x9, x10, x11
	mul	x10, x10, x11
	subs	x9, x9, x10, asr #63
	cset	w9, ne
	str	w9, [x19, #508]                 ; 4-byte Folded Spill
	mov	x9, x8
	str	x9, [x19, #512]                 ; 8-byte Folded Spill
	mov	x9, x8
	add	x9, x9, x10
	str	x9, [x19, #520]                 ; 8-byte Folded Spill
	subs	x8, x8, #0
	cset	w8, ne
	subs	x9, x9, #0
	cset	w9, ne
	and	w8, w8, #0x1
	and	w9, w9, #0x1
	subs	w8, w8, w9
	cset	w8, ne
	tbnz	w8, #0, LBB2_38
	b	LBB2_35
LBB2_35:
	.loc	11 0 26                         ; ZN20SipMultiStringHeaderD1Ev.cpp:0:26
	ldr	x8, [x19, #520]                 ; 8-byte Folded Reload
	ldr	x9, [x19, #512]                 ; 8-byte Folded Reload
	.loc	11 83 26                        ; ZN20SipMultiStringHeaderD1Ev.cpp:83:26
	subs	x8, x8, x9
	cset	w8, lo
	tbnz	w8, #0, LBB2_38
	b	LBB2_36
LBB2_36:
	.loc	11 0 26                         ; ZN20SipMultiStringHeaderD1Ev.cpp:0:26
	ldr	w8, [x19, #508]                 ; 4-byte Folded Reload
	mov	w9, #1
	.loc	11 83 26                        ; ZN20SipMultiStringHeaderD1Ev.cpp:83:26
	and	w8, w8, #0x1
	and	w9, w9, #0x1
	subs	w8, w8, w9
	cset	w8, eq
	tbnz	w8, #0, LBB2_38
	b	LBB2_37
LBB2_37:
	.loc	11 0 26                         ; ZN20SipMultiStringHeaderD1Ev.cpp:0:26
	mov	w9, #1
	mov	w8, #0
	.loc	11 83 26                        ; ZN20SipMultiStringHeaderD1Ev.cpp:83:26
	and	w8, w8, #0x1
	and	w9, w9, #0x1
	subs	w8, w8, w9
	cset	w8, ne
	tbnz	w8, #0, LBB2_39
	b	LBB2_38
LBB2_38:                                ; %handler.pointer_overflow16
	.loc	11 0 26                         ; ZN20SipMultiStringHeaderD1Ev.cpp:0:26
	ldr	x2, [x19, #520]                 ; 8-byte Folded Reload
	ldr	x1, [x19, #512]                 ; 8-byte Folded Reload
	adrp	x0, l___unnamed_25@PAGE
	add	x0, x0, l___unnamed_25@PAGEOFF
	.loc	11 83 26                        ; ZN20SipMultiStringHeaderD1Ev.cpp:83:26
	bl	___ubsan_handle_pointer_overflow
	b	LBB2_39
LBB2_39:                                ; %cont17
	.loc	11 83 49                        ; ZN20SipMultiStringHeaderD1Ev.cpp:83:49
	ldr	x8, [x19, #880]
	str	x8, [x19, #480]                 ; 8-byte Folded Spill
	.loc	11 83 63                        ; ZN20SipMultiStringHeaderD1Ev.cpp:83:63
	mov	x9, x8
	str	x9, [x19, #488]                 ; 8-byte Folded Spill
	subs	x8, x8, #0
	cset	w8, eq
	tbnz	w8, #0, LBB2_41
	b	LBB2_40
LBB2_40:                                ; %cont17
	.loc	11 0 63                         ; ZN20SipMultiStringHeaderD1Ev.cpp:0:63
	ldr	x8, [x19, #488]                 ; 8-byte Folded Reload
	.loc	11 83 63                        ; ZN20SipMultiStringHeaderD1Ev.cpp:83:63
	ands	x8, x8, #0x7
	cset	w8, eq
	tbnz	w8, #0, LBB2_42
	b	LBB2_41
LBB2_41:                                ; %handler.type_mismatch18
	.loc	11 0 63                         ; ZN20SipMultiStringHeaderD1Ev.cpp:0:63
	ldr	x1, [x19, #488]                 ; 8-byte Folded Reload
	adrp	x0, l___unnamed_26@PAGE
	add	x0, x0, l___unnamed_26@PAGEOFF
	.loc	11 83 63                        ; ZN20SipMultiStringHeaderD1Ev.cpp:83:63
	bl	___ubsan_handle_type_mismatch_v1
	b	LBB2_42
LBB2_42:                                ; %cont19
	.loc	11 0 63                         ; ZN20SipMultiStringHeaderD1Ev.cpp:0:63
	ldr	x8, [x19, #480]                 ; 8-byte Folded Reload
	.loc	11 83 63                        ; ZN20SipMultiStringHeaderD1Ev.cpp:83:63
	add	x8, x8, #40
	str	x8, [x19, #464]                 ; 8-byte Folded Spill
	mov	x9, x8
	str	x9, [x19, #472]                 ; 8-byte Folded Spill
	subs	x8, x8, #0
	cset	w8, eq
	tbnz	w8, #0, LBB2_44
	b	LBB2_43
LBB2_43:                                ; %cont19
	.loc	11 0 63                         ; ZN20SipMultiStringHeaderD1Ev.cpp:0:63
	ldr	x8, [x19, #472]                 ; 8-byte Folded Reload
	.loc	11 83 63                        ; ZN20SipMultiStringHeaderD1Ev.cpp:83:63
	ands	x8, x8, #0x7
	cset	w8, eq
	tbnz	w8, #0, LBB2_45
	b	LBB2_44
LBB2_44:                                ; %handler.type_mismatch20
	.loc	11 0 63                         ; ZN20SipMultiStringHeaderD1Ev.cpp:0:63
	ldr	x1, [x19, #472]                 ; 8-byte Folded Reload
	adrp	x0, l___unnamed_27@PAGE
	add	x0, x0, l___unnamed_27@PAGEOFF
	.loc	11 83 63                        ; ZN20SipMultiStringHeaderD1Ev.cpp:83:63
	bl	___ubsan_handle_type_mismatch_v1
	b	LBB2_45
LBB2_45:                                ; %cont21
	.loc	11 0 63                         ; ZN20SipMultiStringHeaderD1Ev.cpp:0:63
	ldr	x8, [x19, #776]                 ; 8-byte Folded Reload
	ldr	x9, [x19, #464]                 ; 8-byte Folded Reload
	str	x9, [x19, #456]                 ; 8-byte Folded Spill
	.loc	11 83 63                        ; ZN20SipMultiStringHeaderD1Ev.cpp:83:63
	add	x8, x8, x9, lsr #3
	ldrb	w8, [x8]
	subs	w8, w8, #0
	cset	w8, eq
	tbnz	w8, #0, LBB2_47
	b	LBB2_46
LBB2_46:
	.loc	11 0 63                         ; ZN20SipMultiStringHeaderD1Ev.cpp:0:63
	ldr	x0, [x19, #456]                 ; 8-byte Folded Reload
	.loc	11 83 63                        ; ZN20SipMultiStringHeaderD1Ev.cpp:83:63
	bl	___asan_report_load8
	brk	#0x1
LBB2_47:
	.loc	11 0 63                         ; ZN20SipMultiStringHeaderD1Ev.cpp:0:63
	ldr	x8, [x19, #496]                 ; 8-byte Folded Reload
	ldr	x9, [x19, #480]                 ; 8-byte Folded Reload
	.loc	11 83 63                        ; ZN20SipMultiStringHeaderD1Ev.cpp:83:63
	ldr	x10, [x9, #40]
	mov	x9, #0
	.loc	11 83 47                        ; ZN20SipMultiStringHeaderD1Ev.cpp:83:47
	subs	x9, x9, x10
	mov	x11, x8
	subs	x11, x11, x10
	str	x11, [x19, #424]                ; 8-byte Folded Spill
	mov	x11, #1
	smulh	x9, x11, x9
	mneg	x10, x10, x11
	subs	x9, x9, x10, asr #63
	cset	w9, ne
	str	w9, [x19, #436]                 ; 4-byte Folded Spill
	mov	x9, x8
	str	x9, [x19, #440]                 ; 8-byte Folded Spill
	mov	x9, x8
	add	x9, x9, x10
	str	x9, [x19, #448]                 ; 8-byte Folded Spill
	subs	x8, x8, #0
	cset	w8, ne
	subs	x9, x9, #0
	cset	w9, ne
	and	w8, w8, #0x1
	and	w9, w9, #0x1
	subs	w8, w8, w9
	cset	w8, ne
	tbnz	w8, #0, LBB2_51
	b	LBB2_48
LBB2_48:
	.loc	11 0 47                         ; ZN20SipMultiStringHeaderD1Ev.cpp:0:47
	ldr	x8, [x19, #448]                 ; 8-byte Folded Reload
	ldr	x9, [x19, #440]                 ; 8-byte Folded Reload
	.loc	11 83 47                        ; ZN20SipMultiStringHeaderD1Ev.cpp:83:47
	subs	x8, x8, x9
	cset	w8, hi
	tbnz	w8, #0, LBB2_51
	b	LBB2_49
LBB2_49:
	.loc	11 0 47                         ; ZN20SipMultiStringHeaderD1Ev.cpp:0:47
	ldr	w8, [x19, #436]                 ; 4-byte Folded Reload
	mov	w9, #1
	.loc	11 83 47                        ; ZN20SipMultiStringHeaderD1Ev.cpp:83:47
	and	w8, w8, #0x1
	and	w9, w9, #0x1
	subs	w8, w8, w9
	cset	w8, eq
	tbnz	w8, #0, LBB2_51
	b	LBB2_50
LBB2_50:
	.loc	11 0 47                         ; ZN20SipMultiStringHeaderD1Ev.cpp:0:47
	mov	w9, #1
	mov	w8, #0
	.loc	11 83 47                        ; ZN20SipMultiStringHeaderD1Ev.cpp:83:47
	and	w8, w8, #0x1
	and	w9, w9, #0x1
	subs	w8, w8, w9
	cset	w8, ne
	tbnz	w8, #0, LBB2_52
	b	LBB2_51
LBB2_51:                                ; %handler.pointer_overflow23
	.loc	11 0 47                         ; ZN20SipMultiStringHeaderD1Ev.cpp:0:47
	ldr	x2, [x19, #448]                 ; 8-byte Folded Reload
	ldr	x1, [x19, #440]                 ; 8-byte Folded Reload
	adrp	x0, l___unnamed_28@PAGE
	add	x0, x0, l___unnamed_28@PAGEOFF
	.loc	11 83 47                        ; ZN20SipMultiStringHeaderD1Ev.cpp:83:47
	bl	___ubsan_handle_pointer_overflow
	b	LBB2_52
LBB2_52:                                ; %cont24
	.loc	11 0 47                         ; ZN20SipMultiStringHeaderD1Ev.cpp:0:47
	ldr	x8, [x19, #424]                 ; 8-byte Folded Reload
	.loc	11 82 9 is_stmt 1               ; ZN20SipMultiStringHeaderD1Ev.cpp:82:9
	str	x8, [x19, #856]
	.loc	11 85 27                        ; ZN20SipMultiStringHeaderD1Ev.cpp:85:27
	ldr	x8, [x19, #880]
	str	x8, [x19, #408]                 ; 8-byte Folded Spill
	.loc	11 85 41 is_stmt 0              ; ZN20SipMultiStringHeaderD1Ev.cpp:85:41
	mov	x9, x8
	str	x9, [x19, #416]                 ; 8-byte Folded Spill
	subs	x8, x8, #0
	cset	w8, eq
	tbnz	w8, #0, LBB2_54
	b	LBB2_53
LBB2_53:                                ; %cont24
	.loc	11 0 41                         ; ZN20SipMultiStringHeaderD1Ev.cpp:0:41
	ldr	x8, [x19, #416]                 ; 8-byte Folded Reload
	.loc	11 85 41                        ; ZN20SipMultiStringHeaderD1Ev.cpp:85:41
	ands	x8, x8, #0x7
	cset	w8, eq
	tbnz	w8, #0, LBB2_55
	b	LBB2_54
LBB2_54:                                ; %handler.type_mismatch25
	.loc	11 0 41                         ; ZN20SipMultiStringHeaderD1Ev.cpp:0:41
	ldr	x1, [x19, #416]                 ; 8-byte Folded Reload
	adrp	x0, l___unnamed_29@PAGE
	add	x0, x0, l___unnamed_29@PAGEOFF
	.loc	11 85 41                        ; ZN20SipMultiStringHeaderD1Ev.cpp:85:41
	bl	___ubsan_handle_type_mismatch_v1
	b	LBB2_55
LBB2_55:                                ; %cont26
	.loc	11 0 41                         ; ZN20SipMultiStringHeaderD1Ev.cpp:0:41
	ldr	x8, [x19, #408]                 ; 8-byte Folded Reload
	.loc	11 85 41                        ; ZN20SipMultiStringHeaderD1Ev.cpp:85:41
	add	x8, x8, #24
	str	x8, [x19, #392]                 ; 8-byte Folded Spill
	mov	x9, x8
	str	x9, [x19, #400]                 ; 8-byte Folded Spill
	subs	x8, x8, #0
	cset	w8, eq
	tbnz	w8, #0, LBB2_57
	b	LBB2_56
LBB2_56:                                ; %cont26
	.loc	11 0 41                         ; ZN20SipMultiStringHeaderD1Ev.cpp:0:41
	ldr	x8, [x19, #400]                 ; 8-byte Folded Reload
	.loc	11 85 41                        ; ZN20SipMultiStringHeaderD1Ev.cpp:85:41
	ands	x8, x8, #0x7
	cset	w8, eq
	tbnz	w8, #0, LBB2_58
	b	LBB2_57
LBB2_57:                                ; %handler.type_mismatch28
	.loc	11 0 41                         ; ZN20SipMultiStringHeaderD1Ev.cpp:0:41
	ldr	x1, [x19, #400]                 ; 8-byte Folded Reload
	adrp	x0, l___unnamed_30@PAGE
	add	x0, x0, l___unnamed_30@PAGEOFF
	.loc	11 85 41                        ; ZN20SipMultiStringHeaderD1Ev.cpp:85:41
	bl	___ubsan_handle_type_mismatch_v1
	b	LBB2_58
LBB2_58:                                ; %cont29
	.loc	11 0 41                         ; ZN20SipMultiStringHeaderD1Ev.cpp:0:41
	ldr	x8, [x19, #776]                 ; 8-byte Folded Reload
	ldr	x9, [x19, #392]                 ; 8-byte Folded Reload
	str	x9, [x19, #384]                 ; 8-byte Folded Spill
	.loc	11 85 41                        ; ZN20SipMultiStringHeaderD1Ev.cpp:85:41
	add	x8, x8, x9, lsr #3
	ldrb	w8, [x8]
	subs	w8, w8, #0
	cset	w8, eq
	tbnz	w8, #0, LBB2_60
	b	LBB2_59
LBB2_59:
	.loc	11 0 41                         ; ZN20SipMultiStringHeaderD1Ev.cpp:0:41
	ldr	x0, [x19, #384]                 ; 8-byte Folded Reload
	.loc	11 85 41                        ; ZN20SipMultiStringHeaderD1Ev.cpp:85:41
	bl	___asan_report_load8
	brk	#0x1
LBB2_60:
	.loc	11 0 41                         ; ZN20SipMultiStringHeaderD1Ev.cpp:0:41
	ldr	x8, [x19, #408]                 ; 8-byte Folded Reload
	.loc	11 85 41                        ; ZN20SipMultiStringHeaderD1Ev.cpp:85:41
	ldr	x8, [x8, #24]
	.loc	11 85 50                        ; ZN20SipMultiStringHeaderD1Ev.cpp:85:50
	ldr	x9, [x19, #864]
	.loc	11 85 48                        ; ZN20SipMultiStringHeaderD1Ev.cpp:85:48
	add	x8, x8, x9
	str	x8, [x19, #360]                 ; 8-byte Folded Spill
	.loc	11 86 28 is_stmt 1              ; ZN20SipMultiStringHeaderD1Ev.cpp:86:28
	ldr	x8, [x19, #888]
	str	x8, [x19, #368]                 ; 8-byte Folded Spill
	.loc	11 86 40 is_stmt 0              ; ZN20SipMultiStringHeaderD1Ev.cpp:86:40
	mov	x9, x8
	str	x9, [x19, #376]                 ; 8-byte Folded Spill
	subs	x8, x8, #0
	cset	w8, eq
	tbnz	w8, #0, LBB2_62
	b	LBB2_61
LBB2_61:
	.loc	11 0 40                         ; ZN20SipMultiStringHeaderD1Ev.cpp:0:40
	ldr	x8, [x19, #376]                 ; 8-byte Folded Reload
	.loc	11 86 40                        ; ZN20SipMultiStringHeaderD1Ev.cpp:86:40
	ands	x8, x8, #0x3
	cset	w8, eq
	tbnz	w8, #0, LBB2_63
	b	LBB2_62
LBB2_62:                                ; %handler.type_mismatch31
	.loc	11 0 40                         ; ZN20SipMultiStringHeaderD1Ev.cpp:0:40
	ldr	x1, [x19, #376]                 ; 8-byte Folded Reload
	adrp	x0, l___unnamed_31@PAGE
	add	x0, x0, l___unnamed_31@PAGEOFF
	.loc	11 86 40                        ; ZN20SipMultiStringHeaderD1Ev.cpp:86:40
	bl	___ubsan_handle_type_mismatch_v1
	b	LBB2_63
LBB2_63:                                ; %cont32
	.loc	11 0 40                         ; ZN20SipMultiStringHeaderD1Ev.cpp:0:40
	ldr	x8, [x19, #368]                 ; 8-byte Folded Reload
	.loc	11 86 40                        ; ZN20SipMultiStringHeaderD1Ev.cpp:86:40
	add	x8, x8, #8
	str	x8, [x19, #344]                 ; 8-byte Folded Spill
	mov	x9, x8
	str	x9, [x19, #352]                 ; 8-byte Folded Spill
	subs	x8, x8, #0
	cset	w8, eq
	tbnz	w8, #0, LBB2_65
	b	LBB2_64
LBB2_64:                                ; %cont32
	.loc	11 0 40                         ; ZN20SipMultiStringHeaderD1Ev.cpp:0:40
	ldr	x8, [x19, #352]                 ; 8-byte Folded Reload
	.loc	11 86 40                        ; ZN20SipMultiStringHeaderD1Ev.cpp:86:40
	ands	x8, x8, #0x3
	cset	w8, eq
	tbnz	w8, #0, LBB2_66
	b	LBB2_65
LBB2_65:                                ; %handler.type_mismatch33
	.loc	11 0 40                         ; ZN20SipMultiStringHeaderD1Ev.cpp:0:40
	ldr	x1, [x19, #352]                 ; 8-byte Folded Reload
	adrp	x0, l___unnamed_32@PAGE
	add	x0, x0, l___unnamed_32@PAGEOFF
	.loc	11 86 40                        ; ZN20SipMultiStringHeaderD1Ev.cpp:86:40
	bl	___ubsan_handle_type_mismatch_v1
	b	LBB2_66
LBB2_66:                                ; %cont34
	.loc	11 0 40                         ; ZN20SipMultiStringHeaderD1Ev.cpp:0:40
	ldr	x8, [x19, #776]                 ; 8-byte Folded Reload
	ldr	x9, [x19, #344]                 ; 8-byte Folded Reload
	str	x9, [x19, #328]                 ; 8-byte Folded Spill
	.loc	11 86 40                        ; ZN20SipMultiStringHeaderD1Ev.cpp:86:40
	add	x8, x8, x9, lsr #3
	ldrb	w8, [x8]
	str	w8, [x19, #340]                 ; 4-byte Folded Spill
	subs	w8, w8, #0
	cset	w8, eq
	tbnz	w8, #0, LBB2_69
	b	LBB2_67
LBB2_67:
	.loc	11 0 40                         ; ZN20SipMultiStringHeaderD1Ev.cpp:0:40
	ldr	w8, [x19, #340]                 ; 4-byte Folded Reload
	ldr	x9, [x19, #328]                 ; 8-byte Folded Reload
	.loc	11 86 40                        ; ZN20SipMultiStringHeaderD1Ev.cpp:86:40
	and	x9, x9, #0x7
	add	x9, x9, #3
                                        ; kill: def $w9 killed $w9 killed $x9
	sxtb	w8, w8
	subs	w8, w8, w9, sxtb
	cset	w8, gt
	tbnz	w8, #0, LBB2_69
	b	LBB2_68
LBB2_68:
	.loc	11 0 40                         ; ZN20SipMultiStringHeaderD1Ev.cpp:0:40
	ldr	x0, [x19, #328]                 ; 8-byte Folded Reload
	.loc	11 86 40                        ; ZN20SipMultiStringHeaderD1Ev.cpp:86:40
	bl	___asan_report_load4
	brk	#0x1
LBB2_69:
	.loc	11 0 40                         ; ZN20SipMultiStringHeaderD1Ev.cpp:0:40
	ldr	x8, [x19, #360]                 ; 8-byte Folded Reload
	ldr	x9, [x19, #368]                 ; 8-byte Folded Reload
	.loc	11 86 40                        ; ZN20SipMultiStringHeaderD1Ev.cpp:86:40
	ldr	w9, [x9, #8]
                                        ; kill: def $x9 killed $w9
	.loc	11 86 26                        ; ZN20SipMultiStringHeaderD1Ev.cpp:86:26
	add	x8, x8, x9
	str	x8, [x19, #304]                 ; 8-byte Folded Spill
	.loc	11 86 49                        ; ZN20SipMultiStringHeaderD1Ev.cpp:86:49
	ldr	x8, [x19, #880]
	str	x8, [x19, #312]                 ; 8-byte Folded Spill
	.loc	11 86 63                        ; ZN20SipMultiStringHeaderD1Ev.cpp:86:63
	mov	x9, x8
	str	x9, [x19, #320]                 ; 8-byte Folded Spill
	subs	x8, x8, #0
	cset	w8, eq
	tbnz	w8, #0, LBB2_71
	b	LBB2_70
LBB2_70:
	.loc	11 0 63                         ; ZN20SipMultiStringHeaderD1Ev.cpp:0:63
	ldr	x8, [x19, #320]                 ; 8-byte Folded Reload
	.loc	11 86 63                        ; ZN20SipMultiStringHeaderD1Ev.cpp:86:63
	ands	x8, x8, #0x7
	cset	w8, eq
	tbnz	w8, #0, LBB2_72
	b	LBB2_71
LBB2_71:                                ; %handler.type_mismatch36
	.loc	11 0 63                         ; ZN20SipMultiStringHeaderD1Ev.cpp:0:63
	ldr	x1, [x19, #320]                 ; 8-byte Folded Reload
	adrp	x0, l___unnamed_33@PAGE
	add	x0, x0, l___unnamed_33@PAGEOFF
	.loc	11 86 63                        ; ZN20SipMultiStringHeaderD1Ev.cpp:86:63
	bl	___ubsan_handle_type_mismatch_v1
	b	LBB2_72
LBB2_72:                                ; %cont37
	.loc	11 0 63                         ; ZN20SipMultiStringHeaderD1Ev.cpp:0:63
	ldr	x8, [x19, #312]                 ; 8-byte Folded Reload
	.loc	11 86 63                        ; ZN20SipMultiStringHeaderD1Ev.cpp:86:63
	add	x8, x8, #40
	str	x8, [x19, #288]                 ; 8-byte Folded Spill
	mov	x9, x8
	str	x9, [x19, #296]                 ; 8-byte Folded Spill
	subs	x8, x8, #0
	cset	w8, eq
	tbnz	w8, #0, LBB2_74
	b	LBB2_73
LBB2_73:                                ; %cont37
	.loc	11 0 63                         ; ZN20SipMultiStringHeaderD1Ev.cpp:0:63
	ldr	x8, [x19, #296]                 ; 8-byte Folded Reload
	.loc	11 86 63                        ; ZN20SipMultiStringHeaderD1Ev.cpp:86:63
	ands	x8, x8, #0x7
	cset	w8, eq
	tbnz	w8, #0, LBB2_75
	b	LBB2_74
LBB2_74:                                ; %handler.type_mismatch39
	.loc	11 0 63                         ; ZN20SipMultiStringHeaderD1Ev.cpp:0:63
	ldr	x1, [x19, #296]                 ; 8-byte Folded Reload
	adrp	x0, l___unnamed_34@PAGE
	add	x0, x0, l___unnamed_34@PAGEOFF
	.loc	11 86 63                        ; ZN20SipMultiStringHeaderD1Ev.cpp:86:63
	bl	___ubsan_handle_type_mismatch_v1
	b	LBB2_75
LBB2_75:                                ; %cont40
	.loc	11 0 63                         ; ZN20SipMultiStringHeaderD1Ev.cpp:0:63
	ldr	x8, [x19, #776]                 ; 8-byte Folded Reload
	ldr	x9, [x19, #288]                 ; 8-byte Folded Reload
	str	x9, [x19, #280]                 ; 8-byte Folded Spill
	.loc	11 86 63                        ; ZN20SipMultiStringHeaderD1Ev.cpp:86:63
	add	x8, x8, x9, lsr #3
	ldrb	w8, [x8]
	subs	w8, w8, #0
	cset	w8, eq
	tbnz	w8, #0, LBB2_77
	b	LBB2_76
LBB2_76:
	.loc	11 0 63                         ; ZN20SipMultiStringHeaderD1Ev.cpp:0:63
	ldr	x0, [x19, #280]                 ; 8-byte Folded Reload
	.loc	11 86 63                        ; ZN20SipMultiStringHeaderD1Ev.cpp:86:63
	bl	___asan_report_load8
	brk	#0x1
LBB2_77:
	.loc	11 0 63                         ; ZN20SipMultiStringHeaderD1Ev.cpp:0:63
	ldr	x8, [x19, #304]                 ; 8-byte Folded Reload
	ldr	x9, [x19, #312]                 ; 8-byte Folded Reload
	.loc	11 86 63                        ; ZN20SipMultiStringHeaderD1Ev.cpp:86:63
	ldr	x9, [x9, #40]
	.loc	11 86 47                        ; ZN20SipMultiStringHeaderD1Ev.cpp:86:47
	subs	x8, x8, x9
	.loc	11 85 9 is_stmt 1               ; ZN20SipMultiStringHeaderD1Ev.cpp:85:9
	str	x8, [x19, #848]
                                        ; kill: def $x8 killed $xzr
	.loc	11 88 9                         ; ZN20SipMultiStringHeaderD1Ev.cpp:88:9
	str	xzr, [x19, #840]
	.loc	11 90 40                        ; ZN20SipMultiStringHeaderD1Ev.cpp:90:40
	ldr	x8, [x19, #848]
	.loc	11 90 10 is_stmt 0              ; ZN20SipMultiStringHeaderD1Ev.cpp:90:10
	str	x8, [x19, #832]
Ltmp39:
	.loc	11 91 12 is_stmt 1              ; ZN20SipMultiStringHeaderD1Ev.cpp:91:12
	str	wzr, [x19, #828]
	.loc	11 91 8 is_stmt 0               ; ZN20SipMultiStringHeaderD1Ev.cpp:91:8
	b	LBB2_78
LBB2_78:                                ; %for.cond
                                        ; =>This Inner Loop Header: Depth=1
Ltmp40:
	.loc	11 91 19                        ; ZN20SipMultiStringHeaderD1Ev.cpp:91:19
	ldr	w8, [x19, #828]
	str	w8, [x19, #260]                 ; 4-byte Folded Spill
	.loc	11 91 23                        ; ZN20SipMultiStringHeaderD1Ev.cpp:91:23
	ldr	x8, [x19, #888]
	str	x8, [x19, #264]                 ; 8-byte Folded Spill
	.loc	11 91 35                        ; ZN20SipMultiStringHeaderD1Ev.cpp:91:35
	mov	x9, x8
	str	x9, [x19, #272]                 ; 8-byte Folded Spill
	subs	x8, x8, #0
	cset	w8, eq
	tbnz	w8, #0, LBB2_80
	b	LBB2_79
LBB2_79:                                ; %for.cond
                                        ;   in Loop: Header=BB2_78 Depth=1
	.loc	11 0 35                         ; ZN20SipMultiStringHeaderD1Ev.cpp:0:35
	ldr	x8, [x19, #272]                 ; 8-byte Folded Reload
	.loc	11 91 35                        ; ZN20SipMultiStringHeaderD1Ev.cpp:91:35
	ands	x8, x8, #0x3
	cset	w8, eq
	tbnz	w8, #0, LBB2_81
	b	LBB2_80
LBB2_80:                                ; %handler.type_mismatch42
                                        ;   in Loop: Header=BB2_78 Depth=1
	.loc	11 0 35                         ; ZN20SipMultiStringHeaderD1Ev.cpp:0:35
	ldr	x1, [x19, #272]                 ; 8-byte Folded Reload
	adrp	x0, l___unnamed_35@PAGE
	add	x0, x0, l___unnamed_35@PAGEOFF
	.loc	11 91 35                        ; ZN20SipMultiStringHeaderD1Ev.cpp:91:35
	bl	___ubsan_handle_type_mismatch_v1
	b	LBB2_81
LBB2_81:                                ; %cont43
                                        ;   in Loop: Header=BB2_78 Depth=1
	.loc	11 0 35                         ; ZN20SipMultiStringHeaderD1Ev.cpp:0:35
	ldr	x8, [x19, #264]                 ; 8-byte Folded Reload
	.loc	11 91 35                        ; ZN20SipMultiStringHeaderD1Ev.cpp:91:35
	add	x8, x8, #12
	str	x8, [x19, #240]                 ; 8-byte Folded Spill
	mov	x9, x8
	str	x9, [x19, #248]                 ; 8-byte Folded Spill
	subs	x8, x8, #0
	cset	w8, eq
	tbnz	w8, #0, LBB2_83
	b	LBB2_82
LBB2_82:                                ; %cont43
                                        ;   in Loop: Header=BB2_78 Depth=1
	.loc	11 0 35                         ; ZN20SipMultiStringHeaderD1Ev.cpp:0:35
	ldr	x8, [x19, #248]                 ; 8-byte Folded Reload
	.loc	11 91 35                        ; ZN20SipMultiStringHeaderD1Ev.cpp:91:35
	ands	x8, x8, #0x3
	cset	w8, eq
	tbnz	w8, #0, LBB2_84
	b	LBB2_83
LBB2_83:                                ; %handler.type_mismatch44
                                        ;   in Loop: Header=BB2_78 Depth=1
	.loc	11 0 35                         ; ZN20SipMultiStringHeaderD1Ev.cpp:0:35
	ldr	x1, [x19, #248]                 ; 8-byte Folded Reload
	adrp	x0, l___unnamed_36@PAGE
	add	x0, x0, l___unnamed_36@PAGEOFF
	.loc	11 91 35                        ; ZN20SipMultiStringHeaderD1Ev.cpp:91:35
	bl	___ubsan_handle_type_mismatch_v1
	b	LBB2_84
LBB2_84:                                ; %cont45
                                        ;   in Loop: Header=BB2_78 Depth=1
	.loc	11 0 35                         ; ZN20SipMultiStringHeaderD1Ev.cpp:0:35
	ldr	x8, [x19, #776]                 ; 8-byte Folded Reload
	ldr	x9, [x19, #240]                 ; 8-byte Folded Reload
	str	x9, [x19, #224]                 ; 8-byte Folded Spill
	.loc	11 91 35                        ; ZN20SipMultiStringHeaderD1Ev.cpp:91:35
	add	x8, x8, x9, lsr #3
	ldrb	w8, [x8]
	str	w8, [x19, #236]                 ; 4-byte Folded Spill
	subs	w8, w8, #0
	cset	w8, eq
	tbnz	w8, #0, LBB2_87
	b	LBB2_85
LBB2_85:                                ;   in Loop: Header=BB2_78 Depth=1
	.loc	11 0 35                         ; ZN20SipMultiStringHeaderD1Ev.cpp:0:35
	ldr	w8, [x19, #236]                 ; 4-byte Folded Reload
	ldr	x9, [x19, #224]                 ; 8-byte Folded Reload
	.loc	11 91 35                        ; ZN20SipMultiStringHeaderD1Ev.cpp:91:35
	and	x9, x9, #0x7
	add	x9, x9, #3
                                        ; kill: def $w9 killed $w9 killed $x9
	sxtb	w8, w8
	subs	w8, w8, w9, sxtb
	cset	w8, gt
	tbnz	w8, #0, LBB2_87
	b	LBB2_86
LBB2_86:
	.loc	11 0 35                         ; ZN20SipMultiStringHeaderD1Ev.cpp:0:35
	ldr	x0, [x19, #224]                 ; 8-byte Folded Reload
	.loc	11 91 35                        ; ZN20SipMultiStringHeaderD1Ev.cpp:91:35
	bl	___asan_report_load4
	brk	#0x1
LBB2_87:                                ;   in Loop: Header=BB2_78 Depth=1
	.loc	11 0 35                         ; ZN20SipMultiStringHeaderD1Ev.cpp:0:35
	ldr	w8, [x19, #260]                 ; 4-byte Folded Reload
	ldr	x9, [x19, #264]                 ; 8-byte Folded Reload
	.loc	11 91 35                        ; ZN20SipMultiStringHeaderD1Ev.cpp:91:35
	ldr	w9, [x9, #12]
	.loc	11 91 21                        ; ZN20SipMultiStringHeaderD1Ev.cpp:91:21
	subs	w8, w8, w9
	cset	w8, lo
Ltmp41:
	.loc	11 91 3                         ; ZN20SipMultiStringHeaderD1Ev.cpp:91:3
	tbnz	w8, #0, LBB2_89
	b	LBB2_88
LBB2_88:                                ; %for.cond.cleanup
	.loc	11 0 3                          ; ZN20SipMultiStringHeaderD1Ev.cpp:0:3
	mov	w8, #2
	str	w8, [x19, #824]
	.loc	11 91 3                         ; ZN20SipMultiStringHeaderD1Ev.cpp:91:3
	b	LBB2_129
LBB2_89:                                ; %for.body
                                        ;   in Loop: Header=BB2_78 Depth=1
	.loc	11 0 3                          ; ZN20SipMultiStringHeaderD1Ev.cpp:0:3
	ldr	x0, [x19, #672]                 ; 8-byte Folded Reload
	ldr	x8, [x19, #696]                 ; 8-byte Folded Reload
Ltmp42:
	.loc	11 92 5 is_stmt 1               ; ZN20SipMultiStringHeaderD1Ev.cpp:92:5
	add	x8, x8, #4
	strh	wzr, [x8]
	.loc	11 92 40 is_stmt 0              ; ZN20SipMultiStringHeaderD1Ev.cpp:92:40
	ldr	x1, [x19, #832]
	mov	x2, #16
	.loc	11 92 28                        ; ZN20SipMultiStringHeaderD1Ev.cpp:92:28
	bl	___asan_memcpy
	ldr	x8, [x19, #672]                 ; 8-byte Folded Reload
Ltmp43:
	.loc	11 93 22 is_stmt 1              ; ZN20SipMultiStringHeaderD1Ev.cpp:93:22
	add	x8, x8, #4
	str	x8, [x19, #208]                 ; 8-byte Folded Spill
	str	x8, [x19, #216]                 ; 8-byte Folded Spill
	ands	x8, x8, #0x3
	cset	w8, eq
	tbnz	w8, #0, LBB2_91
	b	LBB2_90
LBB2_90:                                ; %handler.type_mismatch46
                                        ;   in Loop: Header=BB2_78 Depth=1
	.loc	11 0 22 is_stmt 0               ; ZN20SipMultiStringHeaderD1Ev.cpp:0:22
	ldr	x1, [x19, #216]                 ; 8-byte Folded Reload
	adrp	x0, l___unnamed_37@PAGE
	add	x0, x0, l___unnamed_37@PAGEOFF
	.loc	11 93 22                        ; ZN20SipMultiStringHeaderD1Ev.cpp:93:22
	bl	___ubsan_handle_type_mismatch_v1
	b	LBB2_91
LBB2_91:                                ; %cont47
                                        ;   in Loop: Header=BB2_78 Depth=1
	.loc	11 0 22                         ; ZN20SipMultiStringHeaderD1Ev.cpp:0:22
	ldr	x8, [x19, #776]                 ; 8-byte Folded Reload
	ldr	x9, [x19, #208]                 ; 8-byte Folded Reload
	str	x9, [x19, #192]                 ; 8-byte Folded Spill
	.loc	11 93 22                        ; ZN20SipMultiStringHeaderD1Ev.cpp:93:22
	add	x8, x8, x9, lsr #3
	ldrb	w8, [x8]
	str	w8, [x19, #204]                 ; 4-byte Folded Spill
	subs	w8, w8, #0
	cset	w8, eq
	tbnz	w8, #0, LBB2_94
	b	LBB2_92
LBB2_92:                                ;   in Loop: Header=BB2_78 Depth=1
	.loc	11 0 22                         ; ZN20SipMultiStringHeaderD1Ev.cpp:0:22
	ldr	w8, [x19, #204]                 ; 4-byte Folded Reload
	ldr	x9, [x19, #192]                 ; 8-byte Folded Reload
	.loc	11 93 22                        ; ZN20SipMultiStringHeaderD1Ev.cpp:93:22
	and	x9, x9, #0x7
                                        ; kill: def $w9 killed $w9 killed $x9
	sxtb	w8, w8
	subs	w8, w8, w9, sxtb
	cset	w8, gt
	tbnz	w8, #0, LBB2_94
	b	LBB2_93
LBB2_93:
	.loc	11 0 22                         ; ZN20SipMultiStringHeaderD1Ev.cpp:0:22
	ldr	x0, [x19, #192]                 ; 8-byte Folded Reload
	.loc	11 93 22                        ; ZN20SipMultiStringHeaderD1Ev.cpp:93:22
	bl	___asan_report_load1
	brk	#0x1
LBB2_94:                                ;   in Loop: Header=BB2_78 Depth=1
	.loc	11 0 22                         ; ZN20SipMultiStringHeaderD1Ev.cpp:0:22
	ldr	x8, [x19, #672]                 ; 8-byte Folded Reload
	.loc	11 93 22                        ; ZN20SipMultiStringHeaderD1Ev.cpp:93:22
	ldrb	w8, [x8, #4]
	.loc	11 93 29                        ; ZN20SipMultiStringHeaderD1Ev.cpp:93:29
	and	w8, w8, #0xe
	.loc	11 93 39                        ; ZN20SipMultiStringHeaderD1Ev.cpp:93:39
	subs	w8, w8, #14
	cset	w8, ne
Ltmp44:
	.loc	11 93 9                         ; ZN20SipMultiStringHeaderD1Ev.cpp:93:9
	tbnz	w8, #0, LBB2_123
	b	LBB2_95
LBB2_95:                                ; %if.then
                                        ;   in Loop: Header=BB2_78 Depth=1
	.loc	11 0 9                          ; ZN20SipMultiStringHeaderD1Ev.cpp:0:9
	ldr	x0, [x19, #680]                 ; 8-byte Folded Reload
	ldr	x8, [x19, #696]                 ; 8-byte Folded Reload
                                        ; kill: def $x9 killed $xzr
Ltmp45:
	.loc	11 94 13 is_stmt 1              ; ZN20SipMultiStringHeaderD1Ev.cpp:94:13
	str	xzr, [x19, #816]
	.loc	11 95 7                         ; ZN20SipMultiStringHeaderD1Ev.cpp:95:7
	add	x9, x8, #8
	strh	wzr, [x9]
	add	x8, x8, #10
	strb	wzr, [x8]
	.loc	11 95 19 is_stmt 0              ; ZN20SipMultiStringHeaderD1Ev.cpp:95:19
	bl	__ZNSt3__112basic_stringIcNS_11char_traitsIcEENS_9allocatorIcEEEC1B6v15006Ev
	ldr	x9, [x19, #672]                 ; 8-byte Folded Reload
	ldr	x8, [x19, #776]                 ; 8-byte Folded Reload
	.loc	11 96 23 is_stmt 1              ; ZN20SipMultiStringHeaderD1Ev.cpp:96:23
	ldr	x10, [x19, #856]
	str	x10, [x19, #168]                ; 8-byte Folded Spill
	str	x9, [x19, #176]                 ; 8-byte Folded Spill
	.loc	11 96 49 is_stmt 0              ; ZN20SipMultiStringHeaderD1Ev.cpp:96:49
	add	x8, x8, x9, lsr #3
	ldrb	w8, [x8]
	str	w8, [x19, #188]                 ; 4-byte Folded Spill
	subs	w8, w8, #0
	cset	w8, eq
	tbnz	w8, #0, LBB2_98
	b	LBB2_96
LBB2_96:                                ;   in Loop: Header=BB2_78 Depth=1
	.loc	11 0 49                         ; ZN20SipMultiStringHeaderD1Ev.cpp:0:49
	ldr	w8, [x19, #188]                 ; 4-byte Folded Reload
	ldr	x9, [x19, #176]                 ; 8-byte Folded Reload
	.loc	11 96 49                        ; ZN20SipMultiStringHeaderD1Ev.cpp:96:49
	and	x9, x9, #0x7
	add	x9, x9, #3
                                        ; kill: def $w9 killed $w9 killed $x9
	sxtb	w8, w8
	subs	w8, w8, w9, sxtb
	cset	w8, gt
	tbnz	w8, #0, LBB2_98
	b	LBB2_97
LBB2_97:
	.loc	11 0 49                         ; ZN20SipMultiStringHeaderD1Ev.cpp:0:49
	ldr	x0, [x19, #176]                 ; 8-byte Folded Reload
	.loc	11 96 49                        ; ZN20SipMultiStringHeaderD1Ev.cpp:96:49
	bl	___asan_report_load4
	brk	#0x1
LBB2_98:                                ;   in Loop: Header=BB2_78 Depth=1
	.loc	11 0 49                         ; ZN20SipMultiStringHeaderD1Ev.cpp:0:49
	ldr	x8, [x19, #168]                 ; 8-byte Folded Reload
	ldr	x9, [x19, #672]                 ; 8-byte Folded Reload
	.loc	11 96 49                        ; ZN20SipMultiStringHeaderD1Ev.cpp:96:49
	ldr	w9, [x9]
	mov	x11, x9
	.loc	11 96 30                        ; ZN20SipMultiStringHeaderD1Ev.cpp:96:30
	mov	x9, x8
	add	x9, x9, x11
	str	x9, [x19, #136]                 ; 8-byte Folded Spill
	mov	x10, #1
	smulh	x9, x10, x11
	mul	x10, x10, x11
	subs	x9, x9, x10, asr #63
	cset	w9, ne
	str	w9, [x19, #148]                 ; 4-byte Folded Spill
	mov	x9, x8
	str	x9, [x19, #152]                 ; 8-byte Folded Spill
	mov	x9, x8
	add	x9, x9, x10
	str	x9, [x19, #160]                 ; 8-byte Folded Spill
	subs	x8, x8, #0
	cset	w8, ne
	subs	x9, x9, #0
	cset	w9, ne
	and	w8, w8, #0x1
	and	w9, w9, #0x1
	subs	w8, w8, w9
	cset	w8, ne
	tbnz	w8, #0, LBB2_102
	b	LBB2_99
LBB2_99:                                ;   in Loop: Header=BB2_78 Depth=1
	.loc	11 0 30                         ; ZN20SipMultiStringHeaderD1Ev.cpp:0:30
	ldr	x8, [x19, #160]                 ; 8-byte Folded Reload
	ldr	x9, [x19, #152]                 ; 8-byte Folded Reload
	.loc	11 96 30                        ; ZN20SipMultiStringHeaderD1Ev.cpp:96:30
	subs	x8, x8, x9
	cset	w8, lo
	tbnz	w8, #0, LBB2_102
	b	LBB2_100
LBB2_100:                               ;   in Loop: Header=BB2_78 Depth=1
	.loc	11 0 30                         ; ZN20SipMultiStringHeaderD1Ev.cpp:0:30
	ldr	w8, [x19, #148]                 ; 4-byte Folded Reload
	mov	w9, #1
	.loc	11 96 30                        ; ZN20SipMultiStringHeaderD1Ev.cpp:96:30
	and	w8, w8, #0x1
	and	w9, w9, #0x1
	subs	w8, w8, w9
	cset	w8, eq
	tbnz	w8, #0, LBB2_102
	b	LBB2_101
LBB2_101:                               ;   in Loop: Header=BB2_78 Depth=1
	.loc	11 0 30                         ; ZN20SipMultiStringHeaderD1Ev.cpp:0:30
	mov	w9, #1
	mov	w8, #0
	.loc	11 96 30                        ; ZN20SipMultiStringHeaderD1Ev.cpp:96:30
	and	w8, w8, #0x1
	and	w9, w9, #0x1
	subs	w8, w8, w9
	cset	w8, ne
	tbnz	w8, #0, LBB2_103
	b	LBB2_102
LBB2_102:                               ; %handler.pointer_overflow53
                                        ;   in Loop: Header=BB2_78 Depth=1
	.loc	11 0 30                         ; ZN20SipMultiStringHeaderD1Ev.cpp:0:30
	ldr	x2, [x19, #160]                 ; 8-byte Folded Reload
	ldr	x1, [x19, #152]                 ; 8-byte Folded Reload
	adrp	x0, l___unnamed_38@PAGE
	add	x0, x0, l___unnamed_38@PAGEOFF
	.loc	11 96 30                        ; ZN20SipMultiStringHeaderD1Ev.cpp:96:30
	bl	___ubsan_handle_pointer_overflow
	b	LBB2_103
LBB2_103:                               ; %cont54
                                        ;   in Loop: Header=BB2_78 Depth=1
	.loc	11 0 30                         ; ZN20SipMultiStringHeaderD1Ev.cpp:0:30
	ldr	x8, [x19, #136]                 ; 8-byte Folded Reload
	.loc	11 96 21                        ; ZN20SipMultiStringHeaderD1Ev.cpp:96:21
	str	x8, [x19, #816]
Ltmp46:
	.loc	11 99 19 is_stmt 1              ; ZN20SipMultiStringHeaderD1Ev.cpp:99:19
	ldr	x0, [x19, #816]
	.loc	11 99 34 is_stmt 0              ; ZN20SipMultiStringHeaderD1Ev.cpp:99:34
	ldr	x1, [x19, #912]
Ltmp32:
	.loc	11 99 12                        ; ZN20SipMultiStringHeaderD1Ev.cpp:99:12
	bl	_strcmp
	str	w0, [x19, #132]                 ; 4-byte Folded Spill
Ltmp33:
	b	LBB2_104
LBB2_104:                               ; %invoke.cont
                                        ;   in Loop: Header=BB2_78 Depth=1
	.loc	11 0 12                         ; ZN20SipMultiStringHeaderD1Ev.cpp:0:12
	ldr	w8, [x19, #132]                 ; 4-byte Folded Reload
	.loc	11 99 12                        ; ZN20SipMultiStringHeaderD1Ev.cpp:99:12
	subs	w8, w8, #0
	cset	w8, ne
Ltmp47:
	.loc	11 99 11                        ; ZN20SipMultiStringHeaderD1Ev.cpp:99:11
	tbnz	w8, #0, LBB2_119
	b	LBB2_105
LBB2_105:                               ; %if.then56
                                        ;   in Loop: Header=BB2_78 Depth=1
Ltmp48:
	.loc	11 100 44 is_stmt 1             ; ZN20SipMultiStringHeaderD1Ev.cpp:100:44
	ldr	x8, [x19, #920]
	str	x8, [x19, #104]                 ; 8-byte Folded Spill
	.loc	11 100 59 is_stmt 0             ; ZN20SipMultiStringHeaderD1Ev.cpp:100:59
	ldr	x8, [x19, #872]
	str	x8, [x19, #112]                 ; 8-byte Folded Spill
	.loc	11 100 69                       ; ZN20SipMultiStringHeaderD1Ev.cpp:100:69
	mov	x9, x8
	str	x9, [x19, #120]                 ; 8-byte Folded Spill
	subs	x8, x8, #0
	cset	w8, eq
	tbnz	w8, #0, LBB2_107
	b	LBB2_106
LBB2_106:                               ; %if.then56
                                        ;   in Loop: Header=BB2_78 Depth=1
	.loc	11 0 69                         ; ZN20SipMultiStringHeaderD1Ev.cpp:0:69
	ldr	x8, [x19, #120]                 ; 8-byte Folded Reload
	.loc	11 100 69                       ; ZN20SipMultiStringHeaderD1Ev.cpp:100:69
	ands	x8, x8, #0x7
	cset	w8, eq
	tbnz	w8, #0, LBB2_108
	b	LBB2_107
LBB2_107:                               ; %handler.type_mismatch57
                                        ;   in Loop: Header=BB2_78 Depth=1
	.loc	11 0 69                         ; ZN20SipMultiStringHeaderD1Ev.cpp:0:69
	ldr	x1, [x19, #120]                 ; 8-byte Folded Reload
	adrp	x0, l___unnamed_39@PAGE
	add	x0, x0, l___unnamed_39@PAGEOFF
	.loc	11 100 69                       ; ZN20SipMultiStringHeaderD1Ev.cpp:100:69
	bl	___ubsan_handle_type_mismatch_v1
	b	LBB2_108
LBB2_108:                               ; %cont58
                                        ;   in Loop: Header=BB2_78 Depth=1
	.loc	11 0 69                         ; ZN20SipMultiStringHeaderD1Ev.cpp:0:69
	ldr	x8, [x19, #112]                 ; 8-byte Folded Reload
	.loc	11 100 69                       ; ZN20SipMultiStringHeaderD1Ev.cpp:100:69
	add	x8, x8, #24
	str	x8, [x19, #88]                  ; 8-byte Folded Spill
	mov	x9, x8
	str	x9, [x19, #96]                  ; 8-byte Folded Spill
	subs	x8, x8, #0
	cset	w8, eq
	tbnz	w8, #0, LBB2_110
	b	LBB2_109
LBB2_109:                               ; %cont58
                                        ;   in Loop: Header=BB2_78 Depth=1
	.loc	11 0 69                         ; ZN20SipMultiStringHeaderD1Ev.cpp:0:69
	ldr	x8, [x19, #96]                  ; 8-byte Folded Reload
	.loc	11 100 69                       ; ZN20SipMultiStringHeaderD1Ev.cpp:100:69
	ands	x8, x8, #0x7
	cset	w8, eq
	tbnz	w8, #0, LBB2_111
	b	LBB2_110
LBB2_110:                               ; %handler.type_mismatch60
                                        ;   in Loop: Header=BB2_78 Depth=1
	.loc	11 0 69                         ; ZN20SipMultiStringHeaderD1Ev.cpp:0:69
	ldr	x1, [x19, #96]                  ; 8-byte Folded Reload
	adrp	x0, l___unnamed_40@PAGE
	add	x0, x0, l___unnamed_40@PAGEOFF
	.loc	11 100 69                       ; ZN20SipMultiStringHeaderD1Ev.cpp:100:69
	bl	___ubsan_handle_type_mismatch_v1
	b	LBB2_111
LBB2_111:                               ; %cont61
                                        ;   in Loop: Header=BB2_78 Depth=1
	.loc	11 0 69                         ; ZN20SipMultiStringHeaderD1Ev.cpp:0:69
	ldr	x8, [x19, #776]                 ; 8-byte Folded Reload
	ldr	x9, [x19, #88]                  ; 8-byte Folded Reload
	str	x9, [x19, #80]                  ; 8-byte Folded Spill
	.loc	11 100 69                       ; ZN20SipMultiStringHeaderD1Ev.cpp:100:69
	add	x8, x8, x9, lsr #3
	ldrb	w8, [x8]
	subs	w8, w8, #0
	cset	w8, eq
	tbnz	w8, #0, LBB2_113
	b	LBB2_112
LBB2_112:
	.loc	11 0 69                         ; ZN20SipMultiStringHeaderD1Ev.cpp:0:69
	ldr	x0, [x19, #80]                  ; 8-byte Folded Reload
	.loc	11 100 69                       ; ZN20SipMultiStringHeaderD1Ev.cpp:100:69
	bl	___asan_report_load8
	brk	#0x1
LBB2_113:                               ;   in Loop: Header=BB2_78 Depth=1
	.loc	11 0 69                         ; ZN20SipMultiStringHeaderD1Ev.cpp:0:69
	ldr	x8, [x19, #672]                 ; 8-byte Folded Reload
	ldr	x9, [x19, #104]                 ; 8-byte Folded Reload
	ldr	x10, [x19, #112]                ; 8-byte Folded Reload
	.loc	11 100 69                       ; ZN20SipMultiStringHeaderD1Ev.cpp:100:69
	ldr	x10, [x10, #24]
	.loc	11 100 57                       ; ZN20SipMultiStringHeaderD1Ev.cpp:100:57
	subs	x9, x9, x10
	str	x9, [x19, #56]                  ; 8-byte Folded Spill
	.loc	11 100 90                       ; ZN20SipMultiStringHeaderD1Ev.cpp:100:90
	add	x8, x8, #8
	str	x8, [x19, #64]                  ; 8-byte Folded Spill
	str	x8, [x19, #72]                  ; 8-byte Folded Spill
	ands	x8, x8, #0x7
	cset	w8, eq
	tbnz	w8, #0, LBB2_115
	b	LBB2_114
LBB2_114:                               ; %handler.type_mismatch63
                                        ;   in Loop: Header=BB2_78 Depth=1
	.loc	11 0 90                         ; ZN20SipMultiStringHeaderD1Ev.cpp:0:90
	ldr	x1, [x19, #72]                  ; 8-byte Folded Reload
	adrp	x0, l___unnamed_41@PAGE
	add	x0, x0, l___unnamed_41@PAGEOFF
	.loc	11 100 90                       ; ZN20SipMultiStringHeaderD1Ev.cpp:100:90
	bl	___ubsan_handle_type_mismatch_v1
	b	LBB2_115
LBB2_115:                               ; %cont64
                                        ;   in Loop: Header=BB2_78 Depth=1
	.loc	11 0 90                         ; ZN20SipMultiStringHeaderD1Ev.cpp:0:90
	ldr	x8, [x19, #776]                 ; 8-byte Folded Reload
	ldr	x9, [x19, #64]                  ; 8-byte Folded Reload
	str	x9, [x19, #48]                  ; 8-byte Folded Spill
	.loc	11 100 90                       ; ZN20SipMultiStringHeaderD1Ev.cpp:100:90
	add	x8, x8, x9, lsr #3
	ldrb	w8, [x8]
	subs	w8, w8, #0
	cset	w8, eq
	tbnz	w8, #0, LBB2_117
	b	LBB2_116
LBB2_116:
	.loc	11 0 90                         ; ZN20SipMultiStringHeaderD1Ev.cpp:0:90
	ldr	x0, [x19, #48]                  ; 8-byte Folded Reload
	.loc	11 100 90                       ; ZN20SipMultiStringHeaderD1Ev.cpp:100:90
	bl	___asan_report_load8
	brk	#0x1
LBB2_117:                               ;   in Loop: Header=BB2_78 Depth=1
	.loc	11 0 90                         ; ZN20SipMultiStringHeaderD1Ev.cpp:0:90
	ldr	x8, [x19, #56]                  ; 8-byte Folded Reload
	ldr	x9, [x19, #672]                 ; 8-byte Folded Reload
	.loc	11 100 90                       ; ZN20SipMultiStringHeaderD1Ev.cpp:100:90
	ldr	x9, [x9, #8]
	.loc	11 100 76                       ; ZN20SipMultiStringHeaderD1Ev.cpp:100:76
	add	x8, x8, x9
	.loc	11 100 24                       ; ZN20SipMultiStringHeaderD1Ev.cpp:100:24
	str	x8, [x19, #840]
	mov	w8, #2
	str	w8, [x19, #824]
	.loc	11 101 9 is_stmt 1              ; ZN20SipMultiStringHeaderD1Ev.cpp:101:9
	b	LBB2_120
Ltmp49:
LBB2_118:                               ; %lpad
Ltmp34:
	.loc	11 109 1                        ; ZN20SipMultiStringHeaderD1Ev.cpp:109:1
	mov	x9, x0
	ldr	x0, [x19, #680]                 ; 8-byte Folded Reload
	mov	x8, x1
	str	x9, [x19, #808]
	str	w8, [x19, #804]
Ltmp50:
Ltmp35:
	.loc	11 103 5                        ; ZN20SipMultiStringHeaderD1Ev.cpp:103:5
	bl	__ZNSt3__112basic_stringIcNS_11char_traitsIcEENS_9allocatorIcEEED1Ev
Ltmp36:
	b	LBB2_122
LBB2_119:                               ; %if.end
                                        ;   in Loop: Header=BB2_78 Depth=1
	str	wzr, [x19, #824]
	b	LBB2_120
LBB2_120:                               ; %cleanup
                                        ;   in Loop: Header=BB2_78 Depth=1
	.loc	11 0 5 is_stmt 0                ; ZN20SipMultiStringHeaderD1Ev.cpp:0:5
	ldr	x0, [x19, #680]                 ; 8-byte Folded Reload
	.loc	11 103 5                        ; ZN20SipMultiStringHeaderD1Ev.cpp:103:5
	bl	__ZNSt3__112basic_stringIcNS_11char_traitsIcEENS_9allocatorIcEEED1Ev
	ldr	x8, [x19, #696]                 ; 8-byte Folded Reload
	add	x10, x8, #8
	mov	w9, #63736
	strh	w9, [x10]
	add	x9, x8, #10
	mov	w8, #248
	strb	w8, [x9]
	ldr	w8, [x19, #824]
	subs	w8, w8, #0
	cset	w8, ne
	tbnz	w8, #0, LBB2_124
	b	LBB2_121
LBB2_121:                               ; %cleanup.cont
                                        ;   in Loop: Header=BB2_78 Depth=1
Ltmp51:
	.loc	11 103 5                        ; ZN20SipMultiStringHeaderD1Ev.cpp:103:5
	b	LBB2_123
Ltmp52:
LBB2_122:                               ; %invoke.cont67
	.loc	11 0 5                          ; ZN20SipMultiStringHeaderD1Ev.cpp:0:5
	ldr	x9, [x19, #696]                 ; 8-byte Folded Reload
	.loc	11 103 5                        ; ZN20SipMultiStringHeaderD1Ev.cpp:103:5
	add	x10, x9, #8
	mov	w8, #63736
	strh	w8, [x10]
	add	x11, x9, #10
	mov	w10, #248
	strb	w10, [x11]
Ltmp53:
	.loc	11 106 3 is_stmt 1              ; ZN20SipMultiStringHeaderD1Ev.cpp:106:3
	add	x9, x9, #4
	strh	w8, [x9]
Ltmp54:
	.loc	11 109 1                        ; ZN20SipMultiStringHeaderD1Ev.cpp:109:1
	b	LBB2_136
LBB2_123:                               ; %if.end71
                                        ;   in Loop: Header=BB2_78 Depth=1
Ltmp55:
	.loc	11 105 25                       ; ZN20SipMultiStringHeaderD1Ev.cpp:105:25
	ldr	x8, [x19, #832]
	add	x8, x8, #16
	str	x8, [x19, #832]
Ltmp56:
	.loc	11 106 3                        ; ZN20SipMultiStringHeaderD1Ev.cpp:106:3
	str	wzr, [x19, #824]
	b	LBB2_124
LBB2_124:                               ; %cleanup73
                                        ;   in Loop: Header=BB2_78 Depth=1
	.loc	11 0 3 is_stmt 0                ; ZN20SipMultiStringHeaderD1Ev.cpp:0:3
	ldr	x8, [x19, #696]                 ; 8-byte Folded Reload
	.loc	11 106 3                        ; ZN20SipMultiStringHeaderD1Ev.cpp:106:3
	add	x9, x8, #4
	mov	w8, #63736
	strh	w8, [x9]
	ldr	w8, [x19, #824]
	subs	w8, w8, #0
	cset	w8, ne
	tbnz	w8, #0, LBB2_129
	b	LBB2_125
LBB2_125:                               ; %cleanup.cont75
                                        ;   in Loop: Header=BB2_78 Depth=1
Ltmp57:
	.loc	11 106 3                        ; ZN20SipMultiStringHeaderD1Ev.cpp:106:3
	b	LBB2_126
Ltmp58:
LBB2_126:                               ; %for.inc
                                        ;   in Loop: Header=BB2_78 Depth=1
	.loc	11 91 42 is_stmt 1              ; ZN20SipMultiStringHeaderD1Ev.cpp:91:42
	ldr	w8, [x19, #828]
                                        ; kill: def $x8 killed $w8
	str	x8, [x19, #32]                  ; 8-byte Folded Spill
	adds	w8, w8, #1
	str	w8, [x19, #44]                  ; 4-byte Folded Spill
	cset	w8, vs
	tbz	w8, #0, LBB2_128
	b	LBB2_127
LBB2_127:                               ; %handler.add_overflow
                                        ;   in Loop: Header=BB2_78 Depth=1
	.loc	11 0 42 is_stmt 0               ; ZN20SipMultiStringHeaderD1Ev.cpp:0:42
	ldr	x1, [x19, #32]                  ; 8-byte Folded Reload
	adrp	x0, l___unnamed_42@PAGE
	add	x0, x0, l___unnamed_42@PAGEOFF
	mov	x2, #1
	.loc	11 91 42                        ; ZN20SipMultiStringHeaderD1Ev.cpp:91:42
	bl	___ubsan_handle_add_overflow
	b	LBB2_128
LBB2_128:                               ; %cont76
                                        ;   in Loop: Header=BB2_78 Depth=1
	.loc	11 0 42                         ; ZN20SipMultiStringHeaderD1Ev.cpp:0:42
	ldr	w8, [x19, #44]                  ; 4-byte Folded Reload
	.loc	11 91 42                        ; ZN20SipMultiStringHeaderD1Ev.cpp:91:42
	str	w8, [x19, #828]
	.loc	11 91 3                         ; ZN20SipMultiStringHeaderD1Ev.cpp:91:3
	b	LBB2_78
Ltmp59:
LBB2_129:                               ; %cleanup77
	.loc	11 0 3                          ; ZN20SipMultiStringHeaderD1Ev.cpp:0:3
	b	LBB2_130
LBB2_130:                               ; %for.end
	ldr	x8, [x19, #736]                 ; 8-byte Folded Reload
	ldr	x10, [x19, #688]                ; 8-byte Folded Reload
	.loc	11 108 10 is_stmt 1             ; ZN20SipMultiStringHeaderD1Ev.cpp:108:10
	ldr	x9, [x19, #840]
	str	x9, [x19, #24]                  ; 8-byte Folded Spill
	mov	w9, #1
	str	w9, [x19, #824]
	mov	x9, #13838
	movk	x9, #17888, lsl #16
	.loc	11 108 3 is_stmt 0              ; ZN20SipMultiStringHeaderD1Ev.cpp:108:3
	str	x9, [x10]
	subs	x8, x8, #0
	cset	w8, eq
	tbnz	w8, #0, LBB2_132
	b	LBB2_131
LBB2_131:
	.loc	11 0 3                          ; ZN20SipMultiStringHeaderD1Ev.cpp:0:3
	ldr	x8, [x19, #736]                 ; 8-byte Folded Reload
	ldr	x9, [x19, #768]                 ; 8-byte Folded Reload
	ldr	x10, [x19, #696]                ; 8-byte Folded Reload
	.loc	11 108 3                        ; ZN20SipMultiStringHeaderD1Ev.cpp:108:3
	add	x11, x10, #0
	str	x9, [x11]
	add	x10, x10, #8
	str	x9, [x10]
	add	x8, x8, #120
	ldr	x8, [x8]
	strb	wzr, [x8]
	b	LBB2_133
LBB2_132:
	.loc	11 0 3                          ; ZN20SipMultiStringHeaderD1Ev.cpp:0:3
	ldr	x8, [x19, #696]                 ; 8-byte Folded Reload
	.loc	11 108 3                        ; ZN20SipMultiStringHeaderD1Ev.cpp:108:3
	add	x9, x8, #0
	str	xzr, [x9]
	add	x8, x8, #8
	str	xzr, [x8]
	b	LBB2_133
LBB2_133:
	ldr	x9, [x19, #952]
	adrp	x8, ___stack_chk_guard@GOTPAGE
	ldr	x8, [x8, ___stack_chk_guard@GOTPAGEOFF]
	ldr	x8, [x8]
	subs	x8, x8, x9
	cset	w8, eq
	tbnz	w8, #0, LBB2_135
	b	LBB2_134
LBB2_134:
	bl	___stack_chk_fail
LBB2_135:
	.loc	11 0 3                          ; ZN20SipMultiStringHeaderD1Ev.cpp:0:3
	ldr	x0, [x19, #24]                  ; 8-byte Folded Reload
	.loc	11 108 3                        ; ZN20SipMultiStringHeaderD1Ev.cpp:108:3
	sub	sp, x29, #16
	.cfi_def_cfa wsp, 32
	ldp	x29, x30, [sp, #16]             ; 16-byte Folded Reload
	ldp	x20, x19, [sp], #32             ; 16-byte Folded Reload
	.cfi_def_cfa_offset 0
	.cfi_restore w30
	.cfi_restore w29
	.cfi_restore w19
	.cfi_restore w20
	ret
LBB2_136:                               ; %eh.resume
	.cfi_restore_state
	.loc	11 0 3                          ; ZN20SipMultiStringHeaderD1Ev.cpp:0:3
	ldr	x8, [x19, #736]                 ; 8-byte Folded Reload
	ldr	x10, [x19, #688]                ; 8-byte Folded Reload
	.loc	11 109 1 is_stmt 1              ; ZN20SipMultiStringHeaderD1Ev.cpp:109:1
	ldr	x9, [x19, #808]
	str	x9, [x19, #16]                  ; 8-byte Folded Spill
	mov	x9, #13838
	movk	x9, #17888, lsl #16
	str	x9, [x10]
	subs	x8, x8, #0
	cset	w8, eq
	tbnz	w8, #0, LBB2_138
	b	LBB2_137
LBB2_137:
	.loc	11 0 1 is_stmt 0                ; ZN20SipMultiStringHeaderD1Ev.cpp:0:1
	ldr	x8, [x19, #736]                 ; 8-byte Folded Reload
	ldr	x9, [x19, #768]                 ; 8-byte Folded Reload
	ldr	x10, [x19, #696]                ; 8-byte Folded Reload
	.loc	11 109 1                        ; ZN20SipMultiStringHeaderD1Ev.cpp:109:1
	add	x11, x10, #0
	str	x9, [x11]
	add	x10, x10, #8
	str	x9, [x10]
	add	x8, x8, #120
	ldr	x8, [x8]
	strb	wzr, [x8]
	b	LBB2_139
LBB2_138:
	.loc	11 0 1                          ; ZN20SipMultiStringHeaderD1Ev.cpp:0:1
	ldr	x8, [x19, #696]                 ; 8-byte Folded Reload
	.loc	11 109 1                        ; ZN20SipMultiStringHeaderD1Ev.cpp:109:1
	add	x9, x8, #0
	str	xzr, [x9]
	add	x8, x8, #8
	str	xzr, [x8]
	b	LBB2_139
LBB2_139:
	.loc	11 0 1                          ; ZN20SipMultiStringHeaderD1Ev.cpp:0:1
	ldr	x0, [x19, #16]                  ; 8-byte Folded Reload
	bl	__Unwind_Resume
LBB2_140:                               ; %terminate.lpad
Ltmp37:
	str	x0, [x19, #8]                   ; 8-byte Folded Spill
Ltmp60:
	.loc	11 103 5 is_stmt 1              ; ZN20SipMultiStringHeaderD1Ev.cpp:103:5
	bl	___asan_handle_no_return
	ldr	x0, [x19, #8]                   ; 8-byte Folded Reload
	bl	___clang_call_terminate
Ltmp61:
Lfunc_end2:
	.cfi_endproc
	.section	__TEXT,__gcc_except_tab
	.p2align	2
GCC_except_table2:
Lexception0:
	.byte	255                             ; @LPStart Encoding = omit
	.byte	155                             ; @TType Encoding = indirect pcrel sdata4
	.uleb128 Lttbase0-Lttbaseref0
Lttbaseref0:
	.byte	1                               ; Call site Encoding = uleb128
	.uleb128 Lcst_end0-Lcst_begin0
Lcst_begin0:
	.uleb128 Lfunc_begin2-Lfunc_begin2      ; >> Call Site 1 <<
	.uleb128 Ltmp32-Lfunc_begin2            ;   Call between Lfunc_begin2 and Ltmp32
	.byte	0                               ;     has no landing pad
	.byte	0                               ;   On action: cleanup
	.uleb128 Ltmp32-Lfunc_begin2            ; >> Call Site 2 <<
	.uleb128 Ltmp33-Ltmp32                  ;   Call between Ltmp32 and Ltmp33
	.uleb128 Ltmp34-Lfunc_begin2            ;     jumps to Ltmp34
	.byte	0                               ;   On action: cleanup
	.uleb128 Ltmp33-Lfunc_begin2            ; >> Call Site 3 <<
	.uleb128 Ltmp35-Ltmp33                  ;   Call between Ltmp33 and Ltmp35
	.byte	0                               ;     has no landing pad
	.byte	0                               ;   On action: cleanup
	.uleb128 Ltmp35-Lfunc_begin2            ; >> Call Site 4 <<
	.uleb128 Ltmp36-Ltmp35                  ;   Call between Ltmp35 and Ltmp36
	.uleb128 Ltmp37-Lfunc_begin2            ;     jumps to Ltmp37
	.byte	1                               ;   On action: 1
	.uleb128 Ltmp36-Lfunc_begin2            ; >> Call Site 5 <<
	.uleb128 Lfunc_end2-Ltmp36              ;   Call between Ltmp36 and Lfunc_end2
	.byte	0                               ;     has no landing pad
	.byte	0                               ;   On action: cleanup
Lcst_end0:
	.byte	1                               ; >> Action Record 1 <<
                                        ;   Catch TypeInfo 1
	.byte	0                               ;   No further actions
	.p2align	2
                                        ; >> Catch TypeInfos <<
	.long	0                               ; TypeInfo 1
Lttbase0:
	.p2align	2
                                        ; -- End function
	.section	__TEXT,__text,regular,pure_instructions
	.private_extern	__ZNSt3__112basic_stringIcNS_11char_traitsIcEENS_9allocatorIcEEEC1B6v15006Ev ; -- Begin function _ZNSt3__112basic_stringIcNS_11char_traitsIcEENS_9allocatorIcEEEC1B6v15006Ev
	.globl	__ZNSt3__112basic_stringIcNS_11char_traitsIcEENS_9allocatorIcEEEC1B6v15006Ev
	.weak_def_can_be_hidden	__ZNSt3__112basic_stringIcNS_11char_traitsIcEENS_9allocatorIcEEEC1B6v15006Ev
	.p2align	2
__ZNSt3__112basic_stringIcNS_11char_traitsIcEENS_9allocatorIcEEEC1B6v15006Ev: ; @_ZNSt3__112basic_stringIcNS_11char_traitsIcEENS_9allocatorIcEEEC1B6v15006Ev
Lfunc_begin3:
	.loc	6 1900 0                        ; /Applications/Xcode.app/Contents/Developer/Platforms/MacOSX.platform/Developer/SDKs/MacOSX.sdk/usr/include/c++/v1/string:1900:0
	.cfi_startproc
; %bb.0:                                ; %entry
	sub	sp, sp, #48
	.cfi_def_cfa_offset 48
	stp	x29, x30, [sp, #32]             ; 16-byte Folded Spill
	add	x29, sp, #32
	.cfi_def_cfa w29, 16
	.cfi_offset w30, -8
	.cfi_offset w29, -16
	str	x0, [sp, #16]
	ldr	x8, [sp, #16]
	str	x8, [sp]                        ; 8-byte Folded Spill
	mov	x9, x8
	stur	x9, [x29, #-8]
	mov	x9, x8
	str	x9, [sp, #8]                    ; 8-byte Folded Spill
	subs	x8, x8, #0
	cset	w8, eq
	tbnz	w8, #0, LBB3_2
	b	LBB3_1
LBB3_1:                                 ; %entry
	ldr	x8, [sp, #8]                    ; 8-byte Folded Reload
	ands	x8, x8, #0x7
	cset	w8, eq
	tbnz	w8, #0, LBB3_3
	b	LBB3_2
LBB3_2:                                 ; %handler.type_mismatch
	ldr	x1, [sp, #8]                    ; 8-byte Folded Reload
Ltmp62:
	.loc	6 0 0 is_stmt 0                 ; /Applications/Xcode.app/Contents/Developer/Platforms/MacOSX.platform/Developer/SDKs/MacOSX.sdk/usr/include/c++/v1/string:0:0
	adrp	x0, l___unnamed_43@PAGE
	add	x0, x0, l___unnamed_43@PAGEOFF
	bl	___ubsan_handle_type_mismatch_v1
	b	LBB3_3
LBB3_3:                                 ; %cont
	ldr	x0, [sp]                        ; 8-byte Folded Reload
	.loc	6 1900 1 prologue_end is_stmt 1 ; /Applications/Xcode.app/Contents/Developer/Platforms/MacOSX.platform/Developer/SDKs/MacOSX.sdk/usr/include/c++/v1/string:1900:1
	bl	__ZNSt3__112basic_stringIcNS_11char_traitsIcEENS_9allocatorIcEEEC2B6v15006Ev
	.loc	6 1903 1                        ; /Applications/Xcode.app/Contents/Developer/Platforms/MacOSX.platform/Developer/SDKs/MacOSX.sdk/usr/include/c++/v1/string:1903:1
	ldur	x0, [x29, #-8]
	.cfi_def_cfa wsp, 48
	ldp	x29, x30, [sp, #32]             ; 16-byte Folded Reload
	add	sp, sp, #48
	.cfi_def_cfa_offset 0
	.cfi_restore w30
	.cfi_restore w29
	ret
Ltmp63:
Lfunc_end3:
	.cfi_endproc
                                        ; -- End function
	.private_extern	___clang_call_terminate ; -- Begin function __clang_call_terminate
	.globl	___clang_call_terminate
	.weak_definition	___clang_call_terminate
	.p2align	2
___clang_call_terminate:                ; @__clang_call_terminate
Lfunc_begin4:
	.cfi_startproc
; %bb.0:
	stp	x29, x30, [sp, #-16]!           ; 16-byte Folded Spill
	.cfi_def_cfa_offset 16
	.cfi_offset w30, -8
	.cfi_offset w29, -16
	bl	___cxa_begin_catch
	bl	__ZSt9terminatev
Lfunc_end4:
	.cfi_endproc
                                        ; -- End function
	.globl	__Z15initIPTelephonyv           ; -- Begin function _Z15initIPTelephonyv
	.p2align	2
__Z15initIPTelephonyv:                  ; @_Z15initIPTelephonyv
Lfunc_begin5:
	.loc	11 111 0                        ; ZN20SipMultiStringHeaderD1Ev.cpp:111:0
	.cfi_startproc
; %bb.0:                                ; %entry
	sub	sp, sp, #64
	.cfi_def_cfa_offset 64
	stp	x29, x30, [sp, #48]             ; 16-byte Folded Spill
	add	x29, sp, #48
	.cfi_def_cfa w29, 16
	.cfi_offset w30, -8
	.cfi_offset w29, -16
Ltmp64:
	.loc	11 0 0 is_stmt 0                ; ZN20SipMultiStringHeaderD1Ev.cpp:0:0
	adrp	x0, _.str.3@PAGE
	add	x0, x0, _.str.3@PAGEOFF
	.loc	11 112 17 prologue_end is_stmt 1 ; ZN20SipMultiStringHeaderD1Ev.cpp:112:17
	bl	__Z11LoadLibraryPKc
	.loc	11 112 9 is_stmt 0              ; ZN20SipMultiStringHeaderD1Ev.cpp:112:9
	stur	x0, [x29, #-16]
Ltmp65:
	.loc	11 113 7 is_stmt 1              ; ZN20SipMultiStringHeaderD1Ev.cpp:113:7
	ldur	x8, [x29, #-16]
	subs	x8, x8, #0
	cset	w8, ne
Ltmp66:
	.loc	11 113 6 is_stmt 0              ; ZN20SipMultiStringHeaderD1Ev.cpp:113:6
	tbnz	w8, #0, LBB5_2
	b	LBB5_1
LBB5_1:                                 ; %if.then
Ltmp67:
	.loc	11 0 0                          ; ZN20SipMultiStringHeaderD1Ev.cpp:0:0
	adrp	x0, _.str.4@PAGE
	add	x0, x0, _.str.4@PAGEOFF
	.loc	11 114 5 is_stmt 1              ; ZN20SipMultiStringHeaderD1Ev.cpp:114:5
	bl	_printf
	.loc	11 115 5                        ; ZN20SipMultiStringHeaderD1Ev.cpp:115:5
	stur	wzr, [x29, #-4]
	mov	w8, #1
	stur	w8, [x29, #-20]
	b	LBB5_9
Ltmp68:
LBB5_2:                                 ; %if.else
	.loc	11 117 51                       ; ZN20SipMultiStringHeaderD1Ev.cpp:117:51
	ldur	x8, [x29, #-16]
	.loc	11 117 5 is_stmt 0              ; ZN20SipMultiStringHeaderD1Ev.cpp:117:5
	mov	x9, sp
	str	x8, [x9]
	.loc	11 0 0                          ; ZN20SipMultiStringHeaderD1Ev.cpp:0:0
	adrp	x0, _.str.5@PAGE
	add	x0, x0, _.str.5@PAGEOFF
	.loc	11 117 5                        ; ZN20SipMultiStringHeaderD1Ev.cpp:117:5
	bl	_printf
	b	LBB5_3
Ltmp69:
LBB5_3:                                 ; %if.end
	.loc	11 122 37 is_stmt 1             ; ZN20SipMultiStringHeaderD1Ev.cpp:122:37
	ldur	x0, [x29, #-16]
	.loc	11 0 0 is_stmt 0                ; ZN20SipMultiStringHeaderD1Ev.cpp:0:0
	adrp	x1, _.str.6@PAGE
	add	x1, x1, _.str.6@PAGEOFF
	.loc	11 122 20                       ; ZN20SipMultiStringHeaderD1Ev.cpp:122:20
	bl	__Z16GetSymbolAddressPvPKc
	.loc	11 122 18                       ; ZN20SipMultiStringHeaderD1Ev.cpp:122:18
	str	x0, [sp, #16]
Ltmp70:
	.loc	11 123 7 is_stmt 1              ; ZN20SipMultiStringHeaderD1Ev.cpp:123:7
	ldr	x8, [sp, #16]
	subs	x8, x8, #0
	cset	w8, ne
Ltmp71:
	.loc	11 123 6 is_stmt 0              ; ZN20SipMultiStringHeaderD1Ev.cpp:123:6
	tbnz	w8, #0, LBB5_5
	b	LBB5_4
LBB5_4:                                 ; %if.then5
Ltmp72:
	.loc	11 0 0                          ; ZN20SipMultiStringHeaderD1Ev.cpp:0:0
	adrp	x0, _.str.7@PAGE
	add	x0, x0, _.str.7@PAGEOFF
	.loc	11 124 5 is_stmt 1              ; ZN20SipMultiStringHeaderD1Ev.cpp:124:5
	bl	_printf
	.loc	11 125 5                        ; ZN20SipMultiStringHeaderD1Ev.cpp:125:5
	stur	wzr, [x29, #-4]
	mov	w8, #1
	stur	w8, [x29, #-20]
	b	LBB5_8
Ltmp73:
LBB5_5:                                 ; %if.end7
	.loc	11 127 58                       ; ZN20SipMultiStringHeaderD1Ev.cpp:127:58
	ldr	x8, [sp, #16]
	.loc	11 0 0 is_stmt 0                ; ZN20SipMultiStringHeaderD1Ev.cpp:0:0
	adrp	x9, _SipMessageDecoder_decode@PAGE
	.loc	11 127 28                       ; ZN20SipMultiStringHeaderD1Ev.cpp:127:28
	str	x8, [x9, _SipMessageDecoder_decode@PAGEOFF]
	.loc	11 129 37 is_stmt 1             ; ZN20SipMultiStringHeaderD1Ev.cpp:129:37
	ldur	x0, [x29, #-16]
	.loc	11 0 0 is_stmt 0                ; ZN20SipMultiStringHeaderD1Ev.cpp:0:0
	adrp	x1, _.str.8@PAGE
	add	x1, x1, _.str.8@PAGEOFF
	.loc	11 129 20                       ; ZN20SipMultiStringHeaderD1Ev.cpp:129:20
	bl	__Z16GetSymbolAddressPvPKc
	.loc	11 129 18                       ; ZN20SipMultiStringHeaderD1Ev.cpp:129:18
	str	x0, [sp, #16]
Ltmp74:
	.loc	11 130 7 is_stmt 1              ; ZN20SipMultiStringHeaderD1Ev.cpp:130:7
	ldr	x8, [sp, #16]
	subs	x8, x8, #0
	cset	w8, ne
Ltmp75:
	.loc	11 130 6 is_stmt 0              ; ZN20SipMultiStringHeaderD1Ev.cpp:130:6
	tbnz	w8, #0, LBB5_7
	b	LBB5_6
LBB5_6:                                 ; %if.then10
Ltmp76:
	.loc	11 0 0                          ; ZN20SipMultiStringHeaderD1Ev.cpp:0:0
	adrp	x0, _.str.7@PAGE
	add	x0, x0, _.str.7@PAGEOFF
Ltmp77:
	.loc	11 131 5 is_stmt 1              ; ZN20SipMultiStringHeaderD1Ev.cpp:131:5
	bl	_printf
	.loc	11 132 5                        ; ZN20SipMultiStringHeaderD1Ev.cpp:132:5
	stur	wzr, [x29, #-4]
	mov	w8, #1
	stur	w8, [x29, #-20]
	b	LBB5_8
Ltmp78:
LBB5_7:                                 ; %if.end12
	.loc	11 134 76                       ; ZN20SipMultiStringHeaderD1Ev.cpp:134:76
	ldr	x8, [sp, #16]
	.loc	11 0 0 is_stmt 0                ; ZN20SipMultiStringHeaderD1Ev.cpp:0:0
	adrp	x9, _SipMessageEncodingMap_constructor@PAGE
	.loc	11 134 37                       ; ZN20SipMultiStringHeaderD1Ev.cpp:134:37
	str	x8, [x9, _SipMessageEncodingMap_constructor@PAGEOFF]
	mov	w8, #1
	.loc	11 136 3 is_stmt 1              ; ZN20SipMultiStringHeaderD1Ev.cpp:136:3
	stur	w8, [x29, #-4]
	stur	w8, [x29, #-20]
	b	LBB5_8
LBB5_8:                                 ; %cleanup
	.loc	11 0 3 is_stmt 0                ; ZN20SipMultiStringHeaderD1Ev.cpp:0:3
	b	LBB5_9
LBB5_9:                                 ; %cleanup13
	.loc	11 137 1 is_stmt 1              ; ZN20SipMultiStringHeaderD1Ev.cpp:137:1
	ldur	w0, [x29, #-4]
	.cfi_def_cfa wsp, 64
	ldp	x29, x30, [sp, #48]             ; 16-byte Folded Reload
	add	sp, sp, #64
	.cfi_def_cfa_offset 0
	.cfi_restore w30
	.cfi_restore w29
	ret
Ltmp79:
Lfunc_end5:
	.cfi_endproc
                                        ; -- End function
	.globl	__Z16ReadFileToStringPKcRNSt3__112basic_stringIcNS1_11char_traitsIcEENS1_9allocatorIcEEEE ; -- Begin function _Z16ReadFileToStringPKcRNSt3__112basic_stringIcNS1_11char_traitsIcEENS1_9allocatorIcEEEE
	.p2align	2
__Z16ReadFileToStringPKcRNSt3__112basic_stringIcNS1_11char_traitsIcEENS1_9allocatorIcEEEE: ; @_Z16ReadFileToStringPKcRNSt3__112basic_stringIcNS1_11char_traitsIcEENS1_9allocatorIcEEEE
Lfunc_begin6:
	.loc	11 139 0                        ; ZN20SipMultiStringHeaderD1Ev.cpp:139:0
	.cfi_startproc
; %bb.0:                                ; %entry
	sub	sp, sp, #96
	.cfi_def_cfa_offset 96
	stp	x29, x30, [sp, #80]             ; 16-byte Folded Spill
	add	x29, sp, #80
	.cfi_def_cfa w29, 16
	.cfi_offset w30, -8
	.cfi_offset w29, -16
	stur	x0, [x29, #-16]
	stur	x1, [x29, #-24]
Ltmp80:
	.loc	11 140 20 prologue_end          ; ZN20SipMultiStringHeaderD1Ev.cpp:140:20
	ldur	x0, [x29, #-16]
	.loc	11 0 0 is_stmt 0                ; ZN20SipMultiStringHeaderD1Ev.cpp:0:0
	adrp	x1, _.str.9@PAGE
	add	x1, x1, _.str.9@PAGEOFF
	.loc	11 140 14                       ; ZN20SipMultiStringHeaderD1Ev.cpp:140:14
	bl	_fopen
	.loc	11 140 9                        ; ZN20SipMultiStringHeaderD1Ev.cpp:140:9
	stur	x0, [x29, #-32]
Ltmp81:
	.loc	11 141 7 is_stmt 1              ; ZN20SipMultiStringHeaderD1Ev.cpp:141:7
	ldur	x8, [x29, #-32]
	subs	x8, x8, #0
	cset	w8, ne
Ltmp82:
	.loc	11 141 6 is_stmt 0              ; ZN20SipMultiStringHeaderD1Ev.cpp:141:6
	tbnz	w8, #0, LBB6_2
	b	LBB6_1
LBB6_1:                                 ; %if.then
Ltmp83:
	.loc	11 142 34 is_stmt 1             ; ZN20SipMultiStringHeaderD1Ev.cpp:142:34
	ldur	x8, [x29, #-16]
	.loc	11 142 5 is_stmt 0              ; ZN20SipMultiStringHeaderD1Ev.cpp:142:5
	mov	x9, sp
	str	x8, [x9]
	.loc	11 0 0                          ; ZN20SipMultiStringHeaderD1Ev.cpp:0:0
	adrp	x0, _.str.10@PAGE
	add	x0, x0, _.str.10@PAGEOFF
	.loc	11 142 5                        ; ZN20SipMultiStringHeaderD1Ev.cpp:142:5
	bl	_printf
	.loc	11 143 5 is_stmt 1              ; ZN20SipMultiStringHeaderD1Ev.cpp:143:5
	stur	wzr, [x29, #-4]
	mov	w8, #1
	stur	w8, [x29, #-36]
	b	LBB6_5
Ltmp84:
LBB6_2:                                 ; %if.end
	.loc	11 145 9                        ; ZN20SipMultiStringHeaderD1Ev.cpp:145:9
	ldur	x0, [x29, #-32]
	mov	x1, #0
	str	x1, [sp, #8]                    ; 8-byte Folded Spill
	mov	w2, #2
	.loc	11 145 3 is_stmt 0              ; ZN20SipMultiStringHeaderD1Ev.cpp:145:3
	bl	_fseek
	.loc	11 146 23 is_stmt 1             ; ZN20SipMultiStringHeaderD1Ev.cpp:146:23
	ldur	x0, [x29, #-32]
	.loc	11 146 17 is_stmt 0             ; ZN20SipMultiStringHeaderD1Ev.cpp:146:17
	bl	_ftell
	ldr	x1, [sp, #8]                    ; 8-byte Folded Reload
	.loc	11 146 10                       ; ZN20SipMultiStringHeaderD1Ev.cpp:146:10
	str	x0, [sp, #32]
	.loc	11 147 9 is_stmt 1              ; ZN20SipMultiStringHeaderD1Ev.cpp:147:9
	ldur	x0, [x29, #-32]
	mov	w2, #0
	.loc	11 147 3 is_stmt 0              ; ZN20SipMultiStringHeaderD1Ev.cpp:147:3
	bl	_fseek
	.loc	11 149 30 is_stmt 1             ; ZN20SipMultiStringHeaderD1Ev.cpp:149:30
	ldr	x0, [sp, #32]
	.loc	11 149 23 is_stmt 0             ; ZN20SipMultiStringHeaderD1Ev.cpp:149:23
	bl	_malloc
	.loc	11 149 9                        ; ZN20SipMultiStringHeaderD1Ev.cpp:149:9
	str	x0, [sp, #24]
	.loc	11 150 9 is_stmt 1              ; ZN20SipMultiStringHeaderD1Ev.cpp:150:9
	ldr	x0, [sp, #24]
	.loc	11 150 17 is_stmt 0             ; ZN20SipMultiStringHeaderD1Ev.cpp:150:17
	ldr	x2, [sp, #32]
	.loc	11 150 23                       ; ZN20SipMultiStringHeaderD1Ev.cpp:150:23
	ldur	x3, [x29, #-32]
	mov	x1, #1
	.loc	11 150 3                        ; ZN20SipMultiStringHeaderD1Ev.cpp:150:3
	bl	_fread
	.loc	11 151 10 is_stmt 1             ; ZN20SipMultiStringHeaderD1Ev.cpp:151:10
	ldur	x0, [x29, #-32]
	.loc	11 151 3 is_stmt 0              ; ZN20SipMultiStringHeaderD1Ev.cpp:151:3
	bl	_fclose
	.loc	11 153 3 is_stmt 1              ; ZN20SipMultiStringHeaderD1Ev.cpp:153:3
	ldur	x8, [x29, #-24]
	str	x8, [sp, #16]                   ; 8-byte Folded Spill
	.loc	11 153 7 is_stmt 0              ; ZN20SipMultiStringHeaderD1Ev.cpp:153:7
	ands	x8, x8, #0x7
	cset	w8, eq
	tbnz	w8, #0, LBB6_4
	b	LBB6_3
LBB6_3:                                 ; %handler.type_mismatch
	.loc	11 0 7                          ; ZN20SipMultiStringHeaderD1Ev.cpp:0:7
	ldr	x1, [sp, #16]                   ; 8-byte Folded Reload
	adrp	x0, l___unnamed_44@PAGE
	add	x0, x0, l___unnamed_44@PAGEOFF
	.loc	11 153 7                        ; ZN20SipMultiStringHeaderD1Ev.cpp:153:7
	bl	___ubsan_handle_type_mismatch_v1
	b	LBB6_4
LBB6_4:                                 ; %cont
	.loc	11 0 7                          ; ZN20SipMultiStringHeaderD1Ev.cpp:0:7
	ldr	x0, [sp, #16]                   ; 8-byte Folded Reload
	.loc	11 153 14                       ; ZN20SipMultiStringHeaderD1Ev.cpp:153:14
	ldr	x1, [sp, #24]
	.loc	11 153 19                       ; ZN20SipMultiStringHeaderD1Ev.cpp:153:19
	ldr	x2, [sp, #32]
	.loc	11 153 7                        ; ZN20SipMultiStringHeaderD1Ev.cpp:153:7
	bl	__ZNSt3__112basic_stringIcNS_11char_traitsIcEENS_9allocatorIcEEE6assignEPKcm
	.loc	11 155 8 is_stmt 1              ; ZN20SipMultiStringHeaderD1Ev.cpp:155:8
	ldr	x0, [sp, #24]
	.loc	11 155 3 is_stmt 0              ; ZN20SipMultiStringHeaderD1Ev.cpp:155:3
	bl	_free
	mov	w8, #1
	.loc	11 157 3 is_stmt 1              ; ZN20SipMultiStringHeaderD1Ev.cpp:157:3
	stur	w8, [x29, #-4]
	stur	w8, [x29, #-36]
	b	LBB6_5
LBB6_5:                                 ; %cleanup
	.loc	11 158 1                        ; ZN20SipMultiStringHeaderD1Ev.cpp:158:1
	ldur	w0, [x29, #-4]
	.cfi_def_cfa wsp, 96
	ldp	x29, x30, [sp, #80]             ; 16-byte Folded Reload
	add	sp, sp, #96
	.cfi_def_cfa_offset 0
	.cfi_restore w30
	.cfi_restore w29
	ret
Ltmp85:
Lfunc_end6:
	.cfi_endproc
                                        ; -- End function
	.globl	_main                           ; -- Begin function main
	.p2align	2
_main:                                  ; @main
Lfunc_begin7:
	.loc	11 160 0                        ; ZN20SipMultiStringHeaderD1Ev.cpp:160:0
	.cfi_startproc
	.cfi_personality 155, ___gxx_personality_v0
	.cfi_lsda 16, Lexception1
; %bb.0:                                ; %entry
	stp	x20, x19, [sp, #-32]!           ; 16-byte Folded Spill
	.cfi_def_cfa_offset 32
	stp	x29, x30, [sp, #16]             ; 16-byte Folded Spill
	add	x29, sp, #16
	.cfi_def_cfa w29, 16
	.cfi_offset w30, -8
	.cfi_offset w29, -16
	.cfi_offset w19, -24
	.cfi_offset w20, -32
	.cfi_remember_state
	sub	x9, sp, #416
	and	sp, x9, #0xffffffffffffffe0
	mov	x19, sp
	mov	x9, #0
	adrp	x8, l____asan_gen_.19@PAGE
	add	x8, x8, l____asan_gen_.19@PAGEOFF
	str	x8, [x19, #304]                 ; 8-byte Folded Spill
	adrp	x8, _main@PAGE
	add	x8, x8, _main@PAGEOFF
	str	x8, [x19, #312]                 ; 8-byte Folded Spill
	mov	x8, #62194
	movk	x8, #62194, lsl #16
	movk	x8, #62194, lsl #32
	movk	x8, #62194, lsl #48
	str	x8, [x19, #320]                 ; 8-byte Folded Spill
	adrp	x8, ___stack_chk_guard@GOTPAGE
	ldr	x8, [x8, ___stack_chk_guard@GOTPAGEOFF]
	ldr	x8, [x8]
	str	x8, [x19, #408]
	adrp	x8, ___asan_shadow_memory_dynamic_address@GOTPAGE
	ldr	x8, [x8, ___asan_shadow_memory_dynamic_address@GOTPAGEOFF]
	ldr	x8, [x8]
	str	x8, [x19, #328]                 ; 8-byte Folded Spill
	str	w0, [x19, #376]
	str	x1, [x19, #368]
	adrp	x8, ___asan_option_detect_stack_use_after_return@GOTPAGE
	ldr	x8, [x8, ___asan_option_detect_stack_use_after_return@GOTPAGEOFF]
	ldr	w8, [x8]
	subs	w8, w8, #0
	cset	w8, eq
	str	x9, [x19, #336]                 ; 8-byte Folded Spill
	tbnz	w8, #0, LBB7_2
	b	LBB7_1
LBB7_1:
	mov	x0, #1408
	bl	___asan_stack_malloc_5
	str	x0, [x19, #336]                 ; 8-byte Folded Spill
	b	LBB7_2
LBB7_2:
	ldr	x9, [x19, #336]                 ; 8-byte Folded Reload
	str	x9, [x19, #288]                 ; 8-byte Folded Spill
	subs	x8, x9, #0
	cset	w8, ne
	str	x9, [x19, #296]                 ; 8-byte Folded Spill
	tbnz	w8, #0, LBB7_4
	b	LBB7_3
LBB7_3:
	mov	x8, sp
	subs	x8, x8, #1408
	and	x8, x8, #0xffffffffffffffe0
	mov	sp, x8
	str	x8, [x19, #296]                 ; 8-byte Folded Spill
	b	LBB7_4
LBB7_4:
	ldr	x8, [x19, #328]                 ; 8-byte Folded Reload
	ldr	x10, [x19, #312]                ; 8-byte Folded Reload
	ldr	x11, [x19, #304]                ; 8-byte Folded Reload
	ldr	x9, [x19, #296]                 ; 8-byte Folded Reload
	str	x9, [x19, #224]                 ; 8-byte Folded Spill
	str	x9, [x19, #344]
	add	x0, x9, #32
	str	x0, [x19, #232]                 ; 8-byte Folded Spill
	add	x12, x9, #96
	str	x12, [x19, #240]                ; 8-byte Folded Spill
	add	x12, x9, #1232
	str	x12, [x19, #248]                ; 8-byte Folded Spill
	add	x12, x9, #1344
	str	x12, [x19, #256]                ; 8-byte Folded Spill
	add	x12, x9, #1376
	str	x12, [x19, #264]                ; 8-byte Folded Spill
	mov	x13, x9
	str	x13, [x19, #272]                ; 8-byte Folded Spill
	mov	x12, #35507
	movk	x12, #16821, lsl #16
	str	x12, [x13]
	add	x12, x9, #8
	str	x11, [x12]
	add	x11, x9, #16
	str	x10, [x11]
	add	x8, x8, x9, lsr #3
	str	x8, [x19, #280]                 ; 8-byte Folded Spill
	add	x10, x8, #0
	mov	x9, #-1012762419733073423
	movk	x9, #63736, lsl #32
	movk	x9, #62200, lsl #48
	str	x9, [x10]
	add	x10, x8, #8
	mov	w9, #62194
	movk	w9, #62194, lsl #16
	str	w9, [x10]
	add	x0, x8, #12
	mov	x1, #125
	bl	___asan_set_shadow_f8
	ldr	x9, [x19, #320]                 ; 8-byte Folded Reload
	ldr	x8, [x19, #280]                 ; 8-byte Folded Reload
	add	x10, x8, #137
	str	x9, [x10]
	add	x10, x8, #145
	str	x9, [x10]
	add	x10, x8, #153
	mov	x9, #-506381209866536712
	movk	x9, #63730
	str	x9, [x10]
	add	x10, x8, #161
	mov	x9, #63736
	movk	x9, #62200, lsl #16
	movk	x9, #62194, lsl #32
	movk	x9, #63730, lsl #48
	str	x9, [x10]
	add	x10, x8, #169
	mov	w9, #62194
	movk	w9, #63730, lsl #16
	str	w9, [x10]
	add	x10, x8, #173
	mov	w9, #62451
	strh	w9, [x10]
	add	x9, x8, #175
	mov	w8, #243
	strb	w8, [x9]
	str	wzr, [x19, #380]
Ltmp102:
	.loc	11 161 7 prologue_end           ; ZN20SipMultiStringHeaderD1Ev.cpp:161:7
	bl	__Z15initIPTelephonyv
	subs	w8, w0, #0
	cset	w8, ne
Ltmp103:
	.loc	11 161 6 is_stmt 0              ; ZN20SipMultiStringHeaderD1Ev.cpp:161:6
	tbnz	w8, #0, LBB7_6
	b	LBB7_5
LBB7_5:                                 ; %if.then
Ltmp104:
	.loc	11 161 26                       ; ZN20SipMultiStringHeaderD1Ev.cpp:161:26
	str	wzr, [x19, #380]
	b	LBB7_59
Ltmp105:
LBB7_6:                                 ; %if.end
	.loc	11 163 6 is_stmt 1              ; ZN20SipMultiStringHeaderD1Ev.cpp:163:6
	ldr	w8, [x19, #376]
	.loc	11 163 11 is_stmt 0             ; ZN20SipMultiStringHeaderD1Ev.cpp:163:11
	subs	w8, w8, #2
	cset	w8, ge
Ltmp106:
	.loc	11 163 6                        ; ZN20SipMultiStringHeaderD1Ev.cpp:163:6
	tbnz	w8, #0, LBB7_13
	b	LBB7_7
LBB7_7:                                 ; %if.then1
Ltmp107:
	.loc	11 164 40 is_stmt 1             ; ZN20SipMultiStringHeaderD1Ev.cpp:164:40
	ldr	x8, [x19, #368]
	str	x8, [x19, #208]                 ; 8-byte Folded Spill
	mov	x9, x8
	str	x9, [x19, #216]                 ; 8-byte Folded Spill
	subs	x8, x8, #0
	cset	w8, eq
	tbnz	w8, #0, LBB7_9
	b	LBB7_8
LBB7_8:                                 ; %if.then1
	.loc	11 0 40 is_stmt 0               ; ZN20SipMultiStringHeaderD1Ev.cpp:0:40
	ldr	x8, [x19, #216]                 ; 8-byte Folded Reload
	.loc	11 164 40                       ; ZN20SipMultiStringHeaderD1Ev.cpp:164:40
	ands	x8, x8, #0x7
	cset	w8, eq
	tbnz	w8, #0, LBB7_10
	b	LBB7_9
LBB7_9:                                 ; %handler.type_mismatch
	.loc	11 0 40                         ; ZN20SipMultiStringHeaderD1Ev.cpp:0:40
	ldr	x1, [x19, #216]                 ; 8-byte Folded Reload
	adrp	x0, l___unnamed_45@PAGE
	add	x0, x0, l___unnamed_45@PAGEOFF
	.loc	11 164 40                       ; ZN20SipMultiStringHeaderD1Ev.cpp:164:40
	bl	___ubsan_handle_type_mismatch_v1
	b	LBB7_10
LBB7_10:                                ; %cont
	.loc	11 0 40                         ; ZN20SipMultiStringHeaderD1Ev.cpp:0:40
	ldr	x8, [x19, #328]                 ; 8-byte Folded Reload
	ldr	x9, [x19, #208]                 ; 8-byte Folded Reload
	str	x9, [x19, #200]                 ; 8-byte Folded Spill
	.loc	11 164 40                       ; ZN20SipMultiStringHeaderD1Ev.cpp:164:40
	add	x8, x8, x9, lsr #3
	ldrb	w8, [x8]
	subs	w8, w8, #0
	cset	w8, eq
	tbnz	w8, #0, LBB7_12
	b	LBB7_11
LBB7_11:
	.loc	11 0 40                         ; ZN20SipMultiStringHeaderD1Ev.cpp:0:40
	ldr	x0, [x19, #200]                 ; 8-byte Folded Reload
	.loc	11 164 40                       ; ZN20SipMultiStringHeaderD1Ev.cpp:164:40
	bl	___asan_report_load8
	brk	#0x1
LBB7_12:
	.loc	11 0 40                         ; ZN20SipMultiStringHeaderD1Ev.cpp:0:40
	ldr	x8, [x19, #208]                 ; 8-byte Folded Reload
	.loc	11 164 40                       ; ZN20SipMultiStringHeaderD1Ev.cpp:164:40
	ldr	x8, [x8]
	.loc	11 164 5                        ; ZN20SipMultiStringHeaderD1Ev.cpp:164:5
	sub	sp, sp, #16
	mov	x9, sp
	str	x8, [x9]
	.loc	11 0 0                          ; ZN20SipMultiStringHeaderD1Ev.cpp:0:0
	adrp	x0, _.str.11@PAGE
	add	x0, x0, _.str.11@PAGEOFF
	.loc	11 164 5                        ; ZN20SipMultiStringHeaderD1Ev.cpp:164:5
	bl	_printf
	add	sp, sp, #16
	.loc	11 165 5 is_stmt 1              ; ZN20SipMultiStringHeaderD1Ev.cpp:165:5
	str	wzr, [x19, #380]
	b	LBB7_59
Ltmp108:
LBB7_13:                                ; %if.end3
	.loc	11 0 5 is_stmt 0                ; ZN20SipMultiStringHeaderD1Ev.cpp:0:5
	ldr	x0, [x19, #232]                 ; 8-byte Folded Reload
	ldr	x8, [x19, #280]                 ; 8-byte Folded Reload
	.loc	11 168 3 is_stmt 1              ; ZN20SipMultiStringHeaderD1Ev.cpp:168:3
	add	x9, x8, #4
	strh	wzr, [x9]
	add	x8, x8, #6
	strb	wzr, [x8]
	.loc	11 168 15 is_stmt 0             ; ZN20SipMultiStringHeaderD1Ev.cpp:168:15
	bl	__ZNSt3__112basic_stringIcNS_11char_traitsIcEENS_9allocatorIcEEEC1B6v15006Ev
Ltmp109:
	.loc	11 170 24 is_stmt 1             ; ZN20SipMultiStringHeaderD1Ev.cpp:170:24
	ldr	x8, [x19, #368]
	str	x8, [x19, #160]                 ; 8-byte Folded Spill
	add	x9, x8, #8
	str	x9, [x19, #168]                 ; 8-byte Folded Spill
	mov	x12, x8
	str	x12, [x19, #176]                ; 8-byte Folded Spill
	add	x11, x8, #8
	str	x11, [x19, #184]                ; 8-byte Folded Spill
	subs	x8, x8, #0
	cset	w8, ne
	subs	x9, x11, #0
	cset	w9, ne
	subs	x10, x11, x12
	cset	w10, hs
	subs	x11, x11, x12
	cset	w11, lo
	mov	w12, #1
	and	w12, w12, #0x1
	ands	w12, w12, #0x1
	csel	w10, w10, w11, ne
	str	w10, [x19, #196]                ; 4-byte Folded Spill
	and	w8, w8, #0x1
	and	w9, w9, #0x1
	subs	w8, w8, w9
	cset	w8, ne
	tbnz	w8, #0, LBB7_16
	b	LBB7_14
LBB7_14:                                ; %if.end3
	.loc	11 0 24 is_stmt 0               ; ZN20SipMultiStringHeaderD1Ev.cpp:0:24
	ldr	w8, [x19, #196]                 ; 4-byte Folded Reload
	.loc	11 170 24                       ; ZN20SipMultiStringHeaderD1Ev.cpp:170:24
	tbz	w8, #0, LBB7_16
	b	LBB7_15
LBB7_15:                                ; %if.end3
	.loc	11 0 24                         ; ZN20SipMultiStringHeaderD1Ev.cpp:0:24
	mov	w8, #1
	.loc	11 170 24                       ; ZN20SipMultiStringHeaderD1Ev.cpp:170:24
	tbnz	w8, #0, LBB7_17
	b	LBB7_16
LBB7_16:                                ; %handler.pointer_overflow
	.loc	11 0 24                         ; ZN20SipMultiStringHeaderD1Ev.cpp:0:24
	ldr	x2, [x19, #184]                 ; 8-byte Folded Reload
	ldr	x1, [x19, #176]                 ; 8-byte Folded Reload
	adrp	x0, l___unnamed_46@PAGE
	add	x0, x0, l___unnamed_46@PAGEOFF
	.loc	11 170 24                       ; ZN20SipMultiStringHeaderD1Ev.cpp:170:24
	bl	___ubsan_handle_pointer_overflow
	b	LBB7_17
LBB7_17:                                ; %cont6
	.loc	11 0 24                         ; ZN20SipMultiStringHeaderD1Ev.cpp:0:24
	ldr	x8, [x19, #168]                 ; 8-byte Folded Reload
	.loc	11 170 24                       ; ZN20SipMultiStringHeaderD1Ev.cpp:170:24
	mov	x9, x8
	str	x9, [x19, #152]                 ; 8-byte Folded Spill
	subs	x8, x8, #0
	cset	w8, eq
	tbnz	w8, #0, LBB7_19
	b	LBB7_18
LBB7_18:                                ; %cont6
	.loc	11 0 24                         ; ZN20SipMultiStringHeaderD1Ev.cpp:0:24
	ldr	x8, [x19, #152]                 ; 8-byte Folded Reload
	.loc	11 170 24                       ; ZN20SipMultiStringHeaderD1Ev.cpp:170:24
	ands	x8, x8, #0x7
	cset	w8, eq
	tbnz	w8, #0, LBB7_20
	b	LBB7_19
LBB7_19:                                ; %handler.type_mismatch7
	.loc	11 0 24                         ; ZN20SipMultiStringHeaderD1Ev.cpp:0:24
	ldr	x1, [x19, #152]                 ; 8-byte Folded Reload
	adrp	x0, l___unnamed_47@PAGE
	add	x0, x0, l___unnamed_47@PAGEOFF
	.loc	11 170 24                       ; ZN20SipMultiStringHeaderD1Ev.cpp:170:24
	bl	___ubsan_handle_type_mismatch_v1
	b	LBB7_20
LBB7_20:                                ; %cont8
	.loc	11 0 24                         ; ZN20SipMultiStringHeaderD1Ev.cpp:0:24
	ldr	x8, [x19, #328]                 ; 8-byte Folded Reload
	ldr	x9, [x19, #168]                 ; 8-byte Folded Reload
	str	x9, [x19, #144]                 ; 8-byte Folded Spill
	.loc	11 170 24                       ; ZN20SipMultiStringHeaderD1Ev.cpp:170:24
	add	x8, x8, x9, lsr #3
	ldrb	w8, [x8]
	subs	w8, w8, #0
	cset	w8, eq
	tbnz	w8, #0, LBB7_22
	b	LBB7_21
LBB7_21:
	.loc	11 0 24                         ; ZN20SipMultiStringHeaderD1Ev.cpp:0:24
	ldr	x0, [x19, #144]                 ; 8-byte Folded Reload
	.loc	11 170 24                       ; ZN20SipMultiStringHeaderD1Ev.cpp:170:24
	bl	___asan_report_load8
	brk	#0x1
LBB7_22:
	.loc	11 0 24                         ; ZN20SipMultiStringHeaderD1Ev.cpp:0:24
	ldr	x1, [x19, #232]                 ; 8-byte Folded Reload
	ldr	x8, [x19, #160]                 ; 8-byte Folded Reload
	.loc	11 170 24                       ; ZN20SipMultiStringHeaderD1Ev.cpp:170:24
	ldr	x0, [x8, #8]
Ltmp86:
	.loc	11 170 7                        ; ZN20SipMultiStringHeaderD1Ev.cpp:170:7
	bl	__Z16ReadFileToStringPKcRNSt3__112basic_stringIcNS1_11char_traitsIcEENS1_9allocatorIcEEEE
	str	w0, [x19, #140]                 ; 4-byte Folded Spill
Ltmp87:
	b	LBB7_23
LBB7_23:                                ; %invoke.cont
	.loc	11 0 7                          ; ZN20SipMultiStringHeaderD1Ev.cpp:0:7
	ldr	w8, [x19, #140]                 ; 4-byte Folded Reload
	.loc	11 170 7                        ; ZN20SipMultiStringHeaderD1Ev.cpp:170:7
	subs	w8, w8, #0
	cset	w8, ne
Ltmp110:
	.loc	11 170 6                        ; ZN20SipMultiStringHeaderD1Ev.cpp:170:6
	tbnz	w8, #0, LBB7_26
	b	LBB7_24
LBB7_24:                                ; %if.then11
Ltmp111:
	.loc	11 170 39                       ; ZN20SipMultiStringHeaderD1Ev.cpp:170:39
	str	wzr, [x19, #380]
	mov	w8, #1
	str	w8, [x19, #352]
	b	LBB7_56
LBB7_25:                                ; %lpad
Ltmp90:
	.loc	11 194 1 is_stmt 1              ; ZN20SipMultiStringHeaderD1Ev.cpp:194:1
	mov	x8, x1
	str	x0, [x19, #360]
	str	w8, [x19, #356]
	b	LBB7_57
Ltmp112:
LBB7_26:                                ; %if.end12
Ltmp88:
	.loc	11 0 0 is_stmt 0                ; ZN20SipMultiStringHeaderD1Ev.cpp:0:0
	adrp	x0, _.str.12@PAGE
	add	x0, x0, _.str.12@PAGEOFF
	.loc	11 172 3 is_stmt 1              ; ZN20SipMultiStringHeaderD1Ev.cpp:172:3
	bl	_printf
Ltmp89:
	b	LBB7_27
LBB7_27:                                ; %invoke.cont13
	.loc	11 0 3 is_stmt 0                ; ZN20SipMultiStringHeaderD1Ev.cpp:0:3
	ldr	x8, [x19, #280]                 ; 8-byte Folded Reload
	.loc	11 174 3 is_stmt 1              ; ZN20SipMultiStringHeaderD1Ev.cpp:174:3
	add	x0, x8, #12
	mov	x1, #125
	bl	___asan_set_shadow_00
	ldr	x0, [x19, #240]                 ; 8-byte Folded Reload
	.loc	11 0 0 is_stmt 0                ; ZN20SipMultiStringHeaderD1Ev.cpp:0:0
	adrp	x8, _SipMessageEncodingMap_constructor@PAGE
	.loc	11 175 3 is_stmt 1              ; ZN20SipMultiStringHeaderD1Ev.cpp:175:3
	ldr	x8, [x8, _SipMessageEncodingMap_constructor@PAGEOFF]
Ltmp91:
	blr	x8
Ltmp92:
	b	LBB7_28
LBB7_28:                                ; %invoke.cont16
	.loc	11 0 3 is_stmt 0                ; ZN20SipMultiStringHeaderD1Ev.cpp:0:3
	ldr	x0, [x19, #248]                 ; 8-byte Folded Reload
	ldr	x8, [x19, #280]                 ; 8-byte Folded Reload
	.loc	11 177 3 is_stmt 1              ; ZN20SipMultiStringHeaderD1Ev.cpp:177:3
	add	x9, x8, #154
	str	xzr, [x9]
	add	x8, x8, #162
	strh	wzr, [x8]
	mov	w1, #0
	mov	x2, #80
	.loc	11 178 3                        ; ZN20SipMultiStringHeaderD1Ev.cpp:178:3
	bl	___asan_memset
	mov	w8, #1
	.loc	11 182 15                       ; ZN20SipMultiStringHeaderD1Ev.cpp:182:15
	tbnz	w8, #0, LBB7_30
	b	LBB7_29
LBB7_29:                                ; %handler.out_of_bounds
	.loc	11 0 0 is_stmt 0                ; ZN20SipMultiStringHeaderD1Ev.cpp:0:0
	adrp	x0, l___unnamed_48@PAGE
	add	x0, x0, l___unnamed_48@PAGEOFF
	mov	x1, #40
	.loc	11 182 15                       ; ZN20SipMultiStringHeaderD1Ev.cpp:182:15
	bl	___ubsan_handle_out_of_bounds
	b	LBB7_30
LBB7_30:                                ; %cont20
	.loc	11 0 15                         ; ZN20SipMultiStringHeaderD1Ev.cpp:0:15
	ldr	x8, [x19, #248]                 ; 8-byte Folded Reload
	.loc	11 182 15                       ; ZN20SipMultiStringHeaderD1Ev.cpp:182:15
	add	x9, x8, #40
	str	x9, [x19, #112]                 ; 8-byte Folded Spill
	mov	x12, x8
	str	x12, [x19, #120]                ; 8-byte Folded Spill
	add	x11, x8, #40
	str	x11, [x19, #128]                ; 8-byte Folded Spill
	subs	x8, x8, #0
	cset	w8, ne
	subs	x9, x11, #0
	cset	w9, ne
	subs	x10, x11, x12
	cset	w10, hs
	subs	x11, x11, x12
	cset	w11, lo
	mov	w12, #1
	and	w12, w12, #0x1
	ands	w12, w12, #0x1
	csel	w10, w10, w11, ne
	str	w10, [x19, #136]                ; 4-byte Folded Spill
	and	w8, w8, #0x1
	and	w9, w9, #0x1
	subs	w8, w8, w9
	cset	w8, ne
	tbnz	w8, #0, LBB7_33
	b	LBB7_31
LBB7_31:                                ; %cont20
	.loc	11 0 15                         ; ZN20SipMultiStringHeaderD1Ev.cpp:0:15
	ldr	w8, [x19, #136]                 ; 4-byte Folded Reload
	.loc	11 182 15                       ; ZN20SipMultiStringHeaderD1Ev.cpp:182:15
	tbz	w8, #0, LBB7_33
	b	LBB7_32
LBB7_32:                                ; %cont20
	.loc	11 0 15                         ; ZN20SipMultiStringHeaderD1Ev.cpp:0:15
	mov	w8, #1
	.loc	11 182 15                       ; ZN20SipMultiStringHeaderD1Ev.cpp:182:15
	tbnz	w8, #0, LBB7_34
	b	LBB7_33
LBB7_33:                                ; %handler.pointer_overflow21
	.loc	11 0 15                         ; ZN20SipMultiStringHeaderD1Ev.cpp:0:15
	ldr	x2, [x19, #128]                 ; 8-byte Folded Reload
	ldr	x1, [x19, #120]                 ; 8-byte Folded Reload
	adrp	x0, l___unnamed_49@PAGE
	add	x0, x0, l___unnamed_49@PAGEOFF
	.loc	11 182 15                       ; ZN20SipMultiStringHeaderD1Ev.cpp:182:15
	bl	___ubsan_handle_pointer_overflow
	b	LBB7_34
LBB7_34:                                ; %cont22
	.loc	11 0 15                         ; ZN20SipMultiStringHeaderD1Ev.cpp:0:15
	ldr	x0, [x19, #112]                 ; 8-byte Folded Reload
	mov	w1, #170
	mov	x2, #8
	.loc	11 182 3                        ; ZN20SipMultiStringHeaderD1Ev.cpp:182:3
	bl	___asan_memset
	mov	w8, #1
	.loc	11 184 21 is_stmt 1             ; ZN20SipMultiStringHeaderD1Ev.cpp:184:21
	tbnz	w8, #0, LBB7_36
	b	LBB7_35
LBB7_35:                                ; %handler.out_of_bounds25
	.loc	11 0 0 is_stmt 0                ; ZN20SipMultiStringHeaderD1Ev.cpp:0:0
	adrp	x0, l___unnamed_50@PAGE
	add	x0, x0, l___unnamed_50@PAGEOFF
	mov	x1, #56
	.loc	11 184 21                       ; ZN20SipMultiStringHeaderD1Ev.cpp:184:21
	bl	___ubsan_handle_out_of_bounds
	b	LBB7_36
LBB7_36:                                ; %cont26
	.loc	11 0 21                         ; ZN20SipMultiStringHeaderD1Ev.cpp:0:21
	ldr	x8, [x19, #248]                 ; 8-byte Folded Reload
	.loc	11 184 21                       ; ZN20SipMultiStringHeaderD1Ev.cpp:184:21
	add	x9, x8, #56
	str	x9, [x19, #80]                  ; 8-byte Folded Spill
	mov	x12, x8
	str	x12, [x19, #88]                 ; 8-byte Folded Spill
	add	x11, x8, #56
	str	x11, [x19, #96]                 ; 8-byte Folded Spill
	subs	x8, x8, #0
	cset	w8, ne
	subs	x9, x11, #0
	cset	w9, ne
	subs	x10, x11, x12
	cset	w10, hs
	subs	x11, x11, x12
	cset	w11, lo
	mov	w12, #1
	and	w12, w12, #0x1
	ands	w12, w12, #0x1
	csel	w10, w10, w11, ne
	str	w10, [x19, #108]                ; 4-byte Folded Spill
	and	w8, w8, #0x1
	and	w9, w9, #0x1
	subs	w8, w8, w9
	cset	w8, ne
	tbnz	w8, #0, LBB7_39
	b	LBB7_37
LBB7_37:                                ; %cont26
	.loc	11 0 21                         ; ZN20SipMultiStringHeaderD1Ev.cpp:0:21
	ldr	w8, [x19, #108]                 ; 4-byte Folded Reload
	.loc	11 184 21                       ; ZN20SipMultiStringHeaderD1Ev.cpp:184:21
	tbz	w8, #0, LBB7_39
	b	LBB7_38
LBB7_38:                                ; %cont26
	.loc	11 0 21                         ; ZN20SipMultiStringHeaderD1Ev.cpp:0:21
	mov	w8, #1
	.loc	11 184 21                       ; ZN20SipMultiStringHeaderD1Ev.cpp:184:21
	tbnz	w8, #0, LBB7_40
	b	LBB7_39
LBB7_39:                                ; %handler.pointer_overflow28
	.loc	11 0 21                         ; ZN20SipMultiStringHeaderD1Ev.cpp:0:21
	ldr	x2, [x19, #96]                  ; 8-byte Folded Reload
	ldr	x1, [x19, #88]                  ; 8-byte Folded Reload
	adrp	x0, l___unnamed_51@PAGE
	add	x0, x0, l___unnamed_51@PAGEOFF
	.loc	11 184 21                       ; ZN20SipMultiStringHeaderD1Ev.cpp:184:21
	bl	___ubsan_handle_pointer_overflow
	b	LBB7_40
LBB7_40:                                ; %cont29
	.loc	11 0 21                         ; ZN20SipMultiStringHeaderD1Ev.cpp:0:21
	ldr	x8, [x19, #80]                  ; 8-byte Folded Reload
	.loc	11 184 27                       ; ZN20SipMultiStringHeaderD1Ev.cpp:184:27
	mov	x9, x8
	str	x9, [x19, #72]                  ; 8-byte Folded Spill
	subs	x8, x8, #0
	cset	w8, eq
	tbnz	w8, #0, LBB7_42
	b	LBB7_41
LBB7_41:                                ; %cont29
	.loc	11 0 27                         ; ZN20SipMultiStringHeaderD1Ev.cpp:0:27
	ldr	x8, [x19, #72]                  ; 8-byte Folded Reload
	.loc	11 184 27                       ; ZN20SipMultiStringHeaderD1Ev.cpp:184:27
	ands	x8, x8, #0x7
	cset	w8, eq
	tbnz	w8, #0, LBB7_43
	b	LBB7_42
LBB7_42:                                ; %handler.type_mismatch30
	.loc	11 0 27                         ; ZN20SipMultiStringHeaderD1Ev.cpp:0:27
	ldr	x1, [x19, #72]                  ; 8-byte Folded Reload
	adrp	x0, l___unnamed_52@PAGE
	add	x0, x0, l___unnamed_52@PAGEOFF
	.loc	11 184 27                       ; ZN20SipMultiStringHeaderD1Ev.cpp:184:27
	bl	___ubsan_handle_type_mismatch_v1
	b	LBB7_43
LBB7_43:                                ; %cont31
	.loc	11 0 27                         ; ZN20SipMultiStringHeaderD1Ev.cpp:0:27
	ldr	x8, [x19, #328]                 ; 8-byte Folded Reload
	ldr	x9, [x19, #80]                  ; 8-byte Folded Reload
	str	x9, [x19, #64]                  ; 8-byte Folded Spill
	.loc	11 184 27                       ; ZN20SipMultiStringHeaderD1Ev.cpp:184:27
	add	x8, x8, x9, lsr #3
	ldrb	w8, [x8]
	subs	w8, w8, #0
	cset	w8, eq
	tbnz	w8, #0, LBB7_45
	b	LBB7_44
LBB7_44:
	.loc	11 0 27                         ; ZN20SipMultiStringHeaderD1Ev.cpp:0:27
	ldr	x0, [x19, #64]                  ; 8-byte Folded Reload
	.loc	11 184 27                       ; ZN20SipMultiStringHeaderD1Ev.cpp:184:27
	bl	___asan_report_store8
	brk	#0x1
LBB7_45:
	.loc	11 0 27                         ; ZN20SipMultiStringHeaderD1Ev.cpp:0:27
	ldr	x8, [x19, #328]                 ; 8-byte Folded Reload
	ldr	x9, [x19, #256]                 ; 8-byte Folded Reload
	ldr	x10, [x19, #280]                ; 8-byte Folded Reload
	ldr	x11, [x19, #240]                ; 8-byte Folded Reload
	ldr	x12, [x19, #248]                ; 8-byte Folded Reload
	.loc	11 184 27                       ; ZN20SipMultiStringHeaderD1Ev.cpp:184:27
	str	x11, [x12, #56]
	.loc	11 186 3 is_stmt 1              ; ZN20SipMultiStringHeaderD1Ev.cpp:186:3
	add	x10, x10, #168
	strb	wzr, [x10]
	str	x9, [x19, #56]                  ; 8-byte Folded Spill
	.loc	11 186 9 is_stmt 0              ; ZN20SipMultiStringHeaderD1Ev.cpp:186:9
	add	x8, x8, x9, lsr #3
	ldrb	w8, [x8]
	subs	w8, w8, #0
	cset	w8, eq
	tbnz	w8, #0, LBB7_47
	b	LBB7_46
LBB7_46:
	.loc	11 0 9                          ; ZN20SipMultiStringHeaderD1Ev.cpp:0:9
	ldr	x0, [x19, #56]                  ; 8-byte Folded Reload
	.loc	11 186 9                        ; ZN20SipMultiStringHeaderD1Ev.cpp:186:9
	bl	___asan_report_store8
	brk	#0x1
LBB7_47:
	.loc	11 0 9                          ; ZN20SipMultiStringHeaderD1Ev.cpp:0:9
	ldr	x8, [x19, #328]                 ; 8-byte Folded Reload
	ldr	x9, [x19, #264]                 ; 8-byte Folded Reload
	ldr	x10, [x19, #280]                ; 8-byte Folded Reload
	ldr	x11, [x19, #256]                ; 8-byte Folded Reload
                                        ; kill: def $x12 killed $xzr
	.loc	11 186 9                        ; ZN20SipMultiStringHeaderD1Ev.cpp:186:9
	str	xzr, [x11]
	.loc	11 187 3 is_stmt 1              ; ZN20SipMultiStringHeaderD1Ev.cpp:187:3
	add	x11, x10, #172
	mov	w10, #1
	strb	w10, [x11]
	str	x9, [x19, #40]                  ; 8-byte Folded Spill
	.loc	11 187 8 is_stmt 0              ; ZN20SipMultiStringHeaderD1Ev.cpp:187:8
	add	x8, x8, x9, lsr #3
	ldrb	w8, [x8]
	str	w8, [x19, #52]                  ; 4-byte Folded Spill
	subs	w8, w8, #0
	cset	w8, eq
	tbnz	w8, #0, LBB7_50
	b	LBB7_48
LBB7_48:
	.loc	11 0 8                          ; ZN20SipMultiStringHeaderD1Ev.cpp:0:8
	ldr	w8, [x19, #52]                  ; 4-byte Folded Reload
	ldr	x9, [x19, #40]                  ; 8-byte Folded Reload
	.loc	11 187 8                        ; ZN20SipMultiStringHeaderD1Ev.cpp:187:8
	and	x9, x9, #0x7
                                        ; kill: def $w9 killed $w9 killed $x9
	sxtb	w8, w8
	subs	w8, w8, w9, sxtb
	cset	w8, gt
	tbnz	w8, #0, LBB7_50
	b	LBB7_49
LBB7_49:
	.loc	11 0 8                          ; ZN20SipMultiStringHeaderD1Ev.cpp:0:8
	ldr	x0, [x19, #40]                  ; 8-byte Folded Reload
	.loc	11 187 8                        ; ZN20SipMultiStringHeaderD1Ev.cpp:187:8
	bl	___asan_report_store1
	brk	#0x1
LBB7_50:
	.loc	11 0 8                          ; ZN20SipMultiStringHeaderD1Ev.cpp:0:8
	ldr	x3, [x19, #264]                 ; 8-byte Folded Reload
	ldr	x2, [x19, #256]                 ; 8-byte Folded Reload
	ldr	x1, [x19, #232]                 ; 8-byte Folded Reload
	ldr	x0, [x19, #248]                 ; 8-byte Folded Reload
	.loc	11 187 8                        ; ZN20SipMultiStringHeaderD1Ev.cpp:187:8
	strb	wzr, [x3]
	.loc	11 0 0                          ; ZN20SipMultiStringHeaderD1Ev.cpp:0:0
	adrp	x8, _SipMessageDecoder_decode@PAGE
	.loc	11 189 3 is_stmt 1              ; ZN20SipMultiStringHeaderD1Ev.cpp:189:3
	ldr	x8, [x8, _SipMessageDecoder_decode@PAGEOFF]
Ltmp94:
	blr	x8
Ltmp95:
	b	LBB7_51
LBB7_51:                                ; %invoke.cont34
Ltmp96:
	.loc	11 0 0 is_stmt 0                ; ZN20SipMultiStringHeaderD1Ev.cpp:0:0
	adrp	x0, _.str.13@PAGE
	add	x0, x0, _.str.13@PAGEOFF
	.loc	11 191 3 is_stmt 1              ; ZN20SipMultiStringHeaderD1Ev.cpp:191:3
	bl	_printf
Ltmp97:
	b	LBB7_52
LBB7_52:                                ; %invoke.cont36
	.loc	11 0 3 is_stmt 0                ; ZN20SipMultiStringHeaderD1Ev.cpp:0:3
	ldr	x8, [x19, #280]                 ; 8-byte Folded Reload
	.loc	11 193 3 is_stmt 1              ; ZN20SipMultiStringHeaderD1Ev.cpp:193:3
	str	wzr, [x19, #380]
	mov	w9, #1
	str	w9, [x19, #352]
	.loc	11 194 1                        ; ZN20SipMultiStringHeaderD1Ev.cpp:194:1
	add	x10, x8, #172
	mov	w9, #248
	strb	w9, [x10]
	add	x10, x8, #168
	strb	w9, [x10]
	add	x10, x8, #154
	mov	x9, #-506381209866536712
	str	x9, [x10]
	add	x10, x8, #162
	mov	w9, #63736
	strh	w9, [x10]
	add	x0, x8, #12
	mov	x1, #125
	bl	___asan_set_shadow_f8
	b	LBB7_56
LBB7_53:                                ; %lpad15
Ltmp93:
	mov	x8, x1
	str	x0, [x19, #360]
	str	w8, [x19, #356]
	b	LBB7_55
LBB7_54:                                ; %lpad33
Ltmp98:
	.loc	11 0 1 is_stmt 0                ; ZN20SipMultiStringHeaderD1Ev.cpp:0:1
	ldr	x8, [x19, #280]                 ; 8-byte Folded Reload
	.loc	11 194 1                        ; ZN20SipMultiStringHeaderD1Ev.cpp:194:1
	mov	x9, x1
	str	x0, [x19, #360]
	str	w9, [x19, #356]
	add	x10, x8, #172
	mov	w9, #248
	strb	w9, [x10]
	add	x10, x8, #168
	strb	w9, [x10]
	add	x10, x8, #154
	mov	x9, #-506381209866536712
	str	x9, [x10]
	add	x9, x8, #162
	mov	w8, #63736
	strh	w8, [x9]
	b	LBB7_55
LBB7_55:                                ; %ehcleanup
	.loc	11 0 1                          ; ZN20SipMultiStringHeaderD1Ev.cpp:0:1
	ldr	x8, [x19, #280]                 ; 8-byte Folded Reload
	.loc	11 194 1                        ; ZN20SipMultiStringHeaderD1Ev.cpp:194:1
	add	x0, x8, #12
	mov	x1, #125
	bl	___asan_set_shadow_f8
	b	LBB7_57
LBB7_56:                                ; %cleanup
	.loc	11 0 1                          ; ZN20SipMultiStringHeaderD1Ev.cpp:0:1
	ldr	x0, [x19, #232]                 ; 8-byte Folded Reload
	.loc	11 194 1                        ; ZN20SipMultiStringHeaderD1Ev.cpp:194:1
	bl	__ZNSt3__112basic_stringIcNS_11char_traitsIcEENS_9allocatorIcEEED1Ev
	ldr	x8, [x19, #280]                 ; 8-byte Folded Reload
	add	x10, x8, #4
	mov	w9, #63736
	strh	w9, [x10]
	add	x9, x8, #6
	mov	w8, #248
	strb	w8, [x9]
	b	LBB7_59
LBB7_57:                                ; %ehcleanup39
Ltmp99:
	.loc	11 0 1                          ; ZN20SipMultiStringHeaderD1Ev.cpp:0:1
	ldr	x0, [x19, #232]                 ; 8-byte Folded Reload
	.loc	11 194 1                        ; ZN20SipMultiStringHeaderD1Ev.cpp:194:1
	bl	__ZNSt3__112basic_stringIcNS_11char_traitsIcEENS_9allocatorIcEEED1Ev
Ltmp100:
	b	LBB7_58
LBB7_58:                                ; %invoke.cont40
	.loc	11 0 1                          ; ZN20SipMultiStringHeaderD1Ev.cpp:0:1
	ldr	x8, [x19, #280]                 ; 8-byte Folded Reload
	.loc	11 194 1                        ; ZN20SipMultiStringHeaderD1Ev.cpp:194:1
	add	x10, x8, #4
	mov	w9, #63736
	strh	w9, [x10]
	add	x9, x8, #6
	mov	w8, #248
	strb	w8, [x9]
	b	LBB7_65
LBB7_59:                                ; %return
	.loc	11 0 1                          ; ZN20SipMultiStringHeaderD1Ev.cpp:0:1
	ldr	x8, [x19, #288]                 ; 8-byte Folded Reload
	ldr	x10, [x19, #272]                ; 8-byte Folded Reload
	.loc	11 194 1                        ; ZN20SipMultiStringHeaderD1Ev.cpp:194:1
	ldr	w9, [x19, #380]
	str	w9, [x19, #36]                  ; 4-byte Folded Spill
	mov	x9, #13838
	movk	x9, #17888, lsl #16
	str	x9, [x10]
	subs	x8, x8, #0
	cset	w8, eq
	tbnz	w8, #0, LBB7_61
	b	LBB7_60
LBB7_60:
	.loc	11 0 1                          ; ZN20SipMultiStringHeaderD1Ev.cpp:0:1
	ldr	x0, [x19, #288]                 ; 8-byte Folded Reload
	mov	x1, #1408
	.loc	11 194 1                        ; ZN20SipMultiStringHeaderD1Ev.cpp:194:1
	bl	___asan_stack_free_5
	b	LBB7_62
LBB7_61:
	.loc	11 0 1                          ; ZN20SipMultiStringHeaderD1Ev.cpp:0:1
	ldr	x8, [x19, #280]                 ; 8-byte Folded Reload
	.loc	11 194 1                        ; ZN20SipMultiStringHeaderD1Ev.cpp:194:1
	add	x0, x8, #0
	mov	x1, #176
	bl	___asan_set_shadow_00
	b	LBB7_62
LBB7_62:
	ldr	x9, [x19, #408]
	adrp	x8, ___stack_chk_guard@GOTPAGE
	ldr	x8, [x8, ___stack_chk_guard@GOTPAGEOFF]
	ldr	x8, [x8]
	subs	x8, x8, x9
	cset	w8, eq
	tbnz	w8, #0, LBB7_64
	b	LBB7_63
LBB7_63:
	bl	___stack_chk_fail
LBB7_64:
	.loc	11 0 1                          ; ZN20SipMultiStringHeaderD1Ev.cpp:0:1
	ldr	w0, [x19, #36]                  ; 4-byte Folded Reload
	.loc	11 194 1                        ; ZN20SipMultiStringHeaderD1Ev.cpp:194:1
	sub	sp, x29, #16
	.cfi_def_cfa wsp, 32
	ldp	x29, x30, [sp, #16]             ; 16-byte Folded Reload
	ldp	x20, x19, [sp], #32             ; 16-byte Folded Reload
	.cfi_def_cfa_offset 0
	.cfi_restore w30
	.cfi_restore w29
	.cfi_restore w19
	.cfi_restore w20
	ret
LBB7_65:                                ; %eh.resume
	.cfi_restore_state
	.loc	11 0 1                          ; ZN20SipMultiStringHeaderD1Ev.cpp:0:1
	ldr	x8, [x19, #288]                 ; 8-byte Folded Reload
	ldr	x10, [x19, #272]                ; 8-byte Folded Reload
	.loc	11 194 1                        ; ZN20SipMultiStringHeaderD1Ev.cpp:194:1
	ldr	x9, [x19, #360]
	str	x9, [x19, #24]                  ; 8-byte Folded Spill
	mov	x9, #13838
	movk	x9, #17888, lsl #16
	str	x9, [x10]
	subs	x8, x8, #0
	cset	w8, eq
	tbnz	w8, #0, LBB7_67
	b	LBB7_66
LBB7_66:
	.loc	11 0 1                          ; ZN20SipMultiStringHeaderD1Ev.cpp:0:1
	ldr	x0, [x19, #288]                 ; 8-byte Folded Reload
	mov	x1, #1408
	.loc	11 194 1                        ; ZN20SipMultiStringHeaderD1Ev.cpp:194:1
	bl	___asan_stack_free_5
	b	LBB7_68
LBB7_67:
	.loc	11 0 1                          ; ZN20SipMultiStringHeaderD1Ev.cpp:0:1
	ldr	x8, [x19, #280]                 ; 8-byte Folded Reload
	.loc	11 194 1                        ; ZN20SipMultiStringHeaderD1Ev.cpp:194:1
	add	x0, x8, #0
	mov	x1, #176
	bl	___asan_set_shadow_00
	b	LBB7_68
LBB7_68:
	.loc	11 0 1                          ; ZN20SipMultiStringHeaderD1Ev.cpp:0:1
	ldr	x0, [x19, #24]                  ; 8-byte Folded Reload
	bl	__Unwind_Resume
LBB7_69:                                ; %terminate.lpad
Ltmp101:
	str	x0, [x19, #16]                  ; 8-byte Folded Spill
	.loc	11 194 1                        ; ZN20SipMultiStringHeaderD1Ev.cpp:194:1
	bl	___asan_handle_no_return
	ldr	x0, [x19, #16]                  ; 8-byte Folded Reload
	bl	___clang_call_terminate
Ltmp113:
Lfunc_end7:
	.cfi_endproc
	.section	__TEXT,__gcc_except_tab
	.p2align	2
GCC_except_table7:
Lexception1:
	.byte	255                             ; @LPStart Encoding = omit
	.byte	155                             ; @TType Encoding = indirect pcrel sdata4
	.uleb128 Lttbase1-Lttbaseref1
Lttbaseref1:
	.byte	1                               ; Call site Encoding = uleb128
	.uleb128 Lcst_end1-Lcst_begin1
Lcst_begin1:
	.uleb128 Lfunc_begin7-Lfunc_begin7      ; >> Call Site 1 <<
	.uleb128 Ltmp86-Lfunc_begin7            ;   Call between Lfunc_begin7 and Ltmp86
	.byte	0                               ;     has no landing pad
	.byte	0                               ;   On action: cleanup
	.uleb128 Ltmp86-Lfunc_begin7            ; >> Call Site 2 <<
	.uleb128 Ltmp89-Ltmp86                  ;   Call between Ltmp86 and Ltmp89
	.uleb128 Ltmp90-Lfunc_begin7            ;     jumps to Ltmp90
	.byte	0                               ;   On action: cleanup
	.uleb128 Ltmp89-Lfunc_begin7            ; >> Call Site 3 <<
	.uleb128 Ltmp91-Ltmp89                  ;   Call between Ltmp89 and Ltmp91
	.byte	0                               ;     has no landing pad
	.byte	0                               ;   On action: cleanup
	.uleb128 Ltmp91-Lfunc_begin7            ; >> Call Site 4 <<
	.uleb128 Ltmp92-Ltmp91                  ;   Call between Ltmp91 and Ltmp92
	.uleb128 Ltmp93-Lfunc_begin7            ;     jumps to Ltmp93
	.byte	0                               ;   On action: cleanup
	.uleb128 Ltmp92-Lfunc_begin7            ; >> Call Site 5 <<
	.uleb128 Ltmp94-Ltmp92                  ;   Call between Ltmp92 and Ltmp94
	.byte	0                               ;     has no landing pad
	.byte	0                               ;   On action: cleanup
	.uleb128 Ltmp94-Lfunc_begin7            ; >> Call Site 6 <<
	.uleb128 Ltmp97-Ltmp94                  ;   Call between Ltmp94 and Ltmp97
	.uleb128 Ltmp98-Lfunc_begin7            ;     jumps to Ltmp98
	.byte	0                               ;   On action: cleanup
	.uleb128 Ltmp97-Lfunc_begin7            ; >> Call Site 7 <<
	.uleb128 Ltmp99-Ltmp97                  ;   Call between Ltmp97 and Ltmp99
	.byte	0                               ;     has no landing pad
	.byte	0                               ;   On action: cleanup
	.uleb128 Ltmp99-Lfunc_begin7            ; >> Call Site 8 <<
	.uleb128 Ltmp100-Ltmp99                 ;   Call between Ltmp99 and Ltmp100
	.uleb128 Ltmp101-Lfunc_begin7           ;     jumps to Ltmp101
	.byte	1                               ;   On action: 1
	.uleb128 Ltmp100-Lfunc_begin7           ; >> Call Site 9 <<
	.uleb128 Lfunc_end7-Ltmp100             ;   Call between Ltmp100 and Lfunc_end7
	.byte	0                               ;     has no landing pad
	.byte	0                               ;   On action: cleanup
Lcst_end1:
	.byte	1                               ; >> Action Record 1 <<
                                        ;   Catch TypeInfo 1
	.byte	0                               ;   No further actions
	.p2align	2
                                        ; >> Catch TypeInfos <<
	.long	0                               ; TypeInfo 1
Lttbase1:
	.p2align	2
                                        ; -- End function
	.section	__TEXT,__text,regular,pure_instructions
	.private_extern	__ZNSt3__112basic_stringIcNS_11char_traitsIcEENS_9allocatorIcEEEC2B6v15006Ev ; -- Begin function _ZNSt3__112basic_stringIcNS_11char_traitsIcEENS_9allocatorIcEEEC2B6v15006Ev
	.globl	__ZNSt3__112basic_stringIcNS_11char_traitsIcEENS_9allocatorIcEEEC2B6v15006Ev
	.weak_def_can_be_hidden	__ZNSt3__112basic_stringIcNS_11char_traitsIcEENS_9allocatorIcEEEC2B6v15006Ev
	.p2align	2
__ZNSt3__112basic_stringIcNS_11char_traitsIcEENS_9allocatorIcEEEC2B6v15006Ev: ; @_ZNSt3__112basic_stringIcNS_11char_traitsIcEENS_9allocatorIcEEEC2B6v15006Ev
Lfunc_begin8:
	.loc	6 1900 0 is_stmt 1              ; /Applications/Xcode.app/Contents/Developer/Platforms/MacOSX.platform/Developer/SDKs/MacOSX.sdk/usr/include/c++/v1/string:1900:0
	.cfi_startproc
; %bb.0:                                ; %entry
	stp	x20, x19, [sp, #-32]!           ; 16-byte Folded Spill
	.cfi_def_cfa_offset 32
	stp	x29, x30, [sp, #16]             ; 16-byte Folded Spill
	add	x29, sp, #16
	.cfi_def_cfa w29, 16
	.cfi_offset w30, -8
	.cfi_offset w29, -16
	.cfi_offset w19, -24
	.cfi_offset w20, -32
	sub	x9, sp, #160
	and	sp, x9, #0xffffffffffffffe0
	mov	x19, sp
	mov	x9, #0
	adrp	x8, l____asan_gen_.20@PAGE
	add	x8, x8, l____asan_gen_.20@PAGEOFF
	str	x8, [x19, #72]                  ; 8-byte Folded Spill
	adrp	x8, __ZNSt3__112basic_stringIcNS_11char_traitsIcEENS_9allocatorIcEEEC2B6v15006Ev@PAGE
	add	x8, x8, __ZNSt3__112basic_stringIcNS_11char_traitsIcEENS_9allocatorIcEEEC2B6v15006Ev@PAGEOFF
	str	x8, [x19, #80]                  ; 8-byte Folded Spill
	adrp	x8, ___stack_chk_guard@GOTPAGE
	ldr	x8, [x8, ___stack_chk_guard@GOTPAGEOFF]
	ldr	x8, [x8]
	str	x8, [x19, #152]
	adrp	x8, ___asan_shadow_memory_dynamic_address@GOTPAGE
	ldr	x8, [x8, ___asan_shadow_memory_dynamic_address@GOTPAGEOFF]
	ldr	x8, [x8]
	str	x8, [x19, #88]                  ; 8-byte Folded Spill
	str	x0, [x19, #112]
	adrp	x8, ___asan_option_detect_stack_use_after_return@GOTPAGE
	ldr	x8, [x8, ___asan_option_detect_stack_use_after_return@GOTPAGEOFF]
	ldr	w8, [x8]
	subs	w8, w8, #0
	cset	w8, eq
	str	x9, [x19, #96]                  ; 8-byte Folded Spill
	tbnz	w8, #0, LBB8_2
	b	LBB8_1
LBB8_1:
	mov	x0, #64
	bl	___asan_stack_malloc_0
	str	x0, [x19, #96]                  ; 8-byte Folded Spill
	b	LBB8_2
LBB8_2:
	ldr	x9, [x19, #96]                  ; 8-byte Folded Reload
	str	x9, [x19, #56]                  ; 8-byte Folded Spill
	subs	x8, x9, #0
	cset	w8, ne
	str	x9, [x19, #64]                  ; 8-byte Folded Spill
	tbnz	w8, #0, LBB8_4
	b	LBB8_3
LBB8_3:
	mov	x8, sp
	subs	x8, x8, #64
	and	x8, x8, #0xffffffffffffffe0
	mov	sp, x8
	str	x8, [x19, #64]                  ; 8-byte Folded Spill
	b	LBB8_4
LBB8_4:
	ldr	x8, [x19, #88]                  ; 8-byte Folded Reload
	ldr	x10, [x19, #80]                 ; 8-byte Folded Reload
	ldr	x11, [x19, #72]                 ; 8-byte Folded Reload
	ldr	x9, [x19, #64]                  ; 8-byte Folded Reload
	str	x9, [x19, #104]
	add	x0, x9, #32
	str	x0, [x19, #8]                   ; 8-byte Folded Spill
	add	x0, x9, #48
	str	x0, [x19, #16]                  ; 8-byte Folded Spill
	mov	x13, x9
	str	x13, [x19, #24]                 ; 8-byte Folded Spill
	mov	x12, #35507
	movk	x12, #16821, lsl #16
	str	x12, [x13]
	add	x12, x9, #8
	str	x11, [x12]
	add	x11, x9, #16
	str	x10, [x11]
	add	x8, x8, x9, lsr #3
	str	x8, [x19, #32]                  ; 8-byte Folded Spill
	add	x9, x8, #0
	mov	x8, #-1012762419733073423
	movk	x8, #62200, lsl #32
	movk	x8, #62456, lsl #48
	str	x8, [x9]
	ldr	x8, [x19, #112]
	str	x8, [x19, #40]                  ; 8-byte Folded Spill
	mov	x9, x8
	str	x9, [x19, #120]
	mov	x9, x8
	str	x9, [x19, #48]                  ; 8-byte Folded Spill
	subs	x8, x8, #0
	cset	w8, eq
	tbnz	w8, #0, LBB8_6
	b	LBB8_5
LBB8_5:
	ldr	x8, [x19, #48]                  ; 8-byte Folded Reload
	ands	x8, x8, #0x7
	cset	w8, eq
	tbnz	w8, #0, LBB8_7
	b	LBB8_6
LBB8_6:                                 ; %handler.type_mismatch
	ldr	x1, [x19, #48]                  ; 8-byte Folded Reload
Ltmp114:
	.loc	6 0 0 is_stmt 0                 ; /Applications/Xcode.app/Contents/Developer/Platforms/MacOSX.platform/Developer/SDKs/MacOSX.sdk/usr/include/c++/v1/string:0:0
	adrp	x0, l___unnamed_53@PAGE
	add	x0, x0, l___unnamed_53@PAGEOFF
	bl	___ubsan_handle_type_mismatch_v1
	b	LBB8_7
LBB8_7:                                 ; %cont
	ldr	x0, [x19, #40]                  ; 8-byte Folded Reload
	ldr	x9, [x19, #32]                  ; 8-byte Folded Reload
	ldr	x2, [x19, #16]                  ; 8-byte Folded Reload
	ldr	x1, [x19, #8]                   ; 8-byte Folded Reload
	.loc	6 1899 13 prologue_end is_stmt 1 ; /Applications/Xcode.app/Contents/Developer/Platforms/MacOSX.platform/Developer/SDKs/MacOSX.sdk/usr/include/c++/v1/string:1899:13
	add	x10, x9, #4
	mov	w8, #1
	strb	w8, [x10]
	.loc	6 1899 35 is_stmt 0             ; /Applications/Xcode.app/Contents/Developer/Platforms/MacOSX.platform/Developer/SDKs/MacOSX.sdk/usr/include/c++/v1/string:1899:35
	add	x9, x9, #6
	strb	w8, [x9]
	.loc	6 1899 8                        ; /Applications/Xcode.app/Contents/Developer/Platforms/MacOSX.platform/Developer/SDKs/MacOSX.sdk/usr/include/c++/v1/string:1899:8
	bl	__ZNSt3__117__compressed_pairINS_12basic_stringIcNS_11char_traitsIcEENS_9allocatorIcEEE5__repES5_EC1B6v15006INS_18__default_init_tagESA_EEOT_OT0_
	ldr	x0, [x19, #40]                  ; 8-byte Folded Reload
	ldr	x9, [x19, #32]                  ; 8-byte Folded Reload
	add	x10, x9, #6
	mov	w8, #248
	strb	w8, [x10]
	add	x9, x9, #4
	strb	w8, [x9]
Ltmp115:
	.loc	6 1901 5 is_stmt 1              ; /Applications/Xcode.app/Contents/Developer/Platforms/MacOSX.platform/Developer/SDKs/MacOSX.sdk/usr/include/c++/v1/string:1901:5
	bl	__ZNSt3__119__debug_db_insert_cB6v15006INS_12basic_stringIcNS_11char_traitsIcEENS_9allocatorIcEEEEEEvPT_
	ldr	x0, [x19, #40]                  ; 8-byte Folded Reload
	.loc	6 1902 5                        ; /Applications/Xcode.app/Contents/Developer/Platforms/MacOSX.platform/Developer/SDKs/MacOSX.sdk/usr/include/c++/v1/string:1902:5
	bl	__ZNSt3__112basic_stringIcNS_11char_traitsIcEENS_9allocatorIcEEE14__default_initB6v15006Ev
	ldr	x10, [x19, #24]                 ; 8-byte Folded Reload
	ldr	x8, [x19, #56]                  ; 8-byte Folded Reload
Ltmp116:
	.loc	6 1903 1                        ; /Applications/Xcode.app/Contents/Developer/Platforms/MacOSX.platform/Developer/SDKs/MacOSX.sdk/usr/include/c++/v1/string:1903:1
	ldr	x9, [x19, #120]
	str	x9, [x19]                       ; 8-byte Folded Spill
	mov	x9, #13838
	movk	x9, #17888, lsl #16
	str	x9, [x10]
	subs	x8, x8, #0
	cset	w8, eq
	tbnz	w8, #0, LBB8_9
	b	LBB8_8
LBB8_8:
	.loc	6 0 1 is_stmt 0                 ; /Applications/Xcode.app/Contents/Developer/Platforms/MacOSX.platform/Developer/SDKs/MacOSX.sdk/usr/include/c++/v1/string:0:1
	ldr	x8, [x19, #56]                  ; 8-byte Folded Reload
	ldr	x9, [x19, #32]                  ; 8-byte Folded Reload
	.loc	6 1903 1                        ; /Applications/Xcode.app/Contents/Developer/Platforms/MacOSX.platform/Developer/SDKs/MacOSX.sdk/usr/include/c++/v1/string:1903:1
	add	x10, x9, #0
	mov	x9, #62965
	movk	x9, #62965, lsl #16
	movk	x9, #62965, lsl #32
	movk	x9, #62965, lsl #48
	str	x9, [x10]
	add	x8, x8, #56
	ldr	x8, [x8]
	strb	wzr, [x8]
	b	LBB8_10
LBB8_9:
	.loc	6 0 1                           ; /Applications/Xcode.app/Contents/Developer/Platforms/MacOSX.platform/Developer/SDKs/MacOSX.sdk/usr/include/c++/v1/string:0:1
	ldr	x8, [x19, #32]                  ; 8-byte Folded Reload
	.loc	6 1903 1                        ; /Applications/Xcode.app/Contents/Developer/Platforms/MacOSX.platform/Developer/SDKs/MacOSX.sdk/usr/include/c++/v1/string:1903:1
	add	x8, x8, #0
	str	xzr, [x8]
	b	LBB8_10
LBB8_10:
	ldr	x9, [x19, #152]
	adrp	x8, ___stack_chk_guard@GOTPAGE
	ldr	x8, [x8, ___stack_chk_guard@GOTPAGEOFF]
	ldr	x8, [x8]
	subs	x8, x8, x9
	cset	w8, eq
	tbnz	w8, #0, LBB8_12
	b	LBB8_11
LBB8_11:
	bl	___stack_chk_fail
LBB8_12:
	.loc	6 0 1                           ; /Applications/Xcode.app/Contents/Developer/Platforms/MacOSX.platform/Developer/SDKs/MacOSX.sdk/usr/include/c++/v1/string:0:1
	ldr	x0, [x19]                       ; 8-byte Folded Reload
	.loc	6 1903 1                        ; /Applications/Xcode.app/Contents/Developer/Platforms/MacOSX.platform/Developer/SDKs/MacOSX.sdk/usr/include/c++/v1/string:1903:1
	sub	sp, x29, #16
	.cfi_def_cfa wsp, 32
	ldp	x29, x30, [sp, #16]             ; 16-byte Folded Reload
	ldp	x20, x19, [sp], #32             ; 16-byte Folded Reload
	.cfi_def_cfa_offset 0
	.cfi_restore w30
	.cfi_restore w29
	.cfi_restore w19
	.cfi_restore w20
	ret
Ltmp117:
Lfunc_end8:
	.cfi_endproc
                                        ; -- End function
	.globl	__ZNSt3__117__compressed_pairINS_12basic_stringIcNS_11char_traitsIcEENS_9allocatorIcEEE5__repES5_EC1B6v15006INS_18__default_init_tagESA_EEOT_OT0_ ; -- Begin function _ZNSt3__117__compressed_pairINS_12basic_stringIcNS_11char_traitsIcEENS_9allocatorIcEEE5__repES5_EC1B6v15006INS_18__default_init_tagESA_EEOT_OT0_
	.weak_def_can_be_hidden	__ZNSt3__117__compressed_pairINS_12basic_stringIcNS_11char_traitsIcEENS_9allocatorIcEEE5__repES5_EC1B6v15006INS_18__default_init_tagESA_EEOT_OT0_
	.p2align	2
__ZNSt3__117__compressed_pairINS_12basic_stringIcNS_11char_traitsIcEENS_9allocatorIcEEE5__repES5_EC1B6v15006INS_18__default_init_tagESA_EEOT_OT0_: ; @_ZNSt3__117__compressed_pairINS_12basic_stringIcNS_11char_traitsIcEENS_9allocatorIcEEE5__repES5_EC1B6v15006INS_18__default_init_tagESA_EEOT_OT0_
Lfunc_begin9:
	.loc	7 108 0 is_stmt 1               ; /Applications/Xcode.app/Contents/Developer/Platforms/MacOSX.platform/Developer/SDKs/MacOSX.sdk/usr/include/c++/v1/__memory/compressed_pair.h:108:0
	.cfi_startproc
; %bb.0:                                ; %entry
	sub	sp, sp, #64
	.cfi_def_cfa_offset 64
	stp	x29, x30, [sp, #48]             ; 16-byte Folded Spill
	add	x29, sp, #48
	.cfi_def_cfa w29, 16
	.cfi_offset w30, -8
	.cfi_offset w29, -16
	stur	x0, [x29, #-16]
	str	x1, [sp, #24]
	str	x2, [sp, #16]
	ldur	x8, [x29, #-16]
	str	x8, [sp]                        ; 8-byte Folded Spill
	mov	x9, x8
	stur	x9, [x29, #-8]
	mov	x9, x8
	str	x9, [sp, #8]                    ; 8-byte Folded Spill
	subs	x8, x8, #0
	cset	w8, eq
	tbnz	w8, #0, LBB9_2
	b	LBB9_1
LBB9_1:                                 ; %entry
	ldr	x8, [sp, #8]                    ; 8-byte Folded Reload
	ands	x8, x8, #0x7
	cset	w8, eq
	tbnz	w8, #0, LBB9_3
	b	LBB9_2
LBB9_2:                                 ; %handler.type_mismatch
	ldr	x1, [sp, #8]                    ; 8-byte Folded Reload
Ltmp118:
	.loc	7 0 0 is_stmt 0                 ; /Applications/Xcode.app/Contents/Developer/Platforms/MacOSX.platform/Developer/SDKs/MacOSX.sdk/usr/include/c++/v1/__memory/compressed_pair.h:0:0
	adrp	x0, l___unnamed_54@PAGE
	add	x0, x0, l___unnamed_54@PAGEOFF
	bl	___ubsan_handle_type_mismatch_v1
	b	LBB9_3
LBB9_3:                                 ; %cont
	ldr	x0, [sp]                        ; 8-byte Folded Reload
	.loc	7 108 121 prologue_end is_stmt 1 ; /Applications/Xcode.app/Contents/Developer/Platforms/MacOSX.platform/Developer/SDKs/MacOSX.sdk/usr/include/c++/v1/__memory/compressed_pair.h:108:121
	ldr	x1, [sp, #24]
	ldr	x2, [sp, #16]
	bl	__ZNSt3__117__compressed_pairINS_12basic_stringIcNS_11char_traitsIcEENS_9allocatorIcEEE5__repES5_EC2B6v15006INS_18__default_init_tagESA_EEOT_OT0_
	.loc	7 108 122 is_stmt 0             ; /Applications/Xcode.app/Contents/Developer/Platforms/MacOSX.platform/Developer/SDKs/MacOSX.sdk/usr/include/c++/v1/__memory/compressed_pair.h:108:122
	ldur	x0, [x29, #-8]
	.cfi_def_cfa wsp, 64
	ldp	x29, x30, [sp, #48]             ; 16-byte Folded Reload
	add	sp, sp, #64
	.cfi_def_cfa_offset 0
	.cfi_restore w30
	.cfi_restore w29
	ret
Ltmp119:
Lfunc_end9:
	.cfi_endproc
                                        ; -- End function
	.private_extern	__ZNSt3__119__debug_db_insert_cB6v15006INS_12basic_stringIcNS_11char_traitsIcEENS_9allocatorIcEEEEEEvPT_ ; -- Begin function _ZNSt3__119__debug_db_insert_cB6v15006INS_12basic_stringIcNS_11char_traitsIcEENS_9allocatorIcEEEEEEvPT_
	.globl	__ZNSt3__119__debug_db_insert_cB6v15006INS_12basic_stringIcNS_11char_traitsIcEENS_9allocatorIcEEEEEEvPT_
	.weak_definition	__ZNSt3__119__debug_db_insert_cB6v15006INS_12basic_stringIcNS_11char_traitsIcEENS_9allocatorIcEEEEEEvPT_
	.p2align	2
__ZNSt3__119__debug_db_insert_cB6v15006INS_12basic_stringIcNS_11char_traitsIcEENS_9allocatorIcEEEEEEvPT_: ; @_ZNSt3__119__debug_db_insert_cB6v15006INS_12basic_stringIcNS_11char_traitsIcEENS_9allocatorIcEEEEEEvPT_
Lfunc_begin10:
	.file	69 "/Applications/Xcode.app/Contents/Developer/Platforms/MacOSX.platform/Developer/SDKs/MacOSX.sdk/usr/include/c++/v1" "__debug"
	.loc	69 215 0 is_stmt 1              ; /Applications/Xcode.app/Contents/Developer/Platforms/MacOSX.platform/Developer/SDKs/MacOSX.sdk/usr/include/c++/v1/__debug:215:0
	.cfi_startproc
; %bb.0:                                ; %entry
	sub	sp, sp, #16
	.cfi_def_cfa_offset 16
	str	x0, [sp, #8]
Ltmp121:
	.loc	69 222 1 prologue_end           ; /Applications/Xcode.app/Contents/Developer/Platforms/MacOSX.platform/Developer/SDKs/MacOSX.sdk/usr/include/c++/v1/__debug:222:1
	add	sp, sp, #16
	.cfi_def_cfa_offset 0
	ret
Ltmp122:
Lfunc_end10:
	.cfi_endproc
                                        ; -- End function
	.private_extern	__ZNSt3__112basic_stringIcNS_11char_traitsIcEENS_9allocatorIcEEE14__default_initB6v15006Ev ; -- Begin function _ZNSt3__112basic_stringIcNS_11char_traitsIcEENS_9allocatorIcEEE14__default_initB6v15006Ev
	.globl	__ZNSt3__112basic_stringIcNS_11char_traitsIcEENS_9allocatorIcEEE14__default_initB6v15006Ev
	.weak_definition	__ZNSt3__112basic_stringIcNS_11char_traitsIcEENS_9allocatorIcEEE14__default_initB6v15006Ev
	.p2align	2
__ZNSt3__112basic_stringIcNS_11char_traitsIcEENS_9allocatorIcEEE14__default_initB6v15006Ev: ; @_ZNSt3__112basic_stringIcNS_11char_traitsIcEENS_9allocatorIcEEE14__default_initB6v15006Ev
Lfunc_begin11:
	.loc	6 1514 0                        ; /Applications/Xcode.app/Contents/Developer/Platforms/MacOSX.platform/Developer/SDKs/MacOSX.sdk/usr/include/c++/v1/string:1514:0
	.cfi_startproc
; %bb.0:                                ; %entry
	sub	sp, sp, #64
	.cfi_def_cfa_offset 64
	stp	x29, x30, [sp, #48]             ; 16-byte Folded Spill
	add	x29, sp, #48
	.cfi_def_cfa w29, 16
	.cfi_offset w30, -8
	.cfi_offset w29, -16
	stur	x0, [x29, #-8]
	ldur	x8, [x29, #-8]
	str	x8, [sp, #8]                    ; 8-byte Folded Spill
	mov	x9, x8
	str	x9, [sp, #16]                   ; 8-byte Folded Spill
	subs	x8, x8, #0
	cset	w8, eq
	tbnz	w8, #0, LBB11_2
	b	LBB11_1
LBB11_1:                                ; %entry
	ldr	x8, [sp, #16]                   ; 8-byte Folded Reload
	ands	x8, x8, #0x7
	cset	w8, eq
	tbnz	w8, #0, LBB11_3
	b	LBB11_2
LBB11_2:                                ; %handler.type_mismatch
	ldr	x1, [sp, #16]                   ; 8-byte Folded Reload
Ltmp123:
	.loc	6 0 0 is_stmt 0                 ; /Applications/Xcode.app/Contents/Developer/Platforms/MacOSX.platform/Developer/SDKs/MacOSX.sdk/usr/include/c++/v1/string:0:0
	adrp	x0, l___unnamed_55@PAGE
	add	x0, x0, l___unnamed_55@PAGEOFF
	bl	___ubsan_handle_type_mismatch_v1
	b	LBB11_3
LBB11_3:                                ; %cont
	ldr	x0, [sp, #8]                    ; 8-byte Folded Reload
	.loc	6 1515 9 prologue_end is_stmt 1 ; /Applications/Xcode.app/Contents/Developer/Platforms/MacOSX.platform/Developer/SDKs/MacOSX.sdk/usr/include/c++/v1/string:1515:9
	bl	__ZNSt3__112basic_stringIcNS_11char_traitsIcEENS_9allocatorIcEEE6__zeroB6v15006Ev
Ltmp124:
	.loc	6 1516 13                       ; /Applications/Xcode.app/Contents/Developer/Platforms/MacOSX.platform/Developer/SDKs/MacOSX.sdk/usr/include/c++/v1/string:1516:13
	bl	__ZNSt3__130__libcpp_is_constant_evaluatedEv
Ltmp125:
	.loc	6 1516 13 is_stmt 0             ; /Applications/Xcode.app/Contents/Developer/Platforms/MacOSX.platform/Developer/SDKs/MacOSX.sdk/usr/include/c++/v1/string:1516:13
	tbz	w0, #0, LBB11_7
	b	LBB11_4
LBB11_4:                                ; %if.then
	.loc	6 0 13                          ; /Applications/Xcode.app/Contents/Developer/Platforms/MacOSX.platform/Developer/SDKs/MacOSX.sdk/usr/include/c++/v1/string:0:13
	mov	x0, #0
Ltmp126:
	.loc	6 1517 30 is_stmt 1             ; /Applications/Xcode.app/Contents/Developer/Platforms/MacOSX.platform/Developer/SDKs/MacOSX.sdk/usr/include/c++/v1/string:1517:30
	bl	__ZNSt3__112basic_stringIcNS_11char_traitsIcEENS_9allocatorIcEEE11__recommendB6v15006Em
	mov	x8, x0
	ldr	x0, [sp, #8]                    ; 8-byte Folded Reload
	.loc	6 1517 45 is_stmt 0             ; /Applications/Xcode.app/Contents/Developer/Platforms/MacOSX.platform/Developer/SDKs/MacOSX.sdk/usr/include/c++/v1/string:1517:45
	add	x8, x8, #1
	.loc	6 1517 23                       ; /Applications/Xcode.app/Contents/Developer/Platforms/MacOSX.platform/Developer/SDKs/MacOSX.sdk/usr/include/c++/v1/string:1517:23
	stur	x8, [x29, #-16]
	.loc	6 1518 54 is_stmt 1             ; /Applications/Xcode.app/Contents/Developer/Platforms/MacOSX.platform/Developer/SDKs/MacOSX.sdk/usr/include/c++/v1/string:1518:54
	bl	__ZNSt3__112basic_stringIcNS_11char_traitsIcEENS_9allocatorIcEEE7__allocB6v15006Ev
	str	x0, [sp]                        ; 8-byte Folded Spill
	.loc	6 1518 29 is_stmt 0             ; /Applications/Xcode.app/Contents/Developer/Platforms/MacOSX.platform/Developer/SDKs/MacOSX.sdk/usr/include/c++/v1/string:1518:29
	subs	x8, x0, #0
	cset	w8, ne
	tbnz	w8, #0, LBB11_6
	b	LBB11_5
LBB11_5:                                ; %handler.type_mismatch4
	.loc	6 0 29                          ; /Applications/Xcode.app/Contents/Developer/Platforms/MacOSX.platform/Developer/SDKs/MacOSX.sdk/usr/include/c++/v1/string:0:29
	ldr	x1, [sp]                        ; 8-byte Folded Reload
	adrp	x0, l___unnamed_56@PAGE
	add	x0, x0, l___unnamed_56@PAGEOFF
	.loc	6 1518 29                       ; /Applications/Xcode.app/Contents/Developer/Platforms/MacOSX.platform/Developer/SDKs/MacOSX.sdk/usr/include/c++/v1/string:1518:29
	bl	___ubsan_handle_type_mismatch_v1
	b	LBB11_6
LBB11_6:                                ; %cont5
	.loc	6 0 29                          ; /Applications/Xcode.app/Contents/Developer/Platforms/MacOSX.platform/Developer/SDKs/MacOSX.sdk/usr/include/c++/v1/string:0:29
	ldr	x0, [sp]                        ; 8-byte Folded Reload
	.loc	6 1518 65                       ; /Applications/Xcode.app/Contents/Developer/Platforms/MacOSX.platform/Developer/SDKs/MacOSX.sdk/usr/include/c++/v1/string:1518:65
	ldur	x1, [x29, #-16]
	.loc	6 1518 29                       ; /Applications/Xcode.app/Contents/Developer/Platforms/MacOSX.platform/Developer/SDKs/MacOSX.sdk/usr/include/c++/v1/string:1518:29
	bl	__ZNSt3__116allocator_traitsINS_9allocatorIcEEE8allocateB6v15006ERS2_m
	.loc	6 1518 21                       ; /Applications/Xcode.app/Contents/Developer/Platforms/MacOSX.platform/Developer/SDKs/MacOSX.sdk/usr/include/c++/v1/string:1518:21
	str	x0, [sp, #24]
	.loc	6 1519 30 is_stmt 1             ; /Applications/Xcode.app/Contents/Developer/Platforms/MacOSX.platform/Developer/SDKs/MacOSX.sdk/usr/include/c++/v1/string:1519:30
	ldr	x0, [sp, #24]
	.loc	6 1519 37 is_stmt 0             ; /Applications/Xcode.app/Contents/Developer/Platforms/MacOSX.platform/Developer/SDKs/MacOSX.sdk/usr/include/c++/v1/string:1519:37
	ldur	x1, [x29, #-16]
	.loc	6 1519 13                       ; /Applications/Xcode.app/Contents/Developer/Platforms/MacOSX.platform/Developer/SDKs/MacOSX.sdk/usr/include/c++/v1/string:1519:13
	bl	__ZNSt3__112basic_stringIcNS_11char_traitsIcEENS_9allocatorIcEEE16__begin_lifetimeB6v15006EPcm
	ldr	x0, [sp, #8]                    ; 8-byte Folded Reload
	.loc	6 1520 32 is_stmt 1             ; /Applications/Xcode.app/Contents/Developer/Platforms/MacOSX.platform/Developer/SDKs/MacOSX.sdk/usr/include/c++/v1/string:1520:32
	ldr	x1, [sp, #24]
	.loc	6 1520 13 is_stmt 0             ; /Applications/Xcode.app/Contents/Developer/Platforms/MacOSX.platform/Developer/SDKs/MacOSX.sdk/usr/include/c++/v1/string:1520:13
	bl	__ZNSt3__112basic_stringIcNS_11char_traitsIcEENS_9allocatorIcEEE18__set_long_pointerB6v15006EPc
	ldr	x0, [sp, #8]                    ; 8-byte Folded Reload
	.loc	6 1521 28 is_stmt 1             ; /Applications/Xcode.app/Contents/Developer/Platforms/MacOSX.platform/Developer/SDKs/MacOSX.sdk/usr/include/c++/v1/string:1521:28
	ldur	x1, [x29, #-16]
	.loc	6 1521 13 is_stmt 0             ; /Applications/Xcode.app/Contents/Developer/Platforms/MacOSX.platform/Developer/SDKs/MacOSX.sdk/usr/include/c++/v1/string:1521:13
	bl	__ZNSt3__112basic_stringIcNS_11char_traitsIcEENS_9allocatorIcEEE14__set_long_capB6v15006Em
	ldr	x0, [sp, #8]                    ; 8-byte Folded Reload
	mov	x1, #0
	.loc	6 1522 13 is_stmt 1             ; /Applications/Xcode.app/Contents/Developer/Platforms/MacOSX.platform/Developer/SDKs/MacOSX.sdk/usr/include/c++/v1/string:1522:13
	bl	__ZNSt3__112basic_stringIcNS_11char_traitsIcEENS_9allocatorIcEEE15__set_long_sizeB6v15006Em
	.loc	6 1523 9                        ; /Applications/Xcode.app/Contents/Developer/Platforms/MacOSX.platform/Developer/SDKs/MacOSX.sdk/usr/include/c++/v1/string:1523:9
	b	LBB11_7
Ltmp127:
LBB11_7:                                ; %if.end
	.cfi_def_cfa wsp, 64
	.loc	6 1524 5                        ; /Applications/Xcode.app/Contents/Developer/Platforms/MacOSX.platform/Developer/SDKs/MacOSX.sdk/usr/include/c++/v1/string:1524:5
	ldp	x29, x30, [sp, #48]             ; 16-byte Folded Reload
	add	sp, sp, #64
	.cfi_def_cfa_offset 0
	.cfi_restore w30
	.cfi_restore w29
	ret
Ltmp128:
Lfunc_end11:
	.cfi_endproc
                                        ; -- End function
	.globl	__ZNSt3__117__compressed_pairINS_12basic_stringIcNS_11char_traitsIcEENS_9allocatorIcEEE5__repES5_EC2B6v15006INS_18__default_init_tagESA_EEOT_OT0_ ; -- Begin function _ZNSt3__117__compressed_pairINS_12basic_stringIcNS_11char_traitsIcEENS_9allocatorIcEEE5__repES5_EC2B6v15006INS_18__default_init_tagESA_EEOT_OT0_
	.weak_def_can_be_hidden	__ZNSt3__117__compressed_pairINS_12basic_stringIcNS_11char_traitsIcEENS_9allocatorIcEEE5__repES5_EC2B6v15006INS_18__default_init_tagESA_EEOT_OT0_
	.p2align	2
__ZNSt3__117__compressed_pairINS_12basic_stringIcNS_11char_traitsIcEENS_9allocatorIcEEE5__repES5_EC2B6v15006INS_18__default_init_tagESA_EEOT_OT0_: ; @_ZNSt3__117__compressed_pairINS_12basic_stringIcNS_11char_traitsIcEENS_9allocatorIcEEE5__repES5_EC2B6v15006INS_18__default_init_tagESA_EEOT_OT0_
Lfunc_begin12:
	.loc	7 108 0                         ; /Applications/Xcode.app/Contents/Developer/Platforms/MacOSX.platform/Developer/SDKs/MacOSX.sdk/usr/include/c++/v1/__memory/compressed_pair.h:108:0
	.cfi_startproc
; %bb.0:                                ; %entry
	sub	sp, sp, #80
	.cfi_def_cfa_offset 80
	stp	x29, x30, [sp, #64]             ; 16-byte Folded Spill
	add	x29, sp, #64
	.cfi_def_cfa w29, 16
	.cfi_offset w30, -8
	.cfi_offset w29, -16
	stur	x0, [x29, #-16]
	stur	x1, [x29, #-24]
	str	x2, [sp, #32]
	ldur	x8, [x29, #-16]
	str	x8, [sp, #8]                    ; 8-byte Folded Spill
	mov	x9, x8
	stur	x9, [x29, #-8]
	mov	x9, x8
	str	x9, [sp, #16]                   ; 8-byte Folded Spill
	subs	x8, x8, #0
	cset	w8, eq
	tbnz	w8, #0, LBB12_2
	b	LBB12_1
LBB12_1:                                ; %entry
	ldr	x8, [sp, #16]                   ; 8-byte Folded Reload
	ands	x8, x8, #0x7
	cset	w8, eq
	tbnz	w8, #0, LBB12_3
	b	LBB12_2
LBB12_2:                                ; %handler.type_mismatch
	ldr	x1, [sp, #16]                   ; 8-byte Folded Reload
Ltmp129:
	.loc	7 0 0 is_stmt 0                 ; /Applications/Xcode.app/Contents/Developer/Platforms/MacOSX.platform/Developer/SDKs/MacOSX.sdk/usr/include/c++/v1/__memory/compressed_pair.h:0:0
	adrp	x0, l___unnamed_57@PAGE
	add	x0, x0, l___unnamed_57@PAGEOFF
	bl	___ubsan_handle_type_mismatch_v1
	b	LBB12_3
LBB12_3:                                ; %cont
	ldr	x8, [sp, #8]                    ; 8-byte Folded Reload
	.loc	7 108 56 prologue_end is_stmt 1 ; /Applications/Xcode.app/Contents/Developer/Platforms/MacOSX.platform/Developer/SDKs/MacOSX.sdk/usr/include/c++/v1/__memory/compressed_pair.h:108:56
	mov	x9, x8
	str	x9, [sp]                        ; 8-byte Folded Spill
	subs	x8, x8, #0
	cset	w8, eq
	tbnz	w8, #0, LBB12_5
	b	LBB12_4
LBB12_4:                                ; %cont
	.loc	7 0 56 is_stmt 0                ; /Applications/Xcode.app/Contents/Developer/Platforms/MacOSX.platform/Developer/SDKs/MacOSX.sdk/usr/include/c++/v1/__memory/compressed_pair.h:0:56
	ldr	x8, [sp]                        ; 8-byte Folded Reload
	.loc	7 108 56                        ; /Applications/Xcode.app/Contents/Developer/Platforms/MacOSX.platform/Developer/SDKs/MacOSX.sdk/usr/include/c++/v1/__memory/compressed_pair.h:108:56
	ands	x8, x8, #0x7
	cset	w8, eq
	tbnz	w8, #0, LBB12_6
	b	LBB12_5
LBB12_5:                                ; %handler.type_mismatch2
	.loc	7 0 56                          ; /Applications/Xcode.app/Contents/Developer/Platforms/MacOSX.platform/Developer/SDKs/MacOSX.sdk/usr/include/c++/v1/__memory/compressed_pair.h:0:56
	ldr	x1, [sp]                        ; 8-byte Folded Reload
	adrp	x0, l___unnamed_58@PAGE
	add	x0, x0, l___unnamed_58@PAGEOFF
	.loc	7 108 56                        ; /Applications/Xcode.app/Contents/Developer/Platforms/MacOSX.platform/Developer/SDKs/MacOSX.sdk/usr/include/c++/v1/__memory/compressed_pair.h:108:56
	bl	___ubsan_handle_type_mismatch_v1
	b	LBB12_6
LBB12_6:                                ; %cont3
	.loc	7 0 56                          ; /Applications/Xcode.app/Contents/Developer/Platforms/MacOSX.platform/Developer/SDKs/MacOSX.sdk/usr/include/c++/v1/__memory/compressed_pair.h:0:56
	ldr	x0, [sp, #8]                    ; 8-byte Folded Reload
	.loc	7 108 56                        ; /Applications/Xcode.app/Contents/Developer/Platforms/MacOSX.platform/Developer/SDKs/MacOSX.sdk/usr/include/c++/v1/__memory/compressed_pair.h:108:56
	bl	__ZNSt3__122__compressed_pair_elemINS_12basic_stringIcNS_11char_traitsIcEENS_9allocatorIcEEE5__repELi0ELb0EEC2B6v15006ENS_18__default_init_tagE
	ldr	x8, [sp, #8]                    ; 8-byte Folded Reload
	.loc	7 108 89                        ; /Applications/Xcode.app/Contents/Developer/Platforms/MacOSX.platform/Developer/SDKs/MacOSX.sdk/usr/include/c++/v1/__memory/compressed_pair.h:108:89
	subs	x8, x8, #0
	cset	w8, ne
	tbnz	w8, #0, LBB12_8
	b	LBB12_7
LBB12_7:                                ; %handler.type_mismatch5
	.loc	7 0 89                          ; /Applications/Xcode.app/Contents/Developer/Platforms/MacOSX.platform/Developer/SDKs/MacOSX.sdk/usr/include/c++/v1/__memory/compressed_pair.h:0:89
	ldr	x1, [sp, #8]                    ; 8-byte Folded Reload
	adrp	x0, l___unnamed_59@PAGE
	add	x0, x0, l___unnamed_59@PAGEOFF
	.loc	7 108 89                        ; /Applications/Xcode.app/Contents/Developer/Platforms/MacOSX.platform/Developer/SDKs/MacOSX.sdk/usr/include/c++/v1/__memory/compressed_pair.h:108:89
	bl	___ubsan_handle_type_mismatch_v1
	b	LBB12_8
LBB12_8:                                ; %cont6
	.loc	7 0 89                          ; /Applications/Xcode.app/Contents/Developer/Platforms/MacOSX.platform/Developer/SDKs/MacOSX.sdk/usr/include/c++/v1/__memory/compressed_pair.h:0:89
	ldr	x0, [sp, #8]                    ; 8-byte Folded Reload
	.loc	7 108 89                        ; /Applications/Xcode.app/Contents/Developer/Platforms/MacOSX.platform/Developer/SDKs/MacOSX.sdk/usr/include/c++/v1/__memory/compressed_pair.h:108:89
	bl	__ZNSt3__122__compressed_pair_elemINS_9allocatorIcEELi1ELb1EEC2B6v15006ENS_18__default_init_tagE
	.loc	7 108 122                       ; /Applications/Xcode.app/Contents/Developer/Platforms/MacOSX.platform/Developer/SDKs/MacOSX.sdk/usr/include/c++/v1/__memory/compressed_pair.h:108:122
	ldur	x0, [x29, #-8]
	.cfi_def_cfa wsp, 80
	ldp	x29, x30, [sp, #64]             ; 16-byte Folded Reload
	add	sp, sp, #80
	.cfi_def_cfa_offset 0
	.cfi_restore w30
	.cfi_restore w29
	ret
Ltmp130:
Lfunc_end12:
	.cfi_endproc
                                        ; -- End function
	.private_extern	__ZNSt3__122__compressed_pair_elemINS_12basic_stringIcNS_11char_traitsIcEENS_9allocatorIcEEE5__repELi0ELb0EEC2B6v15006ENS_18__default_init_tagE ; -- Begin function _ZNSt3__122__compressed_pair_elemINS_12basic_stringIcNS_11char_traitsIcEENS_9allocatorIcEEE5__repELi0ELb0EEC2B6v15006ENS_18__default_init_tagE
	.globl	__ZNSt3__122__compressed_pair_elemINS_12basic_stringIcNS_11char_traitsIcEENS_9allocatorIcEEE5__repELi0ELb0EEC2B6v15006ENS_18__default_init_tagE
	.weak_def_can_be_hidden	__ZNSt3__122__compressed_pair_elemINS_12basic_stringIcNS_11char_traitsIcEENS_9allocatorIcEEE5__repELi0ELb0EEC2B6v15006ENS_18__default_init_tagE
	.p2align	2
__ZNSt3__122__compressed_pair_elemINS_12basic_stringIcNS_11char_traitsIcEENS_9allocatorIcEEE5__repELi0ELb0EEC2B6v15006ENS_18__default_init_tagE: ; @_ZNSt3__122__compressed_pair_elemINS_12basic_stringIcNS_11char_traitsIcEENS_9allocatorIcEEE5__repELi0ELb0EEC2B6v15006ENS_18__default_init_tagE
Lfunc_begin13:
	.loc	7 35 0 is_stmt 1                ; /Applications/Xcode.app/Contents/Developer/Platforms/MacOSX.platform/Developer/SDKs/MacOSX.sdk/usr/include/c++/v1/__memory/compressed_pair.h:35:0
	.cfi_startproc
; %bb.0:                                ; %entry
	sub	sp, sp, #48
	.cfi_def_cfa_offset 48
	stp	x29, x30, [sp, #32]             ; 16-byte Folded Spill
	add	x29, sp, #32
	.cfi_def_cfa w29, 16
	.cfi_offset w30, -8
	.cfi_offset w29, -16
	str	x0, [sp, #8]
	ldr	x8, [sp, #8]
	mov	x9, x8
	stur	x9, [x29, #-8]
	mov	x9, x8
	str	x9, [sp]                        ; 8-byte Folded Spill
	subs	x8, x8, #0
	cset	w8, eq
	tbnz	w8, #0, LBB13_2
	b	LBB13_1
LBB13_1:                                ; %entry
	ldr	x8, [sp]                        ; 8-byte Folded Reload
	ands	x8, x8, #0x7
	cset	w8, eq
	tbnz	w8, #0, LBB13_3
	b	LBB13_2
LBB13_2:                                ; %handler.type_mismatch
	ldr	x1, [sp]                        ; 8-byte Folded Reload
Ltmp131:
	.loc	7 0 0 is_stmt 0                 ; /Applications/Xcode.app/Contents/Developer/Platforms/MacOSX.platform/Developer/SDKs/MacOSX.sdk/usr/include/c++/v1/__memory/compressed_pair.h:0:0
	adrp	x0, l___unnamed_60@PAGE
	add	x0, x0, l___unnamed_60@PAGEOFF
	bl	___ubsan_handle_type_mismatch_v1
	b	LBB13_3
LBB13_3:                                ; %cont
	.loc	7 35 96 prologue_end is_stmt 1  ; /Applications/Xcode.app/Contents/Developer/Platforms/MacOSX.platform/Developer/SDKs/MacOSX.sdk/usr/include/c++/v1/__memory/compressed_pair.h:35:96
	ldur	x0, [x29, #-8]
	.cfi_def_cfa wsp, 48
	ldp	x29, x30, [sp, #32]             ; 16-byte Folded Reload
	add	sp, sp, #48
	.cfi_def_cfa_offset 0
	.cfi_restore w30
	.cfi_restore w29
	ret
Ltmp132:
Lfunc_end13:
	.cfi_endproc
                                        ; -- End function
	.private_extern	__ZNSt3__122__compressed_pair_elemINS_9allocatorIcEELi1ELb1EEC2B6v15006ENS_18__default_init_tagE ; -- Begin function _ZNSt3__122__compressed_pair_elemINS_9allocatorIcEELi1ELb1EEC2B6v15006ENS_18__default_init_tagE
	.globl	__ZNSt3__122__compressed_pair_elemINS_9allocatorIcEELi1ELb1EEC2B6v15006ENS_18__default_init_tagE
	.weak_def_can_be_hidden	__ZNSt3__122__compressed_pair_elemINS_9allocatorIcEELi1ELb1EEC2B6v15006ENS_18__default_init_tagE
	.p2align	2
__ZNSt3__122__compressed_pair_elemINS_9allocatorIcEELi1ELb1EEC2B6v15006ENS_18__default_init_tagE: ; @_ZNSt3__122__compressed_pair_elemINS_9allocatorIcEELi1ELb1EEC2B6v15006ENS_18__default_init_tagE
Lfunc_begin14:
	.loc	7 64 0                          ; /Applications/Xcode.app/Contents/Developer/Platforms/MacOSX.platform/Developer/SDKs/MacOSX.sdk/usr/include/c++/v1/__memory/compressed_pair.h:64:0
	.cfi_startproc
; %bb.0:                                ; %entry
	sub	sp, sp, #48
	.cfi_def_cfa_offset 48
	stp	x29, x30, [sp, #32]             ; 16-byte Folded Spill
	add	x29, sp, #32
	.cfi_def_cfa w29, 16
	.cfi_offset w30, -8
	.cfi_offset w29, -16
	str	x0, [sp, #8]
	ldr	x8, [sp, #8]
	str	x8, [sp]                        ; 8-byte Folded Spill
	mov	x9, x8
	stur	x9, [x29, #-8]
	subs	x8, x8, #0
	cset	w8, ne
	tbnz	w8, #0, LBB14_2
	b	LBB14_1
LBB14_1:                                ; %handler.type_mismatch
	ldr	x1, [sp]                        ; 8-byte Folded Reload
Ltmp133:
	.loc	7 0 0 is_stmt 0                 ; /Applications/Xcode.app/Contents/Developer/Platforms/MacOSX.platform/Developer/SDKs/MacOSX.sdk/usr/include/c++/v1/__memory/compressed_pair.h:0:0
	adrp	x0, l___unnamed_61@PAGE
	add	x0, x0, l___unnamed_61@PAGEOFF
	bl	___ubsan_handle_type_mismatch_v1
	b	LBB14_2
LBB14_2:                                ; %cont
	ldr	x8, [sp]                        ; 8-byte Folded Reload
	.loc	7 64 52 prologue_end is_stmt 1  ; /Applications/Xcode.app/Contents/Developer/Platforms/MacOSX.platform/Developer/SDKs/MacOSX.sdk/usr/include/c++/v1/__memory/compressed_pair.h:64:52
	subs	x8, x8, #0
	cset	w8, ne
	tbnz	w8, #0, LBB14_4
	b	LBB14_3
LBB14_3:                                ; %handler.type_mismatch2
	.loc	7 0 52 is_stmt 0                ; /Applications/Xcode.app/Contents/Developer/Platforms/MacOSX.platform/Developer/SDKs/MacOSX.sdk/usr/include/c++/v1/__memory/compressed_pair.h:0:52
	ldr	x1, [sp]                        ; 8-byte Folded Reload
	adrp	x0, l___unnamed_62@PAGE
	add	x0, x0, l___unnamed_62@PAGEOFF
	.loc	7 64 52                         ; /Applications/Xcode.app/Contents/Developer/Platforms/MacOSX.platform/Developer/SDKs/MacOSX.sdk/usr/include/c++/v1/__memory/compressed_pair.h:64:52
	bl	___ubsan_handle_type_mismatch_v1
	b	LBB14_4
LBB14_4:                                ; %cont3
	.loc	7 0 52                          ; /Applications/Xcode.app/Contents/Developer/Platforms/MacOSX.platform/Developer/SDKs/MacOSX.sdk/usr/include/c++/v1/__memory/compressed_pair.h:0:52
	ldr	x0, [sp]                        ; 8-byte Folded Reload
	.loc	7 64 52                         ; /Applications/Xcode.app/Contents/Developer/Platforms/MacOSX.platform/Developer/SDKs/MacOSX.sdk/usr/include/c++/v1/__memory/compressed_pair.h:64:52
	bl	__ZNSt3__19allocatorIcEC2B6v15006Ev
	.loc	7 64 96                         ; /Applications/Xcode.app/Contents/Developer/Platforms/MacOSX.platform/Developer/SDKs/MacOSX.sdk/usr/include/c++/v1/__memory/compressed_pair.h:64:96
	ldur	x0, [x29, #-8]
	.cfi_def_cfa wsp, 48
	ldp	x29, x30, [sp, #32]             ; 16-byte Folded Reload
	add	sp, sp, #48
	.cfi_def_cfa_offset 0
	.cfi_restore w30
	.cfi_restore w29
	ret
Ltmp134:
Lfunc_end14:
	.cfi_endproc
                                        ; -- End function
	.private_extern	__ZNSt3__19allocatorIcEC2B6v15006Ev ; -- Begin function _ZNSt3__19allocatorIcEC2B6v15006Ev
	.globl	__ZNSt3__19allocatorIcEC2B6v15006Ev
	.weak_def_can_be_hidden	__ZNSt3__19allocatorIcEC2B6v15006Ev
	.p2align	2
__ZNSt3__19allocatorIcEC2B6v15006Ev:    ; @_ZNSt3__19allocatorIcEC2B6v15006Ev
Lfunc_begin15:
	.loc	4 99 0 is_stmt 1                ; /Applications/Xcode.app/Contents/Developer/Platforms/MacOSX.platform/Developer/SDKs/MacOSX.sdk/usr/include/c++/v1/__memory/allocator.h:99:0
	.cfi_startproc
; %bb.0:                                ; %entry
	sub	sp, sp, #48
	.cfi_def_cfa_offset 48
	stp	x29, x30, [sp, #32]             ; 16-byte Folded Spill
	add	x29, sp, #32
	.cfi_def_cfa w29, 16
	.cfi_offset w30, -8
	.cfi_offset w29, -16
	str	x0, [sp, #16]
	ldr	x8, [sp, #16]
	str	x8, [sp, #8]                    ; 8-byte Folded Spill
	mov	x9, x8
	stur	x9, [x29, #-8]
	subs	x8, x8, #0
	cset	w8, ne
	tbnz	w8, #0, LBB15_2
	b	LBB15_1
LBB15_1:                                ; %handler.type_mismatch
	ldr	x1, [sp, #8]                    ; 8-byte Folded Reload
Ltmp135:
	.loc	4 0 0 is_stmt 0                 ; /Applications/Xcode.app/Contents/Developer/Platforms/MacOSX.platform/Developer/SDKs/MacOSX.sdk/usr/include/c++/v1/__memory/allocator.h:0:0
	adrp	x0, l___unnamed_63@PAGE
	add	x0, x0, l___unnamed_63@PAGEOFF
	bl	___ubsan_handle_type_mismatch_v1
	b	LBB15_2
LBB15_2:                                ; %cont
	ldr	x8, [sp, #8]                    ; 8-byte Folded Reload
	.loc	4 99 5 prologue_end is_stmt 1   ; /Applications/Xcode.app/Contents/Developer/Platforms/MacOSX.platform/Developer/SDKs/MacOSX.sdk/usr/include/c++/v1/__memory/allocator.h:99:5
	subs	x8, x8, #0
	cset	w8, ne
	tbnz	w8, #0, LBB15_4
	b	LBB15_3
LBB15_3:                                ; %handler.type_mismatch2
	.loc	4 0 5 is_stmt 0                 ; /Applications/Xcode.app/Contents/Developer/Platforms/MacOSX.platform/Developer/SDKs/MacOSX.sdk/usr/include/c++/v1/__memory/allocator.h:0:5
	ldr	x1, [sp, #8]                    ; 8-byte Folded Reload
	adrp	x0, l___unnamed_64@PAGE
	add	x0, x0, l___unnamed_64@PAGEOFF
	.loc	4 99 5                          ; /Applications/Xcode.app/Contents/Developer/Platforms/MacOSX.platform/Developer/SDKs/MacOSX.sdk/usr/include/c++/v1/__memory/allocator.h:99:5
	bl	___ubsan_handle_type_mismatch_v1
	b	LBB15_4
LBB15_4:                                ; %cont3
	.loc	4 0 5                           ; /Applications/Xcode.app/Contents/Developer/Platforms/MacOSX.platform/Developer/SDKs/MacOSX.sdk/usr/include/c++/v1/__memory/allocator.h:0:5
	ldr	x0, [sp, #8]                    ; 8-byte Folded Reload
	.loc	4 99 5                          ; /Applications/Xcode.app/Contents/Developer/Platforms/MacOSX.platform/Developer/SDKs/MacOSX.sdk/usr/include/c++/v1/__memory/allocator.h:99:5
	bl	__ZNSt3__116__non_trivial_ifILb1ENS_9allocatorIcEEEC2B6v15006Ev
	.loc	4 99 35                         ; /Applications/Xcode.app/Contents/Developer/Platforms/MacOSX.platform/Developer/SDKs/MacOSX.sdk/usr/include/c++/v1/__memory/allocator.h:99:35
	ldur	x0, [x29, #-8]
	.cfi_def_cfa wsp, 48
	ldp	x29, x30, [sp, #32]             ; 16-byte Folded Reload
	add	sp, sp, #48
	.cfi_def_cfa_offset 0
	.cfi_restore w30
	.cfi_restore w29
	ret
Ltmp136:
Lfunc_end15:
	.cfi_endproc
                                        ; -- End function
	.private_extern	__ZNSt3__116__non_trivial_ifILb1ENS_9allocatorIcEEEC2B6v15006Ev ; -- Begin function _ZNSt3__116__non_trivial_ifILb1ENS_9allocatorIcEEEC2B6v15006Ev
	.globl	__ZNSt3__116__non_trivial_ifILb1ENS_9allocatorIcEEEC2B6v15006Ev
	.weak_def_can_be_hidden	__ZNSt3__116__non_trivial_ifILb1ENS_9allocatorIcEEEC2B6v15006Ev
	.p2align	2
__ZNSt3__116__non_trivial_ifILb1ENS_9allocatorIcEEEC2B6v15006Ev: ; @_ZNSt3__116__non_trivial_ifILb1ENS_9allocatorIcEEEC2B6v15006Ev
Lfunc_begin16:
	.loc	4 78 0 is_stmt 1                ; /Applications/Xcode.app/Contents/Developer/Platforms/MacOSX.platform/Developer/SDKs/MacOSX.sdk/usr/include/c++/v1/__memory/allocator.h:78:0
	.cfi_startproc
; %bb.0:                                ; %entry
	sub	sp, sp, #48
	.cfi_def_cfa_offset 48
	stp	x29, x30, [sp, #32]             ; 16-byte Folded Spill
	add	x29, sp, #32
	.cfi_def_cfa w29, 16
	.cfi_offset w30, -8
	.cfi_offset w29, -16
	str	x0, [sp, #16]
	ldr	x8, [sp, #16]
	str	x8, [sp, #8]                    ; 8-byte Folded Spill
	mov	x9, x8
	stur	x9, [x29, #-8]
	subs	x8, x8, #0
	cset	w8, ne
	tbnz	w8, #0, LBB16_2
	b	LBB16_1
LBB16_1:                                ; %handler.type_mismatch
	ldr	x1, [sp, #8]                    ; 8-byte Folded Reload
Ltmp137:
	.loc	4 0 0 is_stmt 0                 ; /Applications/Xcode.app/Contents/Developer/Platforms/MacOSX.platform/Developer/SDKs/MacOSX.sdk/usr/include/c++/v1/__memory/allocator.h:0:0
	adrp	x0, l___unnamed_65@PAGE
	add	x0, x0, l___unnamed_65@PAGEOFF
	bl	___ubsan_handle_type_mismatch_v1
	b	LBB16_2
LBB16_2:                                ; %cont
	.loc	4 78 54 prologue_end is_stmt 1  ; /Applications/Xcode.app/Contents/Developer/Platforms/MacOSX.platform/Developer/SDKs/MacOSX.sdk/usr/include/c++/v1/__memory/allocator.h:78:54
	ldur	x0, [x29, #-8]
	.cfi_def_cfa wsp, 48
	ldp	x29, x30, [sp, #32]             ; 16-byte Folded Reload
	add	sp, sp, #48
	.cfi_def_cfa_offset 0
	.cfi_restore w30
	.cfi_restore w29
	ret
Ltmp138:
Lfunc_end16:
	.cfi_endproc
                                        ; -- End function
	.private_extern	__ZNSt3__112basic_stringIcNS_11char_traitsIcEENS_9allocatorIcEEE6__zeroB6v15006Ev ; -- Begin function _ZNSt3__112basic_stringIcNS_11char_traitsIcEENS_9allocatorIcEEE6__zeroB6v15006Ev
	.globl	__ZNSt3__112basic_stringIcNS_11char_traitsIcEENS_9allocatorIcEEE6__zeroB6v15006Ev
	.weak_definition	__ZNSt3__112basic_stringIcNS_11char_traitsIcEENS_9allocatorIcEEE6__zeroB6v15006Ev
	.p2align	2
__ZNSt3__112basic_stringIcNS_11char_traitsIcEENS_9allocatorIcEEE6__zeroB6v15006Ev: ; @_ZNSt3__112basic_stringIcNS_11char_traitsIcEENS_9allocatorIcEEE6__zeroB6v15006Ev
Lfunc_begin17:
	.loc	6 1623 0                        ; /Applications/Xcode.app/Contents/Developer/Platforms/MacOSX.platform/Developer/SDKs/MacOSX.sdk/usr/include/c++/v1/string:1623:0
	.cfi_startproc
; %bb.0:                                ; %entry
	stp	x20, x19, [sp, #-32]!           ; 16-byte Folded Spill
	.cfi_def_cfa_offset 32
	stp	x29, x30, [sp, #16]             ; 16-byte Folded Spill
	add	x29, sp, #16
	.cfi_def_cfa w29, 16
	.cfi_offset w30, -8
	.cfi_offset w29, -16
	.cfi_offset w19, -24
	.cfi_offset w20, -32
	sub	x9, sp, #160
	and	sp, x9, #0xffffffffffffffe0
	mov	x19, sp
	mov	x9, #0
	adrp	x8, l____asan_gen_.21@PAGE
	add	x8, x8, l____asan_gen_.21@PAGEOFF
	str	x8, [x19, #72]                  ; 8-byte Folded Spill
	adrp	x8, __ZNSt3__112basic_stringIcNS_11char_traitsIcEENS_9allocatorIcEEE6__zeroB6v15006Ev@PAGE
	add	x8, x8, __ZNSt3__112basic_stringIcNS_11char_traitsIcEENS_9allocatorIcEEE6__zeroB6v15006Ev@PAGEOFF
	str	x8, [x19, #80]                  ; 8-byte Folded Spill
	mov	x8, #62965
	movk	x8, #62965, lsl #16
	movk	x8, #62965, lsl #32
	movk	x8, #62965, lsl #48
	str	x8, [x19, #88]                  ; 8-byte Folded Spill
	adrp	x8, ___stack_chk_guard@GOTPAGE
	ldr	x8, [x8, ___stack_chk_guard@GOTPAGEOFF]
	ldr	x8, [x8]
	str	x8, [x19, #152]
	adrp	x8, ___asan_shadow_memory_dynamic_address@GOTPAGE
	ldr	x8, [x8, ___asan_shadow_memory_dynamic_address@GOTPAGEOFF]
	ldr	x8, [x8]
	str	x8, [x19, #96]                  ; 8-byte Folded Spill
	str	x0, [x19, #120]
	adrp	x8, ___asan_option_detect_stack_use_after_return@GOTPAGE
	ldr	x8, [x8, ___asan_option_detect_stack_use_after_return@GOTPAGEOFF]
	ldr	w8, [x8]
	subs	w8, w8, #0
	cset	w8, eq
	str	x9, [x19, #104]                 ; 8-byte Folded Spill
	tbnz	w8, #0, LBB17_2
	b	LBB17_1
LBB17_1:
	mov	x0, #96
	bl	___asan_stack_malloc_1
	str	x0, [x19, #104]                 ; 8-byte Folded Spill
	b	LBB17_2
LBB17_2:
	ldr	x9, [x19, #104]                 ; 8-byte Folded Reload
	str	x9, [x19, #56]                  ; 8-byte Folded Spill
	subs	x8, x9, #0
	cset	w8, ne
	str	x9, [x19, #64]                  ; 8-byte Folded Spill
	tbnz	w8, #0, LBB17_4
	b	LBB17_3
LBB17_3:
	mov	x8, sp
	subs	x8, x8, #96
	and	x8, x8, #0xffffffffffffffe0
	mov	sp, x8
	str	x8, [x19, #64]                  ; 8-byte Folded Spill
	b	LBB17_4
LBB17_4:
	ldr	x8, [x19, #96]                  ; 8-byte Folded Reload
	ldr	x10, [x19, #80]                 ; 8-byte Folded Reload
	ldr	x11, [x19, #72]                 ; 8-byte Folded Reload
	ldr	x9, [x19, #64]                  ; 8-byte Folded Reload
	str	x9, [x19, #112]
	add	x0, x9, #32
	str	x0, [x19, #16]                  ; 8-byte Folded Spill
	mov	x13, x9
	str	x13, [x19, #24]                 ; 8-byte Folded Spill
	mov	x12, #35507
	movk	x12, #16821, lsl #16
	str	x12, [x13]
	add	x12, x9, #8
	str	x11, [x12]
	add	x11, x9, #16
	str	x10, [x11]
	add	x8, x8, x9, lsr #3
	str	x8, [x19, #32]                  ; 8-byte Folded Spill
	add	x10, x8, #0
	mov	x9, #-1012762419733073423
	movk	x9, #63736, lsl #32
	movk	x9, #62456, lsl #48
	str	x9, [x10]
	add	x9, x8, #8
	mov	w8, #-202116109
	str	w8, [x9]
	ldr	x8, [x19, #120]
	str	x8, [x19, #40]                  ; 8-byte Folded Spill
	mov	x9, x8
	str	x9, [x19, #48]                  ; 8-byte Folded Spill
	subs	x8, x8, #0
	cset	w8, eq
	tbnz	w8, #0, LBB17_6
	b	LBB17_5
LBB17_5:
	ldr	x8, [x19, #48]                  ; 8-byte Folded Reload
	ands	x8, x8, #0x7
	cset	w8, eq
	tbnz	w8, #0, LBB17_7
	b	LBB17_6
LBB17_6:                                ; %handler.type_mismatch
	ldr	x1, [x19, #48]                  ; 8-byte Folded Reload
Ltmp139:
	.loc	6 0 0 is_stmt 0                 ; /Applications/Xcode.app/Contents/Developer/Platforms/MacOSX.platform/Developer/SDKs/MacOSX.sdk/usr/include/c++/v1/string:0:0
	adrp	x0, l___unnamed_66@PAGE
	add	x0, x0, l___unnamed_66@PAGEOFF
	bl	___ubsan_handle_type_mismatch_v1
	b	LBB17_7
LBB17_7:                                ; %cont
	ldr	x0, [x19, #16]                  ; 8-byte Folded Reload
	ldr	x8, [x19, #32]                  ; 8-byte Folded Reload
	.loc	6 1624 24 prologue_end is_stmt 1 ; /Applications/Xcode.app/Contents/Developer/Platforms/MacOSX.platform/Developer/SDKs/MacOSX.sdk/usr/include/c++/v1/string:1624:24
	add	x9, x8, #4
	strh	wzr, [x9]
	add	x8, x8, #6
	strb	wzr, [x8]
	mov	w1, #0
	mov	x2, #24
	bl	___asan_memset
	ldr	x8, [x19, #40]                  ; 8-byte Folded Reload
	.loc	6 1624 14 is_stmt 0             ; /Applications/Xcode.app/Contents/Developer/Platforms/MacOSX.platform/Developer/SDKs/MacOSX.sdk/usr/include/c++/v1/string:1624:14
	mov	x9, x8
	str	x9, [x19, #8]                   ; 8-byte Folded Spill
	subs	x8, x8, #0
	cset	w8, eq
	tbnz	w8, #0, LBB17_9
	b	LBB17_8
LBB17_8:                                ; %cont
	.loc	6 0 14                          ; /Applications/Xcode.app/Contents/Developer/Platforms/MacOSX.platform/Developer/SDKs/MacOSX.sdk/usr/include/c++/v1/string:0:14
	ldr	x8, [x19, #8]                   ; 8-byte Folded Reload
	.loc	6 1624 14                       ; /Applications/Xcode.app/Contents/Developer/Platforms/MacOSX.platform/Developer/SDKs/MacOSX.sdk/usr/include/c++/v1/string:1624:14
	ands	x8, x8, #0x7
	cset	w8, eq
	tbnz	w8, #0, LBB17_10
	b	LBB17_9
LBB17_9:                                ; %handler.type_mismatch2
	.loc	6 0 14                          ; /Applications/Xcode.app/Contents/Developer/Platforms/MacOSX.platform/Developer/SDKs/MacOSX.sdk/usr/include/c++/v1/string:0:14
	ldr	x1, [x19, #8]                   ; 8-byte Folded Reload
	adrp	x0, l___unnamed_67@PAGE
	add	x0, x0, l___unnamed_67@PAGEOFF
	.loc	6 1624 14                       ; /Applications/Xcode.app/Contents/Developer/Platforms/MacOSX.platform/Developer/SDKs/MacOSX.sdk/usr/include/c++/v1/string:1624:14
	bl	___ubsan_handle_type_mismatch_v1
	b	LBB17_10
LBB17_10:                               ; %cont3
	.loc	6 0 14                          ; /Applications/Xcode.app/Contents/Developer/Platforms/MacOSX.platform/Developer/SDKs/MacOSX.sdk/usr/include/c++/v1/string:0:14
	ldr	x0, [x19, #40]                  ; 8-byte Folded Reload
	.loc	6 1624 14                       ; /Applications/Xcode.app/Contents/Developer/Platforms/MacOSX.platform/Developer/SDKs/MacOSX.sdk/usr/include/c++/v1/string:1624:14
	bl	__ZNSt3__117__compressed_pairINS_12basic_stringIcNS_11char_traitsIcEENS_9allocatorIcEEE5__repES5_E5firstB6v15006Ev
	ldr	x1, [x19, #16]                  ; 8-byte Folded Reload
	mov	x2, #24
	.loc	6 1624 22                       ; /Applications/Xcode.app/Contents/Developer/Platforms/MacOSX.platform/Developer/SDKs/MacOSX.sdk/usr/include/c++/v1/string:1624:22
	bl	___asan_memcpy
	ldr	x9, [x19, #32]                  ; 8-byte Folded Reload
	ldr	x10, [x19, #24]                 ; 8-byte Folded Reload
	ldr	x8, [x19, #56]                  ; 8-byte Folded Reload
	.loc	6 1624 9                        ; /Applications/Xcode.app/Contents/Developer/Platforms/MacOSX.platform/Developer/SDKs/MacOSX.sdk/usr/include/c++/v1/string:1624:9
	add	x12, x9, #4
	mov	w11, #63736
	strh	w11, [x12]
	add	x11, x9, #6
	mov	w9, #248
	strb	w9, [x11]
	mov	x9, #13838
	movk	x9, #17888, lsl #16
	.loc	6 1625 5 is_stmt 1              ; /Applications/Xcode.app/Contents/Developer/Platforms/MacOSX.platform/Developer/SDKs/MacOSX.sdk/usr/include/c++/v1/string:1625:5
	str	x9, [x10]
	subs	x8, x8, #0
	cset	w8, eq
	tbnz	w8, #0, LBB17_12
	b	LBB17_11
LBB17_11:
	.loc	6 0 5 is_stmt 0                 ; /Applications/Xcode.app/Contents/Developer/Platforms/MacOSX.platform/Developer/SDKs/MacOSX.sdk/usr/include/c++/v1/string:0:5
	ldr	x8, [x19, #56]                  ; 8-byte Folded Reload
	ldr	x9, [x19, #88]                  ; 8-byte Folded Reload
	ldr	x10, [x19, #32]                 ; 8-byte Folded Reload
	.loc	6 1625 5                        ; /Applications/Xcode.app/Contents/Developer/Platforms/MacOSX.platform/Developer/SDKs/MacOSX.sdk/usr/include/c++/v1/string:1625:5
	add	x11, x10, #0
	str	x9, [x11]
	add	x10, x10, #8
	str	x9, [x10]
	add	x8, x8, #120
	ldr	x8, [x8]
	strb	wzr, [x8]
	b	LBB17_13
LBB17_12:
	.loc	6 0 5                           ; /Applications/Xcode.app/Contents/Developer/Platforms/MacOSX.platform/Developer/SDKs/MacOSX.sdk/usr/include/c++/v1/string:0:5
	ldr	x8, [x19, #32]                  ; 8-byte Folded Reload
	.loc	6 1625 5                        ; /Applications/Xcode.app/Contents/Developer/Platforms/MacOSX.platform/Developer/SDKs/MacOSX.sdk/usr/include/c++/v1/string:1625:5
	add	x9, x8, #0
	str	xzr, [x9]
	add	x8, x8, #8
	str	wzr, [x8]
	b	LBB17_13
LBB17_13:
	ldr	x9, [x19, #152]
	adrp	x8, ___stack_chk_guard@GOTPAGE
	ldr	x8, [x8, ___stack_chk_guard@GOTPAGEOFF]
	ldr	x8, [x8]
	subs	x8, x8, x9
	cset	w8, eq
	tbnz	w8, #0, LBB17_15
	b	LBB17_14
LBB17_14:
	bl	___stack_chk_fail
LBB17_15:
	sub	sp, x29, #16
	.cfi_def_cfa wsp, 32
	ldp	x29, x30, [sp, #16]             ; 16-byte Folded Reload
	ldp	x20, x19, [sp], #32             ; 16-byte Folded Reload
	.cfi_def_cfa_offset 0
	.cfi_restore w30
	.cfi_restore w29
	.cfi_restore w19
	.cfi_restore w20
	ret
Ltmp140:
Lfunc_end17:
	.cfi_endproc
                                        ; -- End function
	.globl	__ZNSt3__130__libcpp_is_constant_evaluatedEv ; -- Begin function _ZNSt3__130__libcpp_is_constant_evaluatedEv
	.weak_definition	__ZNSt3__130__libcpp_is_constant_evaluatedEv
	.p2align	2
__ZNSt3__130__libcpp_is_constant_evaluatedEv: ; @_ZNSt3__130__libcpp_is_constant_evaluatedEv
Lfunc_begin18:
	.file	70 "/Applications/Xcode.app/Contents/Developer/Platforms/MacOSX.platform/Developer/SDKs/MacOSX.sdk/usr/include/c++/v1/__type_traits" "is_constant_evaluated.h"
	.loc	70 28 0 is_stmt 1               ; /Applications/Xcode.app/Contents/Developer/Platforms/MacOSX.platform/Developer/SDKs/MacOSX.sdk/usr/include/c++/v1/__type_traits/is_constant_evaluated.h:28:0
	.cfi_startproc
; %bb.0:                                ; %entry
	mov	w8, #0
Ltmp141:
	.loc	70 28 51 prologue_end           ; /Applications/Xcode.app/Contents/Developer/Platforms/MacOSX.platform/Developer/SDKs/MacOSX.sdk/usr/include/c++/v1/__type_traits/is_constant_evaluated.h:28:51
	and	w0, w8, #0x1
	ret
Ltmp142:
Lfunc_end18:
	.cfi_endproc
                                        ; -- End function
	.private_extern	__ZNSt3__112basic_stringIcNS_11char_traitsIcEENS_9allocatorIcEEE11__recommendB6v15006Em ; -- Begin function _ZNSt3__112basic_stringIcNS_11char_traitsIcEENS_9allocatorIcEEE11__recommendB6v15006Em
	.globl	__ZNSt3__112basic_stringIcNS_11char_traitsIcEENS_9allocatorIcEEE11__recommendB6v15006Em
	.weak_definition	__ZNSt3__112basic_stringIcNS_11char_traitsIcEENS_9allocatorIcEEE11__recommendB6v15006Em
	.p2align	2
__ZNSt3__112basic_stringIcNS_11char_traitsIcEENS_9allocatorIcEEE11__recommendB6v15006Em: ; @_ZNSt3__112basic_stringIcNS_11char_traitsIcEENS_9allocatorIcEEE11__recommendB6v15006Em
Lfunc_begin19:
	.loc	6 1634 0                        ; /Applications/Xcode.app/Contents/Developer/Platforms/MacOSX.platform/Developer/SDKs/MacOSX.sdk/usr/include/c++/v1/string:1634:0
	.cfi_startproc
; %bb.0:                                ; %entry
	sub	sp, sp, #48
	.cfi_def_cfa_offset 48
	stp	x29, x30, [sp, #32]             ; 16-byte Folded Spill
	add	x29, sp, #32
	.cfi_def_cfa w29, 16
	.cfi_offset w30, -8
	.cfi_offset w29, -16
	str	x0, [sp, #16]
Ltmp143:
	.loc	6 1635 13 prologue_end          ; /Applications/Xcode.app/Contents/Developer/Platforms/MacOSX.platform/Developer/SDKs/MacOSX.sdk/usr/include/c++/v1/string:1635:13
	ldr	x8, [sp, #16]
	.loc	6 1635 17 is_stmt 0             ; /Applications/Xcode.app/Contents/Developer/Platforms/MacOSX.platform/Developer/SDKs/MacOSX.sdk/usr/include/c++/v1/string:1635:17
	subs	x8, x8, #23
	cset	w8, hs
Ltmp144:
	.loc	6 1635 13                       ; /Applications/Xcode.app/Contents/Developer/Platforms/MacOSX.platform/Developer/SDKs/MacOSX.sdk/usr/include/c++/v1/string:1635:13
	tbnz	w8, #0, LBB19_4
	b	LBB19_1
LBB19_1:                                ; %if.then
Ltmp145:
	.loc	6 1636 17 is_stmt 1             ; /Applications/Xcode.app/Contents/Developer/Platforms/MacOSX.platform/Developer/SDKs/MacOSX.sdk/usr/include/c++/v1/string:1636:17
	bl	__ZNSt3__130__libcpp_is_constant_evaluatedEv
Ltmp146:
	.loc	6 1636 17 is_stmt 0             ; /Applications/Xcode.app/Contents/Developer/Platforms/MacOSX.platform/Developer/SDKs/MacOSX.sdk/usr/include/c++/v1/string:1636:17
	tbz	w0, #0, LBB19_3
	b	LBB19_2
LBB19_2:                                ; %if.then1
	.loc	6 0 17                          ; /Applications/Xcode.app/Contents/Developer/Platforms/MacOSX.platform/Developer/SDKs/MacOSX.sdk/usr/include/c++/v1/string:0:17
	mov	x8, #23
Ltmp147:
	.loc	6 1637 17 is_stmt 1             ; /Applications/Xcode.app/Contents/Developer/Platforms/MacOSX.platform/Developer/SDKs/MacOSX.sdk/usr/include/c++/v1/string:1637:17
	stur	x8, [x29, #-8]
	b	LBB19_7
LBB19_3:                                ; %if.else
	.loc	6 0 17 is_stmt 0                ; /Applications/Xcode.app/Contents/Developer/Platforms/MacOSX.platform/Developer/SDKs/MacOSX.sdk/usr/include/c++/v1/string:0:17
	mov	x8, #22
	.loc	6 1639 17 is_stmt 1             ; /Applications/Xcode.app/Contents/Developer/Platforms/MacOSX.platform/Developer/SDKs/MacOSX.sdk/usr/include/c++/v1/string:1639:17
	stur	x8, [x29, #-8]
	b	LBB19_7
Ltmp148:
LBB19_4:                                ; %if.end
	.loc	6 1642 60                       ; /Applications/Xcode.app/Contents/Developer/Platforms/MacOSX.platform/Developer/SDKs/MacOSX.sdk/usr/include/c++/v1/string:1642:60
	ldr	x8, [sp, #16]
	.loc	6 1642 63 is_stmt 0             ; /Applications/Xcode.app/Contents/Developer/Platforms/MacOSX.platform/Developer/SDKs/MacOSX.sdk/usr/include/c++/v1/string:1642:63
	add	x0, x8, #1
	.loc	6 1641 29 is_stmt 1             ; /Applications/Xcode.app/Contents/Developer/Platforms/MacOSX.platform/Developer/SDKs/MacOSX.sdk/usr/include/c++/v1/string:1641:29
	bl	__ZNSt3__112basic_stringIcNS_11char_traitsIcEENS_9allocatorIcEEE10__align_itB6v15006ILm16EEEmm
	.loc	6 1642 67                       ; /Applications/Xcode.app/Contents/Developer/Platforms/MacOSX.platform/Developer/SDKs/MacOSX.sdk/usr/include/c++/v1/string:1642:67
	subs	x8, x0, #1
	.loc	6 1641 19                       ; /Applications/Xcode.app/Contents/Developer/Platforms/MacOSX.platform/Developer/SDKs/MacOSX.sdk/usr/include/c++/v1/string:1641:19
	str	x8, [sp, #8]
Ltmp149:
	.loc	6 1643 13                       ; /Applications/Xcode.app/Contents/Developer/Platforms/MacOSX.platform/Developer/SDKs/MacOSX.sdk/usr/include/c++/v1/string:1643:13
	ldr	x8, [sp, #8]
	.loc	6 1643 21 is_stmt 0             ; /Applications/Xcode.app/Contents/Developer/Platforms/MacOSX.platform/Developer/SDKs/MacOSX.sdk/usr/include/c++/v1/string:1643:21
	subs	x8, x8, #23
	cset	w8, ne
Ltmp150:
	.loc	6 1643 13                       ; /Applications/Xcode.app/Contents/Developer/Platforms/MacOSX.platform/Developer/SDKs/MacOSX.sdk/usr/include/c++/v1/string:1643:13
	tbnz	w8, #0, LBB19_6
	b	LBB19_5
LBB19_5:                                ; %if.then4
Ltmp151:
	.loc	6 1643 35                       ; /Applications/Xcode.app/Contents/Developer/Platforms/MacOSX.platform/Developer/SDKs/MacOSX.sdk/usr/include/c++/v1/string:1643:35
	ldr	x8, [sp, #8]
	add	x8, x8, #1
	str	x8, [sp, #8]
	b	LBB19_6
Ltmp152:
LBB19_6:                                ; %if.end5
	.loc	6 1644 16 is_stmt 1             ; /Applications/Xcode.app/Contents/Developer/Platforms/MacOSX.platform/Developer/SDKs/MacOSX.sdk/usr/include/c++/v1/string:1644:16
	ldr	x8, [sp, #8]
	.loc	6 1644 9 is_stmt 0              ; /Applications/Xcode.app/Contents/Developer/Platforms/MacOSX.platform/Developer/SDKs/MacOSX.sdk/usr/include/c++/v1/string:1644:9
	stur	x8, [x29, #-8]
	b	LBB19_7
LBB19_7:                                ; %return
	.loc	6 1645 5 is_stmt 1              ; /Applications/Xcode.app/Contents/Developer/Platforms/MacOSX.platform/Developer/SDKs/MacOSX.sdk/usr/include/c++/v1/string:1645:5
	ldur	x0, [x29, #-8]
	.cfi_def_cfa wsp, 48
	ldp	x29, x30, [sp, #32]             ; 16-byte Folded Reload
	add	sp, sp, #48
	.cfi_def_cfa_offset 0
	.cfi_restore w30
	.cfi_restore w29
	ret
Ltmp153:
Lfunc_end19:
	.cfi_endproc
                                        ; -- End function
	.private_extern	__ZNSt3__116allocator_traitsINS_9allocatorIcEEE8allocateB6v15006ERS2_m ; -- Begin function _ZNSt3__116allocator_traitsINS_9allocatorIcEEE8allocateB6v15006ERS2_m
	.globl	__ZNSt3__116allocator_traitsINS_9allocatorIcEEE8allocateB6v15006ERS2_m
	.weak_definition	__ZNSt3__116allocator_traitsINS_9allocatorIcEEE8allocateB6v15006ERS2_m
	.p2align	2
__ZNSt3__116allocator_traitsINS_9allocatorIcEEE8allocateB6v15006ERS2_m: ; @_ZNSt3__116allocator_traitsINS_9allocatorIcEEE8allocateB6v15006ERS2_m
Lfunc_begin20:
	.loc	5 261 0                         ; /Applications/Xcode.app/Contents/Developer/Platforms/MacOSX.platform/Developer/SDKs/MacOSX.sdk/usr/include/c++/v1/__memory/allocator_traits.h:261:0
	.cfi_startproc
; %bb.0:                                ; %entry
	sub	sp, sp, #32
	.cfi_def_cfa_offset 32
	stp	x29, x30, [sp, #16]             ; 16-byte Folded Spill
	add	x29, sp, #16
	.cfi_def_cfa w29, 16
	.cfi_offset w30, -8
	.cfi_offset w29, -16
	str	x0, [sp, #8]
	str	x1, [sp]
Ltmp154:
	.loc	5 262 16 prologue_end           ; /Applications/Xcode.app/Contents/Developer/Platforms/MacOSX.platform/Developer/SDKs/MacOSX.sdk/usr/include/c++/v1/__memory/allocator_traits.h:262:16
	ldr	x0, [sp, #8]
	.loc	5 262 29 is_stmt 0              ; /Applications/Xcode.app/Contents/Developer/Platforms/MacOSX.platform/Developer/SDKs/MacOSX.sdk/usr/include/c++/v1/__memory/allocator_traits.h:262:29
	ldr	x1, [sp]
	.loc	5 262 20                        ; /Applications/Xcode.app/Contents/Developer/Platforms/MacOSX.platform/Developer/SDKs/MacOSX.sdk/usr/include/c++/v1/__memory/allocator_traits.h:262:20
	bl	__ZNSt3__19allocatorIcE8allocateB6v15006Em
	.cfi_def_cfa wsp, 32
	.loc	5 262 9                         ; /Applications/Xcode.app/Contents/Developer/Platforms/MacOSX.platform/Developer/SDKs/MacOSX.sdk/usr/include/c++/v1/__memory/allocator_traits.h:262:9
	ldp	x29, x30, [sp, #16]             ; 16-byte Folded Reload
	add	sp, sp, #32
	.cfi_def_cfa_offset 0
	.cfi_restore w30
	.cfi_restore w29
	ret
Ltmp155:
Lfunc_end20:
	.cfi_endproc
                                        ; -- End function
	.private_extern	__ZNSt3__112basic_stringIcNS_11char_traitsIcEENS_9allocatorIcEEE7__allocB6v15006Ev ; -- Begin function _ZNSt3__112basic_stringIcNS_11char_traitsIcEENS_9allocatorIcEEE7__allocB6v15006Ev
	.globl	__ZNSt3__112basic_stringIcNS_11char_traitsIcEENS_9allocatorIcEEE7__allocB6v15006Ev
	.weak_definition	__ZNSt3__112basic_stringIcNS_11char_traitsIcEENS_9allocatorIcEEE7__allocB6v15006Ev
	.p2align	2
__ZNSt3__112basic_stringIcNS_11char_traitsIcEENS_9allocatorIcEEE7__allocB6v15006Ev: ; @_ZNSt3__112basic_stringIcNS_11char_traitsIcEENS_9allocatorIcEEE7__allocB6v15006Ev
Lfunc_begin21:
	.loc	6 1563 0 is_stmt 1              ; /Applications/Xcode.app/Contents/Developer/Platforms/MacOSX.platform/Developer/SDKs/MacOSX.sdk/usr/include/c++/v1/string:1563:0
	.cfi_startproc
; %bb.0:                                ; %entry
	sub	sp, sp, #64
	.cfi_def_cfa_offset 64
	stp	x29, x30, [sp, #48]             ; 16-byte Folded Spill
	add	x29, sp, #48
	.cfi_def_cfa w29, 16
	.cfi_offset w30, -8
	.cfi_offset w29, -16
	stur	x0, [x29, #-8]
	ldur	x8, [x29, #-8]
	str	x8, [sp, #24]                   ; 8-byte Folded Spill
	mov	x9, x8
	stur	x9, [x29, #-16]                 ; 8-byte Folded Spill
	subs	x8, x8, #0
	cset	w8, eq
	tbnz	w8, #0, LBB21_2
	b	LBB21_1
LBB21_1:                                ; %entry
	ldur	x8, [x29, #-16]                 ; 8-byte Folded Reload
	ands	x8, x8, #0x7
	cset	w8, eq
	tbnz	w8, #0, LBB21_3
	b	LBB21_2
LBB21_2:                                ; %handler.type_mismatch
	ldur	x1, [x29, #-16]                 ; 8-byte Folded Reload
Ltmp156:
	.loc	6 0 0 is_stmt 0                 ; /Applications/Xcode.app/Contents/Developer/Platforms/MacOSX.platform/Developer/SDKs/MacOSX.sdk/usr/include/c++/v1/string:0:0
	adrp	x0, l___unnamed_68@PAGE
	add	x0, x0, l___unnamed_68@PAGEOFF
	bl	___ubsan_handle_type_mismatch_v1
	b	LBB21_3
LBB21_3:                                ; %cont
	ldr	x8, [sp, #24]                   ; 8-byte Folded Reload
	.loc	6 1563 107 prologue_end is_stmt 1 ; /Applications/Xcode.app/Contents/Developer/Platforms/MacOSX.platform/Developer/SDKs/MacOSX.sdk/usr/include/c++/v1/string:1563:107
	mov	x9, x8
	str	x9, [sp, #16]                   ; 8-byte Folded Spill
	subs	x8, x8, #0
	cset	w8, eq
	tbnz	w8, #0, LBB21_5
	b	LBB21_4
LBB21_4:                                ; %cont
	.loc	6 0 107 is_stmt 0               ; /Applications/Xcode.app/Contents/Developer/Platforms/MacOSX.platform/Developer/SDKs/MacOSX.sdk/usr/include/c++/v1/string:0:107
	ldr	x8, [sp, #16]                   ; 8-byte Folded Reload
	.loc	6 1563 107                      ; /Applications/Xcode.app/Contents/Developer/Platforms/MacOSX.platform/Developer/SDKs/MacOSX.sdk/usr/include/c++/v1/string:1563:107
	ands	x8, x8, #0x7
	cset	w8, eq
	tbnz	w8, #0, LBB21_6
	b	LBB21_5
LBB21_5:                                ; %handler.type_mismatch2
	.loc	6 0 107                         ; /Applications/Xcode.app/Contents/Developer/Platforms/MacOSX.platform/Developer/SDKs/MacOSX.sdk/usr/include/c++/v1/string:0:107
	ldr	x1, [sp, #16]                   ; 8-byte Folded Reload
	adrp	x0, l___unnamed_69@PAGE
	add	x0, x0, l___unnamed_69@PAGEOFF
	.loc	6 1563 107                      ; /Applications/Xcode.app/Contents/Developer/Platforms/MacOSX.platform/Developer/SDKs/MacOSX.sdk/usr/include/c++/v1/string:1563:107
	bl	___ubsan_handle_type_mismatch_v1
	b	LBB21_6
LBB21_6:                                ; %cont3
	.loc	6 0 107                         ; /Applications/Xcode.app/Contents/Developer/Platforms/MacOSX.platform/Developer/SDKs/MacOSX.sdk/usr/include/c++/v1/string:0:107
	ldr	x0, [sp, #24]                   ; 8-byte Folded Reload
	.loc	6 1563 107                      ; /Applications/Xcode.app/Contents/Developer/Platforms/MacOSX.platform/Developer/SDKs/MacOSX.sdk/usr/include/c++/v1/string:1563:107
	bl	__ZNSt3__117__compressed_pairINS_12basic_stringIcNS_11char_traitsIcEENS_9allocatorIcEEE5__repES5_E6secondB6v15006Ev
	str	x0, [sp, #8]                    ; 8-byte Folded Spill
	.loc	6 1563 95                       ; /Applications/Xcode.app/Contents/Developer/Platforms/MacOSX.platform/Developer/SDKs/MacOSX.sdk/usr/include/c++/v1/string:1563:95
	subs	x8, x0, #0
	cset	w8, ne
	tbnz	w8, #0, LBB21_8
	b	LBB21_7
