	.section	__TEXT,__text,regular,pure_instructions
	.build_version macos, 13, 0	sdk_version 13, 3
	.file	1 "/Applications/Xcode.app/Contents/Developer/Platforms/MacOSX.platform/Developer/SDKs/MacOSX.sdk/usr/include/_types" "_uint64_t.h"
	.file	2 "/Applications/Xcode.app/Contents/Developer/Platforms/MacOSX.platform/Developer/SDKs/MacOSX.sdk/usr/include/c++/v1/__string" "char_traits.h"
	.file	3 "/Applications/Xcode.app/Contents/Developer/Toolchains/XcodeDefault.xctoolchain/usr/lib/clang/14.0.3/include" "stddef.h"
	.file	4 "/Applications/Xcode.app/Contents/Developer/Platforms/MacOSX.platform/Developer/SDKs/MacOSX.sdk/usr/include/c++/v1/__memory" "allocator.h"
	.file	5 "/Applications/Xcode.app/Contents/Developer/Platforms/MacOSX.platform/Developer/SDKs/MacOSX.sdk/usr/include/c++/v1/__memory" "allocator_traits.h"
	.file	6 "/Applications/Xcode.app/Contents/Developer/Platforms/MacOSX.platform/Developer/SDKs/MacOSX.sdk/usr/include/c++/v1" "string"
	.file	7 "/Applications/Xcode.app/Contents/Developer/Platforms/MacOSX.platform/Developer/SDKs/MacOSX.sdk/usr/include/c++/v1/__memory" "compressed_pair.h"
	.file	8 "/Applications/Xcode.app/Contents/Developer/Platforms/MacOSX.platform/Developer/SDKs/MacOSX.sdk/usr/include/c++/v1" "string_view"
	.file	9 "/Applications/Xcode.app/Contents/Developer/Platforms/MacOSX.platform/Developer/SDKs/MacOSX.sdk/usr/include/c++/v1/__type_traits" "integral_constant.h"
	.file	10 "/Applications/Xcode.app/Contents/Developer/Platforms/MacOSX.platform/Developer/SDKs/MacOSX.sdk/usr/include/c++/v1" "iosfwd"
	.file	11 "/Users/xss/Documents/code/sipparser" "ZN20SipMultiStringHeader18setValueFromStringERKNSt3__112basic_stringIcNS0_11char_traitsIcEENS0_9allocatorIcEEEE.cpp"
	.file	12 "/Applications/Xcode.app/Contents/Developer/Platforms/MacOSX.platform/Developer/SDKs/MacOSX.sdk/usr/include/mach-o" "dyld_images.h"
	.file	13 "/Applications/Xcode.app/Contents/Developer/Platforms/MacOSX.platform/Developer/SDKs/MacOSX.sdk/usr/include/mach/i386" "vm_types.h"
	.file	14 "/Applications/Xcode.app/Contents/Developer/Platforms/MacOSX.platform/Developer/SDKs/MacOSX.sdk/usr/include/mach" "task_info.h"
	.file	15 "/Applications/Xcode.app/Contents/Developer/Platforms/MacOSX.platform/Developer/SDKs/MacOSX.sdk/usr/include/_types" "_uint32_t.h"
	.file	16 "/Applications/Xcode.app/Contents/Developer/Platforms/MacOSX.platform/Developer/SDKs/MacOSX.sdk/usr/include/mach-o" "loader.h"
	.file	17 "/Applications/Xcode.app/Contents/Developer/Platforms/MacOSX.platform/Developer/SDKs/MacOSX.sdk/usr/include/sys/_types" "_int32_t.h"
	.file	18 "/Applications/Xcode.app/Contents/Developer/Platforms/MacOSX.platform/Developer/SDKs/MacOSX.sdk/usr/include/sys/_types" "_uintptr_t.h"
	.file	19 "/Applications/Xcode.app/Contents/Developer/Platforms/MacOSX.platform/Developer/SDKs/MacOSX.sdk/usr/include/sys" "_types.h"
	.file	20 "/Applications/Xcode.app/Contents/Developer/Platforms/MacOSX.platform/Developer/SDKs/MacOSX.sdk/usr/include/sys/_types" "_uuid_t.h"
	.file	21 "/Applications/Xcode.app/Contents/Developer/Platforms/MacOSX.platform/Developer/SDKs/MacOSX.sdk/usr/include/_types" "_uint8_t.h"
	.file	22 "/Applications/Xcode.app/Contents/Developer/Platforms/MacOSX.platform/Developer/SDKs/MacOSX.sdk/usr/include/i386" "_types.h"
	.file	23 "/Applications/Xcode.app/Contents/Developer/Platforms/MacOSX.platform/Developer/SDKs/MacOSX.sdk/usr/include/sys/_types" "_mach_port_t.h"
	.file	24 "/Applications/Xcode.app/Contents/Developer/Platforms/MacOSX.platform/Developer/SDKs/MacOSX.sdk/usr/include/mach-o" "nlist.h"
	.file	25 "/Applications/Xcode.app/Contents/Developer/Platforms/MacOSX.platform/Developer/SDKs/MacOSX.sdk/usr/include/_types" "_uint16_t.h"
	.file	26 "/Applications/Xcode.app/Contents/Developer/Platforms/MacOSX.platform/Developer/SDKs/MacOSX.sdk/usr/include/sys/_types" "_mbstate_t.h"
	.file	27 "/Applications/Xcode.app/Contents/Developer/Platforms/MacOSX.platform/Developer/SDKs/MacOSX.sdk/usr/include/c++/v1" "__mbstate_t.h"
	.file	28 "/Applications/Xcode.app/Contents/Developer/Platforms/MacOSX.platform/Developer/SDKs/MacOSX.sdk/usr/include" "_ctype.h"
	.file	29 "/Applications/Xcode.app/Contents/Developer/Platforms/MacOSX.platform/Developer/SDKs/MacOSX.sdk/usr/include/c++/v1" "cctype"
	.file	30 "/Applications/Xcode.app/Contents/Developer/Platforms/MacOSX.platform/Developer/SDKs/MacOSX.sdk/usr/include/sys/_types" "_int8_t.h"
	.file	31 "/Applications/Xcode.app/Contents/Developer/Platforms/MacOSX.platform/Developer/SDKs/MacOSX.sdk/usr/include/c++/v1" "cstdint"
	.file	32 "/Applications/Xcode.app/Contents/Developer/Platforms/MacOSX.platform/Developer/SDKs/MacOSX.sdk/usr/include/sys/_types" "_int16_t.h"
	.file	33 "/Applications/Xcode.app/Contents/Developer/Platforms/MacOSX.platform/Developer/SDKs/MacOSX.sdk/usr/include/sys/_types" "_int64_t.h"
	.file	34 "/Applications/Xcode.app/Contents/Developer/Platforms/MacOSX.platform/Developer/SDKs/MacOSX.sdk/usr/include" "stdint.h"
	.file	35 "/Applications/Xcode.app/Contents/Developer/Platforms/MacOSX.platform/Developer/SDKs/MacOSX.sdk/usr/include/sys/_types" "_intptr_t.h"
	.file	36 "/Applications/Xcode.app/Contents/Developer/Platforms/MacOSX.platform/Developer/SDKs/MacOSX.sdk/usr/include/_types" "_intmax_t.h"
	.file	37 "/Applications/Xcode.app/Contents/Developer/Platforms/MacOSX.platform/Developer/SDKs/MacOSX.sdk/usr/include/_types" "_uintmax_t.h"
	.file	38 "/Applications/Xcode.app/Contents/Developer/Platforms/MacOSX.platform/Developer/SDKs/MacOSX.sdk/usr/include/c++/v1" "stddef.h"
	.file	39 "/Applications/Xcode.app/Contents/Developer/Platforms/MacOSX.platform/Developer/SDKs/MacOSX.sdk/usr/include/c++/v1" "cstddef"
	.file	40 "/Applications/Xcode.app/Contents/Developer/Platforms/MacOSX.platform/Developer/SDKs/MacOSX.sdk/usr/include/c++/v1" "cstdlib"
	.file	41 "/Applications/Xcode.app/Contents/Developer/Platforms/MacOSX.platform/Developer/SDKs/MacOSX.sdk/usr/include" "stdlib.h"
	.file	42 "/Applications/Xcode.app/Contents/Developer/Platforms/MacOSX.platform/Developer/SDKs/MacOSX.sdk/usr/include/malloc" "_malloc.h"
	.file	43 "/Applications/Xcode.app/Contents/Developer/Platforms/MacOSX.platform/Developer/SDKs/MacOSX.sdk/usr/include/c++/v1" "stdlib.h"
	.file	44 "/Applications/Xcode.app/Contents/Developer/Platforms/MacOSX.platform/Developer/SDKs/MacOSX.sdk/usr/include/c++/v1" "cstring"
	.file	45 "/Applications/Xcode.app/Contents/Developer/Platforms/MacOSX.platform/Developer/SDKs/MacOSX.sdk/usr/include" "string.h"
	.file	46 "/Applications/Xcode.app/Contents/Developer/Platforms/MacOSX.platform/Developer/SDKs/MacOSX.sdk/usr/include/c++/v1" "string.h"
	.file	47 "/Applications/Xcode.app/Contents/Developer/Platforms/MacOSX.platform/Developer/SDKs/MacOSX.sdk/usr/include/c++/v1" "math.h"
	.file	48 "/Applications/Xcode.app/Contents/Developer/Platforms/MacOSX.platform/Developer/SDKs/MacOSX.sdk/usr/include/c++/v1" "cmath"
	.file	49 "/Applications/Xcode.app/Contents/Developer/Platforms/MacOSX.platform/Developer/SDKs/MacOSX.sdk/usr/include" "math.h"
	.file	50 "/Applications/Xcode.app/Contents/Developer/Platforms/MacOSX.platform/Developer/SDKs/MacOSX.sdk/usr/include/sys/_types" "_clock_t.h"
	.file	51 "/Applications/Xcode.app/Contents/Developer/Platforms/MacOSX.platform/Developer/SDKs/MacOSX.sdk/usr/include/c++/v1" "ctime"
	.file	52 "/Applications/Xcode.app/Contents/Developer/Platforms/MacOSX.platform/Developer/SDKs/MacOSX.sdk/usr/include/sys/_types" "_time_t.h"
	.file	53 "/Applications/Xcode.app/Contents/Developer/Platforms/MacOSX.platform/Developer/SDKs/MacOSX.sdk/usr/include" "time.h"
	.file	54 "/Applications/Xcode.app/Contents/Developer/Platforms/MacOSX.platform/Developer/SDKs/MacOSX.sdk/usr/include" "_stdio.h"
	.file	55 "/Applications/Xcode.app/Contents/Developer/Platforms/MacOSX.platform/Developer/SDKs/MacOSX.sdk/usr/include/c++/v1" "cstdio"
	.file	56 "/Applications/Xcode.app/Contents/Developer/Platforms/MacOSX.platform/Developer/SDKs/MacOSX.sdk/usr/include" "stdio.h"
	.file	57 "/Applications/Xcode.app/Contents/Developer/Platforms/MacOSX.platform/Developer/SDKs/MacOSX.sdk/usr/include/sys/_types" "_wint_t.h"
	.file	58 "/Applications/Xcode.app/Contents/Developer/Platforms/MacOSX.platform/Developer/SDKs/MacOSX.sdk/usr/include/c++/v1" "cwctype"
	.file	59 "/Applications/Xcode.app/Contents/Developer/Platforms/MacOSX.platform/Developer/SDKs/MacOSX.sdk/usr/include" "_types.h"
	.file	60 "/Applications/Xcode.app/Contents/Developer/Platforms/MacOSX.platform/Developer/SDKs/MacOSX.sdk/usr/include/_types" "_wctrans_t.h"
	.file	61 "/Applications/Xcode.app/Contents/Developer/Platforms/MacOSX.platform/Developer/SDKs/MacOSX.sdk/usr/include/_types" "_wctype_t.h"
	.file	62 "/Applications/Xcode.app/Contents/Developer/Platforms/MacOSX.platform/Developer/SDKs/MacOSX.sdk/usr/include" "_wctype.h"
	.file	63 "/Applications/Xcode.app/Contents/Developer/Platforms/MacOSX.platform/Developer/SDKs/MacOSX.sdk/usr/include" "wctype.h"
	.file	64 "/Applications/Xcode.app/Contents/Developer/Platforms/MacOSX.platform/Developer/SDKs/MacOSX.sdk/usr/include/c++/v1" "cwchar"
	.file	65 "/Applications/Xcode.app/Contents/Developer/Platforms/MacOSX.platform/Developer/SDKs/MacOSX.sdk/usr/include" "wchar.h"
	.file	66 "/Applications/Xcode.app/Contents/Developer/Platforms/MacOSX.platform/Developer/SDKs/MacOSX.sdk/usr/include/c++/v1" "wchar.h"
	.file	67 "/Applications/Xcode.app/Contents/Developer/Platforms/MacOSX.platform/Developer/SDKs/MacOSX.sdk/usr/include/sys/_types" "_va_list.h"
	.file	68 "/Applications/Xcode.app/Contents/Developer/Platforms/MacOSX.platform/Developer/SDKs/MacOSX.sdk/usr/include/c++/v1" "cstdarg"
	.globl	__Z11LoadLibraryPKc             ## -- Begin function _Z11LoadLibraryPKc
	.p2align	4, 0x90
__Z11LoadLibraryPKc:                    ## @_Z11LoadLibraryPKc
Lfunc_begin0:
	.loc	11 17 0                         ## ZN20SipMultiStringHeader18setValueFromStringERKNSt3__112basic_stringIcNS0_11char_traitsIcEENS0_9allocatorIcEEEE.cpp:17:0
	.cfi_startproc
## %bb.0:
	pushq	%rbp
	.cfi_def_cfa_offset 16
	.cfi_offset %rbp, -16
	movq	%rsp, %rbp
	.cfi_def_cfa_register %rbp
	subq	$80, %rsp
	movq	%rdi, -16(%rbp)
Ltmp0:
	.loc	11 18 10 prologue_end           ## ZN20SipMultiStringHeader18setValueFromStringERKNSt3__112basic_stringIcNS0_11char_traitsIcEENS0_9allocatorIcEEEE.cpp:18:10
	movq	-16(%rbp), %rdi
	.loc	11 18 3 is_stmt 0               ## ZN20SipMultiStringHeader18setValueFromStringERKNSt3__112basic_stringIcNS0_11char_traitsIcEENS0_9allocatorIcEEEE.cpp:18:3
	movl	$1, %esi
	callq	_dlopen
	.loc	11 21 26 is_stmt 1              ## ZN20SipMultiStringHeader18setValueFromStringERKNSt3__112basic_stringIcNS0_11char_traitsIcEENS0_9allocatorIcEEEE.cpp:21:26
	movl	$5, -44(%rbp)
	.loc	11 24 19                        ## ZN20SipMultiStringHeader18setValueFromStringERKNSt3__112basic_stringIcNS0_11char_traitsIcEENS0_9allocatorIcEEEE.cpp:24:19
	movq	_mach_task_self_@GOTPCREL(%rip), %rax
	movl	(%rax), %edi
	.loc	11 24 53 is_stmt 0              ## ZN20SipMultiStringHeader18setValueFromStringERKNSt3__112basic_stringIcNS0_11char_traitsIcEENS0_9allocatorIcEEEE.cpp:24:53
	leaq	-40(%rbp), %rdx
	.loc	11 24 9                         ## ZN20SipMultiStringHeader18setValueFromStringERKNSt3__112basic_stringIcNS0_11char_traitsIcEENS0_9allocatorIcEEEE.cpp:24:9
	movl	$17, %esi
	leaq	-44(%rbp), %rcx
	callq	_task_info
	.loc	11 24 7                         ## ZN20SipMultiStringHeader18setValueFromStringERKNSt3__112basic_stringIcNS0_11char_traitsIcEENS0_9allocatorIcEEEE.cpp:24:7
	movl	%eax, -48(%rbp)
Ltmp1:
	.loc	11 25 11 is_stmt 1              ## ZN20SipMultiStringHeader18setValueFromStringERKNSt3__112basic_stringIcNS0_11char_traitsIcEENS0_9allocatorIcEEEE.cpp:25:11
	cmpl	$0, -48(%rbp)
Ltmp2:
	.loc	11 25 7 is_stmt 0               ## ZN20SipMultiStringHeader18setValueFromStringERKNSt3__112basic_stringIcNS0_11char_traitsIcEENS0_9allocatorIcEEEE.cpp:25:7
	je	LBB0_2
## %bb.1:
Ltmp3:
	.loc	11 26 50 is_stmt 1              ## ZN20SipMultiStringHeader18setValueFromStringERKNSt3__112basic_stringIcNS0_11char_traitsIcEENS0_9allocatorIcEEEE.cpp:26:50
	movl	-48(%rbp), %esi
	.loc	11 26 5 is_stmt 0               ## ZN20SipMultiStringHeader18setValueFromStringERKNSt3__112basic_stringIcNS0_11char_traitsIcEENS0_9allocatorIcEEEE.cpp:26:5
	leaq	L_.str(%rip), %rdi
	movb	$0, %al
	callq	_printf
	.loc	11 27 5 is_stmt 1               ## ZN20SipMultiStringHeader18setValueFromStringERKNSt3__112basic_stringIcNS0_11char_traitsIcEENS0_9allocatorIcEEEE.cpp:27:5
	movq	$0, -8(%rbp)
	jmp	LBB0_9
Ltmp4:
LBB0_2:
	.loc	11 30 82                        ## ZN20SipMultiStringHeader18setValueFromStringERKNSt3__112basic_stringIcNS0_11char_traitsIcEENS0_9allocatorIcEEEE.cpp:30:82
	movq	-40(%rbp), %rax
	.loc	11 30 25 is_stmt 0              ## ZN20SipMultiStringHeader18setValueFromStringERKNSt3__112basic_stringIcNS0_11char_traitsIcEENS0_9allocatorIcEEEE.cpp:30:25
	movq	%rax, -56(%rbp)
	.loc	11 31 49 is_stmt 1              ## ZN20SipMultiStringHeader18setValueFromStringERKNSt3__112basic_stringIcNS0_11char_traitsIcEENS0_9allocatorIcEEEE.cpp:31:49
	movq	-56(%rbp), %rax
	.loc	11 31 66 is_stmt 0              ## ZN20SipMultiStringHeader18setValueFromStringERKNSt3__112basic_stringIcNS0_11char_traitsIcEENS0_9allocatorIcEEEE.cpp:31:66
	movq	8(%rax), %rax
	.loc	11 31 26                        ## ZN20SipMultiStringHeader18setValueFromStringERKNSt3__112basic_stringIcNS0_11char_traitsIcEENS0_9allocatorIcEEEE.cpp:31:26
	movq	%rax, -64(%rbp)
Ltmp5:
	.loc	11 33 17 is_stmt 1              ## ZN20SipMultiStringHeader18setValueFromStringERKNSt3__112basic_stringIcNS0_11char_traitsIcEENS0_9allocatorIcEEEE.cpp:33:17
	movl	$0, -68(%rbp)
LBB0_3:                                 ## =>This Inner Loop Header: Depth=1
Ltmp6:
	.loc	11 33 24 is_stmt 0              ## ZN20SipMultiStringHeader18setValueFromStringERKNSt3__112basic_stringIcNS0_11char_traitsIcEENS0_9allocatorIcEEEE.cpp:33:24
	movl	-68(%rbp), %eax
	.loc	11 33 28                        ## ZN20SipMultiStringHeader18setValueFromStringERKNSt3__112basic_stringIcNS0_11char_traitsIcEENS0_9allocatorIcEEEE.cpp:33:28
	movq	-56(%rbp), %rcx
	.loc	11 33 26                        ## ZN20SipMultiStringHeader18setValueFromStringERKNSt3__112basic_stringIcNS0_11char_traitsIcEENS0_9allocatorIcEEEE.cpp:33:26
	cmpl	4(%rcx), %eax
Ltmp7:
	.loc	11 33 3                         ## ZN20SipMultiStringHeader18setValueFromStringERKNSt3__112basic_stringIcNS0_11char_traitsIcEENS0_9allocatorIcEEEE.cpp:33:3
	jae	LBB0_8
## %bb.4:                               ##   in Loop: Header=BB0_3 Depth=1
Ltmp8:
	.loc	11 34 15 is_stmt 1              ## ZN20SipMultiStringHeader18setValueFromStringERKNSt3__112basic_stringIcNS0_11char_traitsIcEENS0_9allocatorIcEEEE.cpp:34:15
	movq	-64(%rbp), %rax
	movl	-68(%rbp), %ecx
                                        ## kill: def $rcx killed $ecx
	imulq	$24, %rcx, %rcx
	addq	%rcx, %rax
	.loc	11 34 39 is_stmt 0              ## ZN20SipMultiStringHeader18setValueFromStringERKNSt3__112basic_stringIcNS0_11char_traitsIcEENS0_9allocatorIcEEEE.cpp:34:39
	movq	8(%rax), %rdi
	.loc	11 34 54                        ## ZN20SipMultiStringHeader18setValueFromStringERKNSt3__112basic_stringIcNS0_11char_traitsIcEENS0_9allocatorIcEEEE.cpp:34:54
	movq	-16(%rbp), %rsi
	.loc	11 34 8                         ## ZN20SipMultiStringHeader18setValueFromStringERKNSt3__112basic_stringIcNS0_11char_traitsIcEENS0_9allocatorIcEEEE.cpp:34:8
	callq	_strcmp
	.loc	11 34 60                        ## ZN20SipMultiStringHeader18setValueFromStringERKNSt3__112basic_stringIcNS0_11char_traitsIcEENS0_9allocatorIcEEEE.cpp:34:60
	cmpl	$0, %eax
Ltmp9:
	.loc	11 34 8                         ## ZN20SipMultiStringHeader18setValueFromStringERKNSt3__112basic_stringIcNS0_11char_traitsIcEENS0_9allocatorIcEEEE.cpp:34:8
	jne	LBB0_6
## %bb.5:
Ltmp10:
	.loc	11 35 21 is_stmt 1              ## ZN20SipMultiStringHeader18setValueFromStringERKNSt3__112basic_stringIcNS0_11char_traitsIcEENS0_9allocatorIcEEEE.cpp:35:21
	movq	-64(%rbp), %rax
	movl	-68(%rbp), %ecx
                                        ## kill: def $rcx killed $ecx
	imulq	$24, %rcx, %rcx
	addq	%rcx, %rax
	.loc	11 35 45 is_stmt 0              ## ZN20SipMultiStringHeader18setValueFromStringERKNSt3__112basic_stringIcNS0_11char_traitsIcEENS0_9allocatorIcEEEE.cpp:35:45
	movq	(%rax), %rax
	.loc	11 35 7                         ## ZN20SipMultiStringHeader18setValueFromStringERKNSt3__112basic_stringIcNS0_11char_traitsIcEENS0_9allocatorIcEEEE.cpp:35:7
	movq	%rax, -8(%rbp)
	jmp	LBB0_9
Ltmp11:
LBB0_6:                                 ##   in Loop: Header=BB0_3 Depth=1
	.loc	11 37 3 is_stmt 1               ## ZN20SipMultiStringHeader18setValueFromStringERKNSt3__112basic_stringIcNS0_11char_traitsIcEENS0_9allocatorIcEEEE.cpp:37:3
	jmp	LBB0_7
Ltmp12:
LBB0_7:                                 ##   in Loop: Header=BB0_3 Depth=1
	.loc	11 33 61                        ## ZN20SipMultiStringHeader18setValueFromStringERKNSt3__112basic_stringIcNS0_11char_traitsIcEENS0_9allocatorIcEEEE.cpp:33:61
	movl	-68(%rbp), %eax
	addl	$1, %eax
	movl	%eax, -68(%rbp)
	.loc	11 33 3 is_stmt 0               ## ZN20SipMultiStringHeader18setValueFromStringERKNSt3__112basic_stringIcNS0_11char_traitsIcEENS0_9allocatorIcEEEE.cpp:33:3
	jmp	LBB0_3
Ltmp13:
LBB0_8:
	.loc	11 39 3 is_stmt 1               ## ZN20SipMultiStringHeader18setValueFromStringERKNSt3__112basic_stringIcNS0_11char_traitsIcEENS0_9allocatorIcEEEE.cpp:39:3
	movq	$0, -8(%rbp)
LBB0_9:
	.loc	11 40 1                         ## ZN20SipMultiStringHeader18setValueFromStringERKNSt3__112basic_stringIcNS0_11char_traitsIcEENS0_9allocatorIcEEEE.cpp:40:1
	movq	-8(%rbp), %rax
	addq	$80, %rsp
	popq	%rbp
	retq
Ltmp14:
Lfunc_end0:
	.cfi_endproc
                                        ## -- End function
	.globl	__Z14GetLoadCommandP14mach_header_64PvjPKc ## -- Begin function _Z14GetLoadCommandP14mach_header_64PvjPKc
	.p2align	4, 0x90
__Z14GetLoadCommandP14mach_header_64PvjPKc: ## @_Z14GetLoadCommandP14mach_header_64PvjPKc
Lfunc_begin1:
	.loc	11 45 0                         ## ZN20SipMultiStringHeader18setValueFromStringERKNSt3__112basic_stringIcNS0_11char_traitsIcEENS0_9allocatorIcEEEE.cpp:45:0
	.cfi_startproc
## %bb.0:
	pushq	%rbp
	.cfi_def_cfa_offset 16
	.cfi_offset %rbp, -16
	movq	%rsp, %rbp
	.cfi_def_cfa_register %rbp
	subq	$64, %rsp
	movq	%rdi, -16(%rbp)
	movq	%rsi, -24(%rbp)
	movl	%edx, -28(%rbp)
	movq	%rcx, -40(%rbp)
Ltmp15:
	.loc	11 46 38 prologue_end           ## ZN20SipMultiStringHeader18setValueFromStringERKNSt3__112basic_stringIcNS0_11char_traitsIcEENS0_9allocatorIcEEEE.cpp:46:38
	movq	-24(%rbp), %rax
	.loc	11 46 12 is_stmt 0              ## ZN20SipMultiStringHeader18setValueFromStringERKNSt3__112basic_stringIcNS0_11char_traitsIcEENS0_9allocatorIcEEEE.cpp:46:12
	movq	%rax, -48(%rbp)
Ltmp16:
	.loc	11 47 17 is_stmt 1              ## ZN20SipMultiStringHeader18setValueFromStringERKNSt3__112basic_stringIcNS0_11char_traitsIcEENS0_9allocatorIcEEEE.cpp:47:17
	movl	$0, -52(%rbp)
LBB1_1:                                 ## =>This Inner Loop Header: Depth=1
Ltmp17:
	.loc	11 47 24 is_stmt 0              ## ZN20SipMultiStringHeader18setValueFromStringERKNSt3__112basic_stringIcNS0_11char_traitsIcEENS0_9allocatorIcEEEE.cpp:47:24
	movl	-52(%rbp), %eax
	.loc	11 47 28                        ## ZN20SipMultiStringHeader18setValueFromStringERKNSt3__112basic_stringIcNS0_11char_traitsIcEENS0_9allocatorIcEEEE.cpp:47:28
	movq	-16(%rbp), %rcx
	.loc	11 47 26                        ## ZN20SipMultiStringHeader18setValueFromStringERKNSt3__112basic_stringIcNS0_11char_traitsIcEENS0_9allocatorIcEEEE.cpp:47:26
	cmpl	16(%rcx), %eax
Ltmp18:
	.loc	11 47 3                         ## ZN20SipMultiStringHeader18setValueFromStringERKNSt3__112basic_stringIcNS0_11char_traitsIcEENS0_9allocatorIcEEEE.cpp:47:3
	jae	LBB1_9
## %bb.2:                               ##   in Loop: Header=BB1_1 Depth=1
Ltmp19:
	.loc	11 48 46 is_stmt 1              ## ZN20SipMultiStringHeader18setValueFromStringERKNSt3__112basic_stringIcNS0_11char_traitsIcEENS0_9allocatorIcEEEE.cpp:48:46
	movq	-48(%rbp), %rax
	.loc	11 48 19 is_stmt 0              ## ZN20SipMultiStringHeader18setValueFromStringERKNSt3__112basic_stringIcNS0_11char_traitsIcEENS0_9allocatorIcEEEE.cpp:48:19
	movq	%rax, -64(%rbp)
Ltmp20:
	.loc	11 49 9 is_stmt 1               ## ZN20SipMultiStringHeader18setValueFromStringERKNSt3__112basic_stringIcNS0_11char_traitsIcEENS0_9allocatorIcEEEE.cpp:49:9
	movq	-64(%rbp), %rax
	.loc	11 49 19 is_stmt 0              ## ZN20SipMultiStringHeader18setValueFromStringERKNSt3__112basic_stringIcNS0_11char_traitsIcEENS0_9allocatorIcEEEE.cpp:49:19
	movl	(%rax), %eax
	.loc	11 49 23                        ## ZN20SipMultiStringHeader18setValueFromStringERKNSt3__112basic_stringIcNS0_11char_traitsIcEENS0_9allocatorIcEEEE.cpp:49:23
	cmpl	-28(%rbp), %eax
Ltmp21:
	.loc	11 49 9                         ## ZN20SipMultiStringHeader18setValueFromStringERKNSt3__112basic_stringIcNS0_11char_traitsIcEENS0_9allocatorIcEEEE.cpp:49:9
	jne	LBB1_7
## %bb.3:                               ##   in Loop: Header=BB1_1 Depth=1
Ltmp22:
	.loc	11 50 25 is_stmt 1              ## ZN20SipMultiStringHeader18setValueFromStringERKNSt3__112basic_stringIcNS0_11char_traitsIcEENS0_9allocatorIcEEEE.cpp:50:25
	cmpl	$25, -28(%rbp)
	.loc	11 51 11                        ## ZN20SipMultiStringHeader18setValueFromStringERKNSt3__112basic_stringIcNS0_11char_traitsIcEENS0_9allocatorIcEEEE.cpp:51:11
	jne	LBB1_5
## %bb.4:                               ##   in Loop: Header=BB1_1 Depth=1
	.loc	11 51 44 is_stmt 0              ## ZN20SipMultiStringHeader18setValueFromStringERKNSt3__112basic_stringIcNS0_11char_traitsIcEENS0_9allocatorIcEEEE.cpp:51:44
	movq	-64(%rbp), %rdi
	.loc	11 51 55                        ## ZN20SipMultiStringHeader18setValueFromStringERKNSt3__112basic_stringIcNS0_11char_traitsIcEENS0_9allocatorIcEEEE.cpp:51:55
	addq	$8, %rdi
	.loc	11 51 64                        ## ZN20SipMultiStringHeader18setValueFromStringERKNSt3__112basic_stringIcNS0_11char_traitsIcEENS0_9allocatorIcEEEE.cpp:51:64
	movq	-40(%rbp), %rsi
	.loc	11 51 15                        ## ZN20SipMultiStringHeader18setValueFromStringERKNSt3__112basic_stringIcNS0_11char_traitsIcEENS0_9allocatorIcEEEE.cpp:51:15
	callq	_strcmp
	cmpl	$0, %eax
Ltmp23:
	.loc	11 50 11 is_stmt 1              ## ZN20SipMultiStringHeader18setValueFromStringERKNSt3__112basic_stringIcNS0_11char_traitsIcEENS0_9allocatorIcEEEE.cpp:50:11
	jne	LBB1_6
LBB1_5:
Ltmp24:
	.loc	11 52 16                        ## ZN20SipMultiStringHeader18setValueFromStringERKNSt3__112basic_stringIcNS0_11char_traitsIcEENS0_9allocatorIcEEEE.cpp:52:16
	movq	-64(%rbp), %rax
	.loc	11 52 9 is_stmt 0               ## ZN20SipMultiStringHeader18setValueFromStringERKNSt3__112basic_stringIcNS0_11char_traitsIcEENS0_9allocatorIcEEEE.cpp:52:9
	movq	%rax, -8(%rbp)
	jmp	LBB1_10
Ltmp25:
LBB1_6:                                 ##   in Loop: Header=BB1_1 Depth=1
	.loc	11 54 5 is_stmt 1               ## ZN20SipMultiStringHeader18setValueFromStringERKNSt3__112basic_stringIcNS0_11char_traitsIcEENS0_9allocatorIcEEEE.cpp:54:5
	jmp	LBB1_7
Ltmp26:
LBB1_7:                                 ##   in Loop: Header=BB1_1 Depth=1
	.loc	11 56 22                        ## ZN20SipMultiStringHeader18setValueFromStringERKNSt3__112basic_stringIcNS0_11char_traitsIcEENS0_9allocatorIcEEEE.cpp:56:22
	movq	-64(%rbp), %rax
	movl	4(%rax), %eax
                                        ## kill: def $rax killed $eax
	.loc	11 56 19 is_stmt 0              ## ZN20SipMultiStringHeader18setValueFromStringERKNSt3__112basic_stringIcNS0_11char_traitsIcEENS0_9allocatorIcEEEE.cpp:56:19
	addq	-48(%rbp), %rax
	movq	%rax, -48(%rbp)
Ltmp27:
## %bb.8:                               ##   in Loop: Header=BB1_1 Depth=1
	.loc	11 47 48 is_stmt 1              ## ZN20SipMultiStringHeader18setValueFromStringERKNSt3__112basic_stringIcNS0_11char_traitsIcEENS0_9allocatorIcEEEE.cpp:47:48
	movl	-52(%rbp), %eax
	addl	$1, %eax
	movl	%eax, -52(%rbp)
	.loc	11 47 3 is_stmt 0               ## ZN20SipMultiStringHeader18setValueFromStringERKNSt3__112basic_stringIcNS0_11char_traitsIcEENS0_9allocatorIcEEEE.cpp:47:3
	jmp	LBB1_1
Ltmp28:
LBB1_9:
	.loc	11 59 3 is_stmt 1               ## ZN20SipMultiStringHeader18setValueFromStringERKNSt3__112basic_stringIcNS0_11char_traitsIcEENS0_9allocatorIcEEEE.cpp:59:3
	movq	$0, -8(%rbp)
LBB1_10:
	.loc	11 60 1                         ## ZN20SipMultiStringHeader18setValueFromStringERKNSt3__112basic_stringIcNS0_11char_traitsIcEENS0_9allocatorIcEEEE.cpp:60:1
	movq	-8(%rbp), %rax
	addq	$64, %rsp
	popq	%rbp
	retq
Ltmp29:
Lfunc_end1:
	.cfi_endproc
                                        ## -- End function
	.globl	__Z16GetSymbolAddressPvPKc      ## -- Begin function _Z16GetSymbolAddressPvPKc
	.p2align	4, 0x90
__Z16GetSymbolAddressPvPKc:             ## @_Z16GetSymbolAddressPvPKc
Lfunc_begin2:
	.loc	11 62 0                         ## ZN20SipMultiStringHeader18setValueFromStringERKNSt3__112basic_stringIcNS0_11char_traitsIcEENS0_9allocatorIcEEEE.cpp:62:0
	.cfi_startproc
	.cfi_personality 155, ___gxx_personality_v0
	.cfi_lsda 16, Lexception0
## %bb.0:
	pushq	%rbp
	.cfi_def_cfa_offset 16
	.cfi_offset %rbp, -16
	movq	%rsp, %rbp
	.cfi_def_cfa_register %rbp
	subq	$176, %rsp
	movq	%rdi, -8(%rbp)
	movq	%rsi, -16(%rbp)
Ltmp36:
	.loc	11 63 51 prologue_end           ## ZN20SipMultiStringHeader18setValueFromStringERKNSt3__112basic_stringIcNS0_11char_traitsIcEENS0_9allocatorIcEEEE.cpp:63:51
	movq	-8(%rbp), %rax
	.loc	11 63 19 is_stmt 0              ## ZN20SipMultiStringHeader18setValueFromStringERKNSt3__112basic_stringIcNS0_11char_traitsIcEENS0_9allocatorIcEEEE.cpp:63:19
	movq	%rax, -24(%rbp)
	.loc	11 65 51 is_stmt 1              ## ZN20SipMultiStringHeader18setValueFromStringERKNSt3__112basic_stringIcNS0_11char_traitsIcEENS0_9allocatorIcEEEE.cpp:65:51
	movq	-8(%rbp), %rax
	.loc	11 65 64 is_stmt 0              ## ZN20SipMultiStringHeader18setValueFromStringERKNSt3__112basic_stringIcNS0_11char_traitsIcEENS0_9allocatorIcEEEE.cpp:65:64
	addq	$32, %rax
	.loc	11 65 9                         ## ZN20SipMultiStringHeader18setValueFromStringERKNSt3__112basic_stringIcNS0_11char_traitsIcEENS0_9allocatorIcEEEE.cpp:65:9
	movq	%rax, -32(%rbp)
	.loc	11 67 65 is_stmt 1              ## ZN20SipMultiStringHeader18setValueFromStringERKNSt3__112basic_stringIcNS0_11char_traitsIcEENS0_9allocatorIcEEEE.cpp:67:65
	movq	-24(%rbp), %rdi
	.loc	11 67 78 is_stmt 0              ## ZN20SipMultiStringHeader18setValueFromStringERKNSt3__112basic_stringIcNS0_11char_traitsIcEENS0_9allocatorIcEEEE.cpp:67:78
	movq	-32(%rbp), %rsi
	.loc	11 67 50                        ## ZN20SipMultiStringHeader18setValueFromStringERKNSt3__112basic_stringIcNS0_11char_traitsIcEENS0_9allocatorIcEEEE.cpp:67:50
	movl	$2, %edx
	xorl	%eax, %eax
	movl	%eax, %ecx
	callq	__Z14GetLoadCommandP14mach_header_64PvjPKc
	.loc	11 67 19                        ## ZN20SipMultiStringHeader18setValueFromStringERKNSt3__112basic_stringIcNS0_11char_traitsIcEENS0_9allocatorIcEEEE.cpp:67:19
	movq	%rax, -40(%rbp)
	.loc	11 69 75 is_stmt 1              ## ZN20SipMultiStringHeader18setValueFromStringERKNSt3__112basic_stringIcNS0_11char_traitsIcEENS0_9allocatorIcEEEE.cpp:69:75
	movq	-24(%rbp), %rdi
	.loc	11 69 88 is_stmt 0              ## ZN20SipMultiStringHeader18setValueFromStringERKNSt3__112basic_stringIcNS0_11char_traitsIcEENS0_9allocatorIcEEEE.cpp:69:88
	movq	-32(%rbp), %rsi
	.loc	11 69 60                        ## ZN20SipMultiStringHeader18setValueFromStringERKNSt3__112basic_stringIcNS0_11char_traitsIcEENS0_9allocatorIcEEEE.cpp:69:60
	movl	$25, %edx
	leaq	L_.str.1(%rip), %rcx
	callq	__Z14GetLoadCommandP14mach_header_64PvjPKc
	.loc	11 69 23                        ## ZN20SipMultiStringHeader18setValueFromStringERKNSt3__112basic_stringIcNS0_11char_traitsIcEENS0_9allocatorIcEEEE.cpp:69:23
	movq	%rax, -48(%rbp)
	.loc	11 71 71 is_stmt 1              ## ZN20SipMultiStringHeader18setValueFromStringERKNSt3__112basic_stringIcNS0_11char_traitsIcEENS0_9allocatorIcEEEE.cpp:71:71
	movq	-24(%rbp), %rdi
	.loc	11 71 84 is_stmt 0              ## ZN20SipMultiStringHeader18setValueFromStringERKNSt3__112basic_stringIcNS0_11char_traitsIcEENS0_9allocatorIcEEEE.cpp:71:84
	movq	-32(%rbp), %rsi
	.loc	11 71 56                        ## ZN20SipMultiStringHeader18setValueFromStringERKNSt3__112basic_stringIcNS0_11char_traitsIcEENS0_9allocatorIcEEEE.cpp:71:56
	movl	$25, %edx
	leaq	L_.str.2(%rip), %rcx
	callq	__Z14GetLoadCommandP14mach_header_64PvjPKc
	.loc	11 71 23                        ## ZN20SipMultiStringHeader18setValueFromStringERKNSt3__112basic_stringIcNS0_11char_traitsIcEENS0_9allocatorIcEEEE.cpp:71:23
	movq	%rax, -56(%rbp)
	.loc	11 73 38 is_stmt 1              ## ZN20SipMultiStringHeader18setValueFromStringERKNSt3__112basic_stringIcNS0_11char_traitsIcEENS0_9allocatorIcEEEE.cpp:73:38
	movq	-8(%rbp), %rax
	.loc	11 73 53 is_stmt 0              ## ZN20SipMultiStringHeader18setValueFromStringERKNSt3__112basic_stringIcNS0_11char_traitsIcEENS0_9allocatorIcEEEE.cpp:73:53
	movq	-56(%rbp), %rcx
	.loc	11 73 51                        ## ZN20SipMultiStringHeader18setValueFromStringERKNSt3__112basic_stringIcNS0_11char_traitsIcEENS0_9allocatorIcEEEE.cpp:73:51
	subq	24(%rcx), %rax
	.loc	11 73 12                        ## ZN20SipMultiStringHeader18setValueFromStringERKNSt3__112basic_stringIcNS0_11char_traitsIcEENS0_9allocatorIcEEEE.cpp:73:12
	movq	%rax, -64(%rbp)
	.loc	11 75 26 is_stmt 1              ## ZN20SipMultiStringHeader18setValueFromStringERKNSt3__112basic_stringIcNS0_11char_traitsIcEENS0_9allocatorIcEEEE.cpp:75:26
	movq	-48(%rbp), %rax
	.loc	11 75 40 is_stmt 0              ## ZN20SipMultiStringHeader18setValueFromStringERKNSt3__112basic_stringIcNS0_11char_traitsIcEENS0_9allocatorIcEEEE.cpp:75:40
	movq	24(%rax), %rax
	.loc	11 75 47                        ## ZN20SipMultiStringHeader18setValueFromStringERKNSt3__112basic_stringIcNS0_11char_traitsIcEENS0_9allocatorIcEEEE.cpp:75:47
	addq	-64(%rbp), %rax
	.loc	11 76 28 is_stmt 1              ## ZN20SipMultiStringHeader18setValueFromStringERKNSt3__112basic_stringIcNS0_11char_traitsIcEENS0_9allocatorIcEEEE.cpp:76:28
	movq	-40(%rbp), %rcx
	.loc	11 76 26 is_stmt 0              ## ZN20SipMultiStringHeader18setValueFromStringERKNSt3__112basic_stringIcNS0_11char_traitsIcEENS0_9allocatorIcEEEE.cpp:76:26
	movl	16(%rcx), %ecx
                                        ## kill: def $rcx killed $ecx
	addq	%rcx, %rax
	.loc	11 76 49                        ## ZN20SipMultiStringHeader18setValueFromStringERKNSt3__112basic_stringIcNS0_11char_traitsIcEENS0_9allocatorIcEEEE.cpp:76:49
	movq	-48(%rbp), %rdx
	.loc	11 76 47                        ## ZN20SipMultiStringHeader18setValueFromStringERKNSt3__112basic_stringIcNS0_11char_traitsIcEENS0_9allocatorIcEEEE.cpp:76:47
	xorl	%ecx, %ecx
                                        ## kill: def $rcx killed $ecx
	subq	40(%rdx), %rcx
	addq	%rcx, %rax
	.loc	11 75 9 is_stmt 1               ## ZN20SipMultiStringHeader18setValueFromStringERKNSt3__112basic_stringIcNS0_11char_traitsIcEENS0_9allocatorIcEEEE.cpp:75:9
	movq	%rax, -72(%rbp)
	.loc	11 78 27                        ## ZN20SipMultiStringHeader18setValueFromStringERKNSt3__112basic_stringIcNS0_11char_traitsIcEENS0_9allocatorIcEEEE.cpp:78:27
	movq	-48(%rbp), %rax
	.loc	11 78 41 is_stmt 0              ## ZN20SipMultiStringHeader18setValueFromStringERKNSt3__112basic_stringIcNS0_11char_traitsIcEENS0_9allocatorIcEEEE.cpp:78:41
	movq	24(%rax), %rax
	.loc	11 78 48                        ## ZN20SipMultiStringHeader18setValueFromStringERKNSt3__112basic_stringIcNS0_11char_traitsIcEENS0_9allocatorIcEEEE.cpp:78:48
	addq	-64(%rbp), %rax
	.loc	11 79 28 is_stmt 1              ## ZN20SipMultiStringHeader18setValueFromStringERKNSt3__112basic_stringIcNS0_11char_traitsIcEENS0_9allocatorIcEEEE.cpp:79:28
	movq	-40(%rbp), %rcx
	movl	8(%rcx), %ecx
                                        ## kill: def $rcx killed $ecx
	.loc	11 79 26 is_stmt 0              ## ZN20SipMultiStringHeader18setValueFromStringERKNSt3__112basic_stringIcNS0_11char_traitsIcEENS0_9allocatorIcEEEE.cpp:79:26
	addq	%rcx, %rax
	.loc	11 79 49                        ## ZN20SipMultiStringHeader18setValueFromStringERKNSt3__112basic_stringIcNS0_11char_traitsIcEENS0_9allocatorIcEEEE.cpp:79:49
	movq	-48(%rbp), %rcx
	.loc	11 79 47                        ## ZN20SipMultiStringHeader18setValueFromStringERKNSt3__112basic_stringIcNS0_11char_traitsIcEENS0_9allocatorIcEEEE.cpp:79:47
	subq	40(%rcx), %rax
	.loc	11 78 9 is_stmt 1               ## ZN20SipMultiStringHeader18setValueFromStringERKNSt3__112basic_stringIcNS0_11char_traitsIcEENS0_9allocatorIcEEEE.cpp:78:9
	movq	%rax, -80(%rbp)
	.loc	11 81 9                         ## ZN20SipMultiStringHeader18setValueFromStringERKNSt3__112basic_stringIcNS0_11char_traitsIcEENS0_9allocatorIcEEEE.cpp:81:9
	movq	$0, -88(%rbp)
	.loc	11 83 40                        ## ZN20SipMultiStringHeader18setValueFromStringERKNSt3__112basic_stringIcNS0_11char_traitsIcEENS0_9allocatorIcEEEE.cpp:83:40
	movq	-80(%rbp), %rax
	.loc	11 83 10 is_stmt 0              ## ZN20SipMultiStringHeader18setValueFromStringERKNSt3__112basic_stringIcNS0_11char_traitsIcEENS0_9allocatorIcEEEE.cpp:83:10
	movq	%rax, -96(%rbp)
Ltmp37:
	.loc	11 84 12 is_stmt 1              ## ZN20SipMultiStringHeader18setValueFromStringERKNSt3__112basic_stringIcNS0_11char_traitsIcEENS0_9allocatorIcEEEE.cpp:84:12
	movl	$0, -100(%rbp)
LBB2_1:                                 ## =>This Inner Loop Header: Depth=1
Ltmp38:
	.loc	11 84 19 is_stmt 0              ## ZN20SipMultiStringHeader18setValueFromStringERKNSt3__112basic_stringIcNS0_11char_traitsIcEENS0_9allocatorIcEEEE.cpp:84:19
	movl	-100(%rbp), %eax
	.loc	11 84 23                        ## ZN20SipMultiStringHeader18setValueFromStringERKNSt3__112basic_stringIcNS0_11char_traitsIcEENS0_9allocatorIcEEEE.cpp:84:23
	movq	-40(%rbp), %rcx
	.loc	11 84 21                        ## ZN20SipMultiStringHeader18setValueFromStringERKNSt3__112basic_stringIcNS0_11char_traitsIcEENS0_9allocatorIcEEEE.cpp:84:21
	cmpl	12(%rcx), %eax
Ltmp39:
	.loc	11 84 3                         ## ZN20SipMultiStringHeader18setValueFromStringERKNSt3__112basic_stringIcNS0_11char_traitsIcEENS0_9allocatorIcEEEE.cpp:84:3
	jae	LBB2_13
## %bb.2:                               ##   in Loop: Header=BB2_1 Depth=1
Ltmp40:
	.loc	11 85 40 is_stmt 1              ## ZN20SipMultiStringHeader18setValueFromStringERKNSt3__112basic_stringIcNS0_11char_traitsIcEENS0_9allocatorIcEEEE.cpp:85:40
	movq	-96(%rbp), %rax
	.loc	11 85 28 is_stmt 0              ## ZN20SipMultiStringHeader18setValueFromStringERKNSt3__112basic_stringIcNS0_11char_traitsIcEENS0_9allocatorIcEEEE.cpp:85:28
	movq	(%rax), %rcx
	movq	%rcx, -120(%rbp)
	movq	8(%rax), %rax
	movq	%rax, -112(%rbp)
Ltmp41:
	.loc	11 86 10 is_stmt 1              ## ZN20SipMultiStringHeader18setValueFromStringERKNSt3__112basic_stringIcNS0_11char_traitsIcEENS0_9allocatorIcEEEE.cpp:86:10
	movzbl	-116(%rbp), %eax
	.loc	11 86 29 is_stmt 0              ## ZN20SipMultiStringHeader18setValueFromStringERKNSt3__112basic_stringIcNS0_11char_traitsIcEENS0_9allocatorIcEEEE.cpp:86:29
	andl	$14, %eax
	.loc	11 86 39                        ## ZN20SipMultiStringHeader18setValueFromStringERKNSt3__112basic_stringIcNS0_11char_traitsIcEENS0_9allocatorIcEEEE.cpp:86:39
	cmpl	$14, %eax
Ltmp42:
	.loc	11 86 9                         ## ZN20SipMultiStringHeader18setValueFromStringERKNSt3__112basic_stringIcNS0_11char_traitsIcEENS0_9allocatorIcEEEE.cpp:86:9
	jne	LBB2_11
## %bb.3:                               ##   in Loop: Header=BB2_1 Depth=1
Ltmp43:
	.loc	11 87 13 is_stmt 1              ## ZN20SipMultiStringHeader18setValueFromStringERKNSt3__112basic_stringIcNS0_11char_traitsIcEENS0_9allocatorIcEEEE.cpp:87:13
	movq	$0, -128(%rbp)
	leaq	-152(%rbp), %rdi
	.loc	11 88 19                        ## ZN20SipMultiStringHeader18setValueFromStringERKNSt3__112basic_stringIcNS0_11char_traitsIcEENS0_9allocatorIcEEEE.cpp:88:19
	callq	__ZNSt3__112basic_stringIcNS_11char_traitsIcEENS_9allocatorIcEEEC1B6v15006Ev
	.loc	11 89 23                        ## ZN20SipMultiStringHeader18setValueFromStringERKNSt3__112basic_stringIcNS0_11char_traitsIcEENS0_9allocatorIcEEEE.cpp:89:23
	movq	-72(%rbp), %rax
	.loc	11 89 49 is_stmt 0              ## ZN20SipMultiStringHeader18setValueFromStringERKNSt3__112basic_stringIcNS0_11char_traitsIcEENS0_9allocatorIcEEEE.cpp:89:49
	movl	-120(%rbp), %ecx
                                        ## kill: def $rcx killed $ecx
	.loc	11 89 30                        ## ZN20SipMultiStringHeader18setValueFromStringERKNSt3__112basic_stringIcNS0_11char_traitsIcEENS0_9allocatorIcEEEE.cpp:89:30
	addq	%rcx, %rax
	.loc	11 89 21                        ## ZN20SipMultiStringHeader18setValueFromStringERKNSt3__112basic_stringIcNS0_11char_traitsIcEENS0_9allocatorIcEEEE.cpp:89:21
	movq	%rax, -128(%rbp)
Ltmp44:
	.loc	11 92 19 is_stmt 1              ## ZN20SipMultiStringHeader18setValueFromStringERKNSt3__112basic_stringIcNS0_11char_traitsIcEENS0_9allocatorIcEEEE.cpp:92:19
	movq	-128(%rbp), %rdi
	.loc	11 92 34 is_stmt 0              ## ZN20SipMultiStringHeader18setValueFromStringERKNSt3__112basic_stringIcNS0_11char_traitsIcEENS0_9allocatorIcEEEE.cpp:92:34
	movq	-16(%rbp), %rsi
Ltmp30:
	.loc	11 92 12                        ## ZN20SipMultiStringHeader18setValueFromStringERKNSt3__112basic_stringIcNS0_11char_traitsIcEENS0_9allocatorIcEEEE.cpp:92:12
	callq	_strcmp
Ltmp31:
	movl	%eax, -172(%rbp)                ## 4-byte Spill
	jmp	LBB2_4
LBB2_4:                                 ##   in Loop: Header=BB2_1 Depth=1
	.loc	11 0 12                         ## ZN20SipMultiStringHeader18setValueFromStringERKNSt3__112basic_stringIcNS0_11char_traitsIcEENS0_9allocatorIcEEEE.cpp:0:12
	movl	-172(%rbp), %eax                ## 4-byte Reload
	.loc	11 92 12                        ## ZN20SipMultiStringHeader18setValueFromStringERKNSt3__112basic_stringIcNS0_11char_traitsIcEENS0_9allocatorIcEEEE.cpp:92:12
	cmpl	$0, %eax
Ltmp45:
	.loc	11 92 11                        ## ZN20SipMultiStringHeader18setValueFromStringERKNSt3__112basic_stringIcNS0_11char_traitsIcEENS0_9allocatorIcEEEE.cpp:92:11
	jne	LBB2_7
## %bb.5:                               ##   in Loop: Header=BB2_1 Depth=1
Ltmp46:
	.loc	11 93 44 is_stmt 1              ## ZN20SipMultiStringHeader18setValueFromStringERKNSt3__112basic_stringIcNS0_11char_traitsIcEENS0_9allocatorIcEEEE.cpp:93:44
	movq	-8(%rbp), %rax
	.loc	11 93 59 is_stmt 0              ## ZN20SipMultiStringHeader18setValueFromStringERKNSt3__112basic_stringIcNS0_11char_traitsIcEENS0_9allocatorIcEEEE.cpp:93:59
	movq	-56(%rbp), %rcx
	.loc	11 93 57                        ## ZN20SipMultiStringHeader18setValueFromStringERKNSt3__112basic_stringIcNS0_11char_traitsIcEENS0_9allocatorIcEEEE.cpp:93:57
	subq	24(%rcx), %rax
	.loc	11 93 76                        ## ZN20SipMultiStringHeader18setValueFromStringERKNSt3__112basic_stringIcNS0_11char_traitsIcEENS0_9allocatorIcEEEE.cpp:93:76
	addq	-112(%rbp), %rax
	.loc	11 93 24                        ## ZN20SipMultiStringHeader18setValueFromStringERKNSt3__112basic_stringIcNS0_11char_traitsIcEENS0_9allocatorIcEEEE.cpp:93:24
	movq	%rax, -88(%rbp)
	movl	$2, -168(%rbp)
	.loc	11 94 9 is_stmt 1               ## ZN20SipMultiStringHeader18setValueFromStringERKNSt3__112basic_stringIcNS0_11char_traitsIcEENS0_9allocatorIcEEEE.cpp:94:9
	jmp	LBB2_8
Ltmp47:
LBB2_6:
Ltmp32:
	.loc	11 0 9 is_stmt 0                ## ZN20SipMultiStringHeader18setValueFromStringERKNSt3__112basic_stringIcNS0_11char_traitsIcEENS0_9allocatorIcEEEE.cpp:0:9
	movq	%rax, %rcx
	.loc	11 102 1 is_stmt 1              ## ZN20SipMultiStringHeader18setValueFromStringERKNSt3__112basic_stringIcNS0_11char_traitsIcEENS0_9allocatorIcEEEE.cpp:102:1
	movl	%edx, %eax
	movq	%rcx, -160(%rbp)
	movl	%eax, -164(%rbp)
Ltmp33:
	leaq	-152(%rbp), %rdi
Ltmp48:
	.loc	11 96 5                         ## ZN20SipMultiStringHeader18setValueFromStringERKNSt3__112basic_stringIcNS0_11char_traitsIcEENS0_9allocatorIcEEEE.cpp:96:5
	callq	__ZNSt3__112basic_stringIcNS_11char_traitsIcEENS_9allocatorIcEEED1Ev
Ltmp34:
	jmp	LBB2_10
LBB2_7:                                 ##   in Loop: Header=BB2_1 Depth=1
	movl	$0, -168(%rbp)
LBB2_8:                                 ##   in Loop: Header=BB2_1 Depth=1
	.loc	11 0 5 is_stmt 0                ## ZN20SipMultiStringHeader18setValueFromStringERKNSt3__112basic_stringIcNS0_11char_traitsIcEENS0_9allocatorIcEEEE.cpp:0:5
	leaq	-152(%rbp), %rdi
	.loc	11 96 5                         ## ZN20SipMultiStringHeader18setValueFromStringERKNSt3__112basic_stringIcNS0_11char_traitsIcEENS0_9allocatorIcEEEE.cpp:96:5
	callq	__ZNSt3__112basic_stringIcNS_11char_traitsIcEENS_9allocatorIcEEED1Ev
	movl	-168(%rbp), %eax
	testl	%eax, %eax
	je	LBB2_9
	jmp	LBB2_17
LBB2_17:
	.loc	11 0 5                          ## ZN20SipMultiStringHeader18setValueFromStringERKNSt3__112basic_stringIcNS0_11char_traitsIcEENS0_9allocatorIcEEEE.cpp:0:5
	jmp	LBB2_13
LBB2_9:                                 ##   in Loop: Header=BB2_1 Depth=1
Ltmp49:
	.loc	11 96 5                         ## ZN20SipMultiStringHeader18setValueFromStringERKNSt3__112basic_stringIcNS0_11char_traitsIcEENS0_9allocatorIcEEEE.cpp:96:5
	jmp	LBB2_11
Ltmp50:
LBB2_10:
	.loc	11 96 5                         ## ZN20SipMultiStringHeader18setValueFromStringERKNSt3__112basic_stringIcNS0_11char_traitsIcEENS0_9allocatorIcEEEE.cpp:96:5
	jmp	LBB2_14
Ltmp51:
LBB2_11:                                ##   in Loop: Header=BB2_1 Depth=1
	.loc	11 98 25 is_stmt 1              ## ZN20SipMultiStringHeader18setValueFromStringERKNSt3__112basic_stringIcNS0_11char_traitsIcEENS0_9allocatorIcEEEE.cpp:98:25
	movq	-96(%rbp), %rax
	addq	$16, %rax
	movq	%rax, -96(%rbp)
Ltmp52:
## %bb.12:                              ##   in Loop: Header=BB2_1 Depth=1
	.loc	11 84 42                        ## ZN20SipMultiStringHeader18setValueFromStringERKNSt3__112basic_stringIcNS0_11char_traitsIcEENS0_9allocatorIcEEEE.cpp:84:42
	movl	-100(%rbp), %eax
	addl	$1, %eax
	movl	%eax, -100(%rbp)
	.loc	11 84 3 is_stmt 0               ## ZN20SipMultiStringHeader18setValueFromStringERKNSt3__112basic_stringIcNS0_11char_traitsIcEENS0_9allocatorIcEEEE.cpp:84:3
	jmp	LBB2_1
Ltmp53:
LBB2_13:
	.loc	11 101 10 is_stmt 1             ## ZN20SipMultiStringHeader18setValueFromStringERKNSt3__112basic_stringIcNS0_11char_traitsIcEENS0_9allocatorIcEEEE.cpp:101:10
	movq	-88(%rbp), %rax
	.loc	11 101 3 is_stmt 0              ## ZN20SipMultiStringHeader18setValueFromStringERKNSt3__112basic_stringIcNS0_11char_traitsIcEENS0_9allocatorIcEEEE.cpp:101:3
	addq	$176, %rsp
	popq	%rbp
	retq
LBB2_14:
Ltmp54:
	.loc	11 96 5 is_stmt 1               ## ZN20SipMultiStringHeader18setValueFromStringERKNSt3__112basic_stringIcNS0_11char_traitsIcEENS0_9allocatorIcEEEE.cpp:96:5
	movq	-160(%rbp), %rdi
	callq	__Unwind_Resume
LBB2_15:
Ltmp35:
	.loc	11 0 5 is_stmt 0                ## ZN20SipMultiStringHeader18setValueFromStringERKNSt3__112basic_stringIcNS0_11char_traitsIcEENS0_9allocatorIcEEEE.cpp:0:5
	movq	%rax, %rdi
	.loc	11 96 5                         ## ZN20SipMultiStringHeader18setValueFromStringERKNSt3__112basic_stringIcNS0_11char_traitsIcEENS0_9allocatorIcEEEE.cpp:96:5
	callq	___clang_call_terminate
Ltmp55:
## %bb.16:
	.loc	11 0 5                          ## ZN20SipMultiStringHeader18setValueFromStringERKNSt3__112basic_stringIcNS0_11char_traitsIcEENS0_9allocatorIcEEEE.cpp:0:5
	ud2
Lfunc_end2:
	.cfi_endproc
	.section	__TEXT,__gcc_except_tab
	.p2align	2
GCC_except_table2:
Lexception0:
	.byte	255                             ## @LPStart Encoding = omit
	.byte	155                             ## @TType Encoding = indirect pcrel sdata4
	.uleb128 Lttbase0-Lttbaseref0
Lttbaseref0:
	.byte	1                               ## Call site Encoding = uleb128
	.uleb128 Lcst_end0-Lcst_begin0
Lcst_begin0:
	.uleb128 Lfunc_begin2-Lfunc_begin2      ## >> Call Site 1 <<
	.uleb128 Ltmp30-Lfunc_begin2            ##   Call between Lfunc_begin2 and Ltmp30
	.byte	0                               ##     has no landing pad
	.byte	0                               ##   On action: cleanup
	.uleb128 Ltmp30-Lfunc_begin2            ## >> Call Site 2 <<
	.uleb128 Ltmp31-Ltmp30                  ##   Call between Ltmp30 and Ltmp31
	.uleb128 Ltmp32-Lfunc_begin2            ##     jumps to Ltmp32
	.byte	0                               ##   On action: cleanup
	.uleb128 Ltmp33-Lfunc_begin2            ## >> Call Site 3 <<
	.uleb128 Ltmp34-Ltmp33                  ##   Call between Ltmp33 and Ltmp34
	.uleb128 Ltmp35-Lfunc_begin2            ##     jumps to Ltmp35
	.byte	1                               ##   On action: 1
	.uleb128 Ltmp34-Lfunc_begin2            ## >> Call Site 4 <<
	.uleb128 Lfunc_end2-Ltmp34              ##   Call between Ltmp34 and Lfunc_end2
	.byte	0                               ##     has no landing pad
	.byte	0                               ##   On action: cleanup
Lcst_end0:
	.byte	1                               ## >> Action Record 1 <<
                                        ##   Catch TypeInfo 1
	.byte	0                               ##   No further actions
	.p2align	2
                                        ## >> Catch TypeInfos <<
	.long	0                               ## TypeInfo 1
Lttbase0:
	.p2align	2
                                        ## -- End function
	.section	__TEXT,__text,regular,pure_instructions
	.private_extern	__ZNSt3__112basic_stringIcNS_11char_traitsIcEENS_9allocatorIcEEEC1B6v15006Ev ## -- Begin function _ZNSt3__112basic_stringIcNS_11char_traitsIcEENS_9allocatorIcEEEC1B6v15006Ev
	.globl	__ZNSt3__112basic_stringIcNS_11char_traitsIcEENS_9allocatorIcEEEC1B6v15006Ev
	.weak_def_can_be_hidden	__ZNSt3__112basic_stringIcNS_11char_traitsIcEENS_9allocatorIcEEEC1B6v15006Ev
	.p2align	4, 0x90
__ZNSt3__112basic_stringIcNS_11char_traitsIcEENS_9allocatorIcEEEC1B6v15006Ev: ## @_ZNSt3__112basic_stringIcNS_11char_traitsIcEENS_9allocatorIcEEEC1B6v15006Ev
Lfunc_begin3:
	.loc	6 1900 0 is_stmt 1              ## /Applications/Xcode.app/Contents/Developer/Platforms/MacOSX.platform/Developer/SDKs/MacOSX.sdk/usr/include/c++/v1/string:1900:0
	.cfi_startproc
## %bb.0:
	pushq	%rbp
	.cfi_def_cfa_offset 16
	.cfi_offset %rbp, -16
	movq	%rsp, %rbp
	.cfi_def_cfa_register %rbp
	subq	$16, %rsp
	movq	%rdi, -8(%rbp)
	movq	-8(%rbp), %rdi
Ltmp56:
	.loc	6 1900 1 prologue_end           ## /Applications/Xcode.app/Contents/Developer/Platforms/MacOSX.platform/Developer/SDKs/MacOSX.sdk/usr/include/c++/v1/string:1900:1
	callq	__ZNSt3__112basic_stringIcNS_11char_traitsIcEENS_9allocatorIcEEEC2B6v15006Ev
	.loc	6 1903 1                        ## /Applications/Xcode.app/Contents/Developer/Platforms/MacOSX.platform/Developer/SDKs/MacOSX.sdk/usr/include/c++/v1/string:1903:1
	addq	$16, %rsp
	popq	%rbp
	retq
Ltmp57:
Lfunc_end3:
	.cfi_endproc
                                        ## -- End function
	.private_extern	___clang_call_terminate ## -- Begin function __clang_call_terminate
	.globl	___clang_call_terminate
	.weak_definition	___clang_call_terminate
	.p2align	4, 0x90
___clang_call_terminate:                ## @__clang_call_terminate
Lfunc_begin4:
	.cfi_startproc
## %bb.0:
	pushq	%rax
	.cfi_def_cfa_offset 16
	callq	___cxa_begin_catch
	callq	__ZSt9terminatev
Lfunc_end4:
	.cfi_endproc
                                        ## -- End function
	.globl	__Z15initIPTelephonyv           ## -- Begin function _Z15initIPTelephonyv
	.p2align	4, 0x90
__Z15initIPTelephonyv:                  ## @_Z15initIPTelephonyv
Lfunc_begin5:
	.loc	11 104 0                        ## ZN20SipMultiStringHeader18setValueFromStringERKNSt3__112basic_stringIcNS0_11char_traitsIcEENS0_9allocatorIcEEEE.cpp:104:0
	.cfi_startproc
## %bb.0:
	pushq	%rbp
	.cfi_def_cfa_offset 16
	.cfi_offset %rbp, -16
	movq	%rsp, %rbp
	.cfi_def_cfa_register %rbp
	subq	$32, %rsp
Ltmp58:
	.loc	11 105 17 prologue_end          ## ZN20SipMultiStringHeader18setValueFromStringERKNSt3__112basic_stringIcNS0_11char_traitsIcEENS0_9allocatorIcEEEE.cpp:105:17
	leaq	L_.str.3(%rip), %rdi
	callq	__Z11LoadLibraryPKc
	.loc	11 105 9 is_stmt 0              ## ZN20SipMultiStringHeader18setValueFromStringERKNSt3__112basic_stringIcNS0_11char_traitsIcEENS0_9allocatorIcEEEE.cpp:105:9
	movq	%rax, -16(%rbp)
Ltmp59:
	.loc	11 106 7 is_stmt 1              ## ZN20SipMultiStringHeader18setValueFromStringERKNSt3__112basic_stringIcNS0_11char_traitsIcEENS0_9allocatorIcEEEE.cpp:106:7
	cmpq	$0, -16(%rbp)
Ltmp60:
	.loc	11 106 6 is_stmt 0              ## ZN20SipMultiStringHeader18setValueFromStringERKNSt3__112basic_stringIcNS0_11char_traitsIcEENS0_9allocatorIcEEEE.cpp:106:6
	jne	LBB5_2
## %bb.1:
Ltmp61:
	.loc	11 107 5 is_stmt 1              ## ZN20SipMultiStringHeader18setValueFromStringERKNSt3__112basic_stringIcNS0_11char_traitsIcEENS0_9allocatorIcEEEE.cpp:107:5
	leaq	L_.str.4(%rip), %rdi
	movb	$0, %al
	callq	_printf
	.loc	11 108 5                        ## ZN20SipMultiStringHeader18setValueFromStringERKNSt3__112basic_stringIcNS0_11char_traitsIcEENS0_9allocatorIcEEEE.cpp:108:5
	movl	$0, -4(%rbp)
	jmp	LBB5_8
Ltmp62:
LBB5_2:
	.loc	11 110 51                       ## ZN20SipMultiStringHeader18setValueFromStringERKNSt3__112basic_stringIcNS0_11char_traitsIcEENS0_9allocatorIcEEEE.cpp:110:51
	movq	-16(%rbp), %rsi
	.loc	11 110 5 is_stmt 0              ## ZN20SipMultiStringHeader18setValueFromStringERKNSt3__112basic_stringIcNS0_11char_traitsIcEENS0_9allocatorIcEEEE.cpp:110:5
	leaq	L_.str.5(%rip), %rdi
	movb	$0, %al
	callq	_printf
Ltmp63:
## %bb.3:
	.loc	11 115 37 is_stmt 1             ## ZN20SipMultiStringHeader18setValueFromStringERKNSt3__112basic_stringIcNS0_11char_traitsIcEENS0_9allocatorIcEEEE.cpp:115:37
	movq	-16(%rbp), %rdi
	.loc	11 115 20 is_stmt 0             ## ZN20SipMultiStringHeader18setValueFromStringERKNSt3__112basic_stringIcNS0_11char_traitsIcEENS0_9allocatorIcEEEE.cpp:115:20
	leaq	L_.str.6(%rip), %rsi
	callq	__Z16GetSymbolAddressPvPKc
	.loc	11 115 18                       ## ZN20SipMultiStringHeader18setValueFromStringERKNSt3__112basic_stringIcNS0_11char_traitsIcEENS0_9allocatorIcEEEE.cpp:115:18
	movq	%rax, -24(%rbp)
Ltmp64:
	.loc	11 116 7 is_stmt 1              ## ZN20SipMultiStringHeader18setValueFromStringERKNSt3__112basic_stringIcNS0_11char_traitsIcEENS0_9allocatorIcEEEE.cpp:116:7
	cmpq	$0, -24(%rbp)
Ltmp65:
	.loc	11 116 6 is_stmt 0              ## ZN20SipMultiStringHeader18setValueFromStringERKNSt3__112basic_stringIcNS0_11char_traitsIcEENS0_9allocatorIcEEEE.cpp:116:6
	jne	LBB5_5
## %bb.4:
Ltmp66:
	.loc	11 117 5 is_stmt 1              ## ZN20SipMultiStringHeader18setValueFromStringERKNSt3__112basic_stringIcNS0_11char_traitsIcEENS0_9allocatorIcEEEE.cpp:117:5
	leaq	L_.str.7(%rip), %rdi
	movb	$0, %al
	callq	_printf
	.loc	11 118 5                        ## ZN20SipMultiStringHeader18setValueFromStringERKNSt3__112basic_stringIcNS0_11char_traitsIcEENS0_9allocatorIcEEEE.cpp:118:5
	movl	$0, -4(%rbp)
	jmp	LBB5_8
Ltmp67:
LBB5_5:
	.loc	11 120 58                       ## ZN20SipMultiStringHeader18setValueFromStringERKNSt3__112basic_stringIcNS0_11char_traitsIcEENS0_9allocatorIcEEEE.cpp:120:58
	movq	-24(%rbp), %rax
	.loc	11 120 28 is_stmt 0             ## ZN20SipMultiStringHeader18setValueFromStringERKNSt3__112basic_stringIcNS0_11char_traitsIcEENS0_9allocatorIcEEEE.cpp:120:28
	movq	%rax, _SipMessageDecoder_decode(%rip)
	.loc	11 122 37 is_stmt 1             ## ZN20SipMultiStringHeader18setValueFromStringERKNSt3__112basic_stringIcNS0_11char_traitsIcEENS0_9allocatorIcEEEE.cpp:122:37
	movq	-16(%rbp), %rdi
	.loc	11 122 20 is_stmt 0             ## ZN20SipMultiStringHeader18setValueFromStringERKNSt3__112basic_stringIcNS0_11char_traitsIcEENS0_9allocatorIcEEEE.cpp:122:20
	leaq	L_.str.8(%rip), %rsi
	callq	__Z16GetSymbolAddressPvPKc
	.loc	11 122 18                       ## ZN20SipMultiStringHeader18setValueFromStringERKNSt3__112basic_stringIcNS0_11char_traitsIcEENS0_9allocatorIcEEEE.cpp:122:18
	movq	%rax, -24(%rbp)
Ltmp68:
	.loc	11 123 7 is_stmt 1              ## ZN20SipMultiStringHeader18setValueFromStringERKNSt3__112basic_stringIcNS0_11char_traitsIcEENS0_9allocatorIcEEEE.cpp:123:7
	cmpq	$0, -24(%rbp)
Ltmp69:
	.loc	11 123 6 is_stmt 0              ## ZN20SipMultiStringHeader18setValueFromStringERKNSt3__112basic_stringIcNS0_11char_traitsIcEENS0_9allocatorIcEEEE.cpp:123:6
	jne	LBB5_7
## %bb.6:
Ltmp70:
	.loc	11 124 5 is_stmt 1              ## ZN20SipMultiStringHeader18setValueFromStringERKNSt3__112basic_stringIcNS0_11char_traitsIcEENS0_9allocatorIcEEEE.cpp:124:5
	leaq	L_.str.7(%rip), %rdi
	movb	$0, %al
	callq	_printf
	.loc	11 125 5                        ## ZN20SipMultiStringHeader18setValueFromStringERKNSt3__112basic_stringIcNS0_11char_traitsIcEENS0_9allocatorIcEEEE.cpp:125:5
	movl	$0, -4(%rbp)
	jmp	LBB5_8
Ltmp71:
LBB5_7:
	.loc	11 127 76                       ## ZN20SipMultiStringHeader18setValueFromStringERKNSt3__112basic_stringIcNS0_11char_traitsIcEENS0_9allocatorIcEEEE.cpp:127:76
	movq	-24(%rbp), %rax
	.loc	11 127 37 is_stmt 0             ## ZN20SipMultiStringHeader18setValueFromStringERKNSt3__112basic_stringIcNS0_11char_traitsIcEENS0_9allocatorIcEEEE.cpp:127:37
	movq	%rax, _SipMessageEncodingMap_constructor(%rip)
	.loc	11 129 3 is_stmt 1              ## ZN20SipMultiStringHeader18setValueFromStringERKNSt3__112basic_stringIcNS0_11char_traitsIcEENS0_9allocatorIcEEEE.cpp:129:3
	movl	$1, -4(%rbp)
LBB5_8:
	.loc	11 130 1                        ## ZN20SipMultiStringHeader18setValueFromStringERKNSt3__112basic_stringIcNS0_11char_traitsIcEENS0_9allocatorIcEEEE.cpp:130:1
	movl	-4(%rbp), %eax
	addq	$32, %rsp
	popq	%rbp
	retq
Ltmp72:
Lfunc_end5:
	.cfi_endproc
                                        ## -- End function
	.globl	__Z16ReadFileToStringPKcRNSt3__112basic_stringIcNS1_11char_traitsIcEENS1_9allocatorIcEEEE ## -- Begin function _Z16ReadFileToStringPKcRNSt3__112basic_stringIcNS1_11char_traitsIcEENS1_9allocatorIcEEEE
	.p2align	4, 0x90
__Z16ReadFileToStringPKcRNSt3__112basic_stringIcNS1_11char_traitsIcEENS1_9allocatorIcEEEE: ## @_Z16ReadFileToStringPKcRNSt3__112basic_stringIcNS1_11char_traitsIcEENS1_9allocatorIcEEEE
Lfunc_begin6:
	.loc	11 132 0                        ## ZN20SipMultiStringHeader18setValueFromStringERKNSt3__112basic_stringIcNS0_11char_traitsIcEENS0_9allocatorIcEEEE.cpp:132:0
	.cfi_startproc
## %bb.0:
	pushq	%rbp
	.cfi_def_cfa_offset 16
	.cfi_offset %rbp, -16
	movq	%rsp, %rbp
	.cfi_def_cfa_register %rbp
	subq	$48, %rsp
	movq	%rdi, -16(%rbp)
	movq	%rsi, -24(%rbp)
Ltmp73:
	.loc	11 133 20 prologue_end          ## ZN20SipMultiStringHeader18setValueFromStringERKNSt3__112basic_stringIcNS0_11char_traitsIcEENS0_9allocatorIcEEEE.cpp:133:20
	movq	-16(%rbp), %rdi
	.loc	11 133 14 is_stmt 0             ## ZN20SipMultiStringHeader18setValueFromStringERKNSt3__112basic_stringIcNS0_11char_traitsIcEENS0_9allocatorIcEEEE.cpp:133:14
	leaq	L_.str.9(%rip), %rsi
	callq	_fopen
	.loc	11 133 9                        ## ZN20SipMultiStringHeader18setValueFromStringERKNSt3__112basic_stringIcNS0_11char_traitsIcEENS0_9allocatorIcEEEE.cpp:133:9
	movq	%rax, -32(%rbp)
Ltmp74:
	.loc	11 134 7 is_stmt 1              ## ZN20SipMultiStringHeader18setValueFromStringERKNSt3__112basic_stringIcNS0_11char_traitsIcEENS0_9allocatorIcEEEE.cpp:134:7
	cmpq	$0, -32(%rbp)
Ltmp75:
	.loc	11 134 6 is_stmt 0              ## ZN20SipMultiStringHeader18setValueFromStringERKNSt3__112basic_stringIcNS0_11char_traitsIcEENS0_9allocatorIcEEEE.cpp:134:6
	jne	LBB6_2
## %bb.1:
Ltmp76:
	.loc	11 135 34 is_stmt 1             ## ZN20SipMultiStringHeader18setValueFromStringERKNSt3__112basic_stringIcNS0_11char_traitsIcEENS0_9allocatorIcEEEE.cpp:135:34
	movq	-16(%rbp), %rsi
	.loc	11 135 5 is_stmt 0              ## ZN20SipMultiStringHeader18setValueFromStringERKNSt3__112basic_stringIcNS0_11char_traitsIcEENS0_9allocatorIcEEEE.cpp:135:5
	leaq	L_.str.10(%rip), %rdi
	movb	$0, %al
	callq	_printf
	.loc	11 136 5 is_stmt 1              ## ZN20SipMultiStringHeader18setValueFromStringERKNSt3__112basic_stringIcNS0_11char_traitsIcEENS0_9allocatorIcEEEE.cpp:136:5
	movl	$0, -4(%rbp)
	jmp	LBB6_3
Ltmp77:
LBB6_2:
	.loc	11 138 9                        ## ZN20SipMultiStringHeader18setValueFromStringERKNSt3__112basic_stringIcNS0_11char_traitsIcEENS0_9allocatorIcEEEE.cpp:138:9
	movq	-32(%rbp), %rdi
	.loc	11 138 3 is_stmt 0              ## ZN20SipMultiStringHeader18setValueFromStringERKNSt3__112basic_stringIcNS0_11char_traitsIcEENS0_9allocatorIcEEEE.cpp:138:3
	xorl	%eax, %eax
	movl	%eax, %esi
	movl	$2, %edx
	callq	_fseek
	.loc	11 139 23 is_stmt 1             ## ZN20SipMultiStringHeader18setValueFromStringERKNSt3__112basic_stringIcNS0_11char_traitsIcEENS0_9allocatorIcEEEE.cpp:139:23
	movq	-32(%rbp), %rdi
	.loc	11 139 17 is_stmt 0             ## ZN20SipMultiStringHeader18setValueFromStringERKNSt3__112basic_stringIcNS0_11char_traitsIcEENS0_9allocatorIcEEEE.cpp:139:17
	callq	_ftell
	.loc	11 139 10                       ## ZN20SipMultiStringHeader18setValueFromStringERKNSt3__112basic_stringIcNS0_11char_traitsIcEENS0_9allocatorIcEEEE.cpp:139:10
	movq	%rax, -40(%rbp)
	.loc	11 140 9 is_stmt 1              ## ZN20SipMultiStringHeader18setValueFromStringERKNSt3__112basic_stringIcNS0_11char_traitsIcEENS0_9allocatorIcEEEE.cpp:140:9
	movq	-32(%rbp), %rdi
	.loc	11 140 3 is_stmt 0              ## ZN20SipMultiStringHeader18setValueFromStringERKNSt3__112basic_stringIcNS0_11char_traitsIcEENS0_9allocatorIcEEEE.cpp:140:3
	xorl	%eax, %eax
	movl	%eax, %esi
	xorl	%edx, %edx
	callq	_fseek
	.loc	11 142 30 is_stmt 1             ## ZN20SipMultiStringHeader18setValueFromStringERKNSt3__112basic_stringIcNS0_11char_traitsIcEENS0_9allocatorIcEEEE.cpp:142:30
	movq	-40(%rbp), %rdi
	.loc	11 142 23 is_stmt 0             ## ZN20SipMultiStringHeader18setValueFromStringERKNSt3__112basic_stringIcNS0_11char_traitsIcEENS0_9allocatorIcEEEE.cpp:142:23
	callq	_malloc
	.loc	11 142 9                        ## ZN20SipMultiStringHeader18setValueFromStringERKNSt3__112basic_stringIcNS0_11char_traitsIcEENS0_9allocatorIcEEEE.cpp:142:9
	movq	%rax, -48(%rbp)
	.loc	11 143 9 is_stmt 1              ## ZN20SipMultiStringHeader18setValueFromStringERKNSt3__112basic_stringIcNS0_11char_traitsIcEENS0_9allocatorIcEEEE.cpp:143:9
	movq	-48(%rbp), %rdi
	.loc	11 143 17 is_stmt 0             ## ZN20SipMultiStringHeader18setValueFromStringERKNSt3__112basic_stringIcNS0_11char_traitsIcEENS0_9allocatorIcEEEE.cpp:143:17
	movq	-40(%rbp), %rdx
	.loc	11 143 23                       ## ZN20SipMultiStringHeader18setValueFromStringERKNSt3__112basic_stringIcNS0_11char_traitsIcEENS0_9allocatorIcEEEE.cpp:143:23
	movq	-32(%rbp), %rcx
	.loc	11 143 3                        ## ZN20SipMultiStringHeader18setValueFromStringERKNSt3__112basic_stringIcNS0_11char_traitsIcEENS0_9allocatorIcEEEE.cpp:143:3
	movl	$1, %esi
	callq	_fread
	.loc	11 144 10 is_stmt 1             ## ZN20SipMultiStringHeader18setValueFromStringERKNSt3__112basic_stringIcNS0_11char_traitsIcEENS0_9allocatorIcEEEE.cpp:144:10
	movq	-32(%rbp), %rdi
	.loc	11 144 3 is_stmt 0              ## ZN20SipMultiStringHeader18setValueFromStringERKNSt3__112basic_stringIcNS0_11char_traitsIcEENS0_9allocatorIcEEEE.cpp:144:3
	callq	_fclose
	.loc	11 146 3 is_stmt 1              ## ZN20SipMultiStringHeader18setValueFromStringERKNSt3__112basic_stringIcNS0_11char_traitsIcEENS0_9allocatorIcEEEE.cpp:146:3
	movq	-24(%rbp), %rdi
	.loc	11 146 14 is_stmt 0             ## ZN20SipMultiStringHeader18setValueFromStringERKNSt3__112basic_stringIcNS0_11char_traitsIcEENS0_9allocatorIcEEEE.cpp:146:14
	movq	-48(%rbp), %rsi
	.loc	11 146 19                       ## ZN20SipMultiStringHeader18setValueFromStringERKNSt3__112basic_stringIcNS0_11char_traitsIcEENS0_9allocatorIcEEEE.cpp:146:19
	movq	-40(%rbp), %rdx
	.loc	11 146 7                        ## ZN20SipMultiStringHeader18setValueFromStringERKNSt3__112basic_stringIcNS0_11char_traitsIcEENS0_9allocatorIcEEEE.cpp:146:7
	callq	__ZNSt3__112basic_stringIcNS_11char_traitsIcEENS_9allocatorIcEEE6assignEPKcm
	.loc	11 148 8 is_stmt 1              ## ZN20SipMultiStringHeader18setValueFromStringERKNSt3__112basic_stringIcNS0_11char_traitsIcEENS0_9allocatorIcEEEE.cpp:148:8
	movq	-48(%rbp), %rdi
	.loc	11 148 3 is_stmt 0              ## ZN20SipMultiStringHeader18setValueFromStringERKNSt3__112basic_stringIcNS0_11char_traitsIcEENS0_9allocatorIcEEEE.cpp:148:3
	callq	_free
	.loc	11 150 3 is_stmt 1              ## ZN20SipMultiStringHeader18setValueFromStringERKNSt3__112basic_stringIcNS0_11char_traitsIcEENS0_9allocatorIcEEEE.cpp:150:3
	movl	$1, -4(%rbp)
LBB6_3:
	.loc	11 151 1                        ## ZN20SipMultiStringHeader18setValueFromStringERKNSt3__112basic_stringIcNS0_11char_traitsIcEENS0_9allocatorIcEEEE.cpp:151:1
	movl	-4(%rbp), %eax
	addq	$48, %rsp
	popq	%rbp
	retq
Ltmp78:
Lfunc_end6:
	.cfi_endproc
                                        ## -- End function
	.globl	_main                           ## -- Begin function main
	.p2align	4, 0x90
_main:                                  ## @main
Lfunc_begin7:
	.loc	11 153 0                        ## ZN20SipMultiStringHeader18setValueFromStringERKNSt3__112basic_stringIcNS0_11char_traitsIcEENS0_9allocatorIcEEEE.cpp:153:0
	.cfi_startproc
	.cfi_personality 155, ___gxx_personality_v0
	.cfi_lsda 16, Lexception1
## %bb.0:
	pushq	%rbp
	.cfi_def_cfa_offset 16
	.cfi_offset %rbp, -16
	movq	%rsp, %rbp
	.cfi_def_cfa_register %rbp
	subq	$1184, %rsp                     ## imm = 0x4A0
	movq	___stack_chk_guard@GOTPCREL(%rip), %rax
	movq	(%rax), %rax
	movq	%rax, -8(%rbp)
	movl	$0, -1092(%rbp)
	movl	%edi, -1096(%rbp)
	movq	%rsi, -1104(%rbp)
Ltmp93:
	.loc	11 154 7 prologue_end           ## ZN20SipMultiStringHeader18setValueFromStringERKNSt3__112basic_stringIcNS0_11char_traitsIcEENS0_9allocatorIcEEEE.cpp:154:7
	callq	__Z15initIPTelephonyv
	cmpl	$0, %eax
Ltmp94:
	.loc	11 154 6 is_stmt 0              ## ZN20SipMultiStringHeader18setValueFromStringERKNSt3__112basic_stringIcNS0_11char_traitsIcEENS0_9allocatorIcEEEE.cpp:154:6
	jne	LBB7_2
## %bb.1:
Ltmp95:
	.loc	11 154 26                       ## ZN20SipMultiStringHeader18setValueFromStringERKNSt3__112basic_stringIcNS0_11char_traitsIcEENS0_9allocatorIcEEEE.cpp:154:26
	movl	$0, -1092(%rbp)
	jmp	LBB7_15
Ltmp96:
LBB7_2:
	.loc	11 156 11 is_stmt 1             ## ZN20SipMultiStringHeader18setValueFromStringERKNSt3__112basic_stringIcNS0_11char_traitsIcEENS0_9allocatorIcEEEE.cpp:156:11
	cmpl	$2, -1096(%rbp)
Ltmp97:
	.loc	11 156 6 is_stmt 0              ## ZN20SipMultiStringHeader18setValueFromStringERKNSt3__112basic_stringIcNS0_11char_traitsIcEENS0_9allocatorIcEEEE.cpp:156:6
	jge	LBB7_4
## %bb.3:
Ltmp98:
	.loc	11 157 40 is_stmt 1             ## ZN20SipMultiStringHeader18setValueFromStringERKNSt3__112basic_stringIcNS0_11char_traitsIcEENS0_9allocatorIcEEEE.cpp:157:40
	movq	-1104(%rbp), %rax
	movq	(%rax), %rsi
	.loc	11 157 5 is_stmt 0              ## ZN20SipMultiStringHeader18setValueFromStringERKNSt3__112basic_stringIcNS0_11char_traitsIcEENS0_9allocatorIcEEEE.cpp:157:5
	leaq	L_.str.11(%rip), %rdi
	movb	$0, %al
	callq	_printf
	.loc	11 158 5 is_stmt 1              ## ZN20SipMultiStringHeader18setValueFromStringERKNSt3__112basic_stringIcNS0_11char_traitsIcEENS0_9allocatorIcEEEE.cpp:158:5
	movl	$0, -1092(%rbp)
	jmp	LBB7_15
Ltmp99:
LBB7_4:
	.loc	11 0 5 is_stmt 0                ## ZN20SipMultiStringHeader18setValueFromStringERKNSt3__112basic_stringIcNS0_11char_traitsIcEENS0_9allocatorIcEEEE.cpp:0:5
	leaq	-1128(%rbp), %rdi
	movq	%rdi, -1168(%rbp)               ## 8-byte Spill
	.loc	11 161 15 is_stmt 1             ## ZN20SipMultiStringHeader18setValueFromStringERKNSt3__112basic_stringIcNS0_11char_traitsIcEENS0_9allocatorIcEEEE.cpp:161:15
	callq	__ZNSt3__112basic_stringIcNS_11char_traitsIcEENS_9allocatorIcEEEC1B6v15006Ev
	movq	-1168(%rbp), %rsi               ## 8-byte Reload
Ltmp100:
	.loc	11 163 24                       ## ZN20SipMultiStringHeader18setValueFromStringERKNSt3__112basic_stringIcNS0_11char_traitsIcEENS0_9allocatorIcEEEE.cpp:163:24
	movq	-1104(%rbp), %rax
	movq	8(%rax), %rdi
Ltmp79:
	.loc	11 163 7 is_stmt 0              ## ZN20SipMultiStringHeader18setValueFromStringERKNSt3__112basic_stringIcNS0_11char_traitsIcEENS0_9allocatorIcEEEE.cpp:163:7
	callq	__Z16ReadFileToStringPKcRNSt3__112basic_stringIcNS1_11char_traitsIcEENS1_9allocatorIcEEEE
Ltmp80:
	movl	%eax, -1160(%rbp)               ## 4-byte Spill
	jmp	LBB7_5
LBB7_5:
	.loc	11 0 7                          ## ZN20SipMultiStringHeader18setValueFromStringERKNSt3__112basic_stringIcNS0_11char_traitsIcEENS0_9allocatorIcEEEE.cpp:0:7
	movl	-1160(%rbp), %eax               ## 4-byte Reload
	.loc	11 163 7                        ## ZN20SipMultiStringHeader18setValueFromStringERKNSt3__112basic_stringIcNS0_11char_traitsIcEENS0_9allocatorIcEEEE.cpp:163:7
	cmpl	$0, %eax
Ltmp101:
	.loc	11 163 6                        ## ZN20SipMultiStringHeader18setValueFromStringERKNSt3__112basic_stringIcNS0_11char_traitsIcEENS0_9allocatorIcEEEE.cpp:163:6
	jne	LBB7_8
## %bb.6:
Ltmp102:
	.loc	11 163 39                       ## ZN20SipMultiStringHeader18setValueFromStringERKNSt3__112basic_stringIcNS0_11char_traitsIcEENS0_9allocatorIcEEEE.cpp:163:39
	movl	$0, -1092(%rbp)
	movl	$1, -1144(%rbp)
	jmp	LBB7_13
LBB7_7:
Ltmp89:
	.loc	11 0 39                         ## ZN20SipMultiStringHeader18setValueFromStringERKNSt3__112basic_stringIcNS0_11char_traitsIcEENS0_9allocatorIcEEEE.cpp:0:39
	movq	%rax, %rcx
	.loc	11 187 1 is_stmt 1              ## ZN20SipMultiStringHeader18setValueFromStringERKNSt3__112basic_stringIcNS0_11char_traitsIcEENS0_9allocatorIcEEEE.cpp:187:1
	movl	%edx, %eax
	movq	%rcx, -1136(%rbp)
	movl	%eax, -1140(%rbp)
Ltmp90:
	leaq	-1128(%rbp), %rdi
Ltmp103:
	.loc	11 187 1 is_stmt 0              ## ZN20SipMultiStringHeader18setValueFromStringERKNSt3__112basic_stringIcNS0_11char_traitsIcEENS0_9allocatorIcEEEE.cpp:187:1
	callq	__ZNSt3__112basic_stringIcNS_11char_traitsIcEENS_9allocatorIcEEED1Ev
Ltmp91:
	jmp	LBB7_14
LBB7_8:
Ltmp81:
	.loc	11 165 3 is_stmt 1              ## ZN20SipMultiStringHeader18setValueFromStringERKNSt3__112basic_stringIcNS0_11char_traitsIcEENS0_9allocatorIcEEEE.cpp:165:3
	leaq	L_.str.12(%rip), %rdi
	xorl	%eax, %eax
                                        ## kill: def $al killed $al killed $eax
	callq	_printf
Ltmp82:
	jmp	LBB7_9
LBB7_9:
	.loc	11 168 3                        ## ZN20SipMultiStringHeader18setValueFromStringERKNSt3__112basic_stringIcNS0_11char_traitsIcEENS0_9allocatorIcEEEE.cpp:168:3
	movq	_SipMessageEncodingMap_constructor(%rip), %rax
Ltmp83:
	leaq	-1008(%rbp), %rdi
	callq	*%rax
Ltmp84:
	jmp	LBB7_10
LBB7_10:
	.loc	11 171 3                        ## ZN20SipMultiStringHeader18setValueFromStringERKNSt3__112basic_stringIcNS0_11char_traitsIcEENS0_9allocatorIcEEEE.cpp:171:3
	xorps	%xmm0, %xmm0
	movaps	%xmm0, -1024(%rbp)
	movaps	%xmm0, -1040(%rbp)
	movaps	%xmm0, -1056(%rbp)
	movaps	%xmm0, -1072(%rbp)
	movaps	%xmm0, -1088(%rbp)
	movabsq	$-6148914691236517206, %rax     ## imm = 0xAAAAAAAAAAAAAAAA
	.loc	11 175 3                        ## ZN20SipMultiStringHeader18setValueFromStringERKNSt3__112basic_stringIcNS0_11char_traitsIcEENS0_9allocatorIcEEEE.cpp:175:3
	movq	%rax, -1048(%rbp)
	leaq	-1008(%rbp), %rax
	.loc	11 177 27                       ## ZN20SipMultiStringHeader18setValueFromStringERKNSt3__112basic_stringIcNS0_11char_traitsIcEENS0_9allocatorIcEEEE.cpp:177:27
	movq	%rax, -1032(%rbp)
	.loc	11 179 9                        ## ZN20SipMultiStringHeader18setValueFromStringERKNSt3__112basic_stringIcNS0_11char_traitsIcEENS0_9allocatorIcEEEE.cpp:179:9
	movq	$0, -1152(%rbp)
	.loc	11 180 8                        ## ZN20SipMultiStringHeader18setValueFromStringERKNSt3__112basic_stringIcNS0_11char_traitsIcEENS0_9allocatorIcEEEE.cpp:180:8
	movb	$0, -1153(%rbp)
	.loc	11 182 3                        ## ZN20SipMultiStringHeader18setValueFromStringERKNSt3__112basic_stringIcNS0_11char_traitsIcEENS0_9allocatorIcEEEE.cpp:182:3
	movq	_SipMessageDecoder_decode(%rip), %rax
Ltmp85:
	leaq	-1088(%rbp), %rdi
	leaq	-1128(%rbp), %rsi
	leaq	-1152(%rbp), %rdx
	leaq	-1153(%rbp), %rcx
	callq	*%rax
Ltmp86:
	jmp	LBB7_11
LBB7_11:
Ltmp87:
	.loc	11 184 3                        ## ZN20SipMultiStringHeader18setValueFromStringERKNSt3__112basic_stringIcNS0_11char_traitsIcEENS0_9allocatorIcEEEE.cpp:184:3
	leaq	L_.str.13(%rip), %rdi
	xorl	%eax, %eax
                                        ## kill: def $al killed $al killed $eax
	callq	_printf
Ltmp88:
	jmp	LBB7_12
LBB7_12:
	.loc	11 186 3                        ## ZN20SipMultiStringHeader18setValueFromStringERKNSt3__112basic_stringIcNS0_11char_traitsIcEENS0_9allocatorIcEEEE.cpp:186:3
	movl	$0, -1092(%rbp)
	movl	$1, -1144(%rbp)
LBB7_13:
	.loc	11 187 1                        ## ZN20SipMultiStringHeader18setValueFromStringERKNSt3__112basic_stringIcNS0_11char_traitsIcEENS0_9allocatorIcEEEE.cpp:187:1
	leaq	-1128(%rbp), %rdi
	callq	__ZNSt3__112basic_stringIcNS_11char_traitsIcEENS_9allocatorIcEEED1Ev
	jmp	LBB7_15
LBB7_14:
	jmp	LBB7_17
LBB7_15:
	movl	-1092(%rbp), %eax
	movl	%eax, -1172(%rbp)               ## 4-byte Spill
	movq	___stack_chk_guard@GOTPCREL(%rip), %rax
	movq	(%rax), %rax
	movq	-8(%rbp), %rcx
	cmpq	%rcx, %rax
	jne	LBB7_19
## %bb.16:
	.loc	11 0 1 is_stmt 0                ## ZN20SipMultiStringHeader18setValueFromStringERKNSt3__112basic_stringIcNS0_11char_traitsIcEENS0_9allocatorIcEEEE.cpp:0:1
	movl	-1172(%rbp), %eax               ## 4-byte Reload
	.loc	11 187 1                        ## ZN20SipMultiStringHeader18setValueFromStringERKNSt3__112basic_stringIcNS0_11char_traitsIcEENS0_9allocatorIcEEEE.cpp:187:1
	addq	$1184, %rsp                     ## imm = 0x4A0
	popq	%rbp
	retq
LBB7_17:
	movq	-1136(%rbp), %rdi
	callq	__Unwind_Resume
LBB7_18:
Ltmp92:
	.loc	11 0 1                          ## ZN20SipMultiStringHeader18setValueFromStringERKNSt3__112basic_stringIcNS0_11char_traitsIcEENS0_9allocatorIcEEEE.cpp:0:1
	movq	%rax, %rdi
	.loc	11 187 1                        ## ZN20SipMultiStringHeader18setValueFromStringERKNSt3__112basic_stringIcNS0_11char_traitsIcEENS0_9allocatorIcEEEE.cpp:187:1
	callq	___clang_call_terminate
LBB7_19:
	.loc	11 0 0                          ## ZN20SipMultiStringHeader18setValueFromStringERKNSt3__112basic_stringIcNS0_11char_traitsIcEENS0_9allocatorIcEEEE.cpp:0:0
	callq	___stack_chk_fail
	ud2
Ltmp104:
Lfunc_end7:
	.cfi_endproc
	.section	__TEXT,__gcc_except_tab
	.p2align	2
GCC_except_table7:
Lexception1:
	.byte	255                             ## @LPStart Encoding = omit
	.byte	155                             ## @TType Encoding = indirect pcrel sdata4
	.uleb128 Lttbase1-Lttbaseref1
Lttbaseref1:
	.byte	1                               ## Call site Encoding = uleb128
	.uleb128 Lcst_end1-Lcst_begin1
Lcst_begin1:
	.uleb128 Lfunc_begin7-Lfunc_begin7      ## >> Call Site 1 <<
	.uleb128 Ltmp79-Lfunc_begin7            ##   Call between Lfunc_begin7 and Ltmp79
	.byte	0                               ##     has no landing pad
	.byte	0                               ##   On action: cleanup
	.uleb128 Ltmp79-Lfunc_begin7            ## >> Call Site 2 <<
	.uleb128 Ltmp80-Ltmp79                  ##   Call between Ltmp79 and Ltmp80
	.uleb128 Ltmp89-Lfunc_begin7            ##     jumps to Ltmp89
	.byte	0                               ##   On action: cleanup
	.uleb128 Ltmp90-Lfunc_begin7            ## >> Call Site 3 <<
	.uleb128 Ltmp91-Ltmp90                  ##   Call between Ltmp90 and Ltmp91
	.uleb128 Ltmp92-Lfunc_begin7            ##     jumps to Ltmp92
	.byte	1                               ##   On action: 1
	.uleb128 Ltmp81-Lfunc_begin7            ## >> Call Site 4 <<
	.uleb128 Ltmp88-Ltmp81                  ##   Call between Ltmp81 and Ltmp88
	.uleb128 Ltmp89-Lfunc_begin7            ##     jumps to Ltmp89
	.byte	0                               ##   On action: cleanup
	.uleb128 Ltmp88-Lfunc_begin7            ## >> Call Site 5 <<
	.uleb128 Lfunc_end7-Ltmp88              ##   Call between Ltmp88 and Lfunc_end7
	.byte	0                               ##     has no landing pad
	.byte	0                               ##   On action: cleanup
Lcst_end1:
	.byte	1                               ## >> Action Record 1 <<
                                        ##   Catch TypeInfo 1
	.byte	0                               ##   No further actions
	.p2align	2
                                        ## >> Catch TypeInfos <<
	.long	0                               ## TypeInfo 1
Lttbase1:
	.p2align	2
                                        ## -- End function
	.section	__TEXT,__text,regular,pure_instructions
	.private_extern	__ZNSt3__112basic_stringIcNS_11char_traitsIcEENS_9allocatorIcEEEC2B6v15006Ev ## -- Begin function _ZNSt3__112basic_stringIcNS_11char_traitsIcEENS_9allocatorIcEEEC2B6v15006Ev
	.globl	__ZNSt3__112basic_stringIcNS_11char_traitsIcEENS_9allocatorIcEEEC2B6v15006Ev
	.weak_def_can_be_hidden	__ZNSt3__112basic_stringIcNS_11char_traitsIcEENS_9allocatorIcEEEC2B6v15006Ev
	.p2align	4, 0x90
__ZNSt3__112basic_stringIcNS_11char_traitsIcEENS_9allocatorIcEEEC2B6v15006Ev: ## @_ZNSt3__112basic_stringIcNS_11char_traitsIcEENS_9allocatorIcEEEC2B6v15006Ev
Lfunc_begin8:
	.loc	6 1900 0 is_stmt 1              ## /Applications/Xcode.app/Contents/Developer/Platforms/MacOSX.platform/Developer/SDKs/MacOSX.sdk/usr/include/c++/v1/string:1900:0
	.cfi_startproc
## %bb.0:
	pushq	%rbp
	.cfi_def_cfa_offset 16
	.cfi_offset %rbp, -16
	movq	%rsp, %rbp
	.cfi_def_cfa_register %rbp
	subq	$32, %rsp
	movq	%rdi, -8(%rbp)
	movq	-8(%rbp), %rdi
	movq	%rdi, -32(%rbp)                 ## 8-byte Spill
Ltmp105:
	.loc	6 1899 8 prologue_end           ## /Applications/Xcode.app/Contents/Developer/Platforms/MacOSX.platform/Developer/SDKs/MacOSX.sdk/usr/include/c++/v1/string:1899:8
	leaq	-16(%rbp), %rsi
	leaq	-24(%rbp), %rdx
	callq	__ZNSt3__117__compressed_pairINS_12basic_stringIcNS_11char_traitsIcEENS_9allocatorIcEEE5__repES5_EC1B6v15006INS_18__default_init_tagESA_EEOT_OT0_
	movq	-32(%rbp), %rdi                 ## 8-byte Reload
Ltmp106:
	.loc	6 1901 5                        ## /Applications/Xcode.app/Contents/Developer/Platforms/MacOSX.platform/Developer/SDKs/MacOSX.sdk/usr/include/c++/v1/string:1901:5
	callq	__ZNSt3__119__debug_db_insert_cB6v15006INS_12basic_stringIcNS_11char_traitsIcEENS_9allocatorIcEEEEEEvPT_
	movq	-32(%rbp), %rdi                 ## 8-byte Reload
	.loc	6 1902 5                        ## /Applications/Xcode.app/Contents/Developer/Platforms/MacOSX.platform/Developer/SDKs/MacOSX.sdk/usr/include/c++/v1/string:1902:5
	callq	__ZNSt3__112basic_stringIcNS_11char_traitsIcEENS_9allocatorIcEEE14__default_initB6v15006Ev
Ltmp107:
	.loc	6 1903 1                        ## /Applications/Xcode.app/Contents/Developer/Platforms/MacOSX.platform/Developer/SDKs/MacOSX.sdk/usr/include/c++/v1/string:1903:1
	addq	$32, %rsp
	popq	%rbp
	retq
Ltmp108:
Lfunc_end8:
	.cfi_endproc
                                        ## -- End function
	.globl	__ZNSt3__117__compressed_pairINS_12basic_stringIcNS_11char_traitsIcEENS_9allocatorIcEEE5__repES5_EC1B6v15006INS_18__default_init_tagESA_EEOT_OT0_ ## -- Begin function _ZNSt3__117__compressed_pairINS_12basic_stringIcNS_11char_traitsIcEENS_9allocatorIcEEE5__repES5_EC1B6v15006INS_18__default_init_tagESA_EEOT_OT0_
	.weak_def_can_be_hidden	__ZNSt3__117__compressed_pairINS_12basic_stringIcNS_11char_traitsIcEENS_9allocatorIcEEE5__repES5_EC1B6v15006INS_18__default_init_tagESA_EEOT_OT0_
	.p2align	4, 0x90
__ZNSt3__117__compressed_pairINS_12basic_stringIcNS_11char_traitsIcEENS_9allocatorIcEEE5__repES5_EC1B6v15006INS_18__default_init_tagESA_EEOT_OT0_: ## @_ZNSt3__117__compressed_pairINS_12basic_stringIcNS_11char_traitsIcEENS_9allocatorIcEEE5__repES5_EC1B6v15006INS_18__default_init_tagESA_EEOT_OT0_
Lfunc_begin9:
	.loc	7 108 0                         ## /Applications/Xcode.app/Contents/Developer/Platforms/MacOSX.platform/Developer/SDKs/MacOSX.sdk/usr/include/c++/v1/__memory/compressed_pair.h:108:0
	.cfi_startproc
## %bb.0:
	pushq	%rbp
	.cfi_def_cfa_offset 16
	.cfi_offset %rbp, -16
	movq	%rsp, %rbp
	.cfi_def_cfa_register %rbp
	subq	$32, %rsp
	movq	%rdi, -8(%rbp)
	movq	%rsi, -16(%rbp)
	movq	%rdx, -24(%rbp)
	movq	-8(%rbp), %rdi
Ltmp109:
	.loc	7 108 121 prologue_end          ## /Applications/Xcode.app/Contents/Developer/Platforms/MacOSX.platform/Developer/SDKs/MacOSX.sdk/usr/include/c++/v1/__memory/compressed_pair.h:108:121
	movq	-16(%rbp), %rsi
	movq	-24(%rbp), %rdx
	callq	__ZNSt3__117__compressed_pairINS_12basic_stringIcNS_11char_traitsIcEENS_9allocatorIcEEE5__repES5_EC2B6v15006INS_18__default_init_tagESA_EEOT_OT0_
	.loc	7 108 122 is_stmt 0             ## /Applications/Xcode.app/Contents/Developer/Platforms/MacOSX.platform/Developer/SDKs/MacOSX.sdk/usr/include/c++/v1/__memory/compressed_pair.h:108:122
	addq	$32, %rsp
	popq	%rbp
	retq
Ltmp110:
Lfunc_end9:
	.cfi_endproc
                                        ## -- End function
	.private_extern	__ZNSt3__119__debug_db_insert_cB6v15006INS_12basic_stringIcNS_11char_traitsIcEENS_9allocatorIcEEEEEEvPT_ ## -- Begin function _ZNSt3__119__debug_db_insert_cB6v15006INS_12basic_stringIcNS_11char_traitsIcEENS_9allocatorIcEEEEEEvPT_
	.globl	__ZNSt3__119__debug_db_insert_cB6v15006INS_12basic_stringIcNS_11char_traitsIcEENS_9allocatorIcEEEEEEvPT_
	.weak_definition	__ZNSt3__119__debug_db_insert_cB6v15006INS_12basic_stringIcNS_11char_traitsIcEENS_9allocatorIcEEEEEEvPT_
	.p2align	4, 0x90
__ZNSt3__119__debug_db_insert_cB6v15006INS_12basic_stringIcNS_11char_traitsIcEENS_9allocatorIcEEEEEEvPT_: ## @_ZNSt3__119__debug_db_insert_cB6v15006INS_12basic_stringIcNS_11char_traitsIcEENS_9allocatorIcEEEEEEvPT_
Lfunc_begin10:
	.file	69 "/Applications/Xcode.app/Contents/Developer/Platforms/MacOSX.platform/Developer/SDKs/MacOSX.sdk/usr/include/c++/v1" "__debug"
	.loc	69 215 0 is_stmt 1              ## /Applications/Xcode.app/Contents/Developer/Platforms/MacOSX.platform/Developer/SDKs/MacOSX.sdk/usr/include/c++/v1/__debug:215:0
	.cfi_startproc
## %bb.0:
	pushq	%rbp
	.cfi_def_cfa_offset 16
	.cfi_offset %rbp, -16
	movq	%rsp, %rbp
	.cfi_def_cfa_register %rbp
	movq	%rdi, -8(%rbp)
Ltmp111:
	.loc	69 222 1 prologue_end           ## /Applications/Xcode.app/Contents/Developer/Platforms/MacOSX.platform/Developer/SDKs/MacOSX.sdk/usr/include/c++/v1/__debug:222:1
	popq	%rbp
	retq
Ltmp112:
Lfunc_end10:
	.cfi_endproc
                                        ## -- End function
	.private_extern	__ZNSt3__112basic_stringIcNS_11char_traitsIcEENS_9allocatorIcEEE14__default_initB6v15006Ev ## -- Begin function _ZNSt3__112basic_stringIcNS_11char_traitsIcEENS_9allocatorIcEEE14__default_initB6v15006Ev
	.globl	__ZNSt3__112basic_stringIcNS_11char_traitsIcEENS_9allocatorIcEEE14__default_initB6v15006Ev
	.weak_definition	__ZNSt3__112basic_stringIcNS_11char_traitsIcEENS_9allocatorIcEEE14__default_initB6v15006Ev
	.p2align	4, 0x90
__ZNSt3__112basic_stringIcNS_11char_traitsIcEENS_9allocatorIcEEE14__default_initB6v15006Ev: ## @_ZNSt3__112basic_stringIcNS_11char_traitsIcEENS_9allocatorIcEEE14__default_initB6v15006Ev
Lfunc_begin11:
	.loc	6 1514 0                        ## /Applications/Xcode.app/Contents/Developer/Platforms/MacOSX.platform/Developer/SDKs/MacOSX.sdk/usr/include/c++/v1/string:1514:0
	.cfi_startproc
## %bb.0:
	pushq	%rbp
	.cfi_def_cfa_offset 16
	.cfi_offset %rbp, -16
	movq	%rsp, %rbp
	.cfi_def_cfa_register %rbp
	subq	$32, %rsp
	movq	%rdi, -8(%rbp)
	movq	-8(%rbp), %rdi
	movq	%rdi, -32(%rbp)                 ## 8-byte Spill
Ltmp113:
	.loc	6 1515 9 prologue_end           ## /Applications/Xcode.app/Contents/Developer/Platforms/MacOSX.platform/Developer/SDKs/MacOSX.sdk/usr/include/c++/v1/string:1515:9
	callq	__ZNSt3__112basic_stringIcNS_11char_traitsIcEENS_9allocatorIcEEE6__zeroB6v15006Ev
Ltmp114:
	.loc	6 1516 13                       ## /Applications/Xcode.app/Contents/Developer/Platforms/MacOSX.platform/Developer/SDKs/MacOSX.sdk/usr/include/c++/v1/string:1516:13
	callq	__ZNSt3__130__libcpp_is_constant_evaluatedEv
Ltmp115:
	.loc	6 1516 13 is_stmt 0             ## /Applications/Xcode.app/Contents/Developer/Platforms/MacOSX.platform/Developer/SDKs/MacOSX.sdk/usr/include/c++/v1/string:1516:13
	testb	$1, %al
	jne	LBB11_1
	jmp	LBB11_2
LBB11_1:
Ltmp116:
	.loc	6 1517 30 is_stmt 1             ## /Applications/Xcode.app/Contents/Developer/Platforms/MacOSX.platform/Developer/SDKs/MacOSX.sdk/usr/include/c++/v1/string:1517:30
	xorl	%eax, %eax
	movl	%eax, %edi
	callq	__ZNSt3__112basic_stringIcNS_11char_traitsIcEENS_9allocatorIcEEE11__recommendB6v15006Em
	movq	-32(%rbp), %rdi                 ## 8-byte Reload
	.loc	6 1517 45 is_stmt 0             ## /Applications/Xcode.app/Contents/Developer/Platforms/MacOSX.platform/Developer/SDKs/MacOSX.sdk/usr/include/c++/v1/string:1517:45
	addq	$1, %rax
	.loc	6 1517 23                       ## /Applications/Xcode.app/Contents/Developer/Platforms/MacOSX.platform/Developer/SDKs/MacOSX.sdk/usr/include/c++/v1/string:1517:23
	movq	%rax, -16(%rbp)
	.loc	6 1518 54 is_stmt 1             ## /Applications/Xcode.app/Contents/Developer/Platforms/MacOSX.platform/Developer/SDKs/MacOSX.sdk/usr/include/c++/v1/string:1518:54
	callq	__ZNSt3__112basic_stringIcNS_11char_traitsIcEENS_9allocatorIcEEE7__allocB6v15006Ev
	movq	%rax, %rdi
	.loc	6 1518 65 is_stmt 0             ## /Applications/Xcode.app/Contents/Developer/Platforms/MacOSX.platform/Developer/SDKs/MacOSX.sdk/usr/include/c++/v1/string:1518:65
	movq	-16(%rbp), %rsi
	.loc	6 1518 29                       ## /Applications/Xcode.app/Contents/Developer/Platforms/MacOSX.platform/Developer/SDKs/MacOSX.sdk/usr/include/c++/v1/string:1518:29
	callq	__ZNSt3__116allocator_traitsINS_9allocatorIcEEE8allocateB6v15006ERS2_m
	.loc	6 1518 21                       ## /Applications/Xcode.app/Contents/Developer/Platforms/MacOSX.platform/Developer/SDKs/MacOSX.sdk/usr/include/c++/v1/string:1518:21
	movq	%rax, -24(%rbp)
	.loc	6 1519 30 is_stmt 1             ## /Applications/Xcode.app/Contents/Developer/Platforms/MacOSX.platform/Developer/SDKs/MacOSX.sdk/usr/include/c++/v1/string:1519:30
	movq	-24(%rbp), %rdi
	.loc	6 1519 37 is_stmt 0             ## /Applications/Xcode.app/Contents/Developer/Platforms/MacOSX.platform/Developer/SDKs/MacOSX.sdk/usr/include/c++/v1/string:1519:37
	movq	-16(%rbp), %rsi
	.loc	6 1519 13                       ## /Applications/Xcode.app/Contents/Developer/Platforms/MacOSX.platform/Developer/SDKs/MacOSX.sdk/usr/include/c++/v1/string:1519:13
	callq	__ZNSt3__112basic_stringIcNS_11char_traitsIcEENS_9allocatorIcEEE16__begin_lifetimeB6v15006EPcm
	movq	-32(%rbp), %rdi                 ## 8-byte Reload
	.loc	6 1520 32 is_stmt 1             ## /Applications/Xcode.app/Contents/Developer/Platforms/MacOSX.platform/Developer/SDKs/MacOSX.sdk/usr/include/c++/v1/string:1520:32
	movq	-24(%rbp), %rsi
	.loc	6 1520 13 is_stmt 0             ## /Applications/Xcode.app/Contents/Developer/Platforms/MacOSX.platform/Developer/SDKs/MacOSX.sdk/usr/include/c++/v1/string:1520:13
	callq	__ZNSt3__112basic_stringIcNS_11char_traitsIcEENS_9allocatorIcEEE18__set_long_pointerB6v15006EPc
	movq	-32(%rbp), %rdi                 ## 8-byte Reload
	.loc	6 1521 28 is_stmt 1             ## /Applications/Xcode.app/Contents/Developer/Platforms/MacOSX.platform/Developer/SDKs/MacOSX.sdk/usr/include/c++/v1/string:1521:28
	movq	-16(%rbp), %rsi
	.loc	6 1521 13 is_stmt 0             ## /Applications/Xcode.app/Contents/Developer/Platforms/MacOSX.platform/Developer/SDKs/MacOSX.sdk/usr/include/c++/v1/string:1521:13
	callq	__ZNSt3__112basic_stringIcNS_11char_traitsIcEENS_9allocatorIcEEE14__set_long_capB6v15006Em
	movq	-32(%rbp), %rdi                 ## 8-byte Reload
	.loc	6 1522 13 is_stmt 1             ## /Applications/Xcode.app/Contents/Developer/Platforms/MacOSX.platform/Developer/SDKs/MacOSX.sdk/usr/include/c++/v1/string:1522:13
	xorl	%eax, %eax
	movl	%eax, %esi
	callq	__ZNSt3__112basic_stringIcNS_11char_traitsIcEENS_9allocatorIcEEE15__set_long_sizeB6v15006Em
Ltmp117:
LBB11_2:
	.loc	6 1524 5                        ## /Applications/Xcode.app/Contents/Developer/Platforms/MacOSX.platform/Developer/SDKs/MacOSX.sdk/usr/include/c++/v1/string:1524:5
	addq	$32, %rsp
	popq	%rbp
	retq
Ltmp118:
Lfunc_end11:
	.cfi_endproc
                                        ## -- End function
	.globl	__ZNSt3__117__compressed_pairINS_12basic_stringIcNS_11char_traitsIcEENS_9allocatorIcEEE5__repES5_EC2B6v15006INS_18__default_init_tagESA_EEOT_OT0_ ## -- Begin function _ZNSt3__117__compressed_pairINS_12basic_stringIcNS_11char_traitsIcEENS_9allocatorIcEEE5__repES5_EC2B6v15006INS_18__default_init_tagESA_EEOT_OT0_
	.weak_def_can_be_hidden	__ZNSt3__117__compressed_pairINS_12basic_stringIcNS_11char_traitsIcEENS_9allocatorIcEEE5__repES5_EC2B6v15006INS_18__default_init_tagESA_EEOT_OT0_
	.p2align	4, 0x90
__ZNSt3__117__compressed_pairINS_12basic_stringIcNS_11char_traitsIcEENS_9allocatorIcEEE5__repES5_EC2B6v15006INS_18__default_init_tagESA_EEOT_OT0_: ## @_ZNSt3__117__compressed_pairINS_12basic_stringIcNS_11char_traitsIcEENS_9allocatorIcEEE5__repES5_EC2B6v15006INS_18__default_init_tagESA_EEOT_OT0_
Lfunc_begin12:
	.loc	7 108 0                         ## /Applications/Xcode.app/Contents/Developer/Platforms/MacOSX.platform/Developer/SDKs/MacOSX.sdk/usr/include/c++/v1/__memory/compressed_pair.h:108:0
	.cfi_startproc
## %bb.0:
	pushq	%rbp
	.cfi_def_cfa_offset 16
	.cfi_offset %rbp, -16
	movq	%rsp, %rbp
	.cfi_def_cfa_register %rbp
	subq	$48, %rsp
	movq	%rdi, -8(%rbp)
	movq	%rsi, -16(%rbp)
	movq	%rdx, -24(%rbp)
	movq	-8(%rbp), %rdi
	movq	%rdi, -48(%rbp)                 ## 8-byte Spill
Ltmp119:
	.loc	7 108 56 prologue_end           ## /Applications/Xcode.app/Contents/Developer/Platforms/MacOSX.platform/Developer/SDKs/MacOSX.sdk/usr/include/c++/v1/__memory/compressed_pair.h:108:56
	callq	__ZNSt3__122__compressed_pair_elemINS_12basic_stringIcNS_11char_traitsIcEENS_9allocatorIcEEE5__repELi0ELb0EEC2B6v15006ENS_18__default_init_tagE
	movq	-48(%rbp), %rdi                 ## 8-byte Reload
	.loc	7 108 89 is_stmt 0              ## /Applications/Xcode.app/Contents/Developer/Platforms/MacOSX.platform/Developer/SDKs/MacOSX.sdk/usr/include/c++/v1/__memory/compressed_pair.h:108:89
	callq	__ZNSt3__122__compressed_pair_elemINS_9allocatorIcEELi1ELb1EEC2B6v15006ENS_18__default_init_tagE
	.loc	7 108 122                       ## /Applications/Xcode.app/Contents/Developer/Platforms/MacOSX.platform/Developer/SDKs/MacOSX.sdk/usr/include/c++/v1/__memory/compressed_pair.h:108:122
	addq	$48, %rsp
	popq	%rbp
	retq
Ltmp120:
Lfunc_end12:
	.cfi_endproc
                                        ## -- End function
	.private_extern	__ZNSt3__122__compressed_pair_elemINS_12basic_stringIcNS_11char_traitsIcEENS_9allocatorIcEEE5__repELi0ELb0EEC2B6v15006ENS_18__default_init_tagE ## -- Begin function _ZNSt3__122__compressed_pair_elemINS_12basic_stringIcNS_11char_traitsIcEENS_9allocatorIcEEE5__repELi0ELb0EEC2B6v15006ENS_18__default_init_tagE
	.globl	__ZNSt3__122__compressed_pair_elemINS_12basic_stringIcNS_11char_traitsIcEENS_9allocatorIcEEE5__repELi0ELb0EEC2B6v15006ENS_18__default_init_tagE
	.weak_def_can_be_hidden	__ZNSt3__122__compressed_pair_elemINS_12basic_stringIcNS_11char_traitsIcEENS_9allocatorIcEEE5__repELi0ELb0EEC2B6v15006ENS_18__default_init_tagE
	.p2align	4, 0x90
__ZNSt3__122__compressed_pair_elemINS_12basic_stringIcNS_11char_traitsIcEENS_9allocatorIcEEE5__repELi0ELb0EEC2B6v15006ENS_18__default_init_tagE: ## @_ZNSt3__122__compressed_pair_elemINS_12basic_stringIcNS_11char_traitsIcEENS_9allocatorIcEEE5__repELi0ELb0EEC2B6v15006ENS_18__default_init_tagE
Lfunc_begin13:
	.loc	7 35 0 is_stmt 1                ## /Applications/Xcode.app/Contents/Developer/Platforms/MacOSX.platform/Developer/SDKs/MacOSX.sdk/usr/include/c++/v1/__memory/compressed_pair.h:35:0
	.cfi_startproc
## %bb.0:
	pushq	%rbp
	.cfi_def_cfa_offset 16
	.cfi_offset %rbp, -16
	movq	%rsp, %rbp
	.cfi_def_cfa_register %rbp
	movq	%rdi, -16(%rbp)
Ltmp121:
	.loc	7 35 96 prologue_end            ## /Applications/Xcode.app/Contents/Developer/Platforms/MacOSX.platform/Developer/SDKs/MacOSX.sdk/usr/include/c++/v1/__memory/compressed_pair.h:35:96
	popq	%rbp
	retq
Ltmp122:
Lfunc_end13:
	.cfi_endproc
                                        ## -- End function
	.private_extern	__ZNSt3__122__compressed_pair_elemINS_9allocatorIcEELi1ELb1EEC2B6v15006ENS_18__default_init_tagE ## -- Begin function _ZNSt3__122__compressed_pair_elemINS_9allocatorIcEELi1ELb1EEC2B6v15006ENS_18__default_init_tagE
	.globl	__ZNSt3__122__compressed_pair_elemINS_9allocatorIcEELi1ELb1EEC2B6v15006ENS_18__default_init_tagE
	.weak_def_can_be_hidden	__ZNSt3__122__compressed_pair_elemINS_9allocatorIcEELi1ELb1EEC2B6v15006ENS_18__default_init_tagE
	.p2align	4, 0x90
__ZNSt3__122__compressed_pair_elemINS_9allocatorIcEELi1ELb1EEC2B6v15006ENS_18__default_init_tagE: ## @_ZNSt3__122__compressed_pair_elemINS_9allocatorIcEELi1ELb1EEC2B6v15006ENS_18__default_init_tagE
Lfunc_begin14:
	.loc	7 64 0                          ## /Applications/Xcode.app/Contents/Developer/Platforms/MacOSX.platform/Developer/SDKs/MacOSX.sdk/usr/include/c++/v1/__memory/compressed_pair.h:64:0
	.cfi_startproc
## %bb.0:
	pushq	%rbp
	.cfi_def_cfa_offset 16
	.cfi_offset %rbp, -16
	movq	%rsp, %rbp
	.cfi_def_cfa_register %rbp
	subq	$16, %rsp
	movq	%rdi, -16(%rbp)
	movq	-16(%rbp), %rdi
Ltmp123:
	.loc	7 64 52 prologue_end            ## /Applications/Xcode.app/Contents/Developer/Platforms/MacOSX.platform/Developer/SDKs/MacOSX.sdk/usr/include/c++/v1/__memory/compressed_pair.h:64:52
	callq	__ZNSt3__19allocatorIcEC2B6v15006Ev
	.loc	7 64 96 is_stmt 0               ## /Applications/Xcode.app/Contents/Developer/Platforms/MacOSX.platform/Developer/SDKs/MacOSX.sdk/usr/include/c++/v1/__memory/compressed_pair.h:64:96
	addq	$16, %rsp
	popq	%rbp
	retq
Ltmp124:
Lfunc_end14:
	.cfi_endproc
                                        ## -- End function
	.private_extern	__ZNSt3__19allocatorIcEC2B6v15006Ev ## -- Begin function _ZNSt3__19allocatorIcEC2B6v15006Ev
	.globl	__ZNSt3__19allocatorIcEC2B6v15006Ev
	.weak_def_can_be_hidden	__ZNSt3__19allocatorIcEC2B6v15006Ev
	.p2align	4, 0x90
__ZNSt3__19allocatorIcEC2B6v15006Ev:    ## @_ZNSt3__19allocatorIcEC2B6v15006Ev
Lfunc_begin15:
	.loc	4 99 0 is_stmt 1                ## /Applications/Xcode.app/Contents/Developer/Platforms/MacOSX.platform/Developer/SDKs/MacOSX.sdk/usr/include/c++/v1/__memory/allocator.h:99:0
	.cfi_startproc
## %bb.0:
	pushq	%rbp
	.cfi_def_cfa_offset 16
	.cfi_offset %rbp, -16
	movq	%rsp, %rbp
	.cfi_def_cfa_register %rbp
	subq	$16, %rsp
	movq	%rdi, -8(%rbp)
	movq	-8(%rbp), %rdi
Ltmp125:
	.loc	4 99 5 prologue_end             ## /Applications/Xcode.app/Contents/Developer/Platforms/MacOSX.platform/Developer/SDKs/MacOSX.sdk/usr/include/c++/v1/__memory/allocator.h:99:5
	callq	__ZNSt3__116__non_trivial_ifILb1ENS_9allocatorIcEEEC2B6v15006Ev
	.loc	4 99 35 is_stmt 0               ## /Applications/Xcode.app/Contents/Developer/Platforms/MacOSX.platform/Developer/SDKs/MacOSX.sdk/usr/include/c++/v1/__memory/allocator.h:99:35
	addq	$16, %rsp
	popq	%rbp
	retq
Ltmp126:
Lfunc_end15:
	.cfi_endproc
                                        ## -- End function
	.private_extern	__ZNSt3__116__non_trivial_ifILb1ENS_9allocatorIcEEEC2B6v15006Ev ## -- Begin function _ZNSt3__116__non_trivial_ifILb1ENS_9allocatorIcEEEC2B6v15006Ev
	.globl	__ZNSt3__116__non_trivial_ifILb1ENS_9allocatorIcEEEC2B6v15006Ev
	.weak_def_can_be_hidden	__ZNSt3__116__non_trivial_ifILb1ENS_9allocatorIcEEEC2B6v15006Ev
	.p2align	4, 0x90
__ZNSt3__116__non_trivial_ifILb1ENS_9allocatorIcEEEC2B6v15006Ev: ## @_ZNSt3__116__non_trivial_ifILb1ENS_9allocatorIcEEEC2B6v15006Ev
Lfunc_begin16:
	.loc	4 78 0 is_stmt 1                ## /Applications/Xcode.app/Contents/Developer/Platforms/MacOSX.platform/Developer/SDKs/MacOSX.sdk/usr/include/c++/v1/__memory/allocator.h:78:0
	.cfi_startproc
## %bb.0:
	pushq	%rbp
	.cfi_def_cfa_offset 16
	.cfi_offset %rbp, -16
	movq	%rsp, %rbp
	.cfi_def_cfa_register %rbp
	movq	%rdi, -8(%rbp)
Ltmp127:
	.loc	4 78 54 prologue_end            ## /Applications/Xcode.app/Contents/Developer/Platforms/MacOSX.platform/Developer/SDKs/MacOSX.sdk/usr/include/c++/v1/__memory/allocator.h:78:54
	popq	%rbp
	retq
Ltmp128:
Lfunc_end16:
	.cfi_endproc
                                        ## -- End function
	.private_extern	__ZNSt3__112basic_stringIcNS_11char_traitsIcEENS_9allocatorIcEEE6__zeroB6v15006Ev ## -- Begin function _ZNSt3__112basic_stringIcNS_11char_traitsIcEENS_9allocatorIcEEE6__zeroB6v15006Ev
	.globl	__ZNSt3__112basic_stringIcNS_11char_traitsIcEENS_9allocatorIcEEE6__zeroB6v15006Ev
	.weak_definition	__ZNSt3__112basic_stringIcNS_11char_traitsIcEENS_9allocatorIcEEE6__zeroB6v15006Ev
	.p2align	4, 0x90
__ZNSt3__112basic_stringIcNS_11char_traitsIcEENS_9allocatorIcEEE6__zeroB6v15006Ev: ## @_ZNSt3__112basic_stringIcNS_11char_traitsIcEENS_9allocatorIcEEE6__zeroB6v15006Ev
Lfunc_begin17:
	.loc	6 1623 0                        ## /Applications/Xcode.app/Contents/Developer/Platforms/MacOSX.platform/Developer/SDKs/MacOSX.sdk/usr/include/c++/v1/string:1623:0
	.cfi_startproc
## %bb.0:
	pushq	%rbp
	.cfi_def_cfa_offset 16
	.cfi_offset %rbp, -16
	movq	%rsp, %rbp
	.cfi_def_cfa_register %rbp
	subq	$48, %rsp
	movq	%rdi, -8(%rbp)
	movq	-8(%rbp), %rax
	movq	%rax, -40(%rbp)                 ## 8-byte Spill
Ltmp129:
	.loc	6 1624 24 prologue_end          ## /Applications/Xcode.app/Contents/Developer/Platforms/MacOSX.platform/Developer/SDKs/MacOSX.sdk/usr/include/c++/v1/string:1624:24
	leaq	-32(%rbp), %rdi
	xorl	%esi, %esi
	movl	$24, %edx
	callq	_memset
	movq	-40(%rbp), %rdi                 ## 8-byte Reload
	.loc	6 1624 14 is_stmt 0             ## /Applications/Xcode.app/Contents/Developer/Platforms/MacOSX.platform/Developer/SDKs/MacOSX.sdk/usr/include/c++/v1/string:1624:14
	callq	__ZNSt3__117__compressed_pairINS_12basic_stringIcNS_11char_traitsIcEENS_9allocatorIcEEE5__repES5_E5firstB6v15006Ev
	.loc	6 1624 22                       ## /Applications/Xcode.app/Contents/Developer/Platforms/MacOSX.platform/Developer/SDKs/MacOSX.sdk/usr/include/c++/v1/string:1624:22
	movq	-32(%rbp), %rcx
	movq	%rcx, (%rax)
	movq	-24(%rbp), %rcx
	movq	%rcx, 8(%rax)
	movq	-16(%rbp), %rcx
	movq	%rcx, 16(%rax)
	.loc	6 1625 5 is_stmt 1              ## /Applications/Xcode.app/Contents/Developer/Platforms/MacOSX.platform/Developer/SDKs/MacOSX.sdk/usr/include/c++/v1/string:1625:5
	addq	$48, %rsp
	popq	%rbp
	retq
Ltmp130:
Lfunc_end17:
	.cfi_endproc
                                        ## -- End function
	.globl	__ZNSt3__130__libcpp_is_constant_evaluatedEv ## -- Begin function _ZNSt3__130__libcpp_is_constant_evaluatedEv
	.weak_definition	__ZNSt3__130__libcpp_is_constant_evaluatedEv
	.p2align	4, 0x90
__ZNSt3__130__libcpp_is_constant_evaluatedEv: ## @_ZNSt3__130__libcpp_is_constant_evaluatedEv
Lfunc_begin18:
	.file	70 "/Applications/Xcode.app/Contents/Developer/Platforms/MacOSX.platform/Developer/SDKs/MacOSX.sdk/usr/include/c++/v1/__type_traits" "is_constant_evaluated.h"
	.loc	70 28 0                         ## /Applications/Xcode.app/Contents/Developer/Platforms/MacOSX.platform/Developer/SDKs/MacOSX.sdk/usr/include/c++/v1/__type_traits/is_constant_evaluated.h:28:0
	.cfi_startproc
## %bb.0:
	pushq	%rbp
	.cfi_def_cfa_offset 16
	.cfi_offset %rbp, -16
	movq	%rsp, %rbp
	.cfi_def_cfa_register %rbp
Ltmp131:
	.loc	70 28 51 prologue_end           ## /Applications/Xcode.app/Contents/Developer/Platforms/MacOSX.platform/Developer/SDKs/MacOSX.sdk/usr/include/c++/v1/__type_traits/is_constant_evaluated.h:28:51
	xorl	%eax, %eax
                                        ## kill: def $al killed $al killed $eax
	andb	$1, %al
	movzbl	%al, %eax
	popq	%rbp
	retq
Ltmp132:
Lfunc_end18:
	.cfi_endproc
                                        ## -- End function
	.private_extern	__ZNSt3__112basic_stringIcNS_11char_traitsIcEENS_9allocatorIcEEE11__recommendB6v15006Em ## -- Begin function _ZNSt3__112basic_stringIcNS_11char_traitsIcEENS_9allocatorIcEEE11__recommendB6v15006Em
	.globl	__ZNSt3__112basic_stringIcNS_11char_traitsIcEENS_9allocatorIcEEE11__recommendB6v15006Em
	.weak_definition	__ZNSt3__112basic_stringIcNS_11char_traitsIcEENS_9allocatorIcEEE11__recommendB6v15006Em
	.p2align	4, 0x90
__ZNSt3__112basic_stringIcNS_11char_traitsIcEENS_9allocatorIcEEE11__recommendB6v15006Em: ## @_ZNSt3__112basic_stringIcNS_11char_traitsIcEENS_9allocatorIcEEE11__recommendB6v15006Em
Lfunc_begin19:
	.loc	6 1634 0                        ## /Applications/Xcode.app/Contents/Developer/Platforms/MacOSX.platform/Developer/SDKs/MacOSX.sdk/usr/include/c++/v1/string:1634:0
	.cfi_startproc
## %bb.0:
	pushq	%rbp
	.cfi_def_cfa_offset 16
	.cfi_offset %rbp, -16
	movq	%rsp, %rbp
	.cfi_def_cfa_register %rbp
	subq	$32, %rsp
	movq	%rdi, -16(%rbp)
Ltmp133:
	.loc	6 1635 17 prologue_end          ## /Applications/Xcode.app/Contents/Developer/Platforms/MacOSX.platform/Developer/SDKs/MacOSX.sdk/usr/include/c++/v1/string:1635:17
	cmpq	$23, -16(%rbp)
Ltmp134:
	.loc	6 1635 13 is_stmt 0             ## /Applications/Xcode.app/Contents/Developer/Platforms/MacOSX.platform/Developer/SDKs/MacOSX.sdk/usr/include/c++/v1/string:1635:13
	jae	LBB19_4
## %bb.1:
Ltmp135:
	.loc	6 1636 17 is_stmt 1             ## /Applications/Xcode.app/Contents/Developer/Platforms/MacOSX.platform/Developer/SDKs/MacOSX.sdk/usr/include/c++/v1/string:1636:17
	callq	__ZNSt3__130__libcpp_is_constant_evaluatedEv
Ltmp136:
	.loc	6 1636 17 is_stmt 0             ## /Applications/Xcode.app/Contents/Developer/Platforms/MacOSX.platform/Developer/SDKs/MacOSX.sdk/usr/include/c++/v1/string:1636:17
	testb	$1, %al
	jne	LBB19_2
	jmp	LBB19_3
LBB19_2:
Ltmp137:
	.loc	6 1637 17 is_stmt 1             ## /Applications/Xcode.app/Contents/Developer/Platforms/MacOSX.platform/Developer/SDKs/MacOSX.sdk/usr/include/c++/v1/string:1637:17
	movq	$23, -8(%rbp)
	jmp	LBB19_7
LBB19_3:
	.loc	6 1639 17                       ## /Applications/Xcode.app/Contents/Developer/Platforms/MacOSX.platform/Developer/SDKs/MacOSX.sdk/usr/include/c++/v1/string:1639:17
	movq	$22, -8(%rbp)
	jmp	LBB19_7
Ltmp138:
LBB19_4:
	.loc	6 1642 60                       ## /Applications/Xcode.app/Contents/Developer/Platforms/MacOSX.platform/Developer/SDKs/MacOSX.sdk/usr/include/c++/v1/string:1642:60
	movq	-16(%rbp), %rdi
	.loc	6 1642 63 is_stmt 0             ## /Applications/Xcode.app/Contents/Developer/Platforms/MacOSX.platform/Developer/SDKs/MacOSX.sdk/usr/include/c++/v1/string:1642:63
	addq	$1, %rdi
	.loc	6 1641 29 is_stmt 1             ## /Applications/Xcode.app/Contents/Developer/Platforms/MacOSX.platform/Developer/SDKs/MacOSX.sdk/usr/include/c++/v1/string:1641:29
	callq	__ZNSt3__112basic_stringIcNS_11char_traitsIcEENS_9allocatorIcEEE10__align_itB6v15006ILm16EEEmm
	.loc	6 1642 67                       ## /Applications/Xcode.app/Contents/Developer/Platforms/MacOSX.platform/Developer/SDKs/MacOSX.sdk/usr/include/c++/v1/string:1642:67
	subq	$1, %rax
	.loc	6 1641 19                       ## /Applications/Xcode.app/Contents/Developer/Platforms/MacOSX.platform/Developer/SDKs/MacOSX.sdk/usr/include/c++/v1/string:1641:19
	movq	%rax, -24(%rbp)
Ltmp139:
	.loc	6 1643 21                       ## /Applications/Xcode.app/Contents/Developer/Platforms/MacOSX.platform/Developer/SDKs/MacOSX.sdk/usr/include/c++/v1/string:1643:21
	cmpq	$23, -24(%rbp)
Ltmp140:
	.loc	6 1643 13 is_stmt 0             ## /Applications/Xcode.app/Contents/Developer/Platforms/MacOSX.platform/Developer/SDKs/MacOSX.sdk/usr/include/c++/v1/string:1643:13
	jne	LBB19_6
## %bb.5:
Ltmp141:
	.loc	6 1643 35                       ## /Applications/Xcode.app/Contents/Developer/Platforms/MacOSX.platform/Developer/SDKs/MacOSX.sdk/usr/include/c++/v1/string:1643:35
	movq	-24(%rbp), %rax
	addq	$1, %rax
	movq	%rax, -24(%rbp)
Ltmp142:
LBB19_6:
	.loc	6 1644 16 is_stmt 1             ## /Applications/Xcode.app/Contents/Developer/Platforms/MacOSX.platform/Developer/SDKs/MacOSX.sdk/usr/include/c++/v1/string:1644:16
	movq	-24(%rbp), %rax
	.loc	6 1644 9 is_stmt 0              ## /Applications/Xcode.app/Contents/Developer/Platforms/MacOSX.platform/Developer/SDKs/MacOSX.sdk/usr/include/c++/v1/string:1644:9
	movq	%rax, -8(%rbp)
LBB19_7:
	.loc	6 1645 5 is_stmt 1              ## /Applications/Xcode.app/Contents/Developer/Platforms/MacOSX.platform/Developer/SDKs/MacOSX.sdk/usr/include/c++/v1/string:1645:5
	movq	-8(%rbp), %rax
	addq	$32, %rsp
	popq	%rbp
	retq
Ltmp143:
Lfunc_end19:
	.cfi_endproc
                                        ## -- End function
	.private_extern	__ZNSt3__116allocator_traitsINS_9allocatorIcEEE8allocateB6v15006ERS2_m ## -- Begin function _ZNSt3__116allocator_traitsINS_9allocatorIcEEE8allocateB6v15006ERS2_m
	.globl	__ZNSt3__116allocator_traitsINS_9allocatorIcEEE8allocateB6v15006ERS2_m
	.weak_definition	__ZNSt3__116allocator_traitsINS_9allocatorIcEEE8allocateB6v15006ERS2_m
	.p2align	4, 0x90
__ZNSt3__116allocator_traitsINS_9allocatorIcEEE8allocateB6v15006ERS2_m: ## @_ZNSt3__116allocator_traitsINS_9allocatorIcEEE8allocateB6v15006ERS2_m
Lfunc_begin20:
	.loc	5 261 0                         ## /Applications/Xcode.app/Contents/Developer/Platforms/MacOSX.platform/Developer/SDKs/MacOSX.sdk/usr/include/c++/v1/__memory/allocator_traits.h:261:0
	.cfi_startproc
## %bb.0:
	pushq	%rbp
	.cfi_def_cfa_offset 16
	.cfi_offset %rbp, -16
	movq	%rsp, %rbp
	.cfi_def_cfa_register %rbp
	subq	$16, %rsp
	movq	%rdi, -8(%rbp)
	movq	%rsi, -16(%rbp)
Ltmp144:
	.loc	5 262 16 prologue_end           ## /Applications/Xcode.app/Contents/Developer/Platforms/MacOSX.platform/Developer/SDKs/MacOSX.sdk/usr/include/c++/v1/__memory/allocator_traits.h:262:16
	movq	-8(%rbp), %rdi
	.loc	5 262 29 is_stmt 0              ## /Applications/Xcode.app/Contents/Developer/Platforms/MacOSX.platform/Developer/SDKs/MacOSX.sdk/usr/include/c++/v1/__memory/allocator_traits.h:262:29
	movq	-16(%rbp), %rsi
	.loc	5 262 20                        ## /Applications/Xcode.app/Contents/Developer/Platforms/MacOSX.platform/Developer/SDKs/MacOSX.sdk/usr/include/c++/v1/__memory/allocator_traits.h:262:20
	callq	__ZNSt3__19allocatorIcE8allocateB6v15006Em
	.loc	5 262 9                         ## /Applications/Xcode.app/Contents/Developer/Platforms/MacOSX.platform/Developer/SDKs/MacOSX.sdk/usr/include/c++/v1/__memory/allocator_traits.h:262:9
	addq	$16, %rsp
	popq	%rbp
	retq
Ltmp145:
Lfunc_end20:
	.cfi_endproc
                                        ## -- End function
	.private_extern	__ZNSt3__112basic_stringIcNS_11char_traitsIcEENS_9allocatorIcEEE7__allocB6v15006Ev ## -- Begin function _ZNSt3__112basic_stringIcNS_11char_traitsIcEENS_9allocatorIcEEE7__allocB6v15006Ev
	.globl	__ZNSt3__112basic_stringIcNS_11char_traitsIcEENS_9allocatorIcEEE7__allocB6v15006Ev
	.weak_definition	__ZNSt3__112basic_stringIcNS_11char_traitsIcEENS_9allocatorIcEEE7__allocB6v15006Ev
	.p2align	4, 0x90
__ZNSt3__112basic_stringIcNS_11char_traitsIcEENS_9allocatorIcEEE7__allocB6v15006Ev: ## @_ZNSt3__112basic_stringIcNS_11char_traitsIcEENS_9allocatorIcEEE7__allocB6v15006Ev
Lfunc_begin21:
	.loc	6 1563 0 is_stmt 1              ## /Applications/Xcode.app/Contents/Developer/Platforms/MacOSX.platform/Developer/SDKs/MacOSX.sdk/usr/include/c++/v1/string:1563:0
	.cfi_startproc
## %bb.0:
	pushq	%rbp
	.cfi_def_cfa_offset 16
	.cfi_offset %rbp, -16
	movq	%rsp, %rbp
	.cfi_def_cfa_register %rbp
	subq	$16, %rsp
	movq	%rdi, -8(%rbp)
	movq	-8(%rbp), %rdi
Ltmp146:
	.loc	6 1563 107 prologue_end         ## /Applications/Xcode.app/Contents/Developer/Platforms/MacOSX.platform/Developer/SDKs/MacOSX.sdk/usr/include/c++/v1/string:1563:107
	callq	__ZNSt3__117__compressed_pairINS_12basic_stringIcNS_11char_traitsIcEENS_9allocatorIcEEE5__repES5_E6secondB6v15006Ev
	.loc	6 1563 95 is_stmt 0             ## /Applications/Xcode.app/Contents/Developer/Platforms/MacOSX.platform/Developer/SDKs/MacOSX.sdk/usr/include/c++/v1/string:1563:95
	addq	$16, %rsp
	popq	%rbp
	retq
Ltmp147:
Lfunc_end21:
	.cfi_endproc
                                        ## -- End function
	.private_extern	__ZNSt3__112basic_stringIcNS_11char_traitsIcEENS_9allocatorIcEEE16__begin_lifetimeB6v15006EPcm ## -- Begin function _ZNSt3__112basic_stringIcNS_11char_traitsIcEENS_9allocatorIcEEE16__begin_lifetimeB6v15006EPcm
	.globl	__ZNSt3__112basic_stringIcNS_11char_traitsIcEENS_9allocatorIcEEE16__begin_lifetimeB6v15006EPcm
	.weak_definition	__ZNSt3__112basic_stringIcNS_11char_traitsIcEENS_9allocatorIcEEE16__begin_lifetimeB6v15006EPcm
	.p2align	4, 0x90
__ZNSt3__112basic_stringIcNS_11char_traitsIcEENS_9allocatorIcEEE16__begin_lifetimeB6v15006EPcm: ## @_ZNSt3__112basic_stringIcNS_11char_traitsIcEENS_9allocatorIcEEE16__begin_lifetimeB6v15006EPcm
Lfunc_begin22:
	.loc	6 1502 0 is_stmt 1              ## /Applications/Xcode.app/Contents/Developer/Platforms/MacOSX.platform/Developer/SDKs/MacOSX.sdk/usr/include/c++/v1/string:1502:0
	.cfi_startproc
## %bb.0:
	pushq	%rbp
	.cfi_def_cfa_offset 16
	.cfi_offset %rbp, -16
	movq	%rsp, %rbp
	.cfi_def_cfa_register %rbp
	movq	%rdi, -8(%rbp)
	movq	%rsi, -16(%rbp)
Ltmp148:
	.loc	6 1512 5 prologue_end           ## /Applications/Xcode.app/Contents/Developer/Platforms/MacOSX.platform/Developer/SDKs/MacOSX.sdk/usr/include/c++/v1/string:1512:5
	popq	%rbp
	retq
Ltmp149:
Lfunc_end22:
	.cfi_endproc
                                        ## -- End function
	.private_extern	__ZNSt3__112basic_stringIcNS_11char_traitsIcEENS_9allocatorIcEEE18__set_long_pointerB6v15006EPc ## -- Begin function _ZNSt3__112basic_stringIcNS_11char_traitsIcEENS_9allocatorIcEEE18__set_long_pointerB6v15006EPc
	.globl	__ZNSt3__112basic_stringIcNS_11char_traitsIcEENS_9allocatorIcEEE18__set_long_pointerB6v15006EPc
	.weak_definition	__ZNSt3__112basic_stringIcNS_11char_traitsIcEENS_9allocatorIcEEE18__set_long_pointerB6v15006EPc
	.p2align	4, 0x90
__ZNSt3__112basic_stringIcNS_11char_traitsIcEENS_9allocatorIcEEE18__set_long_pointerB6v15006EPc: ## @_ZNSt3__112basic_stringIcNS_11char_traitsIcEENS_9allocatorIcEEE18__set_long_pointerB6v15006EPc
Lfunc_begin23:
	.loc	6 1602 0                        ## /Applications/Xcode.app/Contents/Developer/Platforms/MacOSX.platform/Developer/SDKs/MacOSX.sdk/usr/include/c++/v1/string:1602:0
	.cfi_startproc
## %bb.0:
	pushq	%rbp
	.cfi_def_cfa_offset 16
	.cfi_offset %rbp, -16
	movq	%rsp, %rbp
	.cfi_def_cfa_register %rbp
	subq	$32, %rsp
	movq	%rdi, -8(%rbp)
	movq	%rsi, -16(%rbp)
	movq	-8(%rbp), %rdi
Ltmp150:
	.loc	6 1602 37 prologue_end          ## /Applications/Xcode.app/Contents/Developer/Platforms/MacOSX.platform/Developer/SDKs/MacOSX.sdk/usr/include/c++/v1/string:1602:37
	movq	-16(%rbp), %rax
	movq	%rax, -24(%rbp)                 ## 8-byte Spill
	.loc	6 1602 15 is_stmt 0             ## /Applications/Xcode.app/Contents/Developer/Platforms/MacOSX.platform/Developer/SDKs/MacOSX.sdk/usr/include/c++/v1/string:1602:15
	callq	__ZNSt3__117__compressed_pairINS_12basic_stringIcNS_11char_traitsIcEENS_9allocatorIcEEE5__repES5_E5firstB6v15006Ev
	movq	-24(%rbp), %rcx                 ## 8-byte Reload
	.loc	6 1602 35                       ## /Applications/Xcode.app/Contents/Developer/Platforms/MacOSX.platform/Developer/SDKs/MacOSX.sdk/usr/include/c++/v1/string:1602:35
	movq	%rcx, 16(%rax)
	.loc	6 1602 41                       ## /Applications/Xcode.app/Contents/Developer/Platforms/MacOSX.platform/Developer/SDKs/MacOSX.sdk/usr/include/c++/v1/string:1602:41
	addq	$32, %rsp
	popq	%rbp
	retq
Ltmp151:
Lfunc_end23:
	.cfi_endproc
                                        ## -- End function
	.private_extern	__ZNSt3__112basic_stringIcNS_11char_traitsIcEENS_9allocatorIcEEE14__set_long_capB6v15006Em ## -- Begin function _ZNSt3__112basic_stringIcNS_11char_traitsIcEENS_9allocatorIcEEE14__set_long_capB6v15006Em
	.globl	__ZNSt3__112basic_stringIcNS_11char_traitsIcEENS_9allocatorIcEEE14__set_long_capB6v15006Em
	.weak_definition	__ZNSt3__112basic_stringIcNS_11char_traitsIcEENS_9allocatorIcEEE14__set_long_capB6v15006Em
	.p2align	4, 0x90
__ZNSt3__112basic_stringIcNS_11char_traitsIcEENS_9allocatorIcEEE14__set_long_capB6v15006Em: ## @_ZNSt3__112basic_stringIcNS_11char_traitsIcEENS_9allocatorIcEEE14__set_long_capB6v15006Em
Lfunc_begin24:
	.loc	6 1590 0 is_stmt 1              ## /Applications/Xcode.app/Contents/Developer/Platforms/MacOSX.platform/Developer/SDKs/MacOSX.sdk/usr/include/c++/v1/string:1590:0
	.cfi_startproc
## %bb.0:
	pushq	%rbp
	.cfi_def_cfa_offset 16
	.cfi_offset %rbp, -16
	movq	%rsp, %rbp
	.cfi_def_cfa_register %rbp
	subq	$32, %rsp
	movq	%rdi, -8(%rbp)
	movq	%rsi, -16(%rbp)
	movq	-8(%rbp), %rdi
	movq	%rdi, -24(%rbp)                 ## 8-byte Spill
Ltmp152:
	.loc	6 1591 35 prologue_end          ## /Applications/Xcode.app/Contents/Developer/Platforms/MacOSX.platform/Developer/SDKs/MacOSX.sdk/usr/include/c++/v1/string:1591:35
	movq	-16(%rbp), %rax
	.loc	6 1591 39 is_stmt 0             ## /Applications/Xcode.app/Contents/Developer/Platforms/MacOSX.platform/Developer/SDKs/MacOSX.sdk/usr/include/c++/v1/string:1591:39
	shrq	$1, %rax
	movq	%rax, -32(%rbp)                 ## 8-byte Spill
	.loc	6 1591 14                       ## /Applications/Xcode.app/Contents/Developer/Platforms/MacOSX.platform/Developer/SDKs/MacOSX.sdk/usr/include/c++/v1/string:1591:14
	callq	__ZNSt3__117__compressed_pairINS_12basic_stringIcNS_11char_traitsIcEENS_9allocatorIcEEE5__repES5_E5firstB6v15006Ev
	movq	-32(%rbp), %rdx                 ## 8-byte Reload
	movq	-24(%rbp), %rdi                 ## 8-byte Reload
	.loc	6 1591 33                       ## /Applications/Xcode.app/Contents/Developer/Platforms/MacOSX.platform/Developer/SDKs/MacOSX.sdk/usr/include/c++/v1/string:1591:33
	movq	(%rax), %rcx
	movabsq	$9223372036854775807, %rsi      ## imm = 0x7FFFFFFFFFFFFFFF
	andq	%rsi, %rdx
	shlq	$1, %rdx
	andq	$1, %rcx
	orq	%rdx, %rcx
	movq	%rcx, (%rax)
	.loc	6 1592 14 is_stmt 1             ## /Applications/Xcode.app/Contents/Developer/Platforms/MacOSX.platform/Developer/SDKs/MacOSX.sdk/usr/include/c++/v1/string:1592:14
	callq	__ZNSt3__117__compressed_pairINS_12basic_stringIcNS_11char_traitsIcEENS_9allocatorIcEEE5__repES5_E5firstB6v15006Ev
	.loc	6 1592 37 is_stmt 0             ## /Applications/Xcode.app/Contents/Developer/Platforms/MacOSX.platform/Developer/SDKs/MacOSX.sdk/usr/include/c++/v1/string:1592:37
	movq	(%rax), %rcx
	andq	$-2, %rcx
	orq	$1, %rcx
	movq	%rcx, (%rax)
	.loc	6 1593 5 is_stmt 1              ## /Applications/Xcode.app/Contents/Developer/Platforms/MacOSX.platform/Developer/SDKs/MacOSX.sdk/usr/include/c++/v1/string:1593:5
	addq	$32, %rsp
	popq	%rbp
	retq
Ltmp153:
Lfunc_end24:
	.cfi_endproc
                                        ## -- End function
	.private_extern	__ZNSt3__112basic_stringIcNS_11char_traitsIcEENS_9allocatorIcEEE15__set_long_sizeB6v15006Em ## -- Begin function _ZNSt3__112basic_stringIcNS_11char_traitsIcEENS_9allocatorIcEEE15__set_long_sizeB6v15006Em
	.globl	__ZNSt3__112basic_stringIcNS_11char_traitsIcEENS_9allocatorIcEEE15__set_long_sizeB6v15006Em
	.weak_definition	__ZNSt3__112basic_stringIcNS_11char_traitsIcEENS_9allocatorIcEEE15__set_long_sizeB6v15006Em
	.p2align	4, 0x90
__ZNSt3__112basic_stringIcNS_11char_traitsIcEENS_9allocatorIcEEE15__set_long_sizeB6v15006Em: ## @_ZNSt3__112basic_stringIcNS_11char_traitsIcEENS_9allocatorIcEEE15__set_long_sizeB6v15006Em
Lfunc_begin25:
	.loc	6 1581 0                        ## /Applications/Xcode.app/Contents/Developer/Platforms/MacOSX.platform/Developer/SDKs/MacOSX.sdk/usr/include/c++/v1/string:1581:0
	.cfi_startproc
## %bb.0:
	pushq	%rbp
	.cfi_def_cfa_offset 16
	.cfi_offset %rbp, -16
	movq	%rsp, %rbp
	.cfi_def_cfa_register %rbp
	subq	$32, %rsp
	movq	%rdi, -8(%rbp)
	movq	%rsi, -16(%rbp)
	movq	-8(%rbp), %rdi
Ltmp154:
	.loc	6 1581 37 prologue_end          ## /Applications/Xcode.app/Contents/Developer/Platforms/MacOSX.platform/Developer/SDKs/MacOSX.sdk/usr/include/c++/v1/string:1581:37
	movq	-16(%rbp), %rax
	movq	%rax, -24(%rbp)                 ## 8-byte Spill
	.loc	6 1581 15 is_stmt 0             ## /Applications/Xcode.app/Contents/Developer/Platforms/MacOSX.platform/Developer/SDKs/MacOSX.sdk/usr/include/c++/v1/string:1581:15
	callq	__ZNSt3__117__compressed_pairINS_12basic_stringIcNS_11char_traitsIcEENS_9allocatorIcEEE5__repES5_E5firstB6v15006Ev
	movq	-24(%rbp), %rcx                 ## 8-byte Reload
	.loc	6 1581 35                       ## /Applications/Xcode.app/Contents/Developer/Platforms/MacOSX.platform/Developer/SDKs/MacOSX.sdk/usr/include/c++/v1/string:1581:35
	movq	%rcx, 8(%rax)
	.loc	6 1581 41                       ## /Applications/Xcode.app/Contents/Developer/Platforms/MacOSX.platform/Developer/SDKs/MacOSX.sdk/usr/include/c++/v1/string:1581:41
	addq	$32, %rsp
	popq	%rbp
	retq
Ltmp155:
Lfunc_end25:
	.cfi_endproc
                                        ## -- End function
	.private_extern	__ZNSt3__117__compressed_pairINS_12basic_stringIcNS_11char_traitsIcEENS_9allocatorIcEEE5__repES5_E5firstB6v15006Ev ## -- Begin function _ZNSt3__117__compressed_pairINS_12basic_stringIcNS_11char_traitsIcEENS_9allocatorIcEEE5__repES5_E5firstB6v15006Ev
	.globl	__ZNSt3__117__compressed_pairINS_12basic_stringIcNS_11char_traitsIcEENS_9allocatorIcEEE5__repES5_E5firstB6v15006Ev
	.weak_definition	__ZNSt3__117__compressed_pairINS_12basic_stringIcNS_11char_traitsIcEENS_9allocatorIcEEE5__repES5_E5firstB6v15006Ev
	.p2align	4, 0x90
__ZNSt3__117__compressed_pairINS_12basic_stringIcNS_11char_traitsIcEENS_9allocatorIcEEE5__repES5_E5firstB6v15006Ev: ## @_ZNSt3__117__compressed_pairINS_12basic_stringIcNS_11char_traitsIcEENS_9allocatorIcEEE5__repES5_E5firstB6v15006Ev
Lfunc_begin26:
	.loc	7 120 0 is_stmt 1               ## /Applications/Xcode.app/Contents/Developer/Platforms/MacOSX.platform/Developer/SDKs/MacOSX.sdk/usr/include/c++/v1/__memory/compressed_pair.h:120:0
	.cfi_startproc
## %bb.0:
	pushq	%rbp
	.cfi_def_cfa_offset 16
	.cfi_offset %rbp, -16
	movq	%rsp, %rbp
	.cfi_def_cfa_register %rbp
	subq	$16, %rsp
	movq	%rdi, -8(%rbp)
	movq	-8(%rbp), %rdi
Ltmp156:
	.loc	7 121 40 prologue_end           ## /Applications/Xcode.app/Contents/Developer/Platforms/MacOSX.platform/Developer/SDKs/MacOSX.sdk/usr/include/c++/v1/__memory/compressed_pair.h:121:40
	callq	__ZNSt3__122__compressed_pair_elemINS_12basic_stringIcNS_11char_traitsIcEENS_9allocatorIcEEE5__repELi0ELb0EE5__getB6v15006Ev
	.loc	7 121 5 is_stmt 0               ## /Applications/Xcode.app/Contents/Developer/Platforms/MacOSX.platform/Developer/SDKs/MacOSX.sdk/usr/include/c++/v1/__memory/compressed_pair.h:121:5
	addq	$16, %rsp
	popq	%rbp
	retq
Ltmp157:
Lfunc_end26:
	.cfi_endproc
                                        ## -- End function
	.private_extern	__ZNSt3__122__compressed_pair_elemINS_12basic_stringIcNS_11char_traitsIcEENS_9allocatorIcEEE5__repELi0ELb0EE5__getB6v15006Ev ## -- Begin function _ZNSt3__122__compressed_pair_elemINS_12basic_stringIcNS_11char_traitsIcEENS_9allocatorIcEEE5__repELi0ELb0EE5__getB6v15006Ev
	.globl	__ZNSt3__122__compressed_pair_elemINS_12basic_stringIcNS_11char_traitsIcEENS_9allocatorIcEEE5__repELi0ELb0EE5__getB6v15006Ev
	.weak_definition	__ZNSt3__122__compressed_pair_elemINS_12basic_stringIcNS_11char_traitsIcEENS_9allocatorIcEEE5__repELi0ELb0EE5__getB6v15006Ev
	.p2align	4, 0x90
__ZNSt3__122__compressed_pair_elemINS_12basic_stringIcNS_11char_traitsIcEENS_9allocatorIcEEE5__repELi0ELb0EE5__getB6v15006Ev: ## @_ZNSt3__122__compressed_pair_elemINS_12basic_stringIcNS_11char_traitsIcEENS_9allocatorIcEEE5__repELi0ELb0EE5__getB6v15006Ev
Lfunc_begin27:
	.loc	7 49 0 is_stmt 1                ## /Applications/Xcode.app/Contents/Developer/Platforms/MacOSX.platform/Developer/SDKs/MacOSX.sdk/usr/include/c++/v1/__memory/compressed_pair.h:49:0
	.cfi_startproc
## %bb.0:
	pushq	%rbp
	.cfi_def_cfa_offset 16
	.cfi_offset %rbp, -16
	movq	%rsp, %rbp
	.cfi_def_cfa_register %rbp
	movq	%rdi, -8(%rbp)
	movq	-8(%rbp), %rax
Ltmp158:
	.loc	7 49 85 prologue_end            ## /Applications/Xcode.app/Contents/Developer/Platforms/MacOSX.platform/Developer/SDKs/MacOSX.sdk/usr/include/c++/v1/__memory/compressed_pair.h:49:85
	popq	%rbp
	retq
Ltmp159:
Lfunc_end27:
	.cfi_endproc
                                        ## -- End function
	.globl	__ZNSt3__112basic_stringIcNS_11char_traitsIcEENS_9allocatorIcEEE10__align_itB6v15006ILm16EEEmm ## -- Begin function _ZNSt3__112basic_stringIcNS_11char_traitsIcEENS_9allocatorIcEEE10__align_itB6v15006ILm16EEEmm
	.weak_definition	__ZNSt3__112basic_stringIcNS_11char_traitsIcEENS_9allocatorIcEEE10__align_itB6v15006ILm16EEEmm
	.p2align	4, 0x90
__ZNSt3__112basic_stringIcNS_11char_traitsIcEENS_9allocatorIcEEE10__align_itB6v15006ILm16EEEmm: ## @_ZNSt3__112basic_stringIcNS_11char_traitsIcEENS_9allocatorIcEEE10__align_itB6v15006ILm16EEEmm
Lfunc_begin28:
	.loc	6 1630 0                        ## /Applications/Xcode.app/Contents/Developer/Platforms/MacOSX.platform/Developer/SDKs/MacOSX.sdk/usr/include/c++/v1/string:1630:0
	.cfi_startproc
## %bb.0:
	pushq	%rbp
	.cfi_def_cfa_offset 16
	.cfi_offset %rbp, -16
	movq	%rsp, %rbp
	.cfi_def_cfa_register %rbp
	movq	%rdi, -8(%rbp)
Ltmp160:
	.loc	6 1630 22 prologue_end          ## /Applications/Xcode.app/Contents/Developer/Platforms/MacOSX.platform/Developer/SDKs/MacOSX.sdk/usr/include/c++/v1/string:1630:22
	movq	-8(%rbp), %rax
	.loc	6 1630 26 is_stmt 0             ## /Applications/Xcode.app/Contents/Developer/Platforms/MacOSX.platform/Developer/SDKs/MacOSX.sdk/usr/include/c++/v1/string:1630:26
	addq	$15, %rax
	.loc	6 1630 37                       ## /Applications/Xcode.app/Contents/Developer/Platforms/MacOSX.platform/Developer/SDKs/MacOSX.sdk/usr/include/c++/v1/string:1630:37
	andq	$-16, %rax
	.loc	6 1630 14                       ## /Applications/Xcode.app/Contents/Developer/Platforms/MacOSX.platform/Developer/SDKs/MacOSX.sdk/usr/include/c++/v1/string:1630:14
	popq	%rbp
	retq
Ltmp161:
Lfunc_end28:
	.cfi_endproc
                                        ## -- End function
	.private_extern	__ZNSt3__19allocatorIcE8allocateB6v15006Em ## -- Begin function _ZNSt3__19allocatorIcE8allocateB6v15006Em
	.globl	__ZNSt3__19allocatorIcE8allocateB6v15006Em
	.weak_definition	__ZNSt3__19allocatorIcE8allocateB6v15006Em
	.p2align	4, 0x90
__ZNSt3__19allocatorIcE8allocateB6v15006Em: ## @_ZNSt3__19allocatorIcE8allocateB6v15006Em
Lfunc_begin29:
	.loc	4 106 0 is_stmt 1               ## /Applications/Xcode.app/Contents/Developer/Platforms/MacOSX.platform/Developer/SDKs/MacOSX.sdk/usr/include/c++/v1/__memory/allocator.h:106:0
	.cfi_startproc
## %bb.0:
	pushq	%rbp
	.cfi_def_cfa_offset 16
	.cfi_offset %rbp, -16
	movq	%rsp, %rbp
	.cfi_def_cfa_register %rbp
	subq	$32, %rsp
	movq	%rdi, -16(%rbp)
	movq	%rsi, -24(%rbp)
	movq	-16(%rbp), %rdi
Ltmp162:
	.loc	4 107 13 prologue_end           ## /Applications/Xcode.app/Contents/Developer/Platforms/MacOSX.platform/Developer/SDKs/MacOSX.sdk/usr/include/c++/v1/__memory/allocator.h:107:13
	movq	-24(%rbp), %rax
	movq	%rax, -32(%rbp)                 ## 8-byte Spill
	.loc	4 107 19 is_stmt 0              ## /Applications/Xcode.app/Contents/Developer/Platforms/MacOSX.platform/Developer/SDKs/MacOSX.sdk/usr/include/c++/v1/__memory/allocator.h:107:19
	callq	__ZNSt3__116allocator_traitsINS_9allocatorIcEEE8max_sizeB6v15006IS2_vEEmRKS2_
	movq	%rax, %rcx
	movq	-32(%rbp), %rax                 ## 8-byte Reload
	.loc	4 107 17                        ## /Applications/Xcode.app/Contents/Developer/Platforms/MacOSX.platform/Developer/SDKs/MacOSX.sdk/usr/include/c++/v1/__memory/allocator.h:107:17
	cmpq	%rcx, %rax
Ltmp163:
	.loc	4 107 13                        ## /Applications/Xcode.app/Contents/Developer/Platforms/MacOSX.platform/Developer/SDKs/MacOSX.sdk/usr/include/c++/v1/__memory/allocator.h:107:13
	jbe	LBB29_2
## %bb.1:
Ltmp164:
	.loc	4 108 13 is_stmt 1              ## /Applications/Xcode.app/Contents/Developer/Platforms/MacOSX.platform/Developer/SDKs/MacOSX.sdk/usr/include/c++/v1/__memory/allocator.h:108:13
	callq	__ZSt28__throw_bad_array_new_lengthB6v15006v
Ltmp165:
LBB29_2:
	.loc	4 109 13                        ## /Applications/Xcode.app/Contents/Developer/Platforms/MacOSX.platform/Developer/SDKs/MacOSX.sdk/usr/include/c++/v1/__memory/allocator.h:109:13
	callq	__ZNSt3__130__libcpp_is_constant_evaluatedEv
Ltmp166:
	.loc	4 109 13 is_stmt 0              ## /Applications/Xcode.app/Contents/Developer/Platforms/MacOSX.platform/Developer/SDKs/MacOSX.sdk/usr/include/c++/v1/__memory/allocator.h:109:13
	testb	$1, %al
	jne	LBB29_3
	jmp	LBB29_4
LBB29_3:
Ltmp167:
	.loc	4 110 53 is_stmt 1              ## /Applications/Xcode.app/Contents/Developer/Platforms/MacOSX.platform/Developer/SDKs/MacOSX.sdk/usr/include/c++/v1/__memory/allocator.h:110:53
	movq	-24(%rbp), %rdi
	.loc	4 110 57 is_stmt 0              ## /Applications/Xcode.app/Contents/Developer/Platforms/MacOSX.platform/Developer/SDKs/MacOSX.sdk/usr/include/c++/v1/__memory/allocator.h:110:57
	shlq	$0, %rdi
	.loc	4 110 38                        ## /Applications/Xcode.app/Contents/Developer/Platforms/MacOSX.platform/Developer/SDKs/MacOSX.sdk/usr/include/c++/v1/__memory/allocator.h:110:38
	callq	__Znwm
	.loc	4 110 13                        ## /Applications/Xcode.app/Contents/Developer/Platforms/MacOSX.platform/Developer/SDKs/MacOSX.sdk/usr/include/c++/v1/__memory/allocator.h:110:13
	movq	%rax, -8(%rbp)
	jmp	LBB29_5
Ltmp168:
LBB29_4:
	.loc	4 112 63 is_stmt 1              ## /Applications/Xcode.app/Contents/Developer/Platforms/MacOSX.platform/Developer/SDKs/MacOSX.sdk/usr/include/c++/v1/__memory/allocator.h:112:63
	movq	-24(%rbp), %rdi
	.loc	4 112 67 is_stmt 0              ## /Applications/Xcode.app/Contents/Developer/Platforms/MacOSX.platform/Developer/SDKs/MacOSX.sdk/usr/include/c++/v1/__memory/allocator.h:112:67
	shlq	$0, %rdi
	.loc	4 112 38                        ## /Applications/Xcode.app/Contents/Developer/Platforms/MacOSX.platform/Developer/SDKs/MacOSX.sdk/usr/include/c++/v1/__memory/allocator.h:112:38
	movl	$1, %esi
	callq	__ZNSt3__117__libcpp_allocateB6v15006Emm
	.loc	4 112 13                        ## /Applications/Xcode.app/Contents/Developer/Platforms/MacOSX.platform/Developer/SDKs/MacOSX.sdk/usr/include/c++/v1/__memory/allocator.h:112:13
	movq	%rax, -8(%rbp)
Ltmp169:
LBB29_5:
	.loc	4 114 5 is_stmt 1               ## /Applications/Xcode.app/Contents/Developer/Platforms/MacOSX.platform/Developer/SDKs/MacOSX.sdk/usr/include/c++/v1/__memory/allocator.h:114:5
	movq	-8(%rbp), %rax
	addq	$32, %rsp
	popq	%rbp
	retq
Ltmp170:
Lfunc_end29:
	.cfi_endproc
                                        ## -- End function
	.globl	__ZNSt3__116allocator_traitsINS_9allocatorIcEEE8max_sizeB6v15006IS2_vEEmRKS2_ ## -- Begin function _ZNSt3__116allocator_traitsINS_9allocatorIcEEE8max_sizeB6v15006IS2_vEEmRKS2_
	.weak_definition	__ZNSt3__116allocator_traitsINS_9allocatorIcEEE8max_sizeB6v15006IS2_vEEmRKS2_
	.p2align	4, 0x90
__ZNSt3__116allocator_traitsINS_9allocatorIcEEE8max_sizeB6v15006IS2_vEEmRKS2_: ## @_ZNSt3__116allocator_traitsINS_9allocatorIcEEE8max_sizeB6v15006IS2_vEEmRKS2_
Lfunc_begin30:
	.loc	5 326 0                         ## /Applications/Xcode.app/Contents/Developer/Platforms/MacOSX.platform/Developer/SDKs/MacOSX.sdk/usr/include/c++/v1/__memory/allocator_traits.h:326:0
	.cfi_startproc
## %bb.0:
	pushq	%rbp
	.cfi_def_cfa_offset 16
	.cfi_offset %rbp, -16
	movq	%rsp, %rbp
	.cfi_def_cfa_register %rbp
	subq	$16, %rsp
	movq	%rdi, -8(%rbp)
Ltmp171:
	.loc	5 328 16 prologue_end           ## /Applications/Xcode.app/Contents/Developer/Platforms/MacOSX.platform/Developer/SDKs/MacOSX.sdk/usr/include/c++/v1/__memory/allocator_traits.h:328:16
	movq	-8(%rbp), %rdi
	.loc	5 328 20 is_stmt 0              ## /Applications/Xcode.app/Contents/Developer/Platforms/MacOSX.platform/Developer/SDKs/MacOSX.sdk/usr/include/c++/v1/__memory/allocator_traits.h:328:20
	callq	__ZNKSt3__19allocatorIcE8max_sizeB6v15006Ev
	.loc	5 328 9                         ## /Applications/Xcode.app/Contents/Developer/Platforms/MacOSX.platform/Developer/SDKs/MacOSX.sdk/usr/include/c++/v1/__memory/allocator_traits.h:328:9
	addq	$16, %rsp
	popq	%rbp
	retq
Ltmp172:
Lfunc_end30:
	.cfi_endproc
                                        ## -- End function
	.private_extern	__ZSt28__throw_bad_array_new_lengthB6v15006v ## -- Begin function _ZSt28__throw_bad_array_new_lengthB6v15006v
	.globl	__ZSt28__throw_bad_array_new_lengthB6v15006v
	.weak_definition	__ZSt28__throw_bad_array_new_lengthB6v15006v
	.p2align	4, 0x90
__ZSt28__throw_bad_array_new_lengthB6v15006v: ## @_ZSt28__throw_bad_array_new_lengthB6v15006v
Lfunc_begin31:
	.file	71 "/Applications/Xcode.app/Contents/Developer/Platforms/MacOSX.platform/Developer/SDKs/MacOSX.sdk/usr/include/c++/v1" "new"
	.loc	71 155 0 is_stmt 1              ## /Applications/Xcode.app/Contents/Developer/Platforms/MacOSX.platform/Developer/SDKs/MacOSX.sdk/usr/include/c++/v1/new:155:0
	.cfi_startproc
## %bb.0:
	pushq	%rbp
	.cfi_def_cfa_offset 16
	.cfi_offset %rbp, -16
	movq	%rsp, %rbp
	.cfi_def_cfa_register %rbp
	subq	$16, %rsp
	movl	$8, %edi
Ltmp173:
	.loc	71 157 5 prologue_end           ## /Applications/Xcode.app/Contents/Developer/Platforms/MacOSX.platform/Developer/SDKs/MacOSX.sdk/usr/include/c++/v1/new:157:5
	callq	___cxa_allocate_exception
	movq	%rax, %rdi
	movq	%rdi, -8(%rbp)                  ## 8-byte Spill
	.loc	71 157 11 is_stmt 0             ## /Applications/Xcode.app/Contents/Developer/Platforms/MacOSX.platform/Developer/SDKs/MacOSX.sdk/usr/include/c++/v1/new:157:11
	callq	__ZNSt20bad_array_new_lengthC1Ev
	movq	-8(%rbp), %rdi                  ## 8-byte Reload
	.loc	71 157 5                        ## /Applications/Xcode.app/Contents/Developer/Platforms/MacOSX.platform/Developer/SDKs/MacOSX.sdk/usr/include/c++/v1/new:157:5
	movq	__ZTISt20bad_array_new_length@GOTPCREL(%rip), %rsi
	movq	__ZNSt20bad_array_new_lengthD1Ev@GOTPCREL(%rip), %rdx
	callq	___cxa_throw
Ltmp174:
Lfunc_end31:
	.cfi_endproc
                                        ## -- End function
	.private_extern	__ZNSt3__117__libcpp_allocateB6v15006Emm ## -- Begin function _ZNSt3__117__libcpp_allocateB6v15006Emm
	.globl	__ZNSt3__117__libcpp_allocateB6v15006Emm
	.weak_definition	__ZNSt3__117__libcpp_allocateB6v15006Emm
	.p2align	4, 0x90
__ZNSt3__117__libcpp_allocateB6v15006Emm: ## @_ZNSt3__117__libcpp_allocateB6v15006Emm
Lfunc_begin32:
	.loc	71 263 0 is_stmt 1              ## /Applications/Xcode.app/Contents/Developer/Platforms/MacOSX.platform/Developer/SDKs/MacOSX.sdk/usr/include/c++/v1/new:263:0
	.cfi_startproc
## %bb.0:
	pushq	%rbp
	.cfi_def_cfa_offset 16
	.cfi_offset %rbp, -16
	movq	%rsp, %rbp
	.cfi_def_cfa_register %rbp
	subq	$16, %rsp
	movq	%rdi, -8(%rbp)
	movq	%rsi, -16(%rbp)
Ltmp175:
	.loc	71 272 32 prologue_end          ## /Applications/Xcode.app/Contents/Developer/Platforms/MacOSX.platform/Developer/SDKs/MacOSX.sdk/usr/include/c++/v1/new:272:32
	movq	-8(%rbp), %rdi
	.loc	71 272 10 is_stmt 0             ## /Applications/Xcode.app/Contents/Developer/Platforms/MacOSX.platform/Developer/SDKs/MacOSX.sdk/usr/include/c++/v1/new:272:10
	callq	__ZNSt3__121__libcpp_operator_newB6v15006IJmEEEPvDpT_
	.loc	71 272 3                        ## /Applications/Xcode.app/Contents/Developer/Platforms/MacOSX.platform/Developer/SDKs/MacOSX.sdk/usr/include/c++/v1/new:272:3
	addq	$16, %rsp
	popq	%rbp
	retq
Ltmp176:
Lfunc_end32:
	.cfi_endproc
                                        ## -- End function
	.private_extern	__ZNKSt3__19allocatorIcE8max_sizeB6v15006Ev ## -- Begin function _ZNKSt3__19allocatorIcE8max_sizeB6v15006Ev
	.globl	__ZNKSt3__19allocatorIcE8max_sizeB6v15006Ev
	.weak_definition	__ZNKSt3__19allocatorIcE8max_sizeB6v15006Ev
	.p2align	4, 0x90
__ZNKSt3__19allocatorIcE8max_sizeB6v15006Ev: ## @_ZNKSt3__19allocatorIcE8max_sizeB6v15006Ev
Lfunc_begin33:
	.loc	4 158 0 is_stmt 1               ## /Applications/Xcode.app/Contents/Developer/Platforms/MacOSX.platform/Developer/SDKs/MacOSX.sdk/usr/include/c++/v1/__memory/allocator.h:158:0
	.cfi_startproc
## %bb.0:
	pushq	%rbp
	.cfi_def_cfa_offset 16
	.cfi_offset %rbp, -16
	movq	%rsp, %rbp
	.cfi_def_cfa_register %rbp
	movq	%rdi, -8(%rbp)
Ltmp177:
	.loc	4 159 9 prologue_end            ## /Applications/Xcode.app/Contents/Developer/Platforms/MacOSX.platform/Developer/SDKs/MacOSX.sdk/usr/include/c++/v1/__memory/allocator.h:159:9
	movq	$-1, %rax
	popq	%rbp
	retq
Ltmp178:
Lfunc_end33:
	.cfi_endproc
                                        ## -- End function
	.private_extern	__ZNSt3__121__libcpp_operator_newB6v15006IJmEEEPvDpT_ ## -- Begin function _ZNSt3__121__libcpp_operator_newB6v15006IJmEEEPvDpT_
	.globl	__ZNSt3__121__libcpp_operator_newB6v15006IJmEEEPvDpT_
	.weak_definition	__ZNSt3__121__libcpp_operator_newB6v15006IJmEEEPvDpT_
	.p2align	4, 0x90
__ZNSt3__121__libcpp_operator_newB6v15006IJmEEEPvDpT_: ## @_ZNSt3__121__libcpp_operator_newB6v15006IJmEEEPvDpT_
Lfunc_begin34:
	.loc	71 244 0                        ## /Applications/Xcode.app/Contents/Developer/Platforms/MacOSX.platform/Developer/SDKs/MacOSX.sdk/usr/include/c++/v1/new:244:0
	.cfi_startproc
## %bb.0:
	pushq	%rbp
	.cfi_def_cfa_offset 16
	.cfi_offset %rbp, -16
	movq	%rsp, %rbp
	.cfi_def_cfa_register %rbp
	subq	$16, %rsp
	movq	%rdi, -8(%rbp)
Ltmp179:
	.loc	71 246 33 prologue_end          ## /Applications/Xcode.app/Contents/Developer/Platforms/MacOSX.platform/Developer/SDKs/MacOSX.sdk/usr/include/c++/v1/new:246:33
	movq	-8(%rbp), %rdi
	.loc	71 246 10 is_stmt 0             ## /Applications/Xcode.app/Contents/Developer/Platforms/MacOSX.platform/Developer/SDKs/MacOSX.sdk/usr/include/c++/v1/new:246:10
	callq	__Znwm
	.loc	71 246 3                        ## /Applications/Xcode.app/Contents/Developer/Platforms/MacOSX.platform/Developer/SDKs/MacOSX.sdk/usr/include/c++/v1/new:246:3
	addq	$16, %rsp
	popq	%rbp
	retq
Ltmp180:
Lfunc_end34:
	.cfi_endproc
                                        ## -- End function
	.private_extern	__ZNSt3__117__compressed_pairINS_12basic_stringIcNS_11char_traitsIcEENS_9allocatorIcEEE5__repES5_E6secondB6v15006Ev ## -- Begin function _ZNSt3__117__compressed_pairINS_12basic_stringIcNS_11char_traitsIcEENS_9allocatorIcEEE5__repES5_E6secondB6v15006Ev
	.globl	__ZNSt3__117__compressed_pairINS_12basic_stringIcNS_11char_traitsIcEENS_9allocatorIcEEE5__repES5_E6secondB6v15006Ev
	.weak_definition	__ZNSt3__117__compressed_pairINS_12basic_stringIcNS_11char_traitsIcEENS_9allocatorIcEEE5__repES5_E6secondB6v15006Ev
	.p2align	4, 0x90
__ZNSt3__117__compressed_pairINS_12basic_stringIcNS_11char_traitsIcEENS_9allocatorIcEEE5__repES5_E6secondB6v15006Ev: ## @_ZNSt3__117__compressed_pairINS_12basic_stringIcNS_11char_traitsIcEENS_9allocatorIcEEE5__repES5_E6secondB6v15006Ev
Lfunc_begin35:
	.loc	7 130 0 is_stmt 1               ## /Applications/Xcode.app/Contents/Developer/Platforms/MacOSX.platform/Developer/SDKs/MacOSX.sdk/usr/include/c++/v1/__memory/compressed_pair.h:130:0
	.cfi_startproc
## %bb.0:
	pushq	%rbp
	.cfi_def_cfa_offset 16
	.cfi_offset %rbp, -16
	movq	%rsp, %rbp
	.cfi_def_cfa_register %rbp
	subq	$16, %rsp
	movq	%rdi, -8(%rbp)
	movq	-8(%rbp), %rdi
Ltmp181:
	.loc	7 131 40 prologue_end           ## /Applications/Xcode.app/Contents/Developer/Platforms/MacOSX.platform/Developer/SDKs/MacOSX.sdk/usr/include/c++/v1/__memory/compressed_pair.h:131:40
	callq	__ZNSt3__122__compressed_pair_elemINS_9allocatorIcEELi1ELb1EE5__getB6v15006Ev
	.loc	7 131 5 is_stmt 0               ## /Applications/Xcode.app/Contents/Developer/Platforms/MacOSX.platform/Developer/SDKs/MacOSX.sdk/usr/include/c++/v1/__memory/compressed_pair.h:131:5
	addq	$16, %rsp
	popq	%rbp
	retq
Ltmp182:
Lfunc_end35:
	.cfi_endproc
                                        ## -- End function
	.private_extern	__ZNSt3__122__compressed_pair_elemINS_9allocatorIcEELi1ELb1EE5__getB6v15006Ev ## -- Begin function _ZNSt3__122__compressed_pair_elemINS_9allocatorIcEELi1ELb1EE5__getB6v15006Ev
	.globl	__ZNSt3__122__compressed_pair_elemINS_9allocatorIcEELi1ELb1EE5__getB6v15006Ev
	.weak_definition	__ZNSt3__122__compressed_pair_elemINS_9allocatorIcEELi1ELb1EE5__getB6v15006Ev
	.p2align	4, 0x90
__ZNSt3__122__compressed_pair_elemINS_9allocatorIcEELi1ELb1EE5__getB6v15006Ev: ## @_ZNSt3__122__compressed_pair_elemINS_9allocatorIcEELi1ELb1EE5__getB6v15006Ev
Lfunc_begin36:
	.loc	7 78 0 is_stmt 1                ## /Applications/Xcode.app/Contents/Developer/Platforms/MacOSX.platform/Developer/SDKs/MacOSX.sdk/usr/include/c++/v1/__memory/compressed_pair.h:78:0
	.cfi_startproc
## %bb.0:
	pushq	%rbp
	.cfi_def_cfa_offset 16
	.cfi_offset %rbp, -16
	movq	%rsp, %rbp
	.cfi_def_cfa_register %rbp
	movq	%rdi, -8(%rbp)
	movq	-8(%rbp), %rax
Ltmp183:
	.loc	7 78 85 prologue_end            ## /Applications/Xcode.app/Contents/Developer/Platforms/MacOSX.platform/Developer/SDKs/MacOSX.sdk/usr/include/c++/v1/__memory/compressed_pair.h:78:85
	popq	%rbp
	retq
Ltmp184:
Lfunc_end36:
	.cfi_endproc
                                        ## -- End function
	.globl	_SipMessageDecoder_decode       ## @SipMessageDecoder_decode
.zerofill __DATA,__common,_SipMessageDecoder_decode,8,3
	.globl	_SipMessageEncodingMap_constructor ## @SipMessageEncodingMap_constructor
.zerofill __DATA,__common,_SipMessageEncodingMap_constructor,8,3
	.section	__TEXT,__cstring,cstring_literals
L_.str:                                 ## @.str
	.asciz	"Unable to retrieve task_info, %d\n"

L_.str.1:                               ## @.str.1
	.asciz	"__LINKEDIT"

L_.str.2:                               ## @.str.2
	.asciz	"__TEXT"

L_.str.3:                               ## @.str.3
	.asciz	"/System/Library/PrivateFrameworks/IPTelephony.framework/Support/libIPTelephony.dylib"

L_.str.4:                               ## @.str.4
	.asciz	"Error loading libIPTelephony.dylib\n"

L_.str.5:                               ## @.str.5
	.asciz	"Loaded libIPTelephony.dylib at %p\n"

L_.str.6:                               ## @.str.6
	.asciz	"__ZN17SipMessageDecoder6decodeERKNSt3__112basic_stringIcNS0_11char_traitsIcEENS0_9allocatorIcEEEEPP10SipMessagePb"

L_.str.7:                               ## @.str.7
	.asciz	"Symbol lookup failed\n"

L_.str.8:                               ## @.str.8
	.asciz	"__ZN20SipMultiStringHeader18setValueFromStringERKNSt3__112basic_stringIcNS0_11char_traitsIcEENS0_9allocatorIcEEEE"

L_.str.9:                               ## @.str.9
	.asciz	"rb"

L_.str.10:                              ## @.str.10
	.asciz	"Error opening %s\n"

L_.str.11:                              ## @.str.11
	.asciz	"Usage: %s <input file>\n"

L_.str.12:                              ## @.str.12
	.asciz	"Running decoder\n"

L_.str.13:                              ## @.str.13
	.asciz	"Done\n"

	.file	72 "/Applications/Xcode.app/Contents/Developer/Platforms/MacOSX.platform/Developer/SDKs/MacOSX.sdk/usr/include/mach" "message.h"
	.file	73 "/Applications/Xcode.app/Contents/Developer/Platforms/MacOSX.platform/Developer/SDKs/MacOSX.sdk/usr/include/mach/i386" "kern_return.h"