	.section	__TEXT,__text,regular,pure_instructions
	.build_version macos, 13, 0	sdk_version 13, 3
	.globl	__Z7handleri                    ## -- Begin function _Z7handleri
	.p2align	4, 0x90
__Z7handleri:                           ## @_Z7handleri
	.cfi_startproc
## %bb.0:
	pushq	%rbp
	.cfi_def_cfa_offset 16
	.cfi_offset %rbp, -16
	movq	%rsp, %rbp
	.cfi_def_cfa_register %rbp
	subq	$16, %rsp
	movl	%edi, -4(%rbp)
	movq	__ZNSt3__14coutE@GOTPCREL(%rip), %rdi
	leaq	L_.str(%rip), %rsi
	callq	__ZNSt3__1lsINS_11char_traitsIcEEEERNS_13basic_ostreamIcT_EES6_PKc
	movq	%rax, %rdi
	movl	-4(%rbp), %esi
	callq	__ZNSt3__113basic_ostreamIcNS_11char_traitsIcEEElsEi
	movq	%rax, %rdi
	leaq	L_.str.1(%rip), %rsi
	callq	__ZNSt3__1lsINS_11char_traitsIcEEEERNS_13basic_ostreamIcT_EES6_PKc
	movq	%rax, %rdi
	movq	__ZNSt3__14endlIcNS_11char_traitsIcEEEERNS_13basic_ostreamIT_T0_EES7_@GOTPCREL(%rip), %rsi
	callq	__ZNSt3__113basic_ostreamIcNS_11char_traitsIcEEElsB6v15006EPFRS3_S4_E
	movq	__ZNSt3__14coutE@GOTPCREL(%rip), %rdi
	leaq	L_.str.2(%rip), %rsi
	callq	__ZNSt3__1lsINS_11char_traitsIcEEEERNS_13basic_ostreamIcT_EES6_PKc
	movq	%rax, %rdi
	movq	__ZNSt3__14endlIcNS_11char_traitsIcEEEERNS_13basic_ostreamIT_T0_EES7_@GOTPCREL(%rip), %rsi
	callq	__ZNSt3__113basic_ostreamIcNS_11char_traitsIcEEElsB6v15006EPFRS3_S4_E
	movl	$0, -8(%rbp)
LBB0_1:                                 ## =>This Inner Loop Header: Depth=1
	cmpl	$10, -8(%rbp)
	jge	LBB0_4
## %bb.2:                               ##   in Loop: Header=BB0_1 Depth=1
	movq	__ZNSt3__14coutE@GOTPCREL(%rip), %rdi
	leaq	L_.str.3(%rip), %rsi
	callq	__ZNSt3__1lsINS_11char_traitsIcEEEERNS_13basic_ostreamIcT_EES6_PKc
## %bb.3:                               ##   in Loop: Header=BB0_1 Depth=1
	movl	-8(%rbp), %eax
	addl	$1, %eax
	movl	%eax, -8(%rbp)
	jmp	LBB0_1
LBB0_4:
	movq	__ZNSt3__14coutE@GOTPCREL(%rip), %rdi
	movq	__ZNSt3__14endlIcNS_11char_traitsIcEEEERNS_13basic_ostreamIT_T0_EES7_@GOTPCREL(%rip), %rsi
	callq	__ZNSt3__113basic_ostreamIcNS_11char_traitsIcEEElsB6v15006EPFRS3_S4_E
	movl	$1, %edi
	callq	_exit
	.cfi_endproc
                                        ## -- End function
	.globl	__ZNSt3__1lsINS_11char_traitsIcEEEERNS_13basic_ostreamIcT_EES6_PKc ## -- Begin function _ZNSt3__1lsINS_11char_traitsIcEEEERNS_13basic_ostreamIcT_EES6_PKc
	.weak_definition	__ZNSt3__1lsINS_11char_traitsIcEEEERNS_13basic_ostreamIcT_EES6_PKc
	.p2align	4, 0x90
__ZNSt3__1lsINS_11char_traitsIcEEEERNS_13basic_ostreamIcT_EES6_PKc: ## @_ZNSt3__1lsINS_11char_traitsIcEEEERNS_13basic_ostreamIcT_EES6_PKc
	.cfi_startproc
## %bb.0:
	pushq	%rbp
	.cfi_def_cfa_offset 16
	.cfi_offset %rbp, -16
	movq	%rsp, %rbp
	.cfi_def_cfa_register %rbp
	subq	$32, %rsp
	movq	%rdi, -8(%rbp)
	movq	%rsi, -16(%rbp)
	movq	-8(%rbp), %rax
	movq	%rax, -32(%rbp)                 ## 8-byte Spill
	movq	-16(%rbp), %rax
	movq	%rax, -24(%rbp)                 ## 8-byte Spill
	movq	-16(%rbp), %rdi
	callq	__ZNSt3__111char_traitsIcE6lengthEPKc
	movq	-32(%rbp), %rdi                 ## 8-byte Reload
	movq	-24(%rbp), %rsi                 ## 8-byte Reload
	movq	%rax, %rdx
	callq	__ZNSt3__124__put_character_sequenceIcNS_11char_traitsIcEEEERNS_13basic_ostreamIT_T0_EES7_PKS4_m
	addq	$32, %rsp
	popq	%rbp
	retq
	.cfi_endproc
                                        ## -- End function
	.private_extern	__ZNSt3__113basic_ostreamIcNS_11char_traitsIcEEElsB6v15006EPFRS3_S4_E ## -- Begin function _ZNSt3__113basic_ostreamIcNS_11char_traitsIcEEElsB6v15006EPFRS3_S4_E
	.globl	__ZNSt3__113basic_ostreamIcNS_11char_traitsIcEEElsB6v15006EPFRS3_S4_E
	.weak_definition	__ZNSt3__113basic_ostreamIcNS_11char_traitsIcEEElsB6v15006EPFRS3_S4_E
	.p2align	4, 0x90
__ZNSt3__113basic_ostreamIcNS_11char_traitsIcEEElsB6v15006EPFRS3_S4_E: ## @_ZNSt3__113basic_ostreamIcNS_11char_traitsIcEEElsB6v15006EPFRS3_S4_E
	.cfi_startproc
## %bb.0:
	pushq	%rbp
	.cfi_def_cfa_offset 16
	.cfi_offset %rbp, -16
	movq	%rsp, %rbp
	.cfi_def_cfa_register %rbp
	subq	$16, %rsp
	movq	%rdi, -8(%rbp)
	movq	%rsi, -16(%rbp)
	movq	-8(%rbp), %rdi
	callq	*-16(%rbp)
	addq	$16, %rsp
	popq	%rbp
	retq
	.cfi_endproc
                                        ## -- End function
	.globl	__ZNSt3__14endlIcNS_11char_traitsIcEEEERNS_13basic_ostreamIT_T0_EES7_ ## -- Begin function _ZNSt3__14endlIcNS_11char_traitsIcEEEERNS_13basic_ostreamIT_T0_EES7_
	.weak_definition	__ZNSt3__14endlIcNS_11char_traitsIcEEEERNS_13basic_ostreamIT_T0_EES7_
	.p2align	4, 0x90
__ZNSt3__14endlIcNS_11char_traitsIcEEEERNS_13basic_ostreamIT_T0_EES7_: ## @_ZNSt3__14endlIcNS_11char_traitsIcEEEERNS_13basic_ostreamIT_T0_EES7_
	.cfi_startproc
## %bb.0:
	pushq	%rbp
	.cfi_def_cfa_offset 16
	.cfi_offset %rbp, -16
	movq	%rsp, %rbp
	.cfi_def_cfa_register %rbp
	subq	$16, %rsp
	movq	%rdi, -8(%rbp)
	movq	-8(%rbp), %rax
	movq	%rax, -16(%rbp)                 ## 8-byte Spill
	movq	-8(%rbp), %rdi
	movq	(%rdi), %rax
	movq	-24(%rax), %rax
	addq	%rax, %rdi
	movl	$10, %esi
	callq	__ZNKSt3__19basic_iosIcNS_11char_traitsIcEEE5widenB6v15006Ec
	movq	-16(%rbp), %rdi                 ## 8-byte Reload
	movsbl	%al, %esi
	callq	__ZNSt3__113basic_ostreamIcNS_11char_traitsIcEEE3putEc
	movq	-8(%rbp), %rdi
	callq	__ZNSt3__113basic_ostreamIcNS_11char_traitsIcEEE5flushEv
	movq	-8(%rbp), %rax
	addq	$16, %rsp
	popq	%rbp
	retq
	.cfi_endproc
                                        ## -- End function
	.globl	_main                           ## -- Begin function main
	.p2align	4, 0x90
_main:                                  ## @main
	.cfi_startproc
## %bb.0:
	pushq	%rbp
	.cfi_def_cfa_offset 16
	.cfi_offset %rbp, -16
	movq	%rsp, %rbp
	.cfi_def_cfa_register %rbp
	subq	$16, %rsp
	movl	$0, -4(%rbp)
	movl	$4, %edi
	leaq	__Z7handleri(%rip), %rsi
	callq	_signal
	## InlineAsm Start
	ud2
	## InlineAsm End
	xorl	%eax, %eax
	addq	$16, %rsp
	popq	%rbp
	retq
	.cfi_endproc
                                        ## -- End function
	.globl	__ZNSt3__124__put_character_sequenceIcNS_11char_traitsIcEEEERNS_13basic_ostreamIT_T0_EES7_PKS4_m ## -- Begin function _ZNSt3__124__put_character_sequenceIcNS_11char_traitsIcEEEERNS_13basic_ostreamIT_T0_EES7_PKS4_m
	.weak_definition	__ZNSt3__124__put_character_sequenceIcNS_11char_traitsIcEEEERNS_13basic_ostreamIT_T0_EES7_PKS4_m
	.p2align	4, 0x90
__ZNSt3__124__put_character_sequenceIcNS_11char_traitsIcEEEERNS_13basic_ostreamIT_T0_EES7_PKS4_m: ## @_ZNSt3__124__put_character_sequenceIcNS_11char_traitsIcEEEERNS_13basic_ostreamIT_T0_EES7_PKS4_m
Lfunc_begin0:
	.cfi_startproc
	.cfi_personality 155, ___gxx_personality_v0
	.cfi_lsda 16, Lexception0
## %bb.0:
	pushq	%rbp
	.cfi_def_cfa_offset 16
	.cfi_offset %rbp, -16
	movq	%rsp, %rbp
	.cfi_def_cfa_register %rbp
	subq	$144, %rsp
	movq	%rdi, -8(%rbp)
	movq	%rsi, -16(%rbp)
	movq	%rdx, -24(%rbp)
	movq	-8(%rbp), %rsi
Ltmp0:
	leaq	-40(%rbp), %rdi
	callq	__ZNSt3__113basic_ostreamIcNS_11char_traitsIcEEE6sentryC1ERS3_
Ltmp1:
	jmp	LBB5_1
LBB5_1:
Ltmp2:
	leaq	-40(%rbp), %rdi
	callq	__ZNKSt3__113basic_ostreamIcNS_11char_traitsIcEEE6sentrycvbB6v15006Ev
Ltmp3:
	movb	%al, -73(%rbp)                  ## 1-byte Spill
	jmp	LBB5_2
LBB5_2:
	movb	-73(%rbp), %al                  ## 1-byte Reload
	testb	$1, %al
	jne	LBB5_3
	jmp	LBB5_15
LBB5_3:
	movq	-8(%rbp), %rsi
	leaq	-72(%rbp), %rdi
	callq	__ZNSt3__119ostreambuf_iteratorIcNS_11char_traitsIcEEEC1B6v15006ERNS_13basic_ostreamIcS2_EE
	movq	-16(%rbp), %rax
	movq	%rax, -88(%rbp)                 ## 8-byte Spill
	movq	-8(%rbp), %rdi
	movq	(%rdi), %rax
	movq	-24(%rax), %rax
	addq	%rax, %rdi
Ltmp4:
	callq	__ZNKSt3__18ios_base5flagsB6v15006Ev
Ltmp5:
	movl	%eax, -80(%rbp)                 ## 4-byte Spill
	jmp	LBB5_4
LBB5_4:
	movl	-80(%rbp), %eax                 ## 4-byte Reload
	andl	$176, %eax
	cmpl	$32, %eax
	jne	LBB5_6
## %bb.5:
	movq	-16(%rbp), %rax
	addq	-24(%rbp), %rax
	movq	%rax, -96(%rbp)                 ## 8-byte Spill
	jmp	LBB5_7
LBB5_6:
	movq	-16(%rbp), %rax
	movq	%rax, -96(%rbp)                 ## 8-byte Spill
LBB5_7:
	movq	-96(%rbp), %rax                 ## 8-byte Reload
	movq	%rax, -128(%rbp)                ## 8-byte Spill
	movq	-16(%rbp), %rax
	movq	-24(%rbp), %rcx
	addq	%rcx, %rax
	movq	%rax, -120(%rbp)                ## 8-byte Spill
	movq	-8(%rbp), %rdi
	movq	(%rdi), %rax
	movq	-24(%rax), %rax
	addq	%rax, %rdi
	movq	%rdi, -112(%rbp)                ## 8-byte Spill
Ltmp6:
	callq	__ZNKSt3__19basic_iosIcNS_11char_traitsIcEEE4fillB6v15006Ev
Ltmp7:
	movb	%al, -97(%rbp)                  ## 1-byte Spill
	jmp	LBB5_8
LBB5_8:
	movq	-112(%rbp), %r8                 ## 8-byte Reload
	movq	-120(%rbp), %rcx                ## 8-byte Reload
	movq	-128(%rbp), %rdx                ## 8-byte Reload
	movq	-88(%rbp), %rsi                 ## 8-byte Reload
	movb	-97(%rbp), %al                  ## 1-byte Reload
	movq	-72(%rbp), %rdi
Ltmp8:
	movsbl	%al, %r9d
	callq	__ZNSt3__116__pad_and_outputIcNS_11char_traitsIcEEEENS_19ostreambuf_iteratorIT_T0_EES6_PKS4_S8_S8_RNS_8ios_baseES4_
Ltmp9:
	movq	%rax, -136(%rbp)                ## 8-byte Spill
	jmp	LBB5_9
LBB5_9:
	movq	-136(%rbp), %rax                ## 8-byte Reload
	movq	%rax, -64(%rbp)
	leaq	-64(%rbp), %rdi
	callq	__ZNKSt3__119ostreambuf_iteratorIcNS_11char_traitsIcEEE6failedB6v15006Ev
	testb	$1, %al
	jne	LBB5_10
	jmp	LBB5_14
LBB5_10:
	movq	-8(%rbp), %rdi
	movq	(%rdi), %rax
	movq	-24(%rax), %rax
	addq	%rax, %rdi
Ltmp10:
	movl	$5, %esi
	callq	__ZNSt3__19basic_iosIcNS_11char_traitsIcEEE8setstateB6v15006Ej
Ltmp11:
	jmp	LBB5_11
LBB5_11:
	jmp	LBB5_14
LBB5_12:
Ltmp17:
	movq	%rax, %rcx
	movl	%edx, %eax
	movq	%rcx, -48(%rbp)
	movl	%eax, -52(%rbp)
	jmp	LBB5_18
LBB5_13:
Ltmp12:
	movq	%rax, %rcx
	movl	%edx, %eax
	movq	%rcx, -48(%rbp)
	movl	%eax, -52(%rbp)
Ltmp13:
	leaq	-40(%rbp), %rdi
	callq	__ZNSt3__113basic_ostreamIcNS_11char_traitsIcEEE6sentryD1Ev
Ltmp14:
	jmp	LBB5_17
LBB5_14:
	jmp	LBB5_15
LBB5_15:
Ltmp15:
	leaq	-40(%rbp), %rdi
	callq	__ZNSt3__113basic_ostreamIcNS_11char_traitsIcEEE6sentryD1Ev
Ltmp16:
	jmp	LBB5_16
LBB5_16:
	jmp	LBB5_20
LBB5_17:
	jmp	LBB5_18
LBB5_18:
	movq	-48(%rbp), %rdi
	callq	___cxa_begin_catch
	movq	-8(%rbp), %rdi
	movq	(%rdi), %rax
	movq	-24(%rax), %rax
	addq	%rax, %rdi
Ltmp18:
	callq	__ZNSt3__18ios_base33__set_badbit_and_consider_rethrowEv
Ltmp19:
	jmp	LBB5_19
LBB5_19:
	callq	___cxa_end_catch
LBB5_20:
	movq	-8(%rbp), %rax
	addq	$144, %rsp
	popq	%rbp
	retq
LBB5_21:
Ltmp20:
	movq	%rax, %rcx
	movl	%edx, %eax
	movq	%rcx, -48(%rbp)
	movl	%eax, -52(%rbp)
Ltmp21:
	callq	___cxa_end_catch
Ltmp22:
	jmp	LBB5_22
LBB5_22:
	jmp	LBB5_23
LBB5_23:
	movq	-48(%rbp), %rdi
	callq	__Unwind_Resume
LBB5_24:
Ltmp23:
	movq	%rax, %rdi
	callq	___clang_call_terminate
Lfunc_end0:
	.cfi_endproc
	.section	__TEXT,__gcc_except_tab
	.p2align	2
GCC_except_table5:
Lexception0:
	.byte	255                             ## @LPStart Encoding = omit
	.byte	155                             ## @TType Encoding = indirect pcrel sdata4
	.uleb128 Lttbase0-Lttbaseref0
Lttbaseref0:
	.byte	1                               ## Call site Encoding = uleb128
	.uleb128 Lcst_end0-Lcst_begin0
Lcst_begin0:
	.uleb128 Ltmp0-Lfunc_begin0             ## >> Call Site 1 <<
	.uleb128 Ltmp1-Ltmp0                    ##   Call between Ltmp0 and Ltmp1
	.uleb128 Ltmp17-Lfunc_begin0            ##     jumps to Ltmp17
	.byte	1                               ##   On action: 1
	.uleb128 Ltmp2-Lfunc_begin0             ## >> Call Site 2 <<
	.uleb128 Ltmp11-Ltmp2                   ##   Call between Ltmp2 and Ltmp11
	.uleb128 Ltmp12-Lfunc_begin0            ##     jumps to Ltmp12
	.byte	1                               ##   On action: 1
	.uleb128 Ltmp13-Lfunc_begin0            ## >> Call Site 3 <<
	.uleb128 Ltmp14-Ltmp13                  ##   Call between Ltmp13 and Ltmp14
	.uleb128 Ltmp23-Lfunc_begin0            ##     jumps to Ltmp23
	.byte	1                               ##   On action: 1
	.uleb128 Ltmp15-Lfunc_begin0            ## >> Call Site 4 <<
	.uleb128 Ltmp16-Ltmp15                  ##   Call between Ltmp15 and Ltmp16
	.uleb128 Ltmp17-Lfunc_begin0            ##     jumps to Ltmp17
	.byte	1                               ##   On action: 1
	.uleb128 Ltmp16-Lfunc_begin0            ## >> Call Site 5 <<
	.uleb128 Ltmp18-Ltmp16                  ##   Call between Ltmp16 and Ltmp18
	.byte	0                               ##     has no landing pad
	.byte	0                               ##   On action: cleanup
	.uleb128 Ltmp18-Lfunc_begin0            ## >> Call Site 6 <<
	.uleb128 Ltmp19-Ltmp18                  ##   Call between Ltmp18 and Ltmp19
	.uleb128 Ltmp20-Lfunc_begin0            ##     jumps to Ltmp20
	.byte	0                               ##   On action: cleanup
	.uleb128 Ltmp19-Lfunc_begin0            ## >> Call Site 7 <<
	.uleb128 Ltmp21-Ltmp19                  ##   Call between Ltmp19 and Ltmp21
	.byte	0                               ##     has no landing pad
	.byte	0                               ##   On action: cleanup
	.uleb128 Ltmp21-Lfunc_begin0            ## >> Call Site 8 <<
	.uleb128 Ltmp22-Ltmp21                  ##   Call between Ltmp21 and Ltmp22
	.uleb128 Ltmp23-Lfunc_begin0            ##     jumps to Ltmp23
	.byte	1                               ##   On action: 1
	.uleb128 Ltmp22-Lfunc_begin0            ## >> Call Site 9 <<
	.uleb128 Lfunc_end0-Ltmp22              ##   Call between Ltmp22 and Lfunc_end0
	.byte	0                               ##     has no landing pad
	.byte	0                               ##   On action: cleanup
Lcst_end0:
	.byte	1                               ## >> Action Record 1 <<
                                        ##   Catch TypeInfo 1
	.byte	0                               ##   No further actions
	.p2align	2
                                        ## >> Catch TypeInfos <<
	.long	0                               ## TypeInfo 1
Lttbase0:
	.p2align	2
                                        ## -- End function
	.section	__TEXT,__text,regular,pure_instructions
	.globl	__ZNSt3__111char_traitsIcE6lengthEPKc ## -- Begin function _ZNSt3__111char_traitsIcE6lengthEPKc
	.weak_definition	__ZNSt3__111char_traitsIcE6lengthEPKc
	.p2align	4, 0x90
__ZNSt3__111char_traitsIcE6lengthEPKc:  ## @_ZNSt3__111char_traitsIcE6lengthEPKc
	.cfi_startproc
## %bb.0:
	pushq	%rbp
	.cfi_def_cfa_offset 16
	.cfi_offset %rbp, -16
	movq	%rsp, %rbp
	.cfi_def_cfa_register %rbp
	subq	$16, %rsp
	movq	%rdi, -8(%rbp)
	movq	-8(%rbp), %rdi
	callq	_strlen
	addq	$16, %rsp
	popq	%rbp
	retq
	.cfi_endproc
                                        ## -- End function
	.private_extern	__ZNKSt3__113basic_ostreamIcNS_11char_traitsIcEEE6sentrycvbB6v15006Ev ## -- Begin function _ZNKSt3__113basic_ostreamIcNS_11char_traitsIcEEE6sentrycvbB6v15006Ev
	.globl	__ZNKSt3__113basic_ostreamIcNS_11char_traitsIcEEE6sentrycvbB6v15006Ev
	.weak_definition	__ZNKSt3__113basic_ostreamIcNS_11char_traitsIcEEE6sentrycvbB6v15006Ev
	.p2align	4, 0x90
__ZNKSt3__113basic_ostreamIcNS_11char_traitsIcEEE6sentrycvbB6v15006Ev: ## @_ZNKSt3__113basic_ostreamIcNS_11char_traitsIcEEE6sentrycvbB6v15006Ev
	.cfi_startproc
## %bb.0:
	pushq	%rbp
	.cfi_def_cfa_offset 16
	.cfi_offset %rbp, -16
	movq	%rsp, %rbp
	.cfi_def_cfa_register %rbp
	movq	%rdi, -8(%rbp)
	movq	-8(%rbp), %rax
	movb	(%rax), %al
	andb	$1, %al
	movzbl	%al, %eax
	popq	%rbp
	retq
	.cfi_endproc
                                        ## -- End function
	.private_extern	__ZNSt3__116__pad_and_outputIcNS_11char_traitsIcEEEENS_19ostreambuf_iteratorIT_T0_EES6_PKS4_S8_S8_RNS_8ios_baseES4_ ## -- Begin function _ZNSt3__116__pad_and_outputIcNS_11char_traitsIcEEEENS_19ostreambuf_iteratorIT_T0_EES6_PKS4_S8_S8_RNS_8ios_baseES4_
	.globl	__ZNSt3__116__pad_and_outputIcNS_11char_traitsIcEEEENS_19ostreambuf_iteratorIT_T0_EES6_PKS4_S8_S8_RNS_8ios_baseES4_
	.weak_definition	__ZNSt3__116__pad_and_outputIcNS_11char_traitsIcEEEENS_19ostreambuf_iteratorIT_T0_EES6_PKS4_S8_S8_RNS_8ios_baseES4_
	.p2align	4, 0x90
__ZNSt3__116__pad_and_outputIcNS_11char_traitsIcEEEENS_19ostreambuf_iteratorIT_T0_EES6_PKS4_S8_S8_RNS_8ios_baseES4_: ## @_ZNSt3__116__pad_and_outputIcNS_11char_traitsIcEEEENS_19ostreambuf_iteratorIT_T0_EES6_PKS4_S8_S8_RNS_8ios_baseES4_
Lfunc_begin1:
	.cfi_startproc
	.cfi_personality 155, ___gxx_personality_v0
	.cfi_lsda 16, Lexception1
## %bb.0:
	pushq	%rbp
	.cfi_def_cfa_offset 16
	.cfi_offset %rbp, -16
	movq	%rsp, %rbp
	.cfi_def_cfa_register %rbp
	subq	$144, %rsp
	movb	%r9b, %al
	movq	%rdi, -16(%rbp)
	movq	%rsi, -24(%rbp)
	movq	%rdx, -32(%rbp)
	movq	%rcx, -40(%rbp)
	movq	%r8, -48(%rbp)
	movb	%al, -49(%rbp)
	cmpq	$0, -16(%rbp)
	jne	LBB8_2
## %bb.1:
	movq	-16(%rbp), %rax
	movq	%rax, -8(%rbp)
	jmp	LBB8_23
LBB8_2:
	movq	-40(%rbp), %rax
	movq	-24(%rbp), %rcx
	subq	%rcx, %rax
	movq	%rax, -64(%rbp)
	movq	-48(%rbp), %rdi
	callq	__ZNKSt3__18ios_base5widthB6v15006Ev
	movq	%rax, -72(%rbp)
	movq	-72(%rbp), %rax
	cmpq	-64(%rbp), %rax
	jle	LBB8_4
## %bb.3:
	movq	-64(%rbp), %rcx
	movq	-72(%rbp), %rax
	subq	%rcx, %rax
	movq	%rax, -72(%rbp)
	jmp	LBB8_5
LBB8_4:
	movq	$0, -72(%rbp)
LBB8_5:
	movq	-32(%rbp), %rax
	movq	-24(%rbp), %rcx
	subq	%rcx, %rax
	movq	%rax, -80(%rbp)
	cmpq	$0, -80(%rbp)
	jle	LBB8_9
## %bb.6:
	movq	-16(%rbp), %rdi
	movq	-24(%rbp), %rsi
	movq	-80(%rbp), %rdx
	callq	__ZNSt3__115basic_streambufIcNS_11char_traitsIcEEE5sputnB6v15006EPKcl
	cmpq	-80(%rbp), %rax
	je	LBB8_8
## %bb.7:
	movq	$0, -16(%rbp)
	movq	-16(%rbp), %rax
	movq	%rax, -8(%rbp)
	jmp	LBB8_23
LBB8_8:
	jmp	LBB8_9
LBB8_9:
	cmpq	$0, -72(%rbp)
	jle	LBB8_18
## %bb.10:
	movq	-72(%rbp), %rsi
	movsbl	-49(%rbp), %edx
	leaq	-104(%rbp), %rdi
	movq	%rdi, -144(%rbp)                ## 8-byte Spill
	callq	__ZNSt3__112basic_stringIcNS_11char_traitsIcEENS_9allocatorIcEEEC1B6v15006Emc
	movq	-144(%rbp), %rdi                ## 8-byte Reload
	movq	-16(%rbp), %rax
	movq	%rax, -136(%rbp)                ## 8-byte Spill
	callq	__ZNKSt3__112basic_stringIcNS_11char_traitsIcEENS_9allocatorIcEEE4dataB6v15006Ev
	movq	-136(%rbp), %rdi                ## 8-byte Reload
	movq	%rax, %rsi
	movq	-72(%rbp), %rdx
Ltmp24:
	callq	__ZNSt3__115basic_streambufIcNS_11char_traitsIcEEE5sputnB6v15006EPKcl
Ltmp25:
	movq	%rax, -128(%rbp)                ## 8-byte Spill
	jmp	LBB8_11
LBB8_11:
	movq	-128(%rbp), %rax                ## 8-byte Reload
	cmpq	-72(%rbp), %rax
	je	LBB8_14
## %bb.12:
	movq	$0, -16(%rbp)
	movq	-16(%rbp), %rax
	movq	%rax, -8(%rbp)
	movl	$1, -120(%rbp)
	jmp	LBB8_15
LBB8_13:
Ltmp26:
	movq	%rax, %rcx
	movl	%edx, %eax
	movq	%rcx, -112(%rbp)
	movl	%eax, -116(%rbp)
Ltmp27:
	leaq	-104(%rbp), %rdi
	callq	__ZNSt3__112basic_stringIcNS_11char_traitsIcEENS_9allocatorIcEEED1Ev
Ltmp28:
	jmp	LBB8_17
LBB8_14:
	movl	$0, -120(%rbp)
LBB8_15:
	leaq	-104(%rbp), %rdi
	callq	__ZNSt3__112basic_stringIcNS_11char_traitsIcEENS_9allocatorIcEEED1Ev
	movl	-120(%rbp), %eax
	testl	%eax, %eax
	je	LBB8_16
	jmp	LBB8_27
LBB8_27:
	jmp	LBB8_23
LBB8_16:
	jmp	LBB8_18
LBB8_17:
	jmp	LBB8_24
LBB8_18:
	movq	-40(%rbp), %rax
	movq	-32(%rbp), %rcx
	subq	%rcx, %rax
	movq	%rax, -80(%rbp)
	cmpq	$0, -80(%rbp)
	jle	LBB8_22
## %bb.19:
	movq	-16(%rbp), %rdi
	movq	-32(%rbp), %rsi
	movq	-80(%rbp), %rdx
	callq	__ZNSt3__115basic_streambufIcNS_11char_traitsIcEEE5sputnB6v15006EPKcl
	cmpq	-80(%rbp), %rax
	je	LBB8_21
## %bb.20:
	movq	$0, -16(%rbp)
	movq	-16(%rbp), %rax
	movq	%rax, -8(%rbp)
	jmp	LBB8_23
LBB8_21:
	jmp	LBB8_22
LBB8_22:
	movq	-48(%rbp), %rdi
	xorl	%eax, %eax
	movl	%eax, %esi
	callq	__ZNSt3__18ios_base5widthB6v15006El
	movq	-16(%rbp), %rax
	movq	%rax, -8(%rbp)
LBB8_23:
	movq	-8(%rbp), %rax
	addq	$144, %rsp
	popq	%rbp
	retq
LBB8_24:
	movq	-112(%rbp), %rdi
	callq	__Unwind_Resume
LBB8_25:
Ltmp29:
	movq	%rax, %rdi
	callq	___clang_call_terminate
## %bb.26:
	ud2
Lfunc_end1:
	.cfi_endproc
	.section	__TEXT,__gcc_except_tab
	.p2align	2
GCC_except_table8:
Lexception1:
	.byte	255                             ## @LPStart Encoding = omit
	.byte	155                             ## @TType Encoding = indirect pcrel sdata4
	.uleb128 Lttbase1-Lttbaseref1
Lttbaseref1:
	.byte	1                               ## Call site Encoding = uleb128
	.uleb128 Lcst_end1-Lcst_begin1
Lcst_begin1:
	.uleb128 Lfunc_begin1-Lfunc_begin1      ## >> Call Site 1 <<
	.uleb128 Ltmp24-Lfunc_begin1            ##   Call between Lfunc_begin1 and Ltmp24
	.byte	0                               ##     has no landing pad
	.byte	0                               ##   On action: cleanup
	.uleb128 Ltmp24-Lfunc_begin1            ## >> Call Site 2 <<
	.uleb128 Ltmp25-Ltmp24                  ##   Call between Ltmp24 and Ltmp25
	.uleb128 Ltmp26-Lfunc_begin1            ##     jumps to Ltmp26
	.byte	0                               ##   On action: cleanup
	.uleb128 Ltmp27-Lfunc_begin1            ## >> Call Site 3 <<
	.uleb128 Ltmp28-Ltmp27                  ##   Call between Ltmp27 and Ltmp28
	.uleb128 Ltmp29-Lfunc_begin1            ##     jumps to Ltmp29
	.byte	1                               ##   On action: 1
	.uleb128 Ltmp28-Lfunc_begin1            ## >> Call Site 4 <<
	.uleb128 Lfunc_end1-Ltmp28              ##   Call between Ltmp28 and Lfunc_end1
	.byte	0                               ##     has no landing pad
	.byte	0                               ##   On action: cleanup
Lcst_end1:
	.byte	1                               ## >> Action Record 1 <<
                                        ##   Catch TypeInfo 1
	.byte	0                               ##   No further actions
	.p2align	2
                                        ## >> Catch TypeInfos <<
	.long	0                               ## TypeInfo 1
Lttbase1:
	.p2align	2
                                        ## -- End function
	.section	__TEXT,__text,regular,pure_instructions
	.private_extern	__ZNSt3__119ostreambuf_iteratorIcNS_11char_traitsIcEEEC1B6v15006ERNS_13basic_ostreamIcS2_EE ## -- Begin function _ZNSt3__119ostreambuf_iteratorIcNS_11char_traitsIcEEEC1B6v15006ERNS_13basic_ostreamIcS2_EE
	.globl	__ZNSt3__119ostreambuf_iteratorIcNS_11char_traitsIcEEEC1B6v15006ERNS_13basic_ostreamIcS2_EE
	.weak_def_can_be_hidden	__ZNSt3__119ostreambuf_iteratorIcNS_11char_traitsIcEEEC1B6v15006ERNS_13basic_ostreamIcS2_EE
	.p2align	4, 0x90
__ZNSt3__119ostreambuf_iteratorIcNS_11char_traitsIcEEEC1B6v15006ERNS_13basic_ostreamIcS2_EE: ## @_ZNSt3__119ostreambuf_iteratorIcNS_11char_traitsIcEEEC1B6v15006ERNS_13basic_ostreamIcS2_EE
	.cfi_startproc
## %bb.0:
	pushq	%rbp
	.cfi_def_cfa_offset 16
	.cfi_offset %rbp, -16
	movq	%rsp, %rbp
	.cfi_def_cfa_register %rbp
	subq	$16, %rsp
	movq	%rdi, -8(%rbp)
	movq	%rsi, -16(%rbp)
	movq	-8(%rbp), %rdi
	movq	-16(%rbp), %rsi
	callq	__ZNSt3__119ostreambuf_iteratorIcNS_11char_traitsIcEEEC2B6v15006ERNS_13basic_ostreamIcS2_EE
	addq	$16, %rsp
	popq	%rbp
	retq
	.cfi_endproc
                                        ## -- End function
	.private_extern	__ZNKSt3__18ios_base5flagsB6v15006Ev ## -- Begin function _ZNKSt3__18ios_base5flagsB6v15006Ev
	.globl	__ZNKSt3__18ios_base5flagsB6v15006Ev
	.weak_definition	__ZNKSt3__18ios_base5flagsB6v15006Ev
	.p2align	4, 0x90
__ZNKSt3__18ios_base5flagsB6v15006Ev:   ## @_ZNKSt3__18ios_base5flagsB6v15006Ev
	.cfi_startproc
## %bb.0:
	pushq	%rbp
	.cfi_def_cfa_offset 16
	.cfi_offset %rbp, -16
	movq	%rsp, %rbp
	.cfi_def_cfa_register %rbp
	movq	%rdi, -8(%rbp)
	movq	-8(%rbp), %rax
	movl	8(%rax), %eax
	popq	%rbp
	retq
	.cfi_endproc
                                        ## -- End function
	.private_extern	__ZNKSt3__19basic_iosIcNS_11char_traitsIcEEE4fillB6v15006Ev ## -- Begin function _ZNKSt3__19basic_iosIcNS_11char_traitsIcEEE4fillB6v15006Ev
	.globl	__ZNKSt3__19basic_iosIcNS_11char_traitsIcEEE4fillB6v15006Ev
	.weak_definition	__ZNKSt3__19basic_iosIcNS_11char_traitsIcEEE4fillB6v15006Ev
	.p2align	4, 0x90
__ZNKSt3__19basic_iosIcNS_11char_traitsIcEEE4fillB6v15006Ev: ## @_ZNKSt3__19basic_iosIcNS_11char_traitsIcEEE4fillB6v15006Ev
	.cfi_startproc
## %bb.0:
	pushq	%rbp
	.cfi_def_cfa_offset 16
	.cfi_offset %rbp, -16
	movq	%rsp, %rbp
	.cfi_def_cfa_register %rbp
	subq	$16, %rsp
	movq	%rdi, -8(%rbp)
	movq	-8(%rbp), %rax
	movq	%rax, -16(%rbp)                 ## 8-byte Spill
	callq	__ZNSt3__111char_traitsIcE3eofEv
	movl	%eax, %edi
	movq	-16(%rbp), %rax                 ## 8-byte Reload
	movl	144(%rax), %esi
	callq	__ZNSt3__111char_traitsIcE11eq_int_typeEii
	testb	$1, %al
	jne	LBB11_1
	jmp	LBB11_2
LBB11_1:
	movq	-16(%rbp), %rdi                 ## 8-byte Reload
	movl	$32, %esi
	callq	__ZNKSt3__19basic_iosIcNS_11char_traitsIcEEE5widenB6v15006Ec
	movb	%al, %cl
	movq	-16(%rbp), %rax                 ## 8-byte Reload
	movsbl	%cl, %ecx
	movl	%ecx, 144(%rax)
LBB11_2:
	movq	-16(%rbp), %rax                 ## 8-byte Reload
	movl	144(%rax), %eax
                                        ## kill: def $al killed $al killed $eax
	movsbl	%al, %eax
	addq	$16, %rsp
	popq	%rbp
	retq
	.cfi_endproc
                                        ## -- End function
	.private_extern	__ZNKSt3__119ostreambuf_iteratorIcNS_11char_traitsIcEEE6failedB6v15006Ev ## -- Begin function _ZNKSt3__119ostreambuf_iteratorIcNS_11char_traitsIcEEE6failedB6v15006Ev
	.globl	__ZNKSt3__119ostreambuf_iteratorIcNS_11char_traitsIcEEE6failedB6v15006Ev
	.weak_definition	__ZNKSt3__119ostreambuf_iteratorIcNS_11char_traitsIcEEE6failedB6v15006Ev
	.p2align	4, 0x90
__ZNKSt3__119ostreambuf_iteratorIcNS_11char_traitsIcEEE6failedB6v15006Ev: ## @_ZNKSt3__119ostreambuf_iteratorIcNS_11char_traitsIcEEE6failedB6v15006Ev
	.cfi_startproc
## %bb.0:
	pushq	%rbp
	.cfi_def_cfa_offset 16
	.cfi_offset %rbp, -16
	movq	%rsp, %rbp
	.cfi_def_cfa_register %rbp
	movq	%rdi, -8(%rbp)
	movq	-8(%rbp), %rax
	cmpq	$0, (%rax)
	sete	%al
	andb	$1, %al
	movzbl	%al, %eax
	popq	%rbp
	retq
	.cfi_endproc
                                        ## -- End function
	.private_extern	__ZNSt3__19basic_iosIcNS_11char_traitsIcEEE8setstateB6v15006Ej ## -- Begin function _ZNSt3__19basic_iosIcNS_11char_traitsIcEEE8setstateB6v15006Ej
	.globl	__ZNSt3__19basic_iosIcNS_11char_traitsIcEEE8setstateB6v15006Ej
	.weak_definition	__ZNSt3__19basic_iosIcNS_11char_traitsIcEEE8setstateB6v15006Ej
	.p2align	4, 0x90
__ZNSt3__19basic_iosIcNS_11char_traitsIcEEE8setstateB6v15006Ej: ## @_ZNSt3__19basic_iosIcNS_11char_traitsIcEEE8setstateB6v15006Ej
	.cfi_startproc
## %bb.0:
	pushq	%rbp
	.cfi_def_cfa_offset 16
	.cfi_offset %rbp, -16
	movq	%rsp, %rbp
	.cfi_def_cfa_register %rbp
	subq	$16, %rsp
	movq	%rdi, -8(%rbp)
	movl	%esi, -12(%rbp)
	movq	-8(%rbp), %rdi
	movl	-12(%rbp), %esi
	callq	__ZNSt3__18ios_base8setstateB6v15006Ej
	addq	$16, %rsp
	popq	%rbp
	retq
	.cfi_endproc
                                        ## -- End function
	.private_extern	___clang_call_terminate ## -- Begin function __clang_call_terminate
	.globl	___clang_call_terminate
	.weak_definition	___clang_call_terminate
	.p2align	4, 0x90
___clang_call_terminate:                ## @__clang_call_terminate
## %bb.0:
	pushq	%rax
	callq	___cxa_begin_catch
	callq	__ZSt9terminatev
                                        ## -- End function
	.private_extern	__ZNKSt3__18ios_base5widthB6v15006Ev ## -- Begin function _ZNKSt3__18ios_base5widthB6v15006Ev
	.globl	__ZNKSt3__18ios_base5widthB6v15006Ev
	.weak_definition	__ZNKSt3__18ios_base5widthB6v15006Ev
	.p2align	4, 0x90
__ZNKSt3__18ios_base5widthB6v15006Ev:   ## @_ZNKSt3__18ios_base5widthB6v15006Ev
	.cfi_startproc
## %bb.0:
	pushq	%rbp
	.cfi_def_cfa_offset 16
	.cfi_offset %rbp, -16
	movq	%rsp, %rbp
	.cfi_def_cfa_register %rbp
	movq	%rdi, -8(%rbp)
	movq	-8(%rbp), %rax
	movq	24(%rax), %rax
	popq	%rbp
	retq
	.cfi_endproc
                                        ## -- End function
	.private_extern	__ZNSt3__115basic_streambufIcNS_11char_traitsIcEEE5sputnB6v15006EPKcl ## -- Begin function _ZNSt3__115basic_streambufIcNS_11char_traitsIcEEE5sputnB6v15006EPKcl
	.globl	__ZNSt3__115basic_streambufIcNS_11char_traitsIcEEE5sputnB6v15006EPKcl
	.weak_definition	__ZNSt3__115basic_streambufIcNS_11char_traitsIcEEE5sputnB6v15006EPKcl
	.p2align	4, 0x90
__ZNSt3__115basic_streambufIcNS_11char_traitsIcEEE5sputnB6v15006EPKcl: ## @_ZNSt3__115basic_streambufIcNS_11char_traitsIcEEE5sputnB6v15006EPKcl
	.cfi_startproc
## %bb.0:
	pushq	%rbp
	.cfi_def_cfa_offset 16
	.cfi_offset %rbp, -16
	movq	%rsp, %rbp
	.cfi_def_cfa_register %rbp
	subq	$32, %rsp
	movq	%rdi, -8(%rbp)
	movq	%rsi, -16(%rbp)
	movq	%rdx, -24(%rbp)
	movq	-8(%rbp), %rdi
	movq	-16(%rbp), %rsi
	movq	-24(%rbp), %rdx
	movq	(%rdi), %rax
	callq	*96(%rax)
	addq	$32, %rsp
	popq	%rbp
	retq
	.cfi_endproc
                                        ## -- End function
	.private_extern	__ZNSt3__112basic_stringIcNS_11char_traitsIcEENS_9allocatorIcEEEC1B6v15006Emc ## -- Begin function _ZNSt3__112basic_stringIcNS_11char_traitsIcEENS_9allocatorIcEEEC1B6v15006Emc
	.globl	__ZNSt3__112basic_stringIcNS_11char_traitsIcEENS_9allocatorIcEEEC1B6v15006Emc
	.weak_def_can_be_hidden	__ZNSt3__112basic_stringIcNS_11char_traitsIcEENS_9allocatorIcEEEC1B6v15006Emc
	.p2align	4, 0x90
__ZNSt3__112basic_stringIcNS_11char_traitsIcEENS_9allocatorIcEEEC1B6v15006Emc: ## @_ZNSt3__112basic_stringIcNS_11char_traitsIcEENS_9allocatorIcEEEC1B6v15006Emc
	.cfi_startproc
## %bb.0:
	pushq	%rbp
	.cfi_def_cfa_offset 16
	.cfi_offset %rbp, -16
	movq	%rsp, %rbp
	.cfi_def_cfa_register %rbp
	subq	$32, %rsp
	movb	%dl, %al
	movq	%rdi, -8(%rbp)
	movq	%rsi, -16(%rbp)
	movb	%al, -17(%rbp)
	movq	-8(%rbp), %rdi
	movq	-16(%rbp), %rsi
	movsbl	-17(%rbp), %edx
	callq	__ZNSt3__112basic_stringIcNS_11char_traitsIcEENS_9allocatorIcEEEC2B6v15006Emc
	addq	$32, %rsp
	popq	%rbp
	retq
	.cfi_endproc
                                        ## -- End function
	.private_extern	__ZNKSt3__112basic_stringIcNS_11char_traitsIcEENS_9allocatorIcEEE4dataB6v15006Ev ## -- Begin function _ZNKSt3__112basic_stringIcNS_11char_traitsIcEENS_9allocatorIcEEE4dataB6v15006Ev
	.globl	__ZNKSt3__112basic_stringIcNS_11char_traitsIcEENS_9allocatorIcEEE4dataB6v15006Ev
	.weak_definition	__ZNKSt3__112basic_stringIcNS_11char_traitsIcEENS_9allocatorIcEEE4dataB6v15006Ev
	.p2align	4, 0x90
__ZNKSt3__112basic_stringIcNS_11char_traitsIcEENS_9allocatorIcEEE4dataB6v15006Ev: ## @_ZNKSt3__112basic_stringIcNS_11char_traitsIcEENS_9allocatorIcEEE4dataB6v15006Ev
	.cfi_startproc
## %bb.0:
	pushq	%rbp
	.cfi_def_cfa_offset 16
	.cfi_offset %rbp, -16
	movq	%rsp, %rbp
	.cfi_def_cfa_register %rbp
	subq	$16, %rsp
	movq	%rdi, -8(%rbp)
	movq	-8(%rbp), %rdi
	callq	__ZNKSt3__112basic_stringIcNS_11char_traitsIcEENS_9allocatorIcEEE13__get_pointerB6v15006Ev
	movq	%rax, %rdi
	callq	__ZNSt3__112__to_addressB6v15006IKcEEPT_S3_
	addq	$16, %rsp
	popq	%rbp
	retq
	.cfi_endproc
                                        ## -- End function
	.private_extern	__ZNSt3__18ios_base5widthB6v15006El ## -- Begin function _ZNSt3__18ios_base5widthB6v15006El
	.globl	__ZNSt3__18ios_base5widthB6v15006El
	.weak_definition	__ZNSt3__18ios_base5widthB6v15006El
	.p2align	4, 0x90
__ZNSt3__18ios_base5widthB6v15006El:    ## @_ZNSt3__18ios_base5widthB6v15006El
	.cfi_startproc
## %bb.0:
	pushq	%rbp
	.cfi_def_cfa_offset 16
	.cfi_offset %rbp, -16
	movq	%rsp, %rbp
	.cfi_def_cfa_register %rbp
	movq	%rdi, -8(%rbp)
	movq	%rsi, -16(%rbp)
	movq	-8(%rbp), %rax
	movq	24(%rax), %rcx
	movq	%rcx, -24(%rbp)
	movq	-16(%rbp), %rcx
	movq	%rcx, 24(%rax)
	movq	-24(%rbp), %rax
	popq	%rbp
	retq
	.cfi_endproc
                                        ## -- End function
	.private_extern	__ZNSt3__112basic_stringIcNS_11char_traitsIcEENS_9allocatorIcEEEC2B6v15006Emc ## -- Begin function _ZNSt3__112basic_stringIcNS_11char_traitsIcEENS_9allocatorIcEEEC2B6v15006Emc
	.globl	__ZNSt3__112basic_stringIcNS_11char_traitsIcEENS_9allocatorIcEEEC2B6v15006Emc
	.weak_def_can_be_hidden	__ZNSt3__112basic_stringIcNS_11char_traitsIcEENS_9allocatorIcEEEC2B6v15006Emc
	.p2align	4, 0x90
__ZNSt3__112basic_stringIcNS_11char_traitsIcEENS_9allocatorIcEEEC2B6v15006Emc: ## @_ZNSt3__112basic_stringIcNS_11char_traitsIcEENS_9allocatorIcEEEC2B6v15006Emc
	.cfi_startproc
## %bb.0:
	pushq	%rbp
	.cfi_def_cfa_offset 16
	.cfi_offset %rbp, -16
	movq	%rsp, %rbp
	.cfi_def_cfa_register %rbp
	subq	$48, %rsp
	movb	%dl, %al
	movq	%rdi, -8(%rbp)
	movq	%rsi, -16(%rbp)
	movb	%al, -17(%rbp)
	movq	-8(%rbp), %rdi
	movq	%rdi, -40(%rbp)                 ## 8-byte Spill
	leaq	-24(%rbp), %rsi
	leaq	-32(%rbp), %rdx
	callq	__ZNSt3__117__compressed_pairINS_12basic_stringIcNS_11char_traitsIcEENS_9allocatorIcEEE5__repES5_EC1B6v15006INS_18__default_init_tagESA_EEOT_OT0_
	movq	-40(%rbp), %rdi                 ## 8-byte Reload
	movq	-16(%rbp), %rsi
	movsbl	-17(%rbp), %edx
	callq	__ZNSt3__112basic_stringIcNS_11char_traitsIcEENS_9allocatorIcEEE6__initEmc
	movq	-40(%rbp), %rdi                 ## 8-byte Reload
	callq	__ZNSt3__119__debug_db_insert_cB6v15006INS_12basic_stringIcNS_11char_traitsIcEENS_9allocatorIcEEEEEEvPT_
	addq	$48, %rsp
	popq	%rbp
	retq
	.cfi_endproc
                                        ## -- End function
	.globl	__ZNSt3__117__compressed_pairINS_12basic_stringIcNS_11char_traitsIcEENS_9allocatorIcEEE5__repES5_EC1B6v15006INS_18__default_init_tagESA_EEOT_OT0_ ## -- Begin function _ZNSt3__117__compressed_pairINS_12basic_stringIcNS_11char_traitsIcEENS_9allocatorIcEEE5__repES5_EC1B6v15006INS_18__default_init_tagESA_EEOT_OT0_
	.weak_def_can_be_hidden	__ZNSt3__117__compressed_pairINS_12basic_stringIcNS_11char_traitsIcEENS_9allocatorIcEEE5__repES5_EC1B6v15006INS_18__default_init_tagESA_EEOT_OT0_
	.p2align	4, 0x90
__ZNSt3__117__compressed_pairINS_12basic_stringIcNS_11char_traitsIcEENS_9allocatorIcEEE5__repES5_EC1B6v15006INS_18__default_init_tagESA_EEOT_OT0_: ## @_ZNSt3__117__compressed_pairINS_12basic_stringIcNS_11char_traitsIcEENS_9allocatorIcEEE5__repES5_EC1B6v15006INS_18__default_init_tagESA_EEOT_OT0_
	.cfi_startproc
## %bb.0:
	pushq	%rbp
	.cfi_def_cfa_offset 16
	.cfi_offset %rbp, -16
	movq	%rsp, %rbp
	.cfi_def_cfa_register %rbp
	subq	$32, %rsp
	movq	%rdi, -8(%rbp)
	movq	%rsi, -16(%rbp)
	movq	%rdx, -24(%rbp)
	movq	-8(%rbp), %rdi
	movq	-16(%rbp), %rsi
	movq	-24(%rbp), %rdx
	callq	__ZNSt3__117__compressed_pairINS_12basic_stringIcNS_11char_traitsIcEENS_9allocatorIcEEE5__repES5_EC2B6v15006INS_18__default_init_tagESA_EEOT_OT0_
	addq	$32, %rsp
	popq	%rbp
	retq
	.cfi_endproc
                                        ## -- End function
	.private_extern	__ZNSt3__119__debug_db_insert_cB6v15006INS_12basic_stringIcNS_11char_traitsIcEENS_9allocatorIcEEEEEEvPT_ ## -- Begin function _ZNSt3__119__debug_db_insert_cB6v15006INS_12basic_stringIcNS_11char_traitsIcEENS_9allocatorIcEEEEEEvPT_
	.globl	__ZNSt3__119__debug_db_insert_cB6v15006INS_12basic_stringIcNS_11char_traitsIcEENS_9allocatorIcEEEEEEvPT_
	.weak_definition	__ZNSt3__119__debug_db_insert_cB6v15006INS_12basic_stringIcNS_11char_traitsIcEENS_9allocatorIcEEEEEEvPT_
	.p2align	4, 0x90
__ZNSt3__119__debug_db_insert_cB6v15006INS_12basic_stringIcNS_11char_traitsIcEENS_9allocatorIcEEEEEEvPT_: ## @_ZNSt3__119__debug_db_insert_cB6v15006INS_12basic_stringIcNS_11char_traitsIcEENS_9allocatorIcEEEEEEvPT_
	.cfi_startproc
## %bb.0:
	pushq	%rbp
	.cfi_def_cfa_offset 16
	.cfi_offset %rbp, -16
	movq	%rsp, %rbp
	.cfi_def_cfa_register %rbp
	movq	%rdi, -8(%rbp)
	popq	%rbp
	retq
	.cfi_endproc
                                        ## -- End function
	.globl	__ZNSt3__117__compressed_pairINS_12basic_stringIcNS_11char_traitsIcEENS_9allocatorIcEEE5__repES5_EC2B6v15006INS_18__default_init_tagESA_EEOT_OT0_ ## -- Begin function _ZNSt3__117__compressed_pairINS_12basic_stringIcNS_11char_traitsIcEENS_9allocatorIcEEE5__repES5_EC2B6v15006INS_18__default_init_tagESA_EEOT_OT0_
	.weak_def_can_be_hidden	__ZNSt3__117__compressed_pairINS_12basic_stringIcNS_11char_traitsIcEENS_9allocatorIcEEE5__repES5_EC2B6v15006INS_18__default_init_tagESA_EEOT_OT0_
	.p2align	4, 0x90
__ZNSt3__117__compressed_pairINS_12basic_stringIcNS_11char_traitsIcEENS_9allocatorIcEEE5__repES5_EC2B6v15006INS_18__default_init_tagESA_EEOT_OT0_: ## @_ZNSt3__117__compressed_pairINS_12basic_stringIcNS_11char_traitsIcEENS_9allocatorIcEEE5__repES5_EC2B6v15006INS_18__default_init_tagESA_EEOT_OT0_
	.cfi_startproc
## %bb.0:
	pushq	%rbp
	.cfi_def_cfa_offset 16
	.cfi_offset %rbp, -16
	movq	%rsp, %rbp
	.cfi_def_cfa_register %rbp
	subq	$64, %rsp
	movq	%rdi, -8(%rbp)
	movq	%rsi, -16(%rbp)
	movq	%rdx, -24(%rbp)
	movq	-8(%rbp), %rax
	movq	%rax, -56(%rbp)                 ## 8-byte Spill
	movq	%rax, -64(%rbp)                 ## 8-byte Spill
	movq	-16(%rbp), %rdi
	callq	__ZNSt3__17forwardB6v15006INS_18__default_init_tagEEEOT_RNS_16remove_referenceIS2_E4typeE
	movq	-64(%rbp), %rdi                 ## 8-byte Reload
	callq	__ZNSt3__122__compressed_pair_elemINS_12basic_stringIcNS_11char_traitsIcEENS_9allocatorIcEEE5__repELi0ELb0EEC2B6v15006ENS_18__default_init_tagE
	movq	-56(%rbp), %rax                 ## 8-byte Reload
	movq	%rax, -48(%rbp)                 ## 8-byte Spill
	movq	-24(%rbp), %rdi
	callq	__ZNSt3__17forwardB6v15006INS_18__default_init_tagEEEOT_RNS_16remove_referenceIS2_E4typeE
	movq	-48(%rbp), %rdi                 ## 8-byte Reload
	callq	__ZNSt3__122__compressed_pair_elemINS_9allocatorIcEELi1ELb1EEC2B6v15006ENS_18__default_init_tagE
	addq	$64, %rsp
	popq	%rbp
	retq
	.cfi_endproc
                                        ## -- End function
	.private_extern	__ZNSt3__17forwardB6v15006INS_18__default_init_tagEEEOT_RNS_16remove_referenceIS2_E4typeE ## -- Begin function _ZNSt3__17forwardB6v15006INS_18__default_init_tagEEEOT_RNS_16remove_referenceIS2_E4typeE
	.globl	__ZNSt3__17forwardB6v15006INS_18__default_init_tagEEEOT_RNS_16remove_referenceIS2_E4typeE
	.weak_definition	__ZNSt3__17forwardB6v15006INS_18__default_init_tagEEEOT_RNS_16remove_referenceIS2_E4typeE
	.p2align	4, 0x90
__ZNSt3__17forwardB6v15006INS_18__default_init_tagEEEOT_RNS_16remove_referenceIS2_E4typeE: ## @_ZNSt3__17forwardB6v15006INS_18__default_init_tagEEEOT_RNS_16remove_referenceIS2_E4typeE
	.cfi_startproc
## %bb.0:
	pushq	%rbp
	.cfi_def_cfa_offset 16
	.cfi_offset %rbp, -16
	movq	%rsp, %rbp
	.cfi_def_cfa_register %rbp
	movq	%rdi, -8(%rbp)
	movq	-8(%rbp), %rax
	popq	%rbp
	retq
	.cfi_endproc
                                        ## -- End function
	.private_extern	__ZNSt3__122__compressed_pair_elemINS_12basic_stringIcNS_11char_traitsIcEENS_9allocatorIcEEE5__repELi0ELb0EEC2B6v15006ENS_18__default_init_tagE ## -- Begin function _ZNSt3__122__compressed_pair_elemINS_12basic_stringIcNS_11char_traitsIcEENS_9allocatorIcEEE5__repELi0ELb0EEC2B6v15006ENS_18__default_init_tagE
	.globl	__ZNSt3__122__compressed_pair_elemINS_12basic_stringIcNS_11char_traitsIcEENS_9allocatorIcEEE5__repELi0ELb0EEC2B6v15006ENS_18__default_init_tagE
	.weak_def_can_be_hidden	__ZNSt3__122__compressed_pair_elemINS_12basic_stringIcNS_11char_traitsIcEENS_9allocatorIcEEE5__repELi0ELb0EEC2B6v15006ENS_18__default_init_tagE
	.p2align	4, 0x90
__ZNSt3__122__compressed_pair_elemINS_12basic_stringIcNS_11char_traitsIcEENS_9allocatorIcEEE5__repELi0ELb0EEC2B6v15006ENS_18__default_init_tagE: ## @_ZNSt3__122__compressed_pair_elemINS_12basic_stringIcNS_11char_traitsIcEENS_9allocatorIcEEE5__repELi0ELb0EEC2B6v15006ENS_18__default_init_tagE
	.cfi_startproc
## %bb.0:
	pushq	%rbp
	.cfi_def_cfa_offset 16
	.cfi_offset %rbp, -16
	movq	%rsp, %rbp
	.cfi_def_cfa_register %rbp
	movq	%rdi, -16(%rbp)
	popq	%rbp
	retq
	.cfi_endproc
                                        ## -- End function
	.private_extern	__ZNSt3__122__compressed_pair_elemINS_9allocatorIcEELi1ELb1EEC2B6v15006ENS_18__default_init_tagE ## -- Begin function _ZNSt3__122__compressed_pair_elemINS_9allocatorIcEELi1ELb1EEC2B6v15006ENS_18__default_init_tagE
	.globl	__ZNSt3__122__compressed_pair_elemINS_9allocatorIcEELi1ELb1EEC2B6v15006ENS_18__default_init_tagE
	.weak_def_can_be_hidden	__ZNSt3__122__compressed_pair_elemINS_9allocatorIcEELi1ELb1EEC2B6v15006ENS_18__default_init_tagE
	.p2align	4, 0x90
__ZNSt3__122__compressed_pair_elemINS_9allocatorIcEELi1ELb1EEC2B6v15006ENS_18__default_init_tagE: ## @_ZNSt3__122__compressed_pair_elemINS_9allocatorIcEELi1ELb1EEC2B6v15006ENS_18__default_init_tagE
	.cfi_startproc
## %bb.0:
	pushq	%rbp
	.cfi_def_cfa_offset 16
	.cfi_offset %rbp, -16
	movq	%rsp, %rbp
	.cfi_def_cfa_register %rbp
	subq	$16, %rsp
	movq	%rdi, -16(%rbp)
	movq	-16(%rbp), %rdi
	callq	__ZNSt3__19allocatorIcEC2B6v15006Ev
	addq	$16, %rsp
	popq	%rbp
	retq
	.cfi_endproc
                                        ## -- End function
	.private_extern	__ZNSt3__19allocatorIcEC2B6v15006Ev ## -- Begin function _ZNSt3__19allocatorIcEC2B6v15006Ev
	.globl	__ZNSt3__19allocatorIcEC2B6v15006Ev
	.weak_def_can_be_hidden	__ZNSt3__19allocatorIcEC2B6v15006Ev
	.p2align	4, 0x90
__ZNSt3__19allocatorIcEC2B6v15006Ev:    ## @_ZNSt3__19allocatorIcEC2B6v15006Ev
	.cfi_startproc
## %bb.0:
	pushq	%rbp
	.cfi_def_cfa_offset 16
	.cfi_offset %rbp, -16
	movq	%rsp, %rbp
	.cfi_def_cfa_register %rbp
	subq	$16, %rsp
	movq	%rdi, -8(%rbp)
	movq	-8(%rbp), %rdi
	callq	__ZNSt3__116__non_trivial_ifILb1ENS_9allocatorIcEEEC2B6v15006Ev
	addq	$16, %rsp
	popq	%rbp
	retq
	.cfi_endproc
                                        ## -- End function
	.private_extern	__ZNSt3__116__non_trivial_ifILb1ENS_9allocatorIcEEEC2B6v15006Ev ## -- Begin function _ZNSt3__116__non_trivial_ifILb1ENS_9allocatorIcEEEC2B6v15006Ev
	.globl	__ZNSt3__116__non_trivial_ifILb1ENS_9allocatorIcEEEC2B6v15006Ev
	.weak_def_can_be_hidden	__ZNSt3__116__non_trivial_ifILb1ENS_9allocatorIcEEEC2B6v15006Ev
	.p2align	4, 0x90
__ZNSt3__116__non_trivial_ifILb1ENS_9allocatorIcEEEC2B6v15006Ev: ## @_ZNSt3__116__non_trivial_ifILb1ENS_9allocatorIcEEEC2B6v15006Ev
	.cfi_startproc
## %bb.0:
	pushq	%rbp
	.cfi_def_cfa_offset 16
	.cfi_offset %rbp, -16
	movq	%rsp, %rbp
	.cfi_def_cfa_register %rbp
	movq	%rdi, -8(%rbp)
	popq	%rbp
	retq
	.cfi_endproc
                                        ## -- End function
	.private_extern	__ZNSt3__112__to_addressB6v15006IKcEEPT_S3_ ## -- Begin function _ZNSt3__112__to_addressB6v15006IKcEEPT_S3_
	.globl	__ZNSt3__112__to_addressB6v15006IKcEEPT_S3_
	.weak_definition	__ZNSt3__112__to_addressB6v15006IKcEEPT_S3_
	.p2align	4, 0x90
__ZNSt3__112__to_addressB6v15006IKcEEPT_S3_: ## @_ZNSt3__112__to_addressB6v15006IKcEEPT_S3_
	.cfi_startproc
## %bb.0:
	pushq	%rbp
	.cfi_def_cfa_offset 16
	.cfi_offset %rbp, -16
	movq	%rsp, %rbp
	.cfi_def_cfa_register %rbp
	movq	%rdi, -8(%rbp)
	movq	-8(%rbp), %rax
	popq	%rbp
	retq
	.cfi_endproc
                                        ## -- End function
	.private_extern	__ZNKSt3__112basic_stringIcNS_11char_traitsIcEENS_9allocatorIcEEE13__get_pointerB6v15006Ev ## -- Begin function _ZNKSt3__112basic_stringIcNS_11char_traitsIcEENS_9allocatorIcEEE13__get_pointerB6v15006Ev
	.globl	__ZNKSt3__112basic_stringIcNS_11char_traitsIcEENS_9allocatorIcEEE13__get_pointerB6v15006Ev
	.weak_definition	__ZNKSt3__112basic_stringIcNS_11char_traitsIcEENS_9allocatorIcEEE13__get_pointerB6v15006Ev
	.p2align	4, 0x90
__ZNKSt3__112basic_stringIcNS_11char_traitsIcEENS_9allocatorIcEEE13__get_pointerB6v15006Ev: ## @_ZNKSt3__112basic_stringIcNS_11char_traitsIcEENS_9allocatorIcEEE13__get_pointerB6v15006Ev
	.cfi_startproc
## %bb.0:
	pushq	%rbp
	.cfi_def_cfa_offset 16
	.cfi_offset %rbp, -16
	movq	%rsp, %rbp
	.cfi_def_cfa_register %rbp
	subq	$32, %rsp
	movq	%rdi, -8(%rbp)
	movq	-8(%rbp), %rdi
	movq	%rdi, -16(%rbp)                 ## 8-byte Spill
	callq	__ZNKSt3__112basic_stringIcNS_11char_traitsIcEENS_9allocatorIcEEE9__is_longB6v15006Ev
	testb	$1, %al
	jne	LBB30_1
	jmp	LBB30_2
LBB30_1:
	movq	-16(%rbp), %rdi                 ## 8-byte Reload
	callq	__ZNKSt3__112basic_stringIcNS_11char_traitsIcEENS_9allocatorIcEEE18__get_long_pointerB6v15006Ev
	movq	%rax, -24(%rbp)                 ## 8-byte Spill
	jmp	LBB30_3
LBB30_2:
	movq	-16(%rbp), %rdi                 ## 8-byte Reload
	callq	__ZNKSt3__112basic_stringIcNS_11char_traitsIcEENS_9allocatorIcEEE19__get_short_pointerB6v15006Ev
	movq	%rax, -24(%rbp)                 ## 8-byte Spill
LBB30_3:
	movq	-24(%rbp), %rax                 ## 8-byte Reload
	addq	$32, %rsp
	popq	%rbp
	retq
	.cfi_endproc
                                        ## -- End function
	.private_extern	__ZNKSt3__112basic_stringIcNS_11char_traitsIcEENS_9allocatorIcEEE9__is_longB6v15006Ev ## -- Begin function _ZNKSt3__112basic_stringIcNS_11char_traitsIcEENS_9allocatorIcEEE9__is_longB6v15006Ev
	.globl	__ZNKSt3__112basic_stringIcNS_11char_traitsIcEENS_9allocatorIcEEE9__is_longB6v15006Ev
	.weak_definition	__ZNKSt3__112basic_stringIcNS_11char_traitsIcEENS_9allocatorIcEEE9__is_longB6v15006Ev
	.p2align	4, 0x90
__ZNKSt3__112basic_stringIcNS_11char_traitsIcEENS_9allocatorIcEEE9__is_longB6v15006Ev: ## @_ZNKSt3__112basic_stringIcNS_11char_traitsIcEENS_9allocatorIcEEE9__is_longB6v15006Ev
	.cfi_startproc
## %bb.0:
	pushq	%rbp
	.cfi_def_cfa_offset 16
	.cfi_offset %rbp, -16
	movq	%rsp, %rbp
	.cfi_def_cfa_register %rbp
	subq	$32, %rsp
	movq	%rdi, -16(%rbp)
	movq	-16(%rbp), %rax
	movq	%rax, -24(%rbp)                 ## 8-byte Spill
	callq	__ZNSt3__130__libcpp_is_constant_evaluatedEv
	testb	$1, %al
	jne	LBB31_1
	jmp	LBB31_2
LBB31_1:
	movb	$1, -1(%rbp)
	jmp	LBB31_3
LBB31_2:
	movq	-24(%rbp), %rdi                 ## 8-byte Reload
	callq	__ZNKSt3__117__compressed_pairINS_12basic_stringIcNS_11char_traitsIcEENS_9allocatorIcEEE5__repES5_E5firstB6v15006Ev
	movb	(%rax), %al
	andb	$1, %al
	cmpb	$0, %al
	setne	%al
	andb	$1, %al
	movb	%al, -1(%rbp)
LBB31_3:
	movb	-1(%rbp), %al
	andb	$1, %al
	movzbl	%al, %eax
	addq	$32, %rsp
	popq	%rbp
	retq
	.cfi_endproc
                                        ## -- End function
	.private_extern	__ZNKSt3__112basic_stringIcNS_11char_traitsIcEENS_9allocatorIcEEE18__get_long_pointerB6v15006Ev ## -- Begin function _ZNKSt3__112basic_stringIcNS_11char_traitsIcEENS_9allocatorIcEEE18__get_long_pointerB6v15006Ev
	.globl	__ZNKSt3__112basic_stringIcNS_11char_traitsIcEENS_9allocatorIcEEE18__get_long_pointerB6v15006Ev
	.weak_definition	__ZNKSt3__112basic_stringIcNS_11char_traitsIcEENS_9allocatorIcEEE18__get_long_pointerB6v15006Ev
	.p2align	4, 0x90
__ZNKSt3__112basic_stringIcNS_11char_traitsIcEENS_9allocatorIcEEE18__get_long_pointerB6v15006Ev: ## @_ZNKSt3__112basic_stringIcNS_11char_traitsIcEENS_9allocatorIcEEE18__get_long_pointerB6v15006Ev
	.cfi_startproc
## %bb.0:
	pushq	%rbp
	.cfi_def_cfa_offset 16
	.cfi_offset %rbp, -16
	movq	%rsp, %rbp
	.cfi_def_cfa_register %rbp
	subq	$16, %rsp
	movq	%rdi, -8(%rbp)
	movq	-8(%rbp), %rdi
	callq	__ZNKSt3__117__compressed_pairINS_12basic_stringIcNS_11char_traitsIcEENS_9allocatorIcEEE5__repES5_E5firstB6v15006Ev
	movq	16(%rax), %rax
	addq	$16, %rsp
	popq	%rbp
	retq
	.cfi_endproc
                                        ## -- End function
	.private_extern	__ZNKSt3__112basic_stringIcNS_11char_traitsIcEENS_9allocatorIcEEE19__get_short_pointerB6v15006Ev ## -- Begin function _ZNKSt3__112basic_stringIcNS_11char_traitsIcEENS_9allocatorIcEEE19__get_short_pointerB6v15006Ev
	.globl	__ZNKSt3__112basic_stringIcNS_11char_traitsIcEENS_9allocatorIcEEE19__get_short_pointerB6v15006Ev
	.weak_definition	__ZNKSt3__112basic_stringIcNS_11char_traitsIcEENS_9allocatorIcEEE19__get_short_pointerB6v15006Ev
	.p2align	4, 0x90
__ZNKSt3__112basic_stringIcNS_11char_traitsIcEENS_9allocatorIcEEE19__get_short_pointerB6v15006Ev: ## @_ZNKSt3__112basic_stringIcNS_11char_traitsIcEENS_9allocatorIcEEE19__get_short_pointerB6v15006Ev
	.cfi_startproc
## %bb.0:
	pushq	%rbp
	.cfi_def_cfa_offset 16
	.cfi_offset %rbp, -16
	movq	%rsp, %rbp
	.cfi_def_cfa_register %rbp
	subq	$16, %rsp
	movq	%rdi, -8(%rbp)
	movq	-8(%rbp), %rdi
	callq	__ZNKSt3__117__compressed_pairINS_12basic_stringIcNS_11char_traitsIcEENS_9allocatorIcEEE5__repES5_E5firstB6v15006Ev
	movq	%rax, %rdi
	addq	$1, %rdi
	callq	__ZNSt3__114pointer_traitsIPKcE10pointer_toB6v15006ERS1_
	addq	$16, %rsp
	popq	%rbp
	retq
	.cfi_endproc
                                        ## -- End function
	.globl	__ZNSt3__130__libcpp_is_constant_evaluatedEv ## -- Begin function _ZNSt3__130__libcpp_is_constant_evaluatedEv
	.weak_definition	__ZNSt3__130__libcpp_is_constant_evaluatedEv
	.p2align	4, 0x90
__ZNSt3__130__libcpp_is_constant_evaluatedEv: ## @_ZNSt3__130__libcpp_is_constant_evaluatedEv
	.cfi_startproc
## %bb.0:
	pushq	%rbp
	.cfi_def_cfa_offset 16
	.cfi_offset %rbp, -16
	movq	%rsp, %rbp
	.cfi_def_cfa_register %rbp
	xorl	%eax, %eax
                                        ## kill: def $al killed $al killed $eax
	andb	$1, %al
	movzbl	%al, %eax
	popq	%rbp
	retq
	.cfi_endproc
                                        ## -- End function
	.private_extern	__ZNKSt3__117__compressed_pairINS_12basic_stringIcNS_11char_traitsIcEENS_9allocatorIcEEE5__repES5_E5firstB6v15006Ev ## -- Begin function _ZNKSt3__117__compressed_pairINS_12basic_stringIcNS_11char_traitsIcEENS_9allocatorIcEEE5__repES5_E5firstB6v15006Ev
	.globl	__ZNKSt3__117__compressed_pairINS_12basic_stringIcNS_11char_traitsIcEENS_9allocatorIcEEE5__repES5_E5firstB6v15006Ev
	.weak_definition	__ZNKSt3__117__compressed_pairINS_12basic_stringIcNS_11char_traitsIcEENS_9allocatorIcEEE5__repES5_E5firstB6v15006Ev
	.p2align	4, 0x90
__ZNKSt3__117__compressed_pairINS_12basic_stringIcNS_11char_traitsIcEENS_9allocatorIcEEE5__repES5_E5firstB6v15006Ev: ## @_ZNKSt3__117__compressed_pairINS_12basic_stringIcNS_11char_traitsIcEENS_9allocatorIcEEE5__repES5_E5firstB6v15006Ev
	.cfi_startproc
## %bb.0:
	pushq	%rbp
	.cfi_def_cfa_offset 16
	.cfi_offset %rbp, -16
	movq	%rsp, %rbp
	.cfi_def_cfa_register %rbp
	subq	$16, %rsp
	movq	%rdi, -8(%rbp)
	movq	-8(%rbp), %rdi
	callq	__ZNKSt3__122__compressed_pair_elemINS_12basic_stringIcNS_11char_traitsIcEENS_9allocatorIcEEE5__repELi0ELb0EE5__getB6v15006Ev
	addq	$16, %rsp
	popq	%rbp
	retq
	.cfi_endproc
                                        ## -- End function
	.private_extern	__ZNKSt3__122__compressed_pair_elemINS_12basic_stringIcNS_11char_traitsIcEENS_9allocatorIcEEE5__repELi0ELb0EE5__getB6v15006Ev ## -- Begin function _ZNKSt3__122__compressed_pair_elemINS_12basic_stringIcNS_11char_traitsIcEENS_9allocatorIcEEE5__repELi0ELb0EE5__getB6v15006Ev
	.globl	__ZNKSt3__122__compressed_pair_elemINS_12basic_stringIcNS_11char_traitsIcEENS_9allocatorIcEEE5__repELi0ELb0EE5__getB6v15006Ev
	.weak_definition	__ZNKSt3__122__compressed_pair_elemINS_12basic_stringIcNS_11char_traitsIcEENS_9allocatorIcEEE5__repELi0ELb0EE5__getB6v15006Ev
	.p2align	4, 0x90
__ZNKSt3__122__compressed_pair_elemINS_12basic_stringIcNS_11char_traitsIcEENS_9allocatorIcEEE5__repELi0ELb0EE5__getB6v15006Ev: ## @_ZNKSt3__122__compressed_pair_elemINS_12basic_stringIcNS_11char_traitsIcEENS_9allocatorIcEEE5__repELi0ELb0EE5__getB6v15006Ev
	.cfi_startproc
## %bb.0:
	pushq	%rbp
	.cfi_def_cfa_offset 16
	.cfi_offset %rbp, -16
	movq	%rsp, %rbp
	.cfi_def_cfa_register %rbp
	movq	%rdi, -8(%rbp)
	movq	-8(%rbp), %rax
	popq	%rbp
	retq
	.cfi_endproc
                                        ## -- End function
	.private_extern	__ZNSt3__114pointer_traitsIPKcE10pointer_toB6v15006ERS1_ ## -- Begin function _ZNSt3__114pointer_traitsIPKcE10pointer_toB6v15006ERS1_
	.globl	__ZNSt3__114pointer_traitsIPKcE10pointer_toB6v15006ERS1_
	.weak_definition	__ZNSt3__114pointer_traitsIPKcE10pointer_toB6v15006ERS1_
	.p2align	4, 0x90
__ZNSt3__114pointer_traitsIPKcE10pointer_toB6v15006ERS1_: ## @_ZNSt3__114pointer_traitsIPKcE10pointer_toB6v15006ERS1_
	.cfi_startproc
## %bb.0:
	pushq	%rbp
	.cfi_def_cfa_offset 16
	.cfi_offset %rbp, -16
	movq	%rsp, %rbp
	.cfi_def_cfa_register %rbp
	subq	$16, %rsp
	movq	%rdi, -8(%rbp)
	movq	-8(%rbp), %rdi
	callq	__ZNSt3__19addressofB6v15006IKcEEPT_RS2_
	addq	$16, %rsp
	popq	%rbp
	retq
	.cfi_endproc
                                        ## -- End function
	.private_extern	__ZNSt3__19addressofB6v15006IKcEEPT_RS2_ ## -- Begin function _ZNSt3__19addressofB6v15006IKcEEPT_RS2_
	.globl	__ZNSt3__19addressofB6v15006IKcEEPT_RS2_
	.weak_definition	__ZNSt3__19addressofB6v15006IKcEEPT_RS2_
	.p2align	4, 0x90
__ZNSt3__19addressofB6v15006IKcEEPT_RS2_: ## @_ZNSt3__19addressofB6v15006IKcEEPT_RS2_
	.cfi_startproc
## %bb.0:
	pushq	%rbp
	.cfi_def_cfa_offset 16
	.cfi_offset %rbp, -16
	movq	%rsp, %rbp
	.cfi_def_cfa_register %rbp
	movq	%rdi, -8(%rbp)
	movq	-8(%rbp), %rax
	popq	%rbp
	retq
	.cfi_endproc
                                        ## -- End function
	.private_extern	__ZNSt3__119ostreambuf_iteratorIcNS_11char_traitsIcEEEC2B6v15006ERNS_13basic_ostreamIcS2_EE ## -- Begin function _ZNSt3__119ostreambuf_iteratorIcNS_11char_traitsIcEEEC2B6v15006ERNS_13basic_ostreamIcS2_EE
	.globl	__ZNSt3__119ostreambuf_iteratorIcNS_11char_traitsIcEEEC2B6v15006ERNS_13basic_ostreamIcS2_EE
	.weak_def_can_be_hidden	__ZNSt3__119ostreambuf_iteratorIcNS_11char_traitsIcEEEC2B6v15006ERNS_13basic_ostreamIcS2_EE
	.p2align	4, 0x90
__ZNSt3__119ostreambuf_iteratorIcNS_11char_traitsIcEEEC2B6v15006ERNS_13basic_ostreamIcS2_EE: ## @_ZNSt3__119ostreambuf_iteratorIcNS_11char_traitsIcEEEC2B6v15006ERNS_13basic_ostreamIcS2_EE
Lfunc_begin2:
	.cfi_startproc
	.cfi_personality 155, ___gxx_personality_v0
	.cfi_lsda 16, Lexception2
## %bb.0:
	pushq	%rbp
	.cfi_def_cfa_offset 16
	.cfi_offset %rbp, -16
	movq	%rsp, %rbp
	.cfi_def_cfa_register %rbp
	subq	$48, %rsp
	movq	%rdi, -8(%rbp)
	movq	%rsi, -16(%rbp)
	movq	-8(%rbp), %rax
	movq	%rax, -48(%rbp)                 ## 8-byte Spill
	movq	-16(%rbp), %rdi
	movq	(%rdi), %rax
	movq	-24(%rax), %rax
	addq	%rax, %rdi
Ltmp30:
	callq	__ZNKSt3__19basic_iosIcNS_11char_traitsIcEEE5rdbufB6v15006Ev
Ltmp31:
	movq	%rax, -40(%rbp)                 ## 8-byte Spill
	jmp	LBB39_1
LBB39_1:
	movq	-48(%rbp), %rax                 ## 8-byte Reload
	movq	-40(%rbp), %rcx                 ## 8-byte Reload
	movq	%rcx, (%rax)
	addq	$48, %rsp
	popq	%rbp
	retq
LBB39_2:
Ltmp32:
	movq	%rax, %rcx
	movl	%edx, %eax
	movq	%rcx, -24(%rbp)
	movl	%eax, -28(%rbp)
## %bb.3:
	movq	-24(%rbp), %rdi
	callq	___cxa_call_unexpected
Lfunc_end2:
	.cfi_endproc
	.section	__TEXT,__gcc_except_tab
	.p2align	2
GCC_except_table39:
Lexception2:
	.byte	255                             ## @LPStart Encoding = omit
	.byte	155                             ## @TType Encoding = indirect pcrel sdata4
	.uleb128 Lttbase2-Lttbaseref2
Lttbaseref2:
	.byte	1                               ## Call site Encoding = uleb128
	.uleb128 Lcst_end2-Lcst_begin2
Lcst_begin2:
	.uleb128 Ltmp30-Lfunc_begin2            ## >> Call Site 1 <<
	.uleb128 Ltmp31-Ltmp30                  ##   Call between Ltmp30 and Ltmp31
	.uleb128 Ltmp32-Lfunc_begin2            ##     jumps to Ltmp32
	.byte	1                               ##   On action: 1
	.uleb128 Ltmp31-Lfunc_begin2            ## >> Call Site 2 <<
	.uleb128 Lfunc_end2-Ltmp31              ##   Call between Ltmp31 and Lfunc_end2
	.byte	0                               ##     has no landing pad
	.byte	0                               ##   On action: cleanup
Lcst_end2:
	.byte	127                             ## >> Action Record 1 <<
                                        ##   Filter TypeInfo -1
	.byte	0                               ##   No further actions
	.p2align	2
Lttbase2:
                                        ## >> Filter TypeInfos <<
	.byte	0
	.p2align	2
                                        ## -- End function
	.section	__TEXT,__text,regular,pure_instructions
	.private_extern	__ZNKSt3__19basic_iosIcNS_11char_traitsIcEEE5rdbufB6v15006Ev ## -- Begin function _ZNKSt3__19basic_iosIcNS_11char_traitsIcEEE5rdbufB6v15006Ev
	.globl	__ZNKSt3__19basic_iosIcNS_11char_traitsIcEEE5rdbufB6v15006Ev
	.weak_definition	__ZNKSt3__19basic_iosIcNS_11char_traitsIcEEE5rdbufB6v15006Ev
	.p2align	4, 0x90
__ZNKSt3__19basic_iosIcNS_11char_traitsIcEEE5rdbufB6v15006Ev: ## @_ZNKSt3__19basic_iosIcNS_11char_traitsIcEEE5rdbufB6v15006Ev
	.cfi_startproc
## %bb.0:
	pushq	%rbp
	.cfi_def_cfa_offset 16
	.cfi_offset %rbp, -16
	movq	%rsp, %rbp
	.cfi_def_cfa_register %rbp
	subq	$16, %rsp
	movq	%rdi, -8(%rbp)
	movq	-8(%rbp), %rdi
	callq	__ZNKSt3__18ios_base5rdbufB6v15006Ev
	addq	$16, %rsp
	popq	%rbp
	retq
	.cfi_endproc
                                        ## -- End function
	.private_extern	__ZNKSt3__18ios_base5rdbufB6v15006Ev ## -- Begin function _ZNKSt3__18ios_base5rdbufB6v15006Ev
	.globl	__ZNKSt3__18ios_base5rdbufB6v15006Ev
	.weak_definition	__ZNKSt3__18ios_base5rdbufB6v15006Ev
	.p2align	4, 0x90
__ZNKSt3__18ios_base5rdbufB6v15006Ev:   ## @_ZNKSt3__18ios_base5rdbufB6v15006Ev
	.cfi_startproc
## %bb.0:
	pushq	%rbp
	.cfi_def_cfa_offset 16
	.cfi_offset %rbp, -16
	movq	%rsp, %rbp
	.cfi_def_cfa_register %rbp
	movq	%rdi, -8(%rbp)
	movq	-8(%rbp), %rax
	movq	40(%rax), %rax
	popq	%rbp
	retq
	.cfi_endproc
                                        ## -- End function
	.globl	__ZNSt3__111char_traitsIcE11eq_int_typeEii ## -- Begin function _ZNSt3__111char_traitsIcE11eq_int_typeEii
	.weak_definition	__ZNSt3__111char_traitsIcE11eq_int_typeEii
	.p2align	4, 0x90
__ZNSt3__111char_traitsIcE11eq_int_typeEii: ## @_ZNSt3__111char_traitsIcE11eq_int_typeEii
	.cfi_startproc
## %bb.0:
	pushq	%rbp
	.cfi_def_cfa_offset 16
	.cfi_offset %rbp, -16
	movq	%rsp, %rbp
	.cfi_def_cfa_register %rbp
	movl	%edi, -4(%rbp)
	movl	%esi, -8(%rbp)
	movl	-4(%rbp), %eax
	cmpl	-8(%rbp), %eax
	sete	%al
	andb	$1, %al
	movzbl	%al, %eax
	popq	%rbp
	retq
	.cfi_endproc
                                        ## -- End function
	.globl	__ZNSt3__111char_traitsIcE3eofEv ## -- Begin function _ZNSt3__111char_traitsIcE3eofEv
	.weak_definition	__ZNSt3__111char_traitsIcE3eofEv
	.p2align	4, 0x90
__ZNSt3__111char_traitsIcE3eofEv:       ## @_ZNSt3__111char_traitsIcE3eofEv
	.cfi_startproc
## %bb.0:
	pushq	%rbp
	.cfi_def_cfa_offset 16
	.cfi_offset %rbp, -16
	movq	%rsp, %rbp
	.cfi_def_cfa_register %rbp
	movl	$4294967295, %eax               ## imm = 0xFFFFFFFF
	popq	%rbp
	retq
	.cfi_endproc
                                        ## -- End function
	.private_extern	__ZNKSt3__19basic_iosIcNS_11char_traitsIcEEE5widenB6v15006Ec ## -- Begin function _ZNKSt3__19basic_iosIcNS_11char_traitsIcEEE5widenB6v15006Ec
	.globl	__ZNKSt3__19basic_iosIcNS_11char_traitsIcEEE5widenB6v15006Ec
	.weak_definition	__ZNKSt3__19basic_iosIcNS_11char_traitsIcEEE5widenB6v15006Ec
	.p2align	4, 0x90
__ZNKSt3__19basic_iosIcNS_11char_traitsIcEEE5widenB6v15006Ec: ## @_ZNKSt3__19basic_iosIcNS_11char_traitsIcEEE5widenB6v15006Ec
Lfunc_begin3:
	.cfi_startproc
	.cfi_personality 155, ___gxx_personality_v0
	.cfi_lsda 16, Lexception3
## %bb.0:
	pushq	%rbp
	.cfi_def_cfa_offset 16
	.cfi_offset %rbp, -16
	movq	%rsp, %rbp
	.cfi_def_cfa_register %rbp
	subq	$64, %rsp
	movb	%sil, %al
	movq	%rdi, -8(%rbp)
	movb	%al, -9(%rbp)
	movq	-8(%rbp), %rsi
	leaq	-24(%rbp), %rdi
	movq	%rdi, -56(%rbp)                 ## 8-byte Spill
	callq	__ZNKSt3__18ios_base6getlocEv
	movq	-56(%rbp), %rdi                 ## 8-byte Reload
Ltmp33:
	callq	__ZNSt3__19use_facetB6v15006INS_5ctypeIcEEEERKT_RKNS_6localeE
Ltmp34:
	movq	%rax, -48(%rbp)                 ## 8-byte Spill
	jmp	LBB44_1
LBB44_1:
	movq	-48(%rbp), %rdi                 ## 8-byte Reload
	movsbl	-9(%rbp), %esi
Ltmp35:
	callq	__ZNKSt3__15ctypeIcE5widenB6v15006Ec
Ltmp36:
	movb	%al, -57(%rbp)                  ## 1-byte Spill
	jmp	LBB44_2
LBB44_2:
	leaq	-24(%rbp), %rdi
	callq	__ZNSt3__16localeD1Ev
	movb	-57(%rbp), %al                  ## 1-byte Reload
	movsbl	%al, %eax
	addq	$64, %rsp
	popq	%rbp
	retq
LBB44_3:
Ltmp37:
	movq	%rax, %rcx
	movl	%edx, %eax
	movq	%rcx, -32(%rbp)
	movl	%eax, -36(%rbp)
Ltmp38:
	leaq	-24(%rbp), %rdi
	callq	__ZNSt3__16localeD1Ev
Ltmp39:
	jmp	LBB44_4
LBB44_4:
	jmp	LBB44_5
LBB44_5:
	movq	-32(%rbp), %rdi
	callq	__Unwind_Resume
LBB44_6:
Ltmp40:
	movq	%rax, %rdi
	callq	___clang_call_terminate
Lfunc_end3:
	.cfi_endproc
	.section	__TEXT,__gcc_except_tab
	.p2align	2
GCC_except_table44:
Lexception3:
	.byte	255                             ## @LPStart Encoding = omit
	.byte	155                             ## @TType Encoding = indirect pcrel sdata4
	.uleb128 Lttbase3-Lttbaseref3
Lttbaseref3:
	.byte	1                               ## Call site Encoding = uleb128
	.uleb128 Lcst_end3-Lcst_begin3
Lcst_begin3:
	.uleb128 Lfunc_begin3-Lfunc_begin3      ## >> Call Site 1 <<
	.uleb128 Ltmp33-Lfunc_begin3            ##   Call between Lfunc_begin3 and Ltmp33
	.byte	0                               ##     has no landing pad
	.byte	0                               ##   On action: cleanup
	.uleb128 Ltmp33-Lfunc_begin3            ## >> Call Site 2 <<
	.uleb128 Ltmp36-Ltmp33                  ##   Call between Ltmp33 and Ltmp36
	.uleb128 Ltmp37-Lfunc_begin3            ##     jumps to Ltmp37
	.byte	0                               ##   On action: cleanup
	.uleb128 Ltmp36-Lfunc_begin3            ## >> Call Site 3 <<
	.uleb128 Ltmp38-Ltmp36                  ##   Call between Ltmp36 and Ltmp38
	.byte	0                               ##     has no landing pad
	.byte	0                               ##   On action: cleanup
	.uleb128 Ltmp38-Lfunc_begin3            ## >> Call Site 4 <<
	.uleb128 Ltmp39-Ltmp38                  ##   Call between Ltmp38 and Ltmp39
	.uleb128 Ltmp40-Lfunc_begin3            ##     jumps to Ltmp40
	.byte	1                               ##   On action: 1
	.uleb128 Ltmp39-Lfunc_begin3            ## >> Call Site 5 <<
	.uleb128 Lfunc_end3-Ltmp39              ##   Call between Ltmp39 and Lfunc_end3
	.byte	0                               ##     has no landing pad
	.byte	0                               ##   On action: cleanup
Lcst_end3:
	.byte	1                               ## >> Action Record 1 <<
                                        ##   Catch TypeInfo 1
	.byte	0                               ##   No further actions
	.p2align	2
                                        ## >> Catch TypeInfos <<
	.long	0                               ## TypeInfo 1
Lttbase3:
	.p2align	2
                                        ## -- End function
	.section	__TEXT,__text,regular,pure_instructions
	.private_extern	__ZNSt3__19use_facetB6v15006INS_5ctypeIcEEEERKT_RKNS_6localeE ## -- Begin function _ZNSt3__19use_facetB6v15006INS_5ctypeIcEEEERKT_RKNS_6localeE
	.globl	__ZNSt3__19use_facetB6v15006INS_5ctypeIcEEEERKT_RKNS_6localeE
	.weak_definition	__ZNSt3__19use_facetB6v15006INS_5ctypeIcEEEERKT_RKNS_6localeE
	.p2align	4, 0x90
__ZNSt3__19use_facetB6v15006INS_5ctypeIcEEEERKT_RKNS_6localeE: ## @_ZNSt3__19use_facetB6v15006INS_5ctypeIcEEEERKT_RKNS_6localeE
	.cfi_startproc
## %bb.0:
	pushq	%rbp
	.cfi_def_cfa_offset 16
	.cfi_offset %rbp, -16
	movq	%rsp, %rbp
	.cfi_def_cfa_register %rbp
	subq	$16, %rsp
	movq	%rdi, -8(%rbp)
	movq	-8(%rbp), %rdi
	movq	__ZNSt3__15ctypeIcE2idE@GOTPCREL(%rip), %rsi
	callq	__ZNKSt3__16locale9use_facetERNS0_2idE
	addq	$16, %rsp
	popq	%rbp
	retq
	.cfi_endproc
                                        ## -- End function
	.private_extern	__ZNKSt3__15ctypeIcE5widenB6v15006Ec ## -- Begin function _ZNKSt3__15ctypeIcE5widenB6v15006Ec
	.globl	__ZNKSt3__15ctypeIcE5widenB6v15006Ec
	.weak_definition	__ZNKSt3__15ctypeIcE5widenB6v15006Ec
	.p2align	4, 0x90
__ZNKSt3__15ctypeIcE5widenB6v15006Ec:   ## @_ZNKSt3__15ctypeIcE5widenB6v15006Ec
	.cfi_startproc
## %bb.0:
	pushq	%rbp
	.cfi_def_cfa_offset 16
	.cfi_offset %rbp, -16
	movq	%rsp, %rbp
	.cfi_def_cfa_register %rbp
	subq	$16, %rsp
	movb	%sil, %al
	movq	%rdi, -8(%rbp)
	movb	%al, -9(%rbp)
	movq	-8(%rbp), %rdi
	movb	-9(%rbp), %cl
	movq	(%rdi), %rax
	movsbl	%cl, %esi
	callq	*56(%rax)
	movsbl	%al, %eax
	addq	$16, %rsp
	popq	%rbp
	retq
	.cfi_endproc
                                        ## -- End function
	.private_extern	__ZNSt3__18ios_base8setstateB6v15006Ej ## -- Begin function _ZNSt3__18ios_base8setstateB6v15006Ej
	.globl	__ZNSt3__18ios_base8setstateB6v15006Ej
	.weak_definition	__ZNSt3__18ios_base8setstateB6v15006Ej
	.p2align	4, 0x90
__ZNSt3__18ios_base8setstateB6v15006Ej: ## @_ZNSt3__18ios_base8setstateB6v15006Ej
	.cfi_startproc
## %bb.0:
	pushq	%rbp
	.cfi_def_cfa_offset 16
	.cfi_offset %rbp, -16
	movq	%rsp, %rbp
	.cfi_def_cfa_register %rbp
	subq	$16, %rsp
	movq	%rdi, -8(%rbp)
	movl	%esi, -12(%rbp)
	movq	-8(%rbp), %rdi
	movl	32(%rdi), %esi
	orl	-12(%rbp), %esi
	callq	__ZNSt3__18ios_base5clearEj
	addq	$16, %rsp
	popq	%rbp
	retq
	.cfi_endproc
                                        ## -- End function
	.section	__TEXT,__cstring,cstring_literals
L_.str:                                 ## @.str
	.asciz	"Signal "

L_.str.1:                               ## @.str.1
	.asciz	" caught."

L_.str.2:                               ## @.str.2
	.asciz	"Printing series of 0x41414141..."

L_.str.3:                               ## @.str.3
	.asciz	"0x41414141 "

.subsections_via_symbols
