	.section	__TEXT,__text,regular,pure_instructions
	.build_version macos, 11, 0	sdk_version 11, 3
	.file	1 "/Applications/Xcode.app/Contents/Developer/Platforms/MacOSX.platform/Developer/SDKs/MacOSX.sdk/usr/include/arm" "_types.h"
	.file	2 "/Applications/Xcode.app/Contents/Developer/Platforms/MacOSX.platform/Developer/SDKs/MacOSX.sdk/usr/include/sys" "_types.h"
	.file	3 "/Applications/Xcode.app/Contents/Developer/Platforms/MacOSX.platform/Developer/SDKs/MacOSX.sdk/usr/include/sys/_types" "_sigset_t.h"
	.file	4 "/Applications/Xcode.app/Contents/Developer/Platforms/MacOSX.platform/Developer/SDKs/MacOSX.sdk/usr/include/_types" "_uint64_t.h"
	.globl	_read_sprr                      ; -- Begin function read_sprr
	.p2align	2
_read_sprr:                             ; @read_sprr
Lfunc_begin0:
	.file	5 "/Users/xss/code" "ptime.c"
	.loc	5 189 0                         ; ptime.c:189:0
	.cfi_startproc
; %bb.0:
	sub	sp, sp, #16                     ; =16
	.cfi_def_cfa_offset 16
Ltmp1:
	.loc	5 195 5 prologue_end            ; ptime.c:195:5
	; InlineAsm Start
	isb
	mrs	x8, S3_6_C15_C1_5

	; InlineAsm End
	str	x8, [sp, #8]
	.loc	5 202 12                        ; ptime.c:202:12
	ldr	x0, [sp, #8]
	.loc	5 202 5 is_stmt 0               ; ptime.c:202:5
	add	sp, sp, #16                     ; =16
	ret
Ltmp2:
Lfunc_end0:
	.cfi_endproc
                                        ; -- End function
	.section	__TEXT,__literal8,8byte_literals
	.p2align	3                               ; -- Begin function main
lCPI1_0:
	.quad	0x412e848000000000              ; double 1.0E+6
lCPI1_1:
	.quad	0x408f400000000000              ; double 1000
	.section	__TEXT,__text,regular,pure_instructions
	.globl	_main
	.p2align	2
_main:                                  ; @main
Lfunc_begin1:
	.loc	5 206 0 is_stmt 1               ; ptime.c:206:0
	.cfi_startproc
; %bb.0:
	sub	sp, sp, #224                    ; =224
	stp	x29, x30, [sp, #208]            ; 16-byte Folded Spill
	add	x29, sp, #208                   ; =208
	.cfi_def_cfa w29, 16
	.cfi_offset w30, -8
	.cfi_offset w29, -16
	stur	wzr, [x29, #-4]
	stur	w0, [x29, #-8]
	stur	x1, [x29, #-16]
Ltmp3:
	.loc	5 0 0 prologue_end              ; ptime.c:0:0
	adrp	x8, l_.str@PAGE
	add	x8, x8, l_.str@PAGEOFF
	.loc	5 207 5                         ; ptime.c:207:5
	mov	x0, x8
	str	x8, [sp, #88]                   ; 8-byte Folded Spill
	bl	_printf
	.loc	5 0 0 is_stmt 0                 ; ptime.c:0:0
	adrp	x8, l_.str.1@PAGE
	add	x8, x8, l_.str.1@PAGEOFF
	.loc	5 208 5 is_stmt 1               ; ptime.c:208:5
	mov	x0, x8
	bl	_printf
	ldr	x8, [sp, #88]                   ; 8-byte Folded Reload
	.loc	5 209 5                         ; ptime.c:209:5
	mov	x0, x8
	bl	_printf
	.loc	5 0 0 is_stmt 0                 ; ptime.c:0:0
	adrp	x8, l_.str.2@PAGE
	add	x8, x8, l_.str.2@PAGEOFF
	.loc	5 210 5 is_stmt 1               ; ptime.c:210:5
	mov	x0, x8
	bl	_printf
	.loc	5 0 0 is_stmt 0                 ; ptime.c:0:0
	adrp	x8, l_.str.3@PAGE
	add	x8, x8, l_.str.3@PAGEOFF
	.loc	5 211 5 is_stmt 1               ; ptime.c:211:5
	mov	x0, x8
	bl	_system
	.loc	5 0 0 is_stmt 0                 ; ptime.c:0:0
	adrp	x8, l_.str.4@PAGE
	add	x8, x8, l_.str.4@PAGEOFF
	.loc	5 212 5 is_stmt 1               ; ptime.c:212:5
	mov	x0, x8
	bl	_system
	ldr	x8, [sp, #88]                   ; 8-byte Folded Reload
	.loc	5 213 5                         ; ptime.c:213:5
	mov	x0, x8
	bl	_printf
	.loc	5 0 0 is_stmt 0                 ; ptime.c:0:0
	adrp	x8, l_.str.5@PAGE
	add	x8, x8, l_.str.5@PAGEOFF
	.loc	5 214 5 is_stmt 1               ; ptime.c:214:5
	mov	x0, x8
	bl	_printf
	ldr	x8, [sp, #88]                   ; 8-byte Folded Reload
	.loc	5 215 5                         ; ptime.c:215:5
	mov	x0, x8
	bl	_printf
	mov	w9, #63
	.loc	5 216 5                         ; ptime.c:216:5
	mov	x0, x9
	bl	_setlogmask
	.loc	5 0 0 is_stmt 0                 ; ptime.c:0:0
	adrp	x8, l_.str.6@PAGE
	add	x8, x8, l_.str.6@PAGEOFF
	.loc	5 217 5 is_stmt 1               ; ptime.c:217:5
	mov	x0, x8
	mov	w9, #11
	mov	x1, x9
	mov	w2, #136
	str	x8, [sp, #80]                   ; 8-byte Folded Spill
	str	w9, [sp, #76]                   ; 4-byte Folded Spill
	bl	_openlog
	mov	w0, #5
	ldr	x1, [sp, #80]                   ; 8-byte Folded Reload
	.loc	5 218 5                         ; ptime.c:218:5
	bl	_syslog$DARWIN_EXTSN
	.loc	5 219 5                         ; ptime.c:219:5
	bl	_closelog
	sub	x8, x29, #48                    ; =48
	.loc	5 229 5                         ; ptime.c:229:5
	mov	x0, x8
	str	x8, [sp, #64]                   ; 8-byte Folded Spill
	bl	_time
	ldr	x8, [sp, #64]                   ; 8-byte Folded Reload
	.loc	5 233 37                        ; ptime.c:233:37
	mov	x0, x8
	bl	_ctime
	.loc	5 0 0 is_stmt 0                 ; ptime.c:0:0
	adrp	x8, l_.str.7@PAGE
	add	x8, x8, l_.str.7@PAGEOFF
	str	x0, [sp, #56]                   ; 8-byte Folded Spill
	.loc	5 233 5                         ; ptime.c:233:5
	mov	x0, x8
	mov	x8, sp
	ldr	x10, [sp, #56]                  ; 8-byte Folded Reload
	str	x10, [x8]
	bl	_printf
	ldr	x8, [sp, #64]                   ; 8-byte Folded Reload
	.loc	5 238 24 is_stmt 1              ; ptime.c:238:24
	mov	x0, x8
	bl	_localtime
	.loc	5 238 16 is_stmt 0              ; ptime.c:238:16
	stur	x0, [x29, #-56]
	.loc	5 240 13 is_stmt 1              ; ptime.c:240:13
	ldur	x8, [x29, #-56]
	.loc	5 240 20 is_stmt 0              ; ptime.c:240:20
	ldr	w9, [x8, #8]
	.loc	5 240 11                        ; ptime.c:240:11
	stur	w9, [x29, #-20]
	.loc	5 241 15 is_stmt 1              ; ptime.c:241:15
	ldur	x8, [x29, #-56]
	.loc	5 241 22 is_stmt 0              ; ptime.c:241:22
	ldr	w9, [x8, #4]
	.loc	5 241 13                        ; ptime.c:241:13
	stur	w9, [x29, #-24]
	.loc	5 242 15 is_stmt 1              ; ptime.c:242:15
	ldur	x8, [x29, #-56]
	.loc	5 242 22 is_stmt 0              ; ptime.c:242:22
	ldr	w9, [x8]
	.loc	5 242 13                        ; ptime.c:242:13
	stur	w9, [x29, #-28]
	.loc	5 244 11 is_stmt 1              ; ptime.c:244:11
	ldur	x8, [x29, #-56]
	.loc	5 244 18 is_stmt 0              ; ptime.c:244:18
	ldr	w9, [x8, #12]
	.loc	5 244 9                         ; ptime.c:244:9
	stur	w9, [x29, #-32]
	.loc	5 245 13 is_stmt 1              ; ptime.c:245:13
	ldur	x8, [x29, #-56]
	.loc	5 245 20 is_stmt 0              ; ptime.c:245:20
	ldr	w9, [x8, #16]
	.loc	5 245 27                        ; ptime.c:245:27
	add	w9, w9, #1                      ; =1
	.loc	5 245 11                        ; ptime.c:245:11
	stur	w9, [x29, #-36]
	.loc	5 246 12 is_stmt 1              ; ptime.c:246:12
	ldur	x8, [x29, #-56]
	.loc	5 246 19 is_stmt 0              ; ptime.c:246:19
	ldr	w9, [x8, #20]
	.loc	5 246 27                        ; ptime.c:246:27
	add	w9, w9, #1900                   ; =1900
	.loc	5 246 10                        ; ptime.c:246:10
	stur	w9, [x29, #-40]
	ldr	x0, [sp, #88]                   ; 8-byte Folded Reload
	.loc	5 260 5 is_stmt 1               ; ptime.c:260:5
	bl	_printf
	.loc	5 262 21                        ; ptime.c:262:21
	bl	_clock
	.loc	5 262 13 is_stmt 0              ; ptime.c:262:13
	stur	x0, [x29, #-64]
	.loc	5 0 0                           ; ptime.c:0:0
	adrp	x0, l_.str.8@PAGE
	add	x0, x0, l_.str.8@PAGEOFF
	.loc	5 266 5 is_stmt 1               ; ptime.c:266:5
	bl	_printf
	.loc	5 0 0 is_stmt 0                 ; ptime.c:0:0
	adrp	x8, l_.str.9@PAGE
	add	x8, x8, l_.str.9@PAGEOFF
	.loc	5 268 5 is_stmt 1               ; ptime.c:268:5
	mov	x0, x8
	bl	_printf
	sub	x8, x29, #80                    ; =80
	mov	w9, #-1
	.loc	5 269 5                         ; ptime.c:269:5
	stur	w9, [x29, #-72]
	.loc	5 0 0 is_stmt 0                 ; ptime.c:0:0
	adrp	x10, l_.str.10@PAGE
	add	x10, x10, l_.str.10@PAGEOFF
	.loc	5 270 5 is_stmt 1               ; ptime.c:270:5
	mov	x0, x10
	str	x8, [sp, #48]                   ; 8-byte Folded Spill
	str	w9, [sp, #44]                   ; 4-byte Folded Spill
	bl	_printf
	.loc	5 0 0 is_stmt 0                 ; ptime.c:0:0
	adrp	x8, _bus_handler@PAGE
	add	x8, x8, _bus_handler@PAGEOFF
	.loc	5 271 21 is_stmt 1              ; ptime.c:271:21
	stur	x8, [x29, #-80]
	.loc	5 0 0 is_stmt 0                 ; ptime.c:0:0
	adrp	x8, l_.str.11@PAGE
	add	x8, x8, l_.str.11@PAGEOFF
	.loc	5 272 5 is_stmt 1               ; ptime.c:272:5
	mov	x0, x8
	bl	_printf
	mov	w9, #66
	.loc	5 273 17                        ; ptime.c:273:17
	stur	w9, [x29, #-68]
	.loc	5 0 0 is_stmt 0                 ; ptime.c:0:0
	adrp	x8, l_.str.12@PAGE
	add	x8, x8, l_.str.12@PAGEOFF
	.loc	5 274 5 is_stmt 1               ; ptime.c:274:5
	mov	x0, x8
	bl	_printf
	mov	w9, #10
	.loc	5 275 5                         ; ptime.c:275:5
	mov	x0, x9
	ldr	x1, [sp, #48]                   ; 8-byte Folded Reload
	mov	x8, #0
	mov	x2, x8
	str	x8, [sp, #32]                   ; 8-byte Folded Spill
	bl	_sigaction
	.loc	5 0 0 is_stmt 0                 ; ptime.c:0:0
	adrp	x8, l_.str.13@PAGE
	add	x8, x8, l_.str.13@PAGEOFF
	.loc	5 276 5 is_stmt 1               ; ptime.c:276:5
	mov	x0, x8
	bl	_printf
	.loc	5 0 0 is_stmt 0                 ; ptime.c:0:0
	adrp	x8, _sev_handler@PAGE
	add	x8, x8, _sev_handler@PAGEOFF
	.loc	5 277 21 is_stmt 1              ; ptime.c:277:21
	stur	x8, [x29, #-80]
	.loc	5 0 0 is_stmt 0                 ; ptime.c:0:0
	adrp	x8, l_.str.14@PAGE
	add	x8, x8, l_.str.14@PAGEOFF
	.loc	5 278 5 is_stmt 1               ; ptime.c:278:5
	mov	x0, x8
	bl	_printf
	ldr	w9, [sp, #76]                   ; 4-byte Folded Reload
	.loc	5 279 5                         ; ptime.c:279:5
	mov	x0, x9
	ldr	x1, [sp, #48]                   ; 8-byte Folded Reload
	ldr	x2, [sp, #32]                   ; 8-byte Folded Reload
	bl	_sigaction
	.loc	5 0 0 is_stmt 0                 ; ptime.c:0:0
	adrp	x8, l_.str.15@PAGE
	add	x8, x8, l_.str.15@PAGEOFF
	.loc	5 280 5 is_stmt 1               ; ptime.c:280:5
	mov	x0, x8
	bl	_printf
	ldr	x8, [sp, #32]                   ; 8-byte Folded Reload
	.loc	5 281 21                        ; ptime.c:281:21
	mov	x0, x8
	mov	x1, #16384
	mov	w2, #7
	mov	w3, #6146
	ldr	w4, [sp, #44]                   ; 4-byte Folded Reload
	mov	x10, #0
	mov	x5, x10
	bl	_mmap
	.loc	5 281 15 is_stmt 0              ; ptime.c:281:15
	stur	x0, [x29, #-88]
	.loc	5 0 0                           ; ptime.c:0:0
	adrp	x0, l_.str.16@PAGE
	add	x0, x0, l_.str.16@PAGEOFF
	.loc	5 283 5 is_stmt 1               ; ptime.c:283:5
	bl	_printf
	mov	x8, #3689348814741910323
	.loc	5 284 5                         ; ptime.c:284:5
	mov	x0, x8
	bl	_write_sprr_perm
	.loc	5 0 0 is_stmt 0                 ; ptime.c:0:0
	adrp	x0, l_.str.17@PAGE
	add	x0, x0, l_.str.17@PAGEOFF
	.loc	5 285 5 is_stmt 1               ; ptime.c:285:5
	bl	_printf
	.loc	5 0 0 is_stmt 0                 ; ptime.c:0:0
	adrp	x8, l_.str.18@PAGE
	add	x8, x8, l_.str.18@PAGEOFF
	.loc	5 286 5 is_stmt 1               ; ptime.c:286:5
	mov	x0, x8
	bl	_printf
	.loc	5 287 5                         ; ptime.c:287:5
	ldur	x8, [x29, #-88]
	mov	w9, #960
	movk	w9, #54879, lsl #16
	.loc	5 287 12 is_stmt 0              ; ptime.c:287:12
	str	w9, [x8]
	.loc	5 0 0                           ; ptime.c:0:0
	adrp	x8, l_.str.19@PAGE
	add	x8, x8, l_.str.19@PAGEOFF
	.loc	5 288 5 is_stmt 1               ; ptime.c:288:5
	mov	x0, x8
	bl	_printf
Ltmp4:
	.loc	5 289 14                        ; ptime.c:289:14
	stur	wzr, [x29, #-92]
LBB1_1:                                 ; =>This Inner Loop Header: Depth=1
Ltmp5:
	.loc	5 289 21 is_stmt 0              ; ptime.c:289:21
	ldur	w8, [x29, #-92]
Ltmp6:
	.loc	5 289 5                         ; ptime.c:289:5
	cmp	w8, #4                          ; =4
	b.ge	LBB1_4
; %bb.2:                                ;   in Loop: Header=BB1_1 Depth=1
Ltmp7:
	.loc	5 290 19 is_stmt 1              ; ptime.c:290:19
	ldur	x0, [x29, #-88]
	.loc	5 290 38 is_stmt 0              ; ptime.c:290:38
	ldur	w8, [x29, #-92]
	.loc	5 290 24                        ; ptime.c:290:24
	and	w8, w8, #0xff
	str	x0, [sp, #24]                   ; 8-byte Folded Spill
	mov	x0, x8
	bl	_make_sprr_val
	ldr	x9, [sp, #24]                   ; 8-byte Folded Reload
	str	x0, [sp, #16]                   ; 8-byte Folded Spill
	.loc	5 290 9                         ; ptime.c:290:9
	mov	x0, x9
	ldr	x1, [sp, #16]                   ; 8-byte Folded Reload
	bl	_sprr_test
; %bb.3:                                ;   in Loop: Header=BB1_1 Depth=1
	.loc	5 289 28 is_stmt 1              ; ptime.c:289:28
	ldur	w8, [x29, #-92]
	add	w8, w8, #1                      ; =1
	stur	w8, [x29, #-92]
	.loc	5 289 5 is_stmt 0               ; ptime.c:289:5
	b	LBB1_1
Ltmp8:
LBB1_4:
	.loc	5 291 20 is_stmt 1              ; ptime.c:291:20
	bl	_clock
	.loc	5 291 13 is_stmt 0              ; ptime.c:291:13
	str	x0, [sp, #104]
	.loc	5 292 35 is_stmt 1              ; ptime.c:292:35
	ldr	x8, [sp, #104]
	.loc	5 292 42 is_stmt 0              ; ptime.c:292:42
	ldur	x9, [x29, #-64]
	.loc	5 292 40                        ; ptime.c:292:40
	subs	x8, x8, x9
	.loc	5 292 26                        ; ptime.c:292:26
	ucvtf	d0, x8
	adrp	x8, lCPI1_1@PAGE
	ldr	d1, [x8, lCPI1_1@PAGEOFF]
	.loc	5 292 49                        ; ptime.c:292:49
	fmul	d0, d0, d1
	adrp	x8, lCPI1_0@PAGE
	ldr	d1, [x8, lCPI1_0@PAGEOFF]
	.loc	5 292 58                        ; ptime.c:292:58
	fdiv	d0, d0, d1
	.loc	5 292 16                        ; ptime.c:292:16
	str	d0, [sp, #96]
	.loc	5 293 73 is_stmt 1              ; ptime.c:293:73
	ldr	d0, [sp, #96]
	.loc	5 0 0 is_stmt 0                 ; ptime.c:0:0
	adrp	x0, l_.str.20@PAGE
	add	x0, x0, l_.str.20@PAGEOFF
	.loc	5 293 5                         ; ptime.c:293:5
	mov	x8, sp
	str	d0, [x8]
	bl	_printf
	sub	x8, x29, #48                    ; =48
	.loc	5 295 105 is_stmt 1             ; ptime.c:295:105
	mov	x0, x8
	bl	_ctime
	.loc	5 0 0 is_stmt 0                 ; ptime.c:0:0
	adrp	x8, l_.str.21@PAGE
	add	x8, x8, l_.str.21@PAGEOFF
	str	x0, [sp, #8]                    ; 8-byte Folded Spill
	.loc	5 295 5                         ; ptime.c:295:5
	mov	x0, x8
	mov	x8, sp
	ldr	x9, [sp, #8]                    ; 8-byte Folded Reload
	str	x9, [x8]
	bl	_printf
	.loc	5 297 1 is_stmt 1               ; ptime.c:297:1
	ldur	w10, [x29, #-4]
	mov	x0, x10
	ldp	x29, x30, [sp, #208]            ; 16-byte Folded Reload
	add	sp, sp, #224                    ; =224
	ret
Ltmp9:
Lfunc_end1:
	.cfi_endproc
                                        ; -- End function
	.p2align	2                               ; -- Begin function bus_handler
_bus_handler:                           ; @bus_handler
Lfunc_begin2:
	.loc	5 33 0                          ; ptime.c:33:0
	.cfi_startproc
; %bb.0:
	sub	sp, sp, #32                     ; =32
	.cfi_def_cfa_offset 32
	str	w0, [sp, #28]
	str	x1, [sp, #16]
	str	x2, [sp, #8]
Ltmp11:
	.loc	5 37 22 prologue_end            ; ptime.c:37:22
	ldr	x8, [sp, #8]
	.loc	5 37 17 is_stmt 0               ; ptime.c:37:17
	str	x8, [sp]
	.loc	5 38 5 is_stmt 1                ; ptime.c:38:5
	ldr	x8, [sp]
	.loc	5 38 9 is_stmt 0                ; ptime.c:38:9
	ldr	x8, [x8, #48]
	mov	x9, #48879
	movk	x9, #57005, lsl #16
	.loc	5 38 34                         ; ptime.c:38:34
	str	x9, [x8, #16]
	.loc	5 39 5 is_stmt 1                ; ptime.c:39:5
	ldr	x8, [sp]
	.loc	5 39 9 is_stmt 0                ; ptime.c:39:9
	ldr	x8, [x8, #48]
	.loc	5 39 32                         ; ptime.c:39:32
	ldr	x9, [x8, #272]
	add	x9, x9, #4                      ; =4
	str	x9, [x8, #272]
	.loc	5 40 1 is_stmt 1                ; ptime.c:40:1
	add	sp, sp, #32                     ; =32
	ret
Ltmp12:
Lfunc_end2:
	.cfi_endproc
                                        ; -- End function
	.p2align	2                               ; -- Begin function sev_handler
_sev_handler:                           ; @sev_handler
Lfunc_begin3:
	.loc	5 23 0                          ; ptime.c:23:0
	.cfi_startproc
; %bb.0:
	sub	sp, sp, #32                     ; =32
	.cfi_def_cfa_offset 32
	str	w0, [sp, #28]
	str	x1, [sp, #16]
	str	x2, [sp, #8]
Ltmp14:
	.loc	5 27 22 prologue_end            ; ptime.c:27:22
	ldr	x8, [sp, #8]
	.loc	5 27 17 is_stmt 0               ; ptime.c:27:17
	str	x8, [sp]
	.loc	5 28 5 is_stmt 1                ; ptime.c:28:5
	ldr	x8, [sp]
	.loc	5 28 9 is_stmt 0                ; ptime.c:28:9
	ldr	x8, [x8, #48]
	mov	x9, #48879
	movk	x9, #57005, lsl #16
	.loc	5 28 34                         ; ptime.c:28:34
	str	x9, [x8, #16]
	.loc	5 29 34 is_stmt 1               ; ptime.c:29:34
	ldr	x8, [sp]
	.loc	5 29 38 is_stmt 0               ; ptime.c:29:38
	ldr	x8, [x8, #48]
	.loc	5 29 56                         ; ptime.c:29:56
	ldr	x8, [x8, #256]
	.loc	5 29 5                          ; ptime.c:29:5
	ldr	x9, [sp]
	.loc	5 29 9                          ; ptime.c:29:9
	ldr	x9, [x9, #48]
	.loc	5 29 32                         ; ptime.c:29:32
	str	x8, [x9, #272]
	.loc	5 30 1 is_stmt 1                ; ptime.c:30:1
	add	sp, sp, #32                     ; =32
	ret
Ltmp15:
Lfunc_end3:
	.cfi_endproc
                                        ; -- End function
	.section	__TEXT,__literal8,8byte_literals
	.p2align	3                               ; -- Begin function write_sprr_perm
lCPI4_0:
	.quad	0x412e848000000000              ; double 1.0E+6
lCPI4_1:
	.quad	0x408f400000000000              ; double 1000
	.section	__TEXT,__text,regular,pure_instructions
	.p2align	2
_write_sprr_perm:                       ; @write_sprr_perm
Lfunc_begin4:
	.loc	5 43 0                          ; ptime.c:43:0
	.cfi_startproc
; %bb.0:
	sub	sp, sp, #64                     ; =64
	stp	x29, x30, [sp, #48]             ; 16-byte Folded Spill
	add	x29, sp, #48                    ; =48
	.cfi_def_cfa w29, 16
	.cfi_offset w30, -8
	.cfi_offset w29, -16
	stur	x0, [x29, #-8]
Ltmp16:
	.loc	5 0 0 prologue_end              ; ptime.c:0:0
	adrp	x0, l_.str.22@PAGE
	add	x0, x0, l_.str.22@PAGEOFF
	.loc	5 44 5                          ; ptime.c:44:5
	bl	_printf
	.loc	5 45 21                         ; ptime.c:45:21
	bl	_clock
	.loc	5 45 13 is_stmt 0               ; ptime.c:45:13
	stur	x0, [x29, #-16]
	.loc	5 0 0                           ; ptime.c:0:0
	adrp	x0, l_.str.23@PAGE
	add	x0, x0, l_.str.23@PAGEOFF
	.loc	5 46 5 is_stmt 1                ; ptime.c:46:5
	bl	_printf
	.loc	5 48 43                         ; ptime.c:48:43
	ldur	x8, [x29, #-8]
	.loc	5 47 5                          ; ptime.c:47:5
	; InlineAsm Start
	msr	S3_6_C15_C1_5, x8
	isb

	; InlineAsm End
	.loc	5 0 0 is_stmt 0                 ; ptime.c:0:0
	adrp	x8, l_.str.24@PAGE
	add	x8, x8, l_.str.24@PAGEOFF
	.loc	5 50 5 is_stmt 1                ; ptime.c:50:5
	mov	x0, x8
	bl	_printf
	.loc	5 51 20                         ; ptime.c:51:20
	bl	_clock
	.loc	5 51 13 is_stmt 0               ; ptime.c:51:13
	str	x0, [sp, #24]
	.loc	5 52 35 is_stmt 1               ; ptime.c:52:35
	ldr	x8, [sp, #24]
	.loc	5 52 42 is_stmt 0               ; ptime.c:52:42
	ldur	x9, [x29, #-16]
	.loc	5 52 40                         ; ptime.c:52:40
	subs	x8, x8, x9
	.loc	5 52 26                         ; ptime.c:52:26
	ucvtf	d0, x8
	adrp	x8, lCPI4_1@PAGE
	ldr	d1, [x8, lCPI4_1@PAGEOFF]
	.loc	5 52 49                         ; ptime.c:52:49
	fmul	d0, d0, d1
	adrp	x8, lCPI4_0@PAGE
	ldr	d1, [x8, lCPI4_0@PAGEOFF]
	.loc	5 52 58                         ; ptime.c:52:58
	fdiv	d0, d0, d1
	.loc	5 52 16                         ; ptime.c:52:16
	str	d0, [sp, #16]
	.loc	5 0 0                           ; ptime.c:0:0
	adrp	x0, l_.str.25@PAGE
	add	x0, x0, l_.str.25@PAGEOFF
	.loc	5 53 9 is_stmt 1                ; ptime.c:53:9
	bl	_printf
	.loc	5 54 95                         ; ptime.c:54:95
	ldr	d0, [sp, #16]
	.loc	5 0 0 is_stmt 0                 ; ptime.c:0:0
	adrp	x8, l_.str.26@PAGE
	add	x8, x8, l_.str.26@PAGEOFF
	.loc	5 54 9                          ; ptime.c:54:9
	mov	x0, x8
	mov	x8, sp
	str	d0, [x8]
	bl	_printf
	.loc	5 55 1 is_stmt 1                ; ptime.c:55:1
	ldp	x29, x30, [sp, #48]             ; 16-byte Folded Reload
	add	sp, sp, #64                     ; =64
	ret
Ltmp17:
Lfunc_end4:
	.cfi_endproc
                                        ; -- End function
	.section	__TEXT,__literal8,8byte_literals
	.p2align	3                               ; -- Begin function sprr_test
lCPI5_0:
	.quad	0x412e848000000000              ; double 1.0E+6
lCPI5_1:
	.quad	0x408f400000000000              ; double 1000
	.section	__TEXT,__text,regular,pure_instructions
	.p2align	2
_sprr_test:                             ; @sprr_test
Lfunc_begin5:
	.loc	5 138 0                         ; ptime.c:138:0
	.cfi_startproc
; %bb.0:
	sub	sp, sp, #128                    ; =128
	stp	x29, x30, [sp, #112]            ; 16-byte Folded Spill
	add	x29, sp, #112                   ; =112
	.cfi_def_cfa w29, 16
	.cfi_offset w30, -8
	.cfi_offset w29, -16
	stur	x0, [x29, #-8]
	stur	x1, [x29, #-16]
Ltmp18:
	.loc	5 0 0 prologue_end              ; ptime.c:0:0
	adrp	x0, l_.str.27@PAGE
	add	x0, x0, l_.str.27@PAGEOFF
	.loc	5 139 5                         ; ptime.c:139:5
	bl	_printf
	.loc	5 140 21                        ; ptime.c:140:21
	bl	_clock
	.loc	5 140 13 is_stmt 0              ; ptime.c:140:13
	stur	x0, [x29, #-24]
	.loc	5 0 0                           ; ptime.c:0:0
	adrp	x0, l_.str.28@PAGE
	add	x0, x0, l_.str.28@PAGEOFF
	.loc	5 141 5 is_stmt 1               ; ptime.c:141:5
	bl	_printf
	.loc	5 0 0 is_stmt 0                 ; ptime.c:0:0
	adrp	x8, l_.str.29@PAGE
	add	x8, x8, l_.str.29@PAGEOFF
	.loc	5 143 5 is_stmt 1               ; ptime.c:143:5
	mov	x0, x8
	bl	_printf
	.loc	5 0 0 is_stmt 0                 ; ptime.c:0:0
	adrp	x8, l_.str.30@PAGE
	add	x8, x8, l_.str.30@PAGEOFF
	.loc	5 144 5 is_stmt 1               ; ptime.c:144:5
	mov	x0, x8
	bl	_printf
	.loc	5 145 9                         ; ptime.c:145:9
	bl	_read_sprr_perm
	.loc	5 145 7 is_stmt 0               ; ptime.c:145:7
	stur	x0, [x29, #-32]
	.loc	5 0 0                           ; ptime.c:0:0
	adrp	x0, l_.str.31@PAGE
	add	x0, x0, l_.str.31@PAGEOFF
	.loc	5 146 5 is_stmt 1               ; ptime.c:146:5
	bl	_printf
	.loc	5 147 21                        ; ptime.c:147:21
	ldur	x8, [x29, #-16]
	.loc	5 147 5 is_stmt 0               ; ptime.c:147:5
	mov	x0, x8
	bl	_write_sprr_perm
	.loc	5 0 0                           ; ptime.c:0:0
	adrp	x0, l_.str.32@PAGE
	add	x0, x0, l_.str.32@PAGEOFF
	.loc	5 148 5 is_stmt 1               ; ptime.c:148:5
	bl	_printf
	.loc	5 0 0 is_stmt 0                 ; ptime.c:0:0
	adrp	x8, l_.str.33@PAGE
	add	x8, x8, l_.str.33@PAGEOFF
	.loc	5 149 5 is_stmt 1               ; ptime.c:149:5
	mov	x0, x8
	bl	_printf
	.loc	5 150 9                         ; ptime.c:150:9
	bl	_read_sprr_perm
	.loc	5 150 7 is_stmt 0               ; ptime.c:150:7
	stur	x0, [x29, #-40]
	.loc	5 0 0                           ; ptime.c:0:0
	adrp	x0, l_.str.34@PAGE
	add	x0, x0, l_.str.34@PAGEOFF
	.loc	5 151 5 is_stmt 1               ; ptime.c:151:5
	bl	_printf
	.loc	5 153 45                        ; ptime.c:153:45
	ldur	x8, [x29, #-40]
	.loc	5 153 57 is_stmt 0              ; ptime.c:153:57
	ldur	x9, [x29, #-8]
	.loc	5 153 48                        ; ptime.c:153:48
	mov	x0, x9
	str	x8, [sp, #48]                   ; 8-byte Folded Spill
	bl	_can_read
	mov	w10, #45
	mov	w11, #114
	tst	w0, #0x1
	csel	w11, w11, w10, ne
	.loc	5 153 85                        ; ptime.c:153:85
	ldur	x0, [x29, #-8]
	str	w10, [sp, #44]                  ; 4-byte Folded Spill
	str	w11, [sp, #40]                  ; 4-byte Folded Spill
	.loc	5 153 75                        ; ptime.c:153:75
	bl	_can_write
	mov	w10, #119
	tst	w0, #0x1
	ldr	w11, [sp, #44]                  ; 4-byte Folded Reload
	csel	w10, w10, w11, ne
	.loc	5 154 21 is_stmt 1              ; ptime.c:154:21
	ldur	x0, [x29, #-8]
	str	w10, [sp, #36]                  ; 4-byte Folded Spill
	.loc	5 154 12 is_stmt 0              ; ptime.c:154:12
	bl	_can_exec
	mov	w10, #120
	tst	w0, #0x1
	ldr	w11, [sp, #44]                  ; 4-byte Folded Reload
	csel	w10, w10, w11, ne
	.loc	5 0 0                           ; ptime.c:0:0
	adrp	x0, l_.str.35@PAGE
	add	x0, x0, l_.str.35@PAGEOFF
	.loc	5 153 5 is_stmt 1               ; ptime.c:153:5
	mov	x8, sp
	ldr	x9, [sp, #48]                   ; 8-byte Folded Reload
	str	x9, [x8]
                                        ; implicit-def: $x1
	ldr	w12, [sp, #40]                  ; 4-byte Folded Reload
	mov	x1, x12
	str	x1, [x8, #8]
                                        ; implicit-def: $x1
	ldr	w13, [sp, #36]                  ; 4-byte Folded Reload
	mov	x1, x13
	str	x1, [x8, #16]
                                        ; implicit-def: $x1
	mov	x1, x10
	str	x1, [x8, #24]
	bl	_printf
	.loc	5 155 20                        ; ptime.c:155:20
	bl	_clock
	.loc	5 155 13 is_stmt 0              ; ptime.c:155:13
	stur	x0, [x29, #-48]
	.loc	5 156 35 is_stmt 1              ; ptime.c:156:35
	ldur	x8, [x29, #-48]
	.loc	5 156 42 is_stmt 0              ; ptime.c:156:42
	ldur	x9, [x29, #-24]
	.loc	5 156 40                        ; ptime.c:156:40
	subs	x8, x8, x9
	.loc	5 156 26                        ; ptime.c:156:26
	ucvtf	d0, x8
	adrp	x8, lCPI5_1@PAGE
	ldr	d1, [x8, lCPI5_1@PAGEOFF]
	.loc	5 156 49                        ; ptime.c:156:49
	fmul	d0, d0, d1
	adrp	x8, lCPI5_0@PAGE
	ldr	d1, [x8, lCPI5_0@PAGEOFF]
	.loc	5 156 58                        ; ptime.c:156:58
	fdiv	d0, d0, d1
	.loc	5 156 16                        ; ptime.c:156:16
	str	d0, [sp, #56]
	.loc	5 157 73 is_stmt 1              ; ptime.c:157:73
	ldr	d0, [sp, #56]
	.loc	5 0 0 is_stmt 0                 ; ptime.c:0:0
	adrp	x0, l_.str.36@PAGE
	add	x0, x0, l_.str.36@PAGEOFF
	.loc	5 157 9                         ; ptime.c:157:9
	mov	x8, sp
	str	d0, [x8]
	bl	_printf
	.loc	5 170 1 is_stmt 1               ; ptime.c:170:1
	ldp	x29, x30, [sp, #112]            ; 16-byte Folded Reload
	add	sp, sp, #128                    ; =128
	ret
Ltmp19:
Lfunc_end5:
	.cfi_endproc
                                        ; -- End function
	.section	__TEXT,__literal8,8byte_literals
	.p2align	3                               ; -- Begin function make_sprr_val
lCPI6_0:
	.quad	0x412e848000000000              ; double 1.0E+6
lCPI6_1:
	.quad	0x408f400000000000              ; double 1000
	.section	__TEXT,__text,regular,pure_instructions
	.p2align	2
_make_sprr_val:                         ; @make_sprr_val
Lfunc_begin6:
	.loc	5 173 0                         ; ptime.c:173:0
	.cfi_startproc
; %bb.0:
	sub	sp, sp, #80                     ; =80
	stp	x29, x30, [sp, #64]             ; 16-byte Folded Spill
	add	x29, sp, #64                    ; =64
	.cfi_def_cfa w29, 16
	.cfi_offset w30, -8
	.cfi_offset w29, -16
	sturb	w0, [x29, #-1]
Ltmp20:
	.loc	5 0 0 prologue_end              ; ptime.c:0:0
	adrp	x0, l_.str.61@PAGE
	add	x0, x0, l_.str.61@PAGEOFF
	.loc	5 174 5                         ; ptime.c:174:5
	bl	_printf
	.loc	5 175 21                        ; ptime.c:175:21
	bl	_clock
	.loc	5 175 13 is_stmt 0              ; ptime.c:175:13
	stur	x0, [x29, #-16]
	.loc	5 0 0                           ; ptime.c:0:0
	adrp	x0, l_.str.62@PAGE
	add	x0, x0, l_.str.62@PAGEOFF
	.loc	5 176 5 is_stmt 1               ; ptime.c:176:5
	bl	_printf
	.loc	5 177 14                        ; ptime.c:177:14
	stur	xzr, [x29, #-24]
	.loc	5 0 0 is_stmt 0                 ; ptime.c:0:0
	adrp	x8, l_.str.63@PAGE
	add	x8, x8, l_.str.63@PAGEOFF
	.loc	5 178 5 is_stmt 1               ; ptime.c:178:5
	mov	x0, x8
	bl	_printf
Ltmp21:
	.loc	5 179 14                        ; ptime.c:179:14
	stur	wzr, [x29, #-28]
LBB6_1:                                 ; =>This Inner Loop Header: Depth=1
Ltmp22:
	.loc	5 179 21 is_stmt 0              ; ptime.c:179:21
	ldur	w8, [x29, #-28]
Ltmp23:
	.loc	5 179 5                         ; ptime.c:179:5
	cmp	w8, #16                         ; =16
	b.ge	LBB6_4
; %bb.2:                                ;   in Loop: Header=BB6_1 Depth=1
Ltmp24:
	.loc	5 180 27 is_stmt 1              ; ptime.c:180:27
	ldurb	w8, [x29, #-1]
	mov	x9, x8
	.loc	5 180 43 is_stmt 0              ; ptime.c:180:43
	ldur	w8, [x29, #-28]
	mov	w10, #4
	.loc	5 180 41                        ; ptime.c:180:41
	mul	w8, w10, w8
	.loc	5 180 35                        ; ptime.c:180:35
	mov	x11, x8
	lsl	x9, x9, x11
	.loc	5 180 13                        ; ptime.c:180:13
	ldur	x11, [x29, #-24]
	orr	x9, x11, x9
	stur	x9, [x29, #-24]
; %bb.3:                                ;   in Loop: Header=BB6_1 Depth=1
	.loc	5 179 29 is_stmt 1              ; ptime.c:179:29
	ldur	w8, [x29, #-28]
	add	w8, w8, #1                      ; =1
	stur	w8, [x29, #-28]
	.loc	5 179 5 is_stmt 0               ; ptime.c:179:5
	b	LBB6_1
Ltmp25:
LBB6_4:
	.loc	5 0 0                           ; ptime.c:0:0
	adrp	x0, l_.str.64@PAGE
	add	x0, x0, l_.str.64@PAGEOFF
	.loc	5 181 5 is_stmt 1               ; ptime.c:181:5
	bl	_printf
	.loc	5 182 20                        ; ptime.c:182:20
	bl	_clock
	.loc	5 182 13 is_stmt 0              ; ptime.c:182:13
	str	x0, [sp, #24]
	.loc	5 183 35 is_stmt 1              ; ptime.c:183:35
	ldr	x8, [sp, #24]
	.loc	5 183 42 is_stmt 0              ; ptime.c:183:42
	ldur	x9, [x29, #-16]
	.loc	5 183 40                        ; ptime.c:183:40
	subs	x8, x8, x9
	.loc	5 183 26                        ; ptime.c:183:26
	ucvtf	d0, x8
	adrp	x8, lCPI6_1@PAGE
	ldr	d1, [x8, lCPI6_1@PAGEOFF]
	.loc	5 183 49                        ; ptime.c:183:49
	fmul	d0, d0, d1
	adrp	x8, lCPI6_0@PAGE
	ldr	d1, [x8, lCPI6_0@PAGEOFF]
	.loc	5 183 58                        ; ptime.c:183:58
	fdiv	d0, d0, d1
	.loc	5 183 16                        ; ptime.c:183:16
	str	d0, [sp, #16]
	.loc	5 184 76 is_stmt 1              ; ptime.c:184:76
	ldr	d0, [sp, #16]
	.loc	5 0 0 is_stmt 0                 ; ptime.c:0:0
	adrp	x0, l_.str.65@PAGE
	add	x0, x0, l_.str.65@PAGEOFF
	.loc	5 184 9                         ; ptime.c:184:9
	mov	x8, sp
	str	d0, [x8]
	bl	_printf
	.loc	5 185 12 is_stmt 1              ; ptime.c:185:12
	ldur	x8, [x29, #-24]
	.loc	5 185 5 is_stmt 0               ; ptime.c:185:5
	mov	x0, x8
	ldp	x29, x30, [sp, #64]             ; 16-byte Folded Reload
	add	sp, sp, #80                     ; =80
	ret
Ltmp26:
Lfunc_end6:
	.cfi_endproc
                                        ; -- End function
	.section	__TEXT,__literal8,8byte_literals
	.p2align	3                               ; -- Begin function read_sprr_perm
lCPI7_0:
	.quad	0x412e848000000000              ; double 1.0E+6
lCPI7_1:
	.quad	0x408f400000000000              ; double 1000
	.section	__TEXT,__text,regular,pure_instructions
	.p2align	2
_read_sprr_perm:                        ; @read_sprr_perm
Lfunc_begin7:
	.loc	5 58 0 is_stmt 1                ; ptime.c:58:0
	.cfi_startproc
; %bb.0:
	sub	sp, sp, #64                     ; =64
	stp	x29, x30, [sp, #48]             ; 16-byte Folded Spill
	add	x29, sp, #48                    ; =48
	.cfi_def_cfa w29, 16
	.cfi_offset w30, -8
	.cfi_offset w29, -16
Ltmp27:
	.loc	5 0 0 prologue_end              ; ptime.c:0:0
	adrp	x0, l_.str.37@PAGE
	add	x0, x0, l_.str.37@PAGEOFF
	.loc	5 59 5                          ; ptime.c:59:5
	bl	_printf
	.loc	5 60 21                         ; ptime.c:60:21
	bl	_clock
	.loc	5 60 13 is_stmt 0               ; ptime.c:60:13
	stur	x0, [x29, #-8]
	.loc	5 0 0                           ; ptime.c:0:0
	adrp	x0, l_.str.38@PAGE
	add	x0, x0, l_.str.38@PAGEOFF
	.loc	5 61 5 is_stmt 1                ; ptime.c:61:5
	bl	_printf
	.loc	5 0 0 is_stmt 0                 ; ptime.c:0:0
	adrp	x8, l_.str.39@PAGE
	add	x8, x8, l_.str.39@PAGEOFF
	.loc	5 63 5 is_stmt 1                ; ptime.c:63:5
	mov	x0, x8
	bl	_printf
	.loc	5 64 5                          ; ptime.c:64:5
	; InlineAsm Start
	isb
	mrs	x8, S3_6_C15_C1_5

	; InlineAsm End
	stur	x8, [x29, #-16]
	.loc	5 0 0 is_stmt 0                 ; ptime.c:0:0
	adrp	x8, l_.str.40@PAGE
	add	x8, x8, l_.str.40@PAGEOFF
	.loc	5 67 5 is_stmt 1                ; ptime.c:67:5
	mov	x0, x8
	bl	_printf
	.loc	5 0 0 is_stmt 0                 ; ptime.c:0:0
	adrp	x8, l_.str.41@PAGE
	add	x8, x8, l_.str.41@PAGEOFF
	.loc	5 68 5 is_stmt 1                ; ptime.c:68:5
	mov	x0, x8
	bl	_printf
	.loc	5 69 20                         ; ptime.c:69:20
	bl	_clock
	.loc	5 69 13 is_stmt 0               ; ptime.c:69:13
	str	x0, [sp, #24]
	.loc	5 70 35 is_stmt 1               ; ptime.c:70:35
	ldr	x8, [sp, #24]
	.loc	5 70 42 is_stmt 0               ; ptime.c:70:42
	ldur	x9, [x29, #-8]
	.loc	5 70 40                         ; ptime.c:70:40
	subs	x8, x8, x9
	.loc	5 70 26                         ; ptime.c:70:26
	ucvtf	d0, x8
	adrp	x8, lCPI7_1@PAGE
	ldr	d1, [x8, lCPI7_1@PAGEOFF]
	.loc	5 70 49                         ; ptime.c:70:49
	fmul	d0, d0, d1
	adrp	x8, lCPI7_0@PAGE
	ldr	d1, [x8, lCPI7_0@PAGEOFF]
	.loc	5 70 58                         ; ptime.c:70:58
	fdiv	d0, d0, d1
	.loc	5 70 16                         ; ptime.c:70:16
	str	d0, [sp, #16]
	.loc	5 71 89 is_stmt 1               ; ptime.c:71:89
	ldr	d0, [sp, #16]
	.loc	5 0 0 is_stmt 0                 ; ptime.c:0:0
	adrp	x0, l_.str.42@PAGE
	add	x0, x0, l_.str.42@PAGEOFF
	.loc	5 71 5                          ; ptime.c:71:5
	mov	x8, sp
	str	d0, [x8]
	bl	_printf
	.loc	5 72 12 is_stmt 1               ; ptime.c:72:12
	ldur	x8, [x29, #-16]
	.loc	5 72 5 is_stmt 0                ; ptime.c:72:5
	mov	x0, x8
	ldp	x29, x30, [sp, #48]             ; 16-byte Folded Reload
	add	sp, sp, #64                     ; =64
	ret
Ltmp28:
Lfunc_end7:
	.cfi_endproc
                                        ; -- End function
	.section	__TEXT,__literal8,8byte_literals
	.p2align	3                               ; -- Begin function can_read
lCPI8_0:
	.quad	0x412e848000000000              ; double 1.0E+6
lCPI8_1:
	.quad	0x408f400000000000              ; double 1000
	.section	__TEXT,__text,regular,pure_instructions
	.p2align	2
_can_read:                              ; @can_read
Lfunc_begin8:
	.loc	5 76 0 is_stmt 1                ; ptime.c:76:0
	.cfi_startproc
; %bb.0:
	sub	sp, sp, #80                     ; =80
	stp	x29, x30, [sp, #64]             ; 16-byte Folded Spill
	add	x29, sp, #64                    ; =64
	.cfi_def_cfa w29, 16
	.cfi_offset w30, -8
	.cfi_offset w29, -16
	stur	x0, [x29, #-16]
Ltmp29:
	.loc	5 0 0 prologue_end              ; ptime.c:0:0
	adrp	x0, l_.str.43@PAGE
	add	x0, x0, l_.str.43@PAGEOFF
	.loc	5 77 5                          ; ptime.c:77:5
	bl	_printf
	.loc	5 78 21                         ; ptime.c:78:21
	bl	_clock
	.loc	5 78 13 is_stmt 0               ; ptime.c:78:13
	stur	x0, [x29, #-24]
	.loc	5 0 0                           ; ptime.c:0:0
	adrp	x0, l_.str.44@PAGE
	add	x0, x0, l_.str.44@PAGEOFF
	.loc	5 79 5 is_stmt 1                ; ptime.c:79:5
	bl	_printf
	.loc	5 80 14                         ; ptime.c:80:14
	str	xzr, [sp, #32]
	.loc	5 0 0 is_stmt 0                 ; ptime.c:0:0
	adrp	x8, l_.str.45@PAGE
	add	x8, x8, l_.str.45@PAGEOFF
	.loc	5 81 5 is_stmt 1                ; ptime.c:81:5
	mov	x0, x8
	bl	_printf
	.loc	5 85 32                         ; ptime.c:85:32
	ldur	x8, [x29, #-16]
	.loc	5 82 5                          ; ptime.c:82:5
	; InlineAsm Start
	ldr	x0, [x8]
	mov	x8, x0

	; InlineAsm End
	str	x8, [sp, #32]
	.loc	5 0 0 is_stmt 0                 ; ptime.c:0:0
	adrp	x0, l_.str.46@PAGE
	add	x0, x0, l_.str.46@PAGEOFF
	.loc	5 87 5 is_stmt 1                ; ptime.c:87:5
	bl	_printf
	.loc	5 88 20                         ; ptime.c:88:20
	bl	_clock
	.loc	5 88 13 is_stmt 0               ; ptime.c:88:13
	str	x0, [sp, #24]
	.loc	5 89 35 is_stmt 1               ; ptime.c:89:35
	ldr	x8, [sp, #24]
	.loc	5 89 42 is_stmt 0               ; ptime.c:89:42
	ldur	x9, [x29, #-24]
	.loc	5 89 40                         ; ptime.c:89:40
	subs	x8, x8, x9
	.loc	5 89 26                         ; ptime.c:89:26
	ucvtf	d0, x8
	adrp	x8, lCPI8_1@PAGE
	ldr	d1, [x8, lCPI8_1@PAGEOFF]
	.loc	5 89 49                         ; ptime.c:89:49
	fmul	d0, d0, d1
	adrp	x8, lCPI8_0@PAGE
	ldr	d1, [x8, lCPI8_0@PAGEOFF]
	.loc	5 89 58                         ; ptime.c:89:58
	fdiv	d0, d0, d1
	.loc	5 89 16                         ; ptime.c:89:16
	str	d0, [sp, #16]
	.loc	5 0 0                           ; ptime.c:0:0
	adrp	x0, l_.str.47@PAGE
	add	x0, x0, l_.str.47@PAGEOFF
	.loc	5 90 5 is_stmt 1                ; ptime.c:90:5
	bl	_printf
	.loc	5 91 67                         ; ptime.c:91:67
	ldr	d0, [sp, #16]
	.loc	5 0 0 is_stmt 0                 ; ptime.c:0:0
	adrp	x8, l_.str.48@PAGE
	add	x8, x8, l_.str.48@PAGEOFF
	.loc	5 91 5                          ; ptime.c:91:5
	mov	x0, x8
	mov	x8, sp
	str	d0, [x8]
	bl	_printf
Ltmp30:
	.loc	5 92 9 is_stmt 1                ; ptime.c:92:9
	ldr	x8, [sp, #32]
	mov	x9, #48879
	movk	x9, #57005, lsl #16
Ltmp31:
	.loc	5 92 9 is_stmt 0                ; ptime.c:92:9
	subs	x8, x8, x9
	b.ne	LBB8_2
; %bb.1:
	.loc	5 0 9                           ; ptime.c:0:9
	mov	w8, #0
Ltmp32:
	.loc	5 93 9 is_stmt 1                ; ptime.c:93:9
	and	w8, w8, #0x1
	sturb	w8, [x29, #-1]
	b	LBB8_3
Ltmp33:
LBB8_2:
	.loc	5 0 9 is_stmt 0                 ; ptime.c:0:9
	mov	w8, #1
	.loc	5 94 5 is_stmt 1                ; ptime.c:94:5
	and	w8, w8, #0x1
	sturb	w8, [x29, #-1]
LBB8_3:
	.loc	5 95 1                          ; ptime.c:95:1
	ldurb	w8, [x29, #-1]
	and	w0, w8, #0x1
	ldp	x29, x30, [sp, #64]             ; 16-byte Folded Reload
	add	sp, sp, #80                     ; =80
	ret
Ltmp34:
Lfunc_end8:
	.cfi_endproc
                                        ; -- End function
	.section	__TEXT,__literal8,8byte_literals
	.p2align	3                               ; -- Begin function can_write
lCPI9_0:
	.quad	0x412e848000000000              ; double 1.0E+6
lCPI9_1:
	.quad	0x408f400000000000              ; double 1000
	.section	__TEXT,__text,regular,pure_instructions
	.p2align	2
_can_write:                             ; @can_write
Lfunc_begin9:
	.loc	5 98 0                          ; ptime.c:98:0
	.cfi_startproc
; %bb.0:
	sub	sp, sp, #80                     ; =80
	stp	x29, x30, [sp, #64]             ; 16-byte Folded Spill
	add	x29, sp, #64                    ; =64
	.cfi_def_cfa w29, 16
	.cfi_offset w30, -8
	.cfi_offset w29, -16
	stur	x0, [x29, #-16]
Ltmp35:
	.loc	5 0 0 prologue_end              ; ptime.c:0:0
	adrp	x0, l_.str.49@PAGE
	add	x0, x0, l_.str.49@PAGEOFF
	.loc	5 99 5                          ; ptime.c:99:5
	bl	_printf
	.loc	5 100 21                        ; ptime.c:100:21
	bl	_clock
	.loc	5 100 13 is_stmt 0              ; ptime.c:100:13
	stur	x0, [x29, #-24]
	.loc	5 0 0                           ; ptime.c:0:0
	adrp	x0, l_.str.50@PAGE
	add	x0, x0, l_.str.50@PAGEOFF
	.loc	5 101 5 is_stmt 1               ; ptime.c:101:5
	bl	_printf
	.loc	5 102 14                        ; ptime.c:102:14
	str	xzr, [sp, #32]
	.loc	5 0 0 is_stmt 0                 ; ptime.c:0:0
	adrp	x8, l_.str.51@PAGE
	add	x8, x8, l_.str.51@PAGEOFF
	.loc	5 103 5 is_stmt 1               ; ptime.c:103:5
	mov	x0, x8
	bl	_printf
	.loc	5 107 32                        ; ptime.c:107:32
	ldur	x8, [x29, #-16]
	.loc	5 107 36 is_stmt 0              ; ptime.c:107:36
	add	x8, x8, #8                      ; =8
	.loc	5 104 5 is_stmt 1               ; ptime.c:104:5
	; InlineAsm Start
	str	x0, [x8]
	mov	x8, x0

	; InlineAsm End
	str	x8, [sp, #32]
	.loc	5 0 0 is_stmt 0                 ; ptime.c:0:0
	adrp	x0, l_.str.52@PAGE
	add	x0, x0, l_.str.52@PAGEOFF
	.loc	5 109 5 is_stmt 1               ; ptime.c:109:5
	bl	_printf
	.loc	5 0 0 is_stmt 0                 ; ptime.c:0:0
	adrp	x8, l_.str.53@PAGE
	add	x8, x8, l_.str.53@PAGEOFF
	.loc	5 110 5 is_stmt 1               ; ptime.c:110:5
	mov	x0, x8
	bl	_printf
	.loc	5 111 20                        ; ptime.c:111:20
	bl	_clock
	.loc	5 111 13 is_stmt 0              ; ptime.c:111:13
	str	x0, [sp, #24]
	.loc	5 112 35 is_stmt 1              ; ptime.c:112:35
	ldr	x8, [sp, #24]
	.loc	5 112 42 is_stmt 0              ; ptime.c:112:42
	ldur	x9, [x29, #-24]
	.loc	5 112 40                        ; ptime.c:112:40
	subs	x8, x8, x9
	.loc	5 112 26                        ; ptime.c:112:26
	ucvtf	d0, x8
	adrp	x8, lCPI9_1@PAGE
	ldr	d1, [x8, lCPI9_1@PAGEOFF]
	.loc	5 112 49                        ; ptime.c:112:49
	fmul	d0, d0, d1
	adrp	x8, lCPI9_0@PAGE
	ldr	d1, [x8, lCPI9_0@PAGEOFF]
	.loc	5 112 58                        ; ptime.c:112:58
	fdiv	d0, d0, d1
	.loc	5 112 16                        ; ptime.c:112:16
	str	d0, [sp, #16]
	.loc	5 113 72 is_stmt 1              ; ptime.c:113:72
	ldr	d0, [sp, #16]
	.loc	5 0 0 is_stmt 0                 ; ptime.c:0:0
	adrp	x0, l_.str.54@PAGE
	add	x0, x0, l_.str.54@PAGEOFF
	.loc	5 113 9                         ; ptime.c:113:9
	mov	x8, sp
	str	d0, [x8]
	bl	_printf
Ltmp36:
	.loc	5 114 9 is_stmt 1               ; ptime.c:114:9
	ldr	x8, [sp, #32]
	mov	x9, #48879
	movk	x9, #57005, lsl #16
Ltmp37:
	.loc	5 114 9 is_stmt 0               ; ptime.c:114:9
	subs	x8, x8, x9
	b.ne	LBB9_2
; %bb.1:
	.loc	5 0 9                           ; ptime.c:0:9
	mov	w8, #0
Ltmp38:
	.loc	5 115 9 is_stmt 1               ; ptime.c:115:9
	and	w8, w8, #0x1
	sturb	w8, [x29, #-1]
	b	LBB9_3
Ltmp39:
LBB9_2:
	.loc	5 0 9 is_stmt 0                 ; ptime.c:0:9
	mov	w8, #1
	.loc	5 116 5 is_stmt 1               ; ptime.c:116:5
	and	w8, w8, #0x1
	sturb	w8, [x29, #-1]
LBB9_3:
	.loc	5 117 1                         ; ptime.c:117:1
	ldurb	w8, [x29, #-1]
	and	w0, w8, #0x1
	ldp	x29, x30, [sp, #64]             ; 16-byte Folded Reload
	add	sp, sp, #80                     ; =80
	ret
Ltmp40:
Lfunc_end9:
	.cfi_endproc
                                        ; -- End function
	.section	__TEXT,__literal8,8byte_literals
	.p2align	3                               ; -- Begin function can_exec
lCPI10_0:
	.quad	0x412e848000000000              ; double 1.0E+6
lCPI10_1:
	.quad	0x408f400000000000              ; double 1000
	.section	__TEXT,__text,regular,pure_instructions
	.p2align	2
_can_exec:                              ; @can_exec
Lfunc_begin10:
	.loc	5 120 0                         ; ptime.c:120:0
	.cfi_startproc
; %bb.0:
	sub	sp, sp, #80                     ; =80
	stp	x29, x30, [sp, #64]             ; 16-byte Folded Spill
	add	x29, sp, #64                    ; =64
	.cfi_def_cfa w29, 16
	.cfi_offset w30, -8
	.cfi_offset w29, -16
	stur	x0, [x29, #-16]
Ltmp41:
	.loc	5 0 0 prologue_end              ; ptime.c:0:0
	adrp	x0, l_.str.55@PAGE
	add	x0, x0, l_.str.55@PAGEOFF
	.loc	5 121 5                         ; ptime.c:121:5
	bl	_printf
	.loc	5 122 21                        ; ptime.c:122:21
	bl	_clock
	.loc	5 122 13 is_stmt 0              ; ptime.c:122:13
	stur	x0, [x29, #-24]
	.loc	5 0 0                           ; ptime.c:0:0
	adrp	x0, l_.str.56@PAGE
	add	x0, x0, l_.str.56@PAGEOFF
	.loc	5 123 5 is_stmt 1               ; ptime.c:123:5
	bl	_printf
	.loc	5 124 37                        ; ptime.c:124:37
	ldur	x8, [x29, #-16]
	.loc	5 124 16 is_stmt 0              ; ptime.c:124:16
	str	x8, [sp, #32]
	.loc	5 0 0                           ; ptime.c:0:0
	adrp	x8, l_.str.57@PAGE
	add	x8, x8, l_.str.57@PAGEOFF
	.loc	5 125 5 is_stmt 1               ; ptime.c:125:5
	mov	x0, x8
	bl	_printf
	.loc	5 126 20                        ; ptime.c:126:20
	ldr	x8, [sp, #32]
	mov	x9, #0
	mov	x0, x9
	blr	x8
	.loc	5 126 14 is_stmt 0              ; ptime.c:126:14
	str	x0, [sp, #24]
	.loc	5 0 0                           ; ptime.c:0:0
	adrp	x0, l_.str.58@PAGE
	add	x0, x0, l_.str.58@PAGEOFF
	.loc	5 127 5 is_stmt 1               ; ptime.c:127:5
	bl	_printf
	.loc	5 128 20                        ; ptime.c:128:20
	bl	_clock
	.loc	5 128 13 is_stmt 0              ; ptime.c:128:13
	str	x0, [sp, #16]
	.loc	5 129 35 is_stmt 1              ; ptime.c:129:35
	ldr	x8, [sp, #16]
	.loc	5 129 42 is_stmt 0              ; ptime.c:129:42
	ldur	x9, [x29, #-24]
	.loc	5 129 40                        ; ptime.c:129:40
	subs	x8, x8, x9
	.loc	5 129 26                        ; ptime.c:129:26
	ucvtf	d0, x8
	adrp	x8, lCPI10_1@PAGE
	ldr	d1, [x8, lCPI10_1@PAGEOFF]
	.loc	5 129 49                        ; ptime.c:129:49
	fmul	d0, d0, d1
	adrp	x8, lCPI10_0@PAGE
	ldr	d1, [x8, lCPI10_0@PAGEOFF]
	.loc	5 129 58                        ; ptime.c:129:58
	fdiv	d0, d0, d1
	.loc	5 129 16                        ; ptime.c:129:16
	str	d0, [sp, #8]
	.loc	5 0 0                           ; ptime.c:0:0
	adrp	x0, l_.str.59@PAGE
	add	x0, x0, l_.str.59@PAGEOFF
	.loc	5 130 5 is_stmt 1               ; ptime.c:130:5
	bl	_printf
	.loc	5 131 66                        ; ptime.c:131:66
	ldr	d0, [sp, #8]
	.loc	5 0 0 is_stmt 0                 ; ptime.c:0:0
	adrp	x8, l_.str.60@PAGE
	add	x8, x8, l_.str.60@PAGEOFF
	.loc	5 131 5                         ; ptime.c:131:5
	mov	x0, x8
	mov	x8, sp
	str	d0, [x8]
	bl	_printf
Ltmp42:
	.loc	5 132 9 is_stmt 1               ; ptime.c:132:9
	ldr	x8, [sp, #24]
	mov	x9, #48879
	movk	x9, #57005, lsl #16
Ltmp43:
	.loc	5 132 9 is_stmt 0               ; ptime.c:132:9
	subs	x8, x8, x9
	b.ne	LBB10_2
; %bb.1:
	.loc	5 0 9                           ; ptime.c:0:9
	mov	w8, #0
Ltmp44:
	.loc	5 133 9 is_stmt 1               ; ptime.c:133:9
	and	w8, w8, #0x1
	sturb	w8, [x29, #-1]
	b	LBB10_3
Ltmp45:
LBB10_2:
	.loc	5 0 9 is_stmt 0                 ; ptime.c:0:9
	mov	w8, #1
	.loc	5 134 5 is_stmt 1               ; ptime.c:134:5
	and	w8, w8, #0x1
	sturb	w8, [x29, #-1]
LBB10_3:
	.loc	5 135 1                         ; ptime.c:135:1
	ldurb	w8, [x29, #-1]
	and	w0, w8, #0x1
	ldp	x29, x30, [sp, #64]             ; 16-byte Folded Reload
	add	sp, sp, #80                     ; =80
	ret
Ltmp46:
Lfunc_end10:
	.cfi_endproc
                                        ; -- End function
	.section	__TEXT,__cstring,cstring_literals
l_.str:                                 ; @.str
	.asciz	"\033[0;32m---------------------------\033[0m\n"

l_.str.1:                               ; @.str.1
	.asciz	"\033[0;36mStarting M1 SPRR Permission Configuration Register (EL0) S3_6_c15_c1_5 check in main()\033[0m\n"

l_.str.2:                               ; @.str.2
	.asciz	"\033[0;97mSystem Hardware & Software\033[0m\n"

l_.str.3:                               ; @.str.3
	.asciz	"sysctl machdep.cpu.brand_string\n"

l_.str.4:                               ; @.str.4
	.asciz	"uname -a\n"

l_.str.5:                               ; @.str.5
	.asciz	"Writing to Syslogd at LOG_NOTICE of (EL0) S3_6_c15_c1_5 check\n"

l_.str.6:                               ; @.str.6
	.asciz	"Starting M1 SPRR Permission Configuration Register (EL0) S3_6_c15_c1_5 check"

l_.str.7:                               ; @.str.7
	.asciz	"\033[0;32mToday is %s\033[0m"

l_.str.8:                               ; @.str.8
	.asciz	"Now hitting main() struct sigaction\n"

l_.str.9:                               ; @.str.9
	.asciz	"Now hitting main() sigfillset(&sa.sa_mask)\n"

l_.str.10:                              ; @.str.10
	.asciz	"Now hitting main() sa.sa_sigaction = bus_handler\n"

l_.str.11:                              ; @.str.11
	.asciz	"Now hitting main() sa.sa_flags = SA_RESTART | SA_SIGINFO\n"

l_.str.12:                              ; @.str.12
	.asciz	"Now hitting main() sigaction SIGBUS, &sa, 0\n"

l_.str.13:                              ; @.str.13
	.asciz	"Now hitting main() sa.sa_sigaction = sev_handler\n"

l_.str.14:                              ; @.str.14
	.asciz	"Now hitting main() sigaction SIGSEGV, &sa\n"

l_.str.15:                              ; @.str.15
	.asciz	"Now hitting main() uint32_t *ptr = mmap(NULL, 0x4000, PROT_READ | PROT_WRITE | PROT_EXEC, MAP_PRIVATE | MAP_ANONYMOUS | MAP_JIT, -1, 0)\n\n"

l_.str.16:                              ; @.str.16
	.asciz	"Now hitting main() write_sprr_perm(0x3333333333333333)\n\n"

l_.str.17:                              ; @.str.17
	.asciz	"Just executed main() write_sprr_perm(0x3333333333333333)\n\n"

l_.str.18:                              ; @.str.18
	.asciz	"Now in main() hitting ptr[0] 0xd65f03c0 RET\n\n"

l_.str.19:                              ; @.str.19
	.asciz	"Now in main() hitting for (int i = 0; i < 4; ++i)\n\n"

l_.str.20:                              ; @.str.20
	.asciz	"\033[0;32mmain () finished... Total Elapsed Time in ms: %f\n\n\033[0m"

l_.str.21:                              ; @.str.21
	.asciz	"\033[0;36mM1 SPRR Permission Configuration Register (EL0) S3_6_c15_c1_5 check ended at %s\033[0m"

l_.str.22:                              ; @.str.22
	.asciz	"Jumped to write_sprr_perm... Step 4...\n"

l_.str.23:                              ; @.str.23
	.asciz	"Start __volatile__ write_sprr_perm\n"

l_.str.24:                              ; @.str.24
	.asciz	"End __volatile__ write_sprr_perm\n"

l_.str.25:                              ; @.str.25
	.asciz	"End write_sprr_perm\n"

l_.str.26:                              ; @.str.26
	.asciz	"Finished write_sprr_perm ... Time elapsed for write_sprr_perm in ms: %f\n\n"

l_.str.27:                              ; @.str.27
	.asciz	"Jumped to sprr_test.. Step 2...\n"

l_.str.28:                              ; @.str.28
	.asciz	"Now at sprr_test before uint64_t a, b\n"

l_.str.29:                              ; @.str.29
	.asciz	"Completed at sprr_test after uint64_t a, b\n"

l_.str.30:                              ; @.str.30
	.asciz	"Now at sprr_test before a = read_sprr_perm()\n\n"

l_.str.31:                              ; @.str.31
	.asciz	"Completed at sprr_test following a = read_sprr_perm()\n\n"

l_.str.32:                              ; @.str.32
	.asciz	"Completed at sprr_test following write_sprr_perm(v)\n\n"

l_.str.33:                              ; @.str.33
	.asciz	"Now at sprr_test before b = read_sprr_perm()\n\n"

l_.str.34:                              ; @.str.34
	.asciz	"Finished at sprr_test after b = read_sprr_perm()\n\n"

l_.str.35:                              ; @.str.35
	.asciz	"Register Value:%llx: %c%c%c\n"

l_.str.36:                              ; @.str.36
	.asciz	"Finished.... Time elapsed for sprr_test in ms: %f\n\n"

l_.str.37:                              ; @.str.37
	.asciz	"Jumped to read_sprr_perm... Step 3...\n"

l_.str.38:                              ; @.str.38
	.asciz	"Hitting read_sprr_perm at uint64_t v;\n"

l_.str.39:                              ; @.str.39
	.asciz	"Start __volatile__ read_sprr_perm\n"

l_.str.40:                              ; @.str.40
	.asciz	"End __volatile__ read_sprr_perm\n"

l_.str.41:                              ; @.str.41
	.asciz	"End read_sprr_perm\n"

l_.str.42:                              ; @.str.42
	.asciz	"Finished read_sprr_perm ... Time elapsed for read_sprr_perm in ms: %f\n\n"

l_.str.43:                              ; @.str.43
	.asciz	"Jumped to can_read... Step 5...\n"

l_.str.44:                              ; @.str.44
	.asciz	"Hitting can_read at uint64_t v = 0\n"

l_.str.45:                              ; @.str.45
	.asciz	"Start __volatile__ can_read\n"

l_.str.46:                              ; @.str.46
	.asciz	"End __volatile__ can_read\n"

l_.str.47:                              ; @.str.47
	.asciz	"Hitting 0xdeadbeef in can_read\n"

l_.str.48:                              ; @.str.48
	.asciz	"Finished... Time elapsed for can_read in ms: %f\n\n"

l_.str.49:                              ; @.str.49
	.asciz	"Jumped to can_write... Step 6...\n"

l_.str.50:                              ; @.str.50
	.asciz	"Hitting can_write at uint64_t v = 0\n"

l_.str.51:                              ; @.str.51
	.asciz	"Start __volatile__ can_write\n"

l_.str.52:                              ; @.str.52
	.asciz	"End __volatile__ can_write\n"

l_.str.53:                              ; @.str.53
	.asciz	"Hitting 0xdeadbeef in can_write\n"

l_.str.54:                              ; @.str.54
	.asciz	"Finished... Time elapsed for can_write in ms: %f\n\n"

l_.str.55:                              ; @.str.55
	.asciz	"Jumped to can_exec... Step 7...\n"

l_.str.56:                              ; @.str.56
	.asciz	"Hitting can_exec at uint64_t (*fun_ptr)(uint64_t) = ptr\n"

l_.str.57:                              ; @.str.57
	.asciz	"Hitting uint64_t res = fun_ptr(0)\n"

l_.str.58:                              ; @.str.58
	.asciz	"Executed uint64_t res = fun_ptr(0)\n"

l_.str.59:                              ; @.str.59
	.asciz	"Hitting 0xdeadbeef in can_exec\n"

l_.str.60:                              ; @.str.60
	.asciz	"Finished... Time elapsed in can_exec in ms: %f\n\n"

l_.str.61:                              ; @.str.61
	.asciz	"Jumped to make_sprr_val.. Step 1...\n"

l_.str.62:                              ; @.str.62
	.asciz	"Hitting make_sprr_val at uint64_t res = 0\n"

l_.str.63:                              ; @.str.63
	.asciz	"Hitting make_sprr_val at int i = 0; i < 16; ++i \n"

l_.str.64:                              ; @.str.64
	.asciz	"End of make_sprr_val\n"

l_.str.65:                              ; @.str.65
	.asciz	"Finished... Time elapsed for make_sprr_val in ms: %f\n\n"

	.file	6 "/Applications/Xcode.app/Contents/Developer/Platforms/MacOSX.platform/Developer/SDKs/MacOSX.sdk/usr/include/sys/_types" "_time_t.h"
	.file	7 "/Applications/Xcode.app/Contents/Developer/Platforms/MacOSX.platform/Developer/SDKs/MacOSX.sdk/usr/include" "time.h"
	.file	8 "/Applications/Xcode.app/Contents/Developer/Platforms/MacOSX.platform/Developer/SDKs/MacOSX.sdk/usr/include/sys/_types" "_clock_t.h"
	.file	9 "/Applications/Xcode.app/Contents/Developer/Platforms/MacOSX.platform/Developer/SDKs/MacOSX.sdk/usr/include/sys" "signal.h"
	.file	10 "/Applications/Xcode.app/Contents/Developer/Platforms/MacOSX.platform/Developer/SDKs/MacOSX.sdk/usr/include/sys/_types" "_pid_t.h"
	.file	11 "/Applications/Xcode.app/Contents/Developer/Platforms/MacOSX.platform/Developer/SDKs/MacOSX.sdk/usr/include/sys/_types" "_uid_t.h"
	.file	12 "/Applications/Xcode.app/Contents/Developer/Platforms/MacOSX.platform/Developer/SDKs/MacOSX.sdk/usr/include/_types" "_uint32_t.h"
	.file	13 "/Applications/Xcode.app/Contents/Developer/Platforms/MacOSX.platform/Developer/SDKs/MacOSX.sdk/usr/include/sys/_types" "_ucontext.h"
	.file	14 "/Applications/Xcode.app/Contents/Developer/Platforms/MacOSX.platform/Developer/SDKs/MacOSX.sdk/usr/include/sys/_types" "_sigaltstack.h"
	.file	15 "/Applications/Xcode.app/Contents/Developer/Platforms/MacOSX.platform/Developer/SDKs/MacOSX.sdk/usr/include/mach/arm" "_structs.h"
	.file	16 "/Applications/Xcode.app/Contents/Developer/Platforms/MacOSX.platform/Developer/SDKs/MacOSX.sdk/usr/include/arm" "_mcontext.h"
	.file	17 "/Applications/Xcode.app/Contents/Developer/Platforms/MacOSX.platform/Developer/SDKs/MacOSX.sdk/usr/include/_types" "_uint8_t.h"